ARM GAS  C:\Users\Rob\AppData\Local\Temp\ccry1Z7k.s 			page 1


   1              		.cpu cortex-m0
   2              		.fpu softvfp
   3              		.eabi_attribute 20, 1
   4              		.eabi_attribute 21, 1
   5              		.eabi_attribute 23, 3
   6              		.eabi_attribute 24, 1
   7              		.eabi_attribute 25, 1
   8              		.eabi_attribute 26, 1
   9              		.eabi_attribute 30, 2
  10              		.eabi_attribute 18, 4
  11              		.code	16
  12              		.file	"chcore_v6m.c"
  13              		.text
  14              	.Ltext0:
  15              		.cfi_sections	.debug_frame
  16              		.section	.text._port_switch_from_isr,"ax",%progbits
  17              		.align	2
  18              		.p2align 4,,15
  19              		.global	_port_switch_from_isr
  20              		.code	16
  21              		.thumb_func
  22              		.type	_port_switch_from_isr, %function
  23              	_port_switch_from_isr:
  24              	.LFB10:
  25              		.file 1 "../../os/ports/GCC/ARMCMx/chcore_v6m.c"
  26              		.loc 1 134 0
  27              		.cfi_startproc
  28              		.loc 1 137 0
  29 0000 FFF7FEFF 		bl	chSchDoReschedule
  30              		.loc 1 139 0
  31              	@ 139 "../../os/ports/GCC/ARMCMx/chcore_v6m.c" 1
  32              		_port_exit_from_isr:
  33              	@ 0 "" 2
  34              		.loc 1 144 0
  35              		.code	16
  36 0004 8022     		mov	r2, #128
  37 0006 024B     		ldr	r3, .L4
  38 0008 1206     		lsl	r2, r2, #24
  39 000a 5A60     		str	r2, [r3, #4]
  40              	.L2:
  41 000c FEE7     		b	.L2
  42              	.L5:
  43 000e C046     		.align	2
  44              	.L4:
  45 0010 00ED00E0 		.word	-536810240
  46              		.cfi_endproc
  47              	.LFE10:
  48              		.size	_port_switch_from_isr, .-_port_switch_from_isr
  49 0014 C046C046 		.section	.text.NMIVector,"ax",%progbits
  49      C046C046 
  49      C046C046 
  50              		.align	2
  51              		.p2align 4,,15
  52              		.global	NMIVector
  53              		.code	16
  54              		.thumb_func
  55              		.type	NMIVector, %function
ARM GAS  C:\Users\Rob\AppData\Local\Temp\ccry1Z7k.s 			page 2


  56              	NMIVector:
  57              	.LFB8:
  58              		.loc 1 57 0
  59              		.cfi_startproc
  60              		.loc 1 62 0
  61              	@ 62 "../../os/ports/GCC/ARMCMx/chcore_v6m.c" 1
  62 0000 EFF30983 		mrs     r3, PSP
  63              	@ 0 "" 2
  64              	.LVL0:
  65              		.loc 1 63 0
  66              		.code	16
  67 0004 2033     		add	r3, r3, #32
  68              	.LVL1:
  69              		.loc 1 64 0
  70              	@ 64 "../../os/ports/GCC/ARMCMx/chcore_v6m.c" 1
  71 0006 83F30988 		msr     PSP, r3
  72              	@ 0 "" 2
  73              		.loc 1 65 0
  74              	@ 65 "../../os/ports/GCC/ARMCMx/chcore_v6m.c" 1
  75 000a 62B6     		cpsie   i
  76              	@ 0 "" 2
  77              		.loc 1 66 0
  78              		.code	16
  79              		@ sp needed for prologue
  80 000c 7047     		bx	lr
  81              		.cfi_endproc
  82              	.LFE8:
  83              		.size	NMIVector, .-NMIVector
  84 000e C046     		.section	.text._port_irq_epilogue,"ax",%progbits
  85              		.align	2
  86              		.p2align 4,,15
  87              		.global	_port_irq_epilogue
  88              		.code	16
  89              		.thumb_func
  90              		.type	_port_irq_epilogue, %function
  91              	_port_irq_epilogue:
  92              	.LFB9:
  93              		.loc 1 95 0
  94              		.cfi_startproc
  95 0000 00B5     		push	{lr}
  96              	.LCFI0:
  97              		.cfi_def_cfa_offset 4
  98              		.cfi_offset 14, -4
  99              	.LVL2:
 100              		.loc 1 97 0
 101 0002 0F30     		add	r0, r0, #15
 102 0004 17D0     		beq	.L7
 103              	.LVL3:
 104              	.LBB2:
 105              		.loc 1 100 0
 106              	@ 100 "../../os/ports/GCC/ARMCMx/chcore_v6m.c" 1
 107 0006 72B6     		cpsid   i
 108              	@ 0 "" 2
 109              		.loc 1 103 0
 110              	@ 103 "../../os/ports/GCC/ARMCMx/chcore_v6m.c" 1
 111 0008 EFF30983 		mrs     r3, PSP
 112              	@ 0 "" 2
ARM GAS  C:\Users\Rob\AppData\Local\Temp\ccry1Z7k.s 			page 3


 113              	.LVL4:
 114              		.loc 1 104 0
 115              		.code	16
 116 000c 203B     		sub	r3, r3, #32
 117              	.LVL5:
 118              		.loc 1 105 0
 119              	@ 105 "../../os/ports/GCC/ARMCMx/chcore_v6m.c" 1
 120 000e 83F30988 		msr     PSP, r3
 121              	@ 0 "" 2
 122              		.loc 1 110 0
 123              		.code	16
 124 0012 0F48     		ldr	r0, .L14
 125              		.loc 1 106 0
 126 0014 8022     		mov	r2, #128
 127 0016 5204     		lsl	r2, r2, #17
 128              		.loc 1 110 0
 129 0018 8169     		ldr	r1, [r0, #24]
 130              		.loc 1 106 0
 131 001a DA61     		str	r2, [r3, #28]
 132              		.loc 1 110 0
 133 001c CA7F     		ldrb	r2, [r1, #31]
 134 001e 002A     		cmp	r2, #0
 135 0020 0AD1     		bne	.L12
 136              		.loc 1 110 0 is_stmt 0 discriminator 2
 137 0022 0068     		ldr	r0, [r0]
 138 0024 8968     		ldr	r1, [r1, #8]
 139 0026 8068     		ldr	r0, [r0, #8]
 140 0028 8842     		cmp	r0, r1
 141 002a 5241     		adc	r2, r2, r2
 142 002c D2B2     		uxtb	r2, r2
 143 002e 002A     		cmp	r2, #0
 144 0030 0AD1     		bne	.L13
 145              	.L11:
 146              		.loc 1 117 0 is_stmt 1
 147 0032 084A     		ldr	r2, .L14+4
 148 0034 9A61     		str	r2, [r3, #24]
 149              	.LVL6:
 150              	.L7:
 151              	.LBE2:
 152              		.loc 1 123 0
 153              		@ sp needed for prologue
 154 0036 00BD     		pop	{pc}
 155              	.LVL7:
 156              	.L12:
 157              	.LBB3:
 158              		.loc 1 110 0 discriminator 1
 159 0038 0268     		ldr	r2, [r0]
 160 003a 8968     		ldr	r1, [r1, #8]
 161 003c 9268     		ldr	r2, [r2, #8]
 162 003e 9142     		cmp	r1, r2
 163 0040 9241     		sbc	r2, r2, r2
 164 0042 5242     		neg	r2, r2
 165 0044 002A     		cmp	r2, #0
 166 0046 F4D0     		beq	.L11
 167              	.L13:
 168              		.loc 1 112 0
 169 0048 034A     		ldr	r2, .L14+8
ARM GAS  C:\Users\Rob\AppData\Local\Temp\ccry1Z7k.s 			page 4


 170 004a 9A61     		str	r2, [r3, #24]
 171 004c F3E7     		b	.L7
 172              	.L15:
 173 004e C046     		.align	2
 174              	.L14:
 175 0050 00000000 		.word	rlist
 176 0054 04000000 		.word	_port_exit_from_isr
 177 0058 00000000 		.word	_port_switch_from_isr
 178              	.LBE3:
 179              		.cfi_endproc
 180              	.LFE9:
 181              		.size	_port_irq_epilogue, .-_port_irq_epilogue
 182              		.section	.text.SysTickVector,"ax",%progbits
 183              		.align	2
 184              		.p2align 4,,15
 185              		.global	SysTickVector
 186              		.code	16
 187              		.thumb_func
 188              		.type	SysTickVector, %function
 189              	SysTickVector:
 190              	.LFB7:
 191              		.loc 1 40 0
 192              		.cfi_startproc
 193 0000 10B5     		push	{r4, lr}
 194              	.LCFI1:
 195              		.cfi_def_cfa_offset 8
 196              		.cfi_offset 4, -8
 197              		.cfi_offset 14, -4
 198              		.loc 1 42 0
 199              	@ 42 "../../os/ports/GCC/ARMCMx/chcore_v6m.c" 1
 200 0002 7446     		mov     r4, lr
 201              	@ 0 "" 2
 202              	.LVL8:
 203              		.loc 1 44 0
 204              	@ 44 "../../os/ports/GCC/ARMCMx/chcore_v6m.c" 1
 205 0004 72B6     		cpsid   i
 206              	@ 0 "" 2
 207              		.loc 1 45 0
 208              		.code	16
 209 0006 FFF7FEFF 		bl	chSysTimerHandlerI
 210              		.loc 1 46 0
 211              	@ 46 "../../os/ports/GCC/ARMCMx/chcore_v6m.c" 1
 212 000a 62B6     		cpsie   i
 213              	@ 0 "" 2
 214              		.loc 1 48 0
 215              		.code	16
 216 000c 201C     		mov	r0, r4
 217 000e FFF7FEFF 		bl	_port_irq_epilogue
 218              		.loc 1 49 0
 219              		@ sp needed for prologue
 220              	.LVL9:
 221 0012 10BD     		pop	{r4, pc}
 222              		.cfi_endproc
 223              	.LFE7:
 224              		.size	SysTickVector, .-SysTickVector
 225 0014 C046C046 		.section	.text._port_switch,"ax",%progbits
 225      C046C046 
ARM GAS  C:\Users\Rob\AppData\Local\Temp\ccry1Z7k.s 			page 5


 225      C046C046 
 226              		.align	2
 227              		.p2align 4,,15
 228              		.global	_port_switch
 229              		.code	16
 230              		.thumb_func
 231              		.type	_port_switch, %function
 232              	_port_switch:
 233              	.LFB11:
 234              		.loc 1 165 0
 235              		.cfi_startproc
 236              	.LVL10:
 237              		.loc 1 168 0
 238              	@ 168 "../../os/ports/GCC/ARMCMx/chcore_v6m.c" 1
 239 0000 F0B5     		push    {r4, r5, r6, r7, lr}                   
 240 0002 4446     		mov     r4, r8                                 
 241 0004 4D46     		mov     r5, r9                                 
 242 0006 5646     		mov     r6, r10                                
 243 0008 5F46     		mov     r7, r11                                
 244 000a F0B4     		push    {r4, r5, r6, r7}
 245              	@ 0 "" 2
 246              		.loc 1 175 0
 247              		.code	16
 248 000c 6B46     		mov	r3, sp
 249 000e CB60     		str	r3, [r1, #12]
 250              		.loc 1 176 0
 251 0010 C368     		ldr	r3, [r0, #12]
 252 0012 9D46     		mov	sp, r3
 253              	.LVL11:
 254              		.loc 1 178 0
 255              	@ 178 "../../os/ports/GCC/ARMCMx/chcore_v6m.c" 1
 256 0014 F0BC     		pop     {r4, r5, r6, r7}                       
 257 0016 A046     		mov     r8, r4                                 
 258 0018 A946     		mov     r9, r5                                 
 259 001a B246     		mov     r10, r6                                
 260 001c BB46     		mov     r11, r7                                
 261 001e F0BD     		pop     {r4, r5, r6, r7, pc}
 262              	@ 0 "" 2
 263              		.loc 1 184 0
 264              		.code	16
 265              		.cfi_endproc
 266              	.LFE11:
 267              		.size	_port_switch, .-_port_switch
 268              		.section	.text._port_thread_start,"ax",%progbits
 269              		.align	2
 270              		.p2align 4,,15
 271              		.global	_port_thread_start
 272              		.code	16
 273              		.thumb_func
 274              		.type	_port_thread_start, %function
 275              	_port_thread_start:
 276              	.LFB12:
 277              		.loc 1 191 0
 278              		.cfi_startproc
 279              		.loc 1 193 0
 280              	@ 193 "../../os/ports/GCC/ARMCMx/chcore_v6m.c" 1
 281 0000 62B6     		cpsie   i
ARM GAS  C:\Users\Rob\AppData\Local\Temp\ccry1Z7k.s 			page 6


 282              	@ 0 "" 2
 283              		.loc 1 194 0
 284              	@ 194 "../../os/ports/GCC/ARMCMx/chcore_v6m.c" 1
 285 0002 281C     		mov     r0, r5                                 
 286 0004 A047     		blx     r4                                     
 287 0006 FFF7FEFF 		bl      chThdExit
 288              	@ 0 "" 2
 289              		.loc 1 197 0
 290              		.code	16
 291              		@ sp needed for prologue
 292 000a 7047     		bx	lr
 293              		.cfi_endproc
 294              	.LFE12:
 295              		.size	_port_thread_start, .-_port_thread_start
 296 000c C046C046 		.text
 297              	.Letext0:
 298              		.file 2 "c:/yagarto/lib/gcc/../../arm-none-eabi/sys-include/stdint.h"
 299              		.file 3 "../../os/ports/GCC/ARMCMx/chtypes.h"
 300              		.file 4 "../../os/kernel/include/chlists.h"
 301              		.file 5 "../../os/kernel/include/chthreads.h"
 302              		.file 6 "../../os/ports/GCC/ARMCMx/chcore_v6m.h"
 303              		.file 7 "../../os/ports/common/ARMCMx/nvic.h"
 304              		.file 8 "../../os/kernel/include/chschd.h"
 305              		.file 9 "../../os/kernel/include/chmtx.h"