ARM GAS  C:\Users\Rob\AppData\Local\Temp\ccubDnQ5.s 			page 1


   1              		.cpu cortex-m0
   2              		.fpu softvfp
   3              		.eabi_attribute 20, 1
   4              		.eabi_attribute 21, 1
   5              		.eabi_attribute 23, 3
   6              		.eabi_attribute 24, 1
   7              		.eabi_attribute 25, 1
   8              		.eabi_attribute 26, 1
   9              		.eabi_attribute 30, 2
  10              		.eabi_attribute 18, 4
  11              		.code	16
  12              		.file	"chheap.c"
  13              		.text
  14              	.Ltext0:
  15              		.cfi_sections	.debug_frame
  16              		.section	.text._heap_init,"ax",%progbits
  17              		.align	2
  18              		.p2align 4,,15
  19              		.global	_heap_init
  20              		.code	16
  21              		.thumb_func
  22              		.type	_heap_init, %function
  23              	_heap_init:
  24              	.LFB7:
  25              		.file 1 "../../os/kernel/src/chheap.c"
  26              		.loc 1 68 0
  27              		.cfi_startproc
  28 0000 08B5     		push	{r3, lr}
  29              	.LCFI0:
  30              		.cfi_def_cfa_offset 8
  31              		.cfi_offset 3, -8
  32              		.cfi_offset 14, -4
  33              		.loc 1 69 0
  34 0002 0548     		ldr	r0, .L2
  35 0004 054B     		ldr	r3, .L2+4
  36              		.loc 1 77 0
  37              		@ sp needed for prologue
  38              		.loc 1 69 0
  39 0006 0360     		str	r3, [r0]
  40              		.loc 1 70 0
  41 0008 0023     		mov	r3, #0
  42 000a 8360     		str	r3, [r0, #8]
  43              		.loc 1 71 0
  44 000c C360     		str	r3, [r0, #12]
  45              		.loc 1 73 0
  46 000e 1030     		add	r0, r0, #16
  47 0010 FFF7FEFF 		bl	chMtxInit
  48              		.loc 1 77 0
  49 0014 08BD     		pop	{r3, pc}
  50              	.L3:
  51 0016 C046     		.align	2
  52              	.L2:
  53 0018 00000000 		.word	.LANCHOR0
  54 001c 00000000 		.word	chCoreAlloc
  55              		.cfi_endproc
  56              	.LFE7:
  57              		.size	_heap_init, .-_heap_init
ARM GAS  C:\Users\Rob\AppData\Local\Temp\ccubDnQ5.s 			page 2


  58              		.section	.text.chHeapInit,"ax",%progbits
  59              		.align	2
  60              		.p2align 4,,15
  61              		.global	chHeapInit
  62              		.code	16
  63              		.thumb_func
  64              		.type	chHeapInit, %function
  65              	chHeapInit:
  66              	.LFB8:
  67              		.loc 1 92 0
  68              		.cfi_startproc
  69 0000 08B5     		push	{r3, lr}
  70              	.LCFI1:
  71              		.cfi_def_cfa_offset 8
  72              		.cfi_offset 3, -8
  73              		.cfi_offset 14, -4
  74              	.LVL0:
  75              		.loc 1 97 0
  76 0002 0023     		mov	r3, #0
  77              		.loc 1 101 0
  78 0004 083A     		sub	r2, r2, #8
  79              	.LVL1:
  80              		.loc 1 97 0
  81 0006 0360     		str	r3, [r0]
  82              	.LVL2:
  83              		.loc 1 98 0
  84 0008 8160     		str	r1, [r0, #8]
  85              		.loc 1 99 0
  86 000a C360     		str	r3, [r0, #12]
  87              		.loc 1 100 0
  88 000c 0B60     		str	r3, [r1]
  89              		.loc 1 101 0
  90 000e 4A60     		str	r2, [r1, #4]
  91              		.loc 1 103 0
  92 0010 1030     		add	r0, r0, #16
  93              	.LVL3:
  94 0012 FFF7FEFF 		bl	chMtxInit
  95              	.LVL4:
  96              		.loc 1 107 0
  97              		@ sp needed for prologue
  98 0016 08BD     		pop	{r3, pc}
  99              		.cfi_endproc
 100              	.LFE8:
 101              		.size	chHeapInit, .-chHeapInit
 102 0018 C046C046 		.section	.text.chHeapAlloc,"ax",%progbits
 102      C046C046 
 103              		.align	2
 104              		.p2align 4,,15
 105              		.global	chHeapAlloc
 106              		.code	16
 107              		.thumb_func
 108              		.type	chHeapAlloc, %function
 109              	chHeapAlloc:
 110              	.LFB9:
 111              		.loc 1 125 0
 112              		.cfi_startproc
 113 0000 F8B5     		push	{r3, r4, r5, r6, r7, lr}
ARM GAS  C:\Users\Rob\AppData\Local\Temp\ccubDnQ5.s 			page 3


 114              	.LCFI2:
 115              		.cfi_def_cfa_offset 24
 116              		.cfi_offset 3, -24
 117              		.cfi_offset 4, -20
 118              		.cfi_offset 5, -16
 119              		.cfi_offset 6, -12
 120              		.cfi_offset 7, -8
 121              		.cfi_offset 14, -4
 122              	.LVL5:
 123              		.loc 1 128 0
 124 0002 071E     		sub	r7, r0, #0
 125 0004 34D0     		beq	.L16
 126              	.L6:
 127              	.LVL6:
 128              		.loc 1 133 0
 129 0006 381C     		mov	r0, r7
 130              		.loc 1 131 0
 131 0008 CE1D     		add	r6, r1, #7
 132 000a 0723     		mov	r3, #7
 133              		.loc 1 132 0
 134 000c 3D1C     		mov	r5, r7
 135              		.loc 1 133 0
 136 000e 1030     		add	r0, r0, #16
 137              		.loc 1 131 0
 138 0010 9E43     		bic	r6, r3
 139              	.LVL7:
 140              		.loc 1 132 0
 141 0012 0835     		add	r5, r5, #8
 142              	.LVL8:
 143              		.loc 1 133 0
 144 0014 FFF7FEFF 		bl	chMtxLock
 145              		.loc 1 135 0
 146 0018 00E0     		b	.L7
 147              	.LVL9:
 148              	.L13:
 149              		.loc 1 137 0
 150 001a 251C     		mov	r5, r4
 151              	.LVL10:
 152              	.L7:
 153              		.loc 1 135 0 discriminator 1
 154 001c 2C68     		ldr	r4, [r5]
 155 001e 002C     		cmp	r4, #0
 156 0020 17D0     		beq	.L17
 157              	.LVL11:
 158              		.loc 1 137 0
 159 0022 6368     		ldr	r3, [r4, #4]
 160 0024 9E42     		cmp	r6, r3
 161 0026 F8D8     		bhi	.L13
 162              		.loc 1 138 0
 163 0028 321C     		mov	r2, r6
 164 002a 0832     		add	r2, r2, #8
 165 002c 9342     		cmp	r3, r2
 166 002e 0DD3     		bcc	.L18
 167              		.loc 1 147 0
 168 0030 2168     		ldr	r1, [r4]
 169              		.loc 1 148 0
 170 0032 9B1B     		sub	r3, r3, r6
ARM GAS  C:\Users\Rob\AppData\Local\Temp\ccubDnQ5.s 			page 4


 171              		.loc 1 146 0
 172 0034 A218     		add	r2, r4, r2
 173              	.LVL12:
 174              		.loc 1 148 0
 175 0036 083B     		sub	r3, r3, #8
 176              		.loc 1 147 0
 177 0038 1160     		str	r1, [r2]
 178              		.loc 1 148 0
 179 003a 5360     		str	r3, [r2, #4]
 180              		.loc 1 149 0
 181 003c 2A60     		str	r2, [r5]
 182              		.loc 1 150 0
 183 003e 6660     		str	r6, [r4, #4]
 184              	.LVL13:
 185              	.L9:
 186              		.loc 1 152 0
 187 0040 2760     		str	r7, [r4]
 188              		.loc 1 154 0
 189 0042 FFF7FEFF 		bl	chMtxUnlock
 190              	.LVL14:
 191              		.loc 1 155 0
 192 0046 201C     		mov	r0, r4
 193 0048 0830     		add	r0, r0, #8
 194              	.LVL15:
 195              	.L10:
 196              		.loc 1 174 0
 197              		@ sp needed for prologue
 198              	.LVL16:
 199              	.LVL17:
 200              	.LVL18:
 201 004a F8BD     		pop	{r3, r4, r5, r6, r7, pc}
 202              	.LVL19:
 203              	.L18:
 204              		.loc 1 142 0
 205 004c 2368     		ldr	r3, [r4]
 206 004e 2B60     		str	r3, [r5]
 207 0050 F6E7     		b	.L9
 208              	.LVL20:
 209              	.L17:
 210              		.loc 1 160 0
 211 0052 FFF7FEFF 		bl	chMtxUnlock
 212              		.loc 1 164 0
 213 0056 3B68     		ldr	r3, [r7]
 214              		.loc 1 173 0
 215 0058 0020     		mov	r0, #0
 216              		.loc 1 164 0
 217 005a 002B     		cmp	r3, #0
 218 005c F5D0     		beq	.L10
 219              		.loc 1 165 0
 220 005e 301C     		mov	r0, r6
 221 0060 0830     		add	r0, r0, #8
 222 0062 9847     		blx	r3
 223              	.LVL21:
 224              		.loc 1 166 0
 225 0064 0028     		cmp	r0, #0
 226 0066 F0D0     		beq	.L10
 227              		.loc 1 167 0
ARM GAS  C:\Users\Rob\AppData\Local\Temp\ccubDnQ5.s 			page 5


 228 0068 0760     		str	r7, [r0]
 229              		.loc 1 168 0
 230 006a 4660     		str	r6, [r0, #4]
 231              	.LVL22:
 232              		.loc 1 170 0
 233 006c 0830     		add	r0, r0, #8
 234              	.LVL23:
 235 006e ECE7     		b	.L10
 236              	.LVL24:
 237              	.L16:
 238              		.loc 1 129 0
 239 0070 004F     		ldr	r7, .L19
 240 0072 C8E7     		b	.L6
 241              	.L20:
 242              		.align	2
 243              	.L19:
 244 0074 00000000 		.word	.LANCHOR0
 245              		.cfi_endproc
 246              	.LFE9:
 247              		.size	chHeapAlloc, .-chHeapAlloc
 248 0078 C046C046 		.section	.text.chHeapFree,"ax",%progbits
 248      C046C046 
 249              		.align	2
 250              		.p2align 4,,15
 251              		.global	chHeapFree
 252              		.code	16
 253              		.thumb_func
 254              		.type	chHeapFree, %function
 255              	chHeapFree:
 256              	.LFB10:
 257              		.loc 1 187 0
 258              		.cfi_startproc
 259 0000 38B5     		push	{r3, r4, r5, lr}
 260              	.LCFI3:
 261              		.cfi_def_cfa_offset 16
 262              		.cfi_offset 3, -16
 263              		.cfi_offset 4, -12
 264              		.cfi_offset 5, -8
 265              		.cfi_offset 14, -4
 266              	.LVL25:
 267              		.loc 1 193 0
 268 0002 041C     		mov	r4, r0
 269 0004 083C     		sub	r4, r4, #8
 270              	.LVL26:
 271              		.loc 1 194 0
 272 0006 2068     		ldr	r0, [r4]
 273              	.LVL27:
 274              		.loc 1 195 0
 275 0008 051C     		mov	r5, r0
 276 000a 0835     		add	r5, r5, #8
 277              	.LVL28:
 278              		.loc 1 196 0
 279 000c 1030     		add	r0, r0, #16
 280 000e FFF7FEFF 		bl	chMtxLock
 281              	.LVL29:
 282              		.loc 1 195 0
 283 0012 2B1C     		mov	r3, r5
ARM GAS  C:\Users\Rob\AppData\Local\Temp\ccubDnQ5.s 			page 6


 284              	.LVL30:
 285              	.L31:
 286              		.loc 1 203 0
 287 0014 A342     		cmp	r3, r4
 288 0016 01D3     		bcc	.L30
 289              	.L33:
 290 0018 AB42     		cmp	r3, r5
 291 001a 1CD1     		bne	.L22
 292              	.L30:
 293              		.loc 1 204 0 discriminator 1
 294 001c 1A68     		ldr	r2, [r3]
 295              		.loc 1 203 0 discriminator 1
 296 001e 002A     		cmp	r2, #0
 297 0020 07D0     		beq	.L24
 298              	.L34:
 299              		.loc 1 204 0
 300 0022 9442     		cmp	r4, r2
 301 0024 05D3     		bcc	.L24
 302 0026 131C     		mov	r3, r2
 303              	.LVL31:
 304              		.loc 1 203 0
 305 0028 A342     		cmp	r3, r4
 306 002a F5D2     		bcs	.L33
 307              		.loc 1 204 0
 308 002c 1A68     		ldr	r2, [r3]
 309              	.LVL32:
 310              		.loc 1 203 0
 311 002e 002A     		cmp	r2, #0
 312 0030 F7D1     		bne	.L34
 313              	.L24:
 314              		.loc 1 209 0
 315 0032 6168     		ldr	r1, [r4, #4]
 316              		.loc 1 206 0
 317 0034 2260     		str	r2, [r4]
 318              		.loc 1 207 0
 319 0036 1C60     		str	r4, [r3]
 320              		.loc 1 209 0
 321 0038 0A1C     		mov	r2, r1
 322 003a 0832     		add	r2, r2, #8
 323 003c 2068     		ldr	r0, [r4]
 324 003e A218     		add	r2, r4, r2
 325 0040 8242     		cmp	r2, r0
 326 0042 0AD0     		beq	.L35
 327              		.loc 1 214 0
 328 0044 5A68     		ldr	r2, [r3, #4]
 329 0046 111C     		mov	r1, r2
 330 0048 0831     		add	r1, r1, #8
 331 004a 5918     		add	r1, r3, r1
 332 004c 8C42     		cmp	r4, r1
 333 004e 10D0     		beq	.L36
 334              	.L27:
 335              		.loc 1 224 0
 336 0050 FFF7FEFF 		bl	chMtxUnlock
 337              	.LVL33:
 338              		.loc 1 226 0
 339              		@ sp needed for prologue
 340              	.LVL34:
ARM GAS  C:\Users\Rob\AppData\Local\Temp\ccubDnQ5.s 			page 7


 341              	.LVL35:
 342 0054 38BD     		pop	{r3, r4, r5, pc}
 343              	.LVL36:
 344              	.L22:
 345              		.loc 1 217 0
 346 0056 1B68     		ldr	r3, [r3]
 347              	.LVL37:
 348 0058 DCE7     		b	.L31
 349              	.LVL38:
 350              	.L35:
 351              		.loc 1 211 0
 352 005a 5068     		ldr	r0, [r2, #4]
 353              		.loc 1 212 0
 354 005c 1268     		ldr	r2, [r2]
 355              		.loc 1 211 0
 356 005e 0918     		add	r1, r1, r0
 357 0060 0831     		add	r1, r1, #8
 358 0062 6160     		str	r1, [r4, #4]
 359              		.loc 1 212 0
 360 0064 2260     		str	r2, [r4]
 361              		.loc 1 214 0
 362 0066 5A68     		ldr	r2, [r3, #4]
 363 0068 111C     		mov	r1, r2
 364 006a 0831     		add	r1, r1, #8
 365 006c 5918     		add	r1, r3, r1
 366 006e 8C42     		cmp	r4, r1
 367 0070 EED1     		bne	.L27
 368              	.L36:
 369              		.loc 1 216 0
 370 0072 6168     		ldr	r1, [r4, #4]
 371 0074 5218     		add	r2, r2, r1
 372 0076 0832     		add	r2, r2, #8
 373 0078 5A60     		str	r2, [r3, #4]
 374              		.loc 1 217 0
 375 007a 2268     		ldr	r2, [r4]
 376 007c 1A60     		str	r2, [r3]
 377 007e E7E7     		b	.L27
 378              		.cfi_endproc
 379              	.LFE10:
 380              		.size	chHeapFree, .-chHeapFree
 381              		.section	.text.chHeapStatus,"ax",%progbits
 382              		.align	2
 383              		.p2align 4,,15
 384              		.global	chHeapStatus
 385              		.code	16
 386              		.thumb_func
 387              		.type	chHeapStatus, %function
 388              	chHeapStatus:
 389              	.LFB11:
 390              		.loc 1 243 0
 391              		.cfi_startproc
 392 0000 38B5     		push	{r3, r4, r5, lr}
 393              	.LCFI4:
 394              		.cfi_def_cfa_offset 16
 395              		.cfi_offset 3, -16
 396              		.cfi_offset 4, -12
 397              		.cfi_offset 5, -8
ARM GAS  C:\Users\Rob\AppData\Local\Temp\ccubDnQ5.s 			page 8


 398              		.cfi_offset 14, -4
 399              	.LVL39:
 400              		.loc 1 243 0
 401 0002 041C     		mov	r4, r0
 402 0004 0D1C     		mov	r5, r1
 403              		.loc 1 247 0
 404 0006 0028     		cmp	r0, #0
 405 0008 15D0     		beq	.L45
 406              	.L38:
 407              	.LVL40:
 408              		.loc 1 250 0
 409 000a 201C     		mov	r0, r4
 410 000c 1030     		add	r0, r0, #16
 411 000e FFF7FEFF 		bl	chMtxLock
 412              	.LVL41:
 413              		.loc 1 253 0
 414 0012 A368     		ldr	r3, [r4, #8]
 415 0014 0022     		mov	r2, #0
 416 0016 0024     		mov	r4, #0
 417              	.LVL42:
 418 0018 002B     		cmp	r3, #0
 419 001a 05D0     		beq	.L39
 420              	.LVL43:
 421              	.L40:
 422              		.loc 1 254 0 discriminator 2
 423 001c 5968     		ldr	r1, [r3, #4]
 424              		.loc 1 253 0 discriminator 2
 425 001e 1B68     		ldr	r3, [r3]
 426              		.loc 1 254 0 discriminator 2
 427 0020 5218     		add	r2, r2, r1
 428              	.LVL44:
 429              		.loc 1 253 0 discriminator 2
 430 0022 0134     		add	r4, r4, #1
 431              	.LVL45:
 432 0024 002B     		cmp	r3, #0
 433 0026 F9D1     		bne	.L40
 434              	.LVL46:
 435              	.L39:
 436              		.loc 1 255 0
 437 0028 002D     		cmp	r5, #0
 438 002a 00D0     		beq	.L41
 439              		.loc 1 256 0
 440 002c 2A60     		str	r2, [r5]
 441              	.L41:
 442              		.loc 1 258 0
 443 002e FFF7FEFF 		bl	chMtxUnlock
 444              		.loc 1 260 0
 445              		@ sp needed for prologue
 446 0032 201C     		mov	r0, r4
 447              	.LVL47:
 448 0034 38BD     		pop	{r3, r4, r5, pc}
 449              	.LVL48:
 450              	.L45:
 451              		.loc 1 248 0
 452 0036 014C     		ldr	r4, .L46
 453 0038 E7E7     		b	.L38
 454              	.L47:
ARM GAS  C:\Users\Rob\AppData\Local\Temp\ccubDnQ5.s 			page 9


 455 003a C046     		.align	2
 456              	.L46:
 457 003c 00000000 		.word	.LANCHOR0
 458              		.cfi_endproc
 459              	.LFE11:
 460              		.size	chHeapStatus, .-chHeapStatus
 461              		.section	.bss.default_heap,"aw",%nobits
 462              		.align	3
 463              		.set	.LANCHOR0,. + 0
 464              		.type	default_heap, %object
 465              		.size	default_heap, 32
 466              	default_heap:
 467 0000 00000000 		.space	32
 467      00000000 
 467      00000000 
 467      00000000 
 467      00000000 
 468              		.text
 469              	.Letext0:
 470              		.file 2 "c:\\yagarto\\bin\\../lib/gcc/arm-none-eabi/4.6.2/include/stddef.h"
 471              		.file 3 "c:/yagarto/lib/gcc/../../arm-none-eabi/sys-include/stdint.h"
 472              		.file 4 "../../os/ports/GCC/ARMCMx/chtypes.h"
 473              		.file 5 "../../os/kernel/include/chlists.h"
 474              		.file 6 "../../os/kernel/include/chthreads.h"
 475              		.file 7 "../../os/ports/GCC/ARMCMx/chcore_v6m.h"
 476              		.file 8 "../../os/kernel/include/chmtx.h"
 477              		.file 9 "../../os/kernel/include/chmemcore.h"
 478              		.file 10 "../../os/kernel/include/chheap.h"
 479              		.section	.debug_info,"",%progbits
 480              	.Ldebug_info0:
 481 0000 51060000 		.4byte	0x651
 482 0004 0200     		.2byte	0x2
 483 0006 00000000 		.4byte	.Ldebug_abbrev0
 484 000a 04       		.byte	0x4
 485 000b 01       		.uleb128 0x1
 486 000c 74020000 		.4byte	.LASF75
 487 0010 01       		.byte	0x1
 488 0011 EF000000 		.4byte	.LASF76
 489 0015 6E000000 		.4byte	.LASF77
 490 0019 00000000 		.4byte	0
 491 001d 00000000 		.4byte	0
 492 0021 00000000 		.4byte	.Ldebug_ranges0+0
 493 0025 00000000 		.4byte	.Ldebug_line0
 494 0029 02       		.uleb128 0x2
 495 002a 04       		.byte	0x4
 496 002b 05       		.byte	0x5
 497 002c 696E7400 		.ascii	"int\000"
 498 0030 03       		.uleb128 0x3
 499 0031 06000000 		.4byte	.LASF2
 500 0035 02       		.byte	0x2
 501 0036 D4       		.byte	0xd4
 502 0037 3B000000 		.4byte	0x3b
 503 003b 04       		.uleb128 0x4
 504 003c 04       		.byte	0x4
 505 003d 07       		.byte	0x7
 506 003e 31010000 		.4byte	.LASF0
 507 0042 04       		.uleb128 0x4
ARM GAS  C:\Users\Rob\AppData\Local\Temp\ccubDnQ5.s 			page 10


 508 0043 01       		.byte	0x1
 509 0044 06       		.byte	0x6
 510 0045 AF000000 		.4byte	.LASF1
 511 0049 03       		.uleb128 0x3
 512 004a DB020000 		.4byte	.LASF3
 513 004e 03       		.byte	0x3
 514 004f 2A       		.byte	0x2a
 515 0050 54000000 		.4byte	0x54
 516 0054 04       		.uleb128 0x4
 517 0055 01       		.byte	0x1
 518 0056 08       		.byte	0x8
 519 0057 EC010000 		.4byte	.LASF4
 520 005b 04       		.uleb128 0x4
 521 005c 02       		.byte	0x2
 522 005d 05       		.byte	0x5
 523 005e 0F020000 		.4byte	.LASF5
 524 0062 04       		.uleb128 0x4
 525 0063 02       		.byte	0x2
 526 0064 07       		.byte	0x7
 527 0065 5D010000 		.4byte	.LASF6
 528 0069 03       		.uleb128 0x3
 529 006a E4010000 		.4byte	.LASF7
 530 006e 03       		.byte	0x3
 531 006f 4F       		.byte	0x4f
 532 0070 74000000 		.4byte	0x74
 533 0074 04       		.uleb128 0x4
 534 0075 04       		.byte	0x4
 535 0076 05       		.byte	0x5
 536 0077 E6000000 		.4byte	.LASF8
 537 007b 03       		.uleb128 0x3
 538 007c 6B020000 		.4byte	.LASF9
 539 0080 03       		.byte	0x3
 540 0081 50       		.byte	0x50
 541 0082 86000000 		.4byte	0x86
 542 0086 04       		.uleb128 0x4
 543 0087 04       		.byte	0x4
 544 0088 07       		.byte	0x7
 545 0089 3E010000 		.4byte	.LASF10
 546 008d 04       		.uleb128 0x4
 547 008e 08       		.byte	0x8
 548 008f 05       		.byte	0x5
 549 0090 A1000000 		.4byte	.LASF11
 550 0094 03       		.uleb128 0x3
 551 0095 14000000 		.4byte	.LASF12
 552 0099 03       		.byte	0x3
 553 009a 78       		.byte	0x78
 554 009b 9F000000 		.4byte	0x9f
 555 009f 04       		.uleb128 0x4
 556 00a0 08       		.byte	0x8
 557 00a1 07       		.byte	0x7
 558 00a2 2A000000 		.4byte	.LASF13
 559 00a6 04       		.uleb128 0x4
 560 00a7 01       		.byte	0x1
 561 00a8 02       		.byte	0x2
 562 00a9 DE010000 		.4byte	.LASF14
 563 00ad 03       		.uleb128 0x3
 564 00ae 76010000 		.4byte	.LASF15
ARM GAS  C:\Users\Rob\AppData\Local\Temp\ccubDnQ5.s 			page 11


 565 00b2 04       		.byte	0x4
 566 00b3 25       		.byte	0x25
 567 00b4 49000000 		.4byte	0x49
 568 00b8 03       		.uleb128 0x3
 569 00b9 0C010000 		.4byte	.LASF16
 570 00bd 04       		.byte	0x4
 571 00be 26       		.byte	0x26
 572 00bf 49000000 		.4byte	0x49
 573 00c3 03       		.uleb128 0x3
 574 00c4 C7010000 		.4byte	.LASF17
 575 00c8 04       		.byte	0x4
 576 00c9 27       		.byte	0x27
 577 00ca 49000000 		.4byte	0x49
 578 00ce 03       		.uleb128 0x3
 579 00cf DC000000 		.4byte	.LASF18
 580 00d3 04       		.byte	0x4
 581 00d4 28       		.byte	0x28
 582 00d5 49000000 		.4byte	0x49
 583 00d9 03       		.uleb128 0x3
 584 00da D6010000 		.4byte	.LASF19
 585 00de 04       		.byte	0x4
 586 00df 29       		.byte	0x29
 587 00e0 7B000000 		.4byte	0x7b
 588 00e4 03       		.uleb128 0x3
 589 00e5 70010000 		.4byte	.LASF20
 590 00e9 04       		.byte	0x4
 591 00ea 2A       		.byte	0x2a
 592 00eb 69000000 		.4byte	0x69
 593 00ef 03       		.uleb128 0x3
 594 00f0 8A010000 		.4byte	.LASF21
 595 00f4 04       		.byte	0x4
 596 00f5 2C       		.byte	0x2c
 597 00f6 7B000000 		.4byte	0x7b
 598 00fa 03       		.uleb128 0x3
 599 00fb A6020000 		.4byte	.LASF22
 600 00ff 04       		.byte	0x4
 601 0100 2E       		.byte	0x2e
 602 0101 7B000000 		.4byte	0x7b
 603 0105 03       		.uleb128 0x3
 604 0106 4D020000 		.4byte	.LASF23
 605 010a 05       		.byte	0x5
 606 010b 23       		.byte	0x23
 607 010c 10010000 		.4byte	0x110
 608 0110 05       		.uleb128 0x5
 609 0111 4D020000 		.4byte	.LASF23
 610 0115 48       		.byte	0x48
 611 0116 06       		.byte	0x6
 612 0117 57       		.byte	0x57
 613 0118 35020000 		.4byte	0x235
 614 011c 06       		.uleb128 0x6
 615 011d 3E020000 		.4byte	.LASF24
 616 0121 06       		.byte	0x6
 617 0122 58       		.byte	0x58
 618 0123 5A020000 		.4byte	0x25a
 619 0127 02       		.byte	0x2
 620 0128 23       		.byte	0x23
 621 0129 00       		.uleb128 0
ARM GAS  C:\Users\Rob\AppData\Local\Temp\ccubDnQ5.s 			page 12


 622 012a 06       		.uleb128 0x6
 623 012b CF010000 		.4byte	.LASF25
 624 012f 06       		.byte	0x6
 625 0130 5A       		.byte	0x5a
 626 0131 5A020000 		.4byte	0x25a
 627 0135 02       		.byte	0x2
 628 0136 23       		.byte	0x23
 629 0137 04       		.uleb128 0x4
 630 0138 06       		.uleb128 0x6
 631 0139 67000000 		.4byte	.LASF26
 632 013d 06       		.byte	0x6
 633 013e 5C       		.byte	0x5c
 634 013f D9000000 		.4byte	0xd9
 635 0143 02       		.byte	0x2
 636 0144 23       		.byte	0x23
 637 0145 08       		.uleb128 0x8
 638 0146 06       		.uleb128 0x6
 639 0147 0A030000 		.4byte	.LASF27
 640 014b 06       		.byte	0x6
 641 014c 5D       		.byte	0x5d
 642 014d 29030000 		.4byte	0x329
 643 0151 02       		.byte	0x2
 644 0152 23       		.byte	0x23
 645 0153 0C       		.uleb128 0xc
 646 0154 06       		.uleb128 0x6
 647 0155 15010000 		.4byte	.LASF28
 648 0159 06       		.byte	0x6
 649 015a 5F       		.byte	0x5f
 650 015b 5A020000 		.4byte	0x25a
 651 015f 02       		.byte	0x2
 652 0160 23       		.byte	0x23
 653 0161 10       		.uleb128 0x10
 654 0162 06       		.uleb128 0x6
 655 0163 A7010000 		.4byte	.LASF29
 656 0167 06       		.byte	0x6
 657 0168 60       		.byte	0x60
 658 0169 5A020000 		.4byte	0x25a
 659 016d 02       		.byte	0x2
 660 016e 23       		.byte	0x23
 661 016f 14       		.uleb128 0x14
 662 0170 06       		.uleb128 0x6
 663 0171 F0020000 		.4byte	.LASF30
 664 0175 06       		.byte	0x6
 665 0176 67       		.byte	0x67
 666 0177 9E040000 		.4byte	0x49e
 667 017b 02       		.byte	0x2
 668 017c 23       		.byte	0x23
 669 017d 18       		.uleb128 0x18
 670 017e 06       		.uleb128 0x6
 671 017f 19020000 		.4byte	.LASF31
 672 0183 06       		.byte	0x6
 673 0184 72       		.byte	0x72
 674 0185 B8000000 		.4byte	0xb8
 675 0189 02       		.byte	0x2
 676 018a 23       		.byte	0x23
 677 018b 1C       		.uleb128 0x1c
 678 018c 06       		.uleb128 0x6
ARM GAS  C:\Users\Rob\AppData\Local\Temp\ccubDnQ5.s 			page 13


 679 018d 45020000 		.4byte	.LASF32
 680 0191 06       		.byte	0x6
 681 0192 76       		.byte	0x76
 682 0193 AD000000 		.4byte	0xad
 683 0197 02       		.byte	0x2
 684 0198 23       		.byte	0x23
 685 0199 1D       		.uleb128 0x1d
 686 019a 06       		.uleb128 0x6
 687 019b D4020000 		.4byte	.LASF33
 688 019f 06       		.byte	0x6
 689 01a0 7B       		.byte	0x7b
 690 01a1 C3000000 		.4byte	0xc3
 691 01a5 02       		.byte	0x2
 692 01a6 23       		.byte	0x23
 693 01a7 1E       		.uleb128 0x1e
 694 01a8 06       		.uleb128 0x6
 695 01a9 21020000 		.4byte	.LASF34
 696 01ad 06       		.byte	0x6
 697 01ae 81       		.byte	0x81
 698 01af CE000000 		.4byte	0xce
 699 01b3 02       		.byte	0x2
 700 01b4 23       		.byte	0x23
 701 01b5 1F       		.uleb128 0x1f
 702 01b6 06       		.uleb128 0x6
 703 01b7 BB020000 		.4byte	.LASF35
 704 01bb 06       		.byte	0x6
 705 01bc 88       		.byte	0x88
 706 01bd 4A030000 		.4byte	0x34a
 707 01c1 02       		.byte	0x2
 708 01c2 23       		.byte	0x23
 709 01c3 20       		.uleb128 0x20
 710 01c4 07       		.uleb128 0x7
 711 01c5 705F7500 		.ascii	"p_u\000"
 712 01c9 06       		.byte	0x6
 713 01ca AD       		.byte	0xad
 714 01cb 69040000 		.4byte	0x469
 715 01cf 02       		.byte	0x2
 716 01d0 23       		.byte	0x23
 717 01d1 24       		.uleb128 0x24
 718 01d2 06       		.uleb128 0x6
 719 01d3 10030000 		.4byte	.LASF36
 720 01d7 06       		.byte	0x6
 721 01d8 B2       		.byte	0xb2
 722 01d9 82020000 		.4byte	0x282
 723 01dd 02       		.byte	0x2
 724 01de 23       		.byte	0x23
 725 01df 28       		.uleb128 0x28
 726 01e0 06       		.uleb128 0x6
 727 01e1 C9020000 		.4byte	.LASF37
 728 01e5 06       		.byte	0x6
 729 01e6 B8       		.byte	0xb8
 730 01e7 60020000 		.4byte	0x260
 731 01eb 02       		.byte	0x2
 732 01ec 23       		.byte	0x23
 733 01ed 2C       		.uleb128 0x2c
 734 01ee 06       		.uleb128 0x6
 735 01ef 00000000 		.4byte	.LASF38
ARM GAS  C:\Users\Rob\AppData\Local\Temp\ccubDnQ5.s 			page 14


 736 01f3 06       		.byte	0x6
 737 01f4 BC       		.byte	0xbc
 738 01f5 E4000000 		.4byte	0xe4
 739 01f9 02       		.byte	0x2
 740 01fa 23       		.byte	0x23
 741 01fb 34       		.uleb128 0x34
 742 01fc 06       		.uleb128 0x6
 743 01fd 60020000 		.4byte	.LASF39
 744 0201 06       		.byte	0x6
 745 0202 C2       		.byte	0xc2
 746 0203 EF000000 		.4byte	0xef
 747 0207 02       		.byte	0x2
 748 0208 23       		.byte	0x23
 749 0209 38       		.uleb128 0x38
 750 020a 06       		.uleb128 0x6
 751 020b 05020000 		.4byte	.LASF40
 752 020f 06       		.byte	0x6
 753 0210 C9       		.byte	0xc9
 754 0211 B0040000 		.4byte	0x4b0
 755 0215 02       		.byte	0x2
 756 0216 23       		.byte	0x23
 757 0217 3C       		.uleb128 0x3c
 758 0218 06       		.uleb128 0x6
 759 0219 B0020000 		.4byte	.LASF41
 760 021d 06       		.byte	0x6
 761 021e CD       		.byte	0xcd
 762 021f D9000000 		.4byte	0xd9
 763 0223 02       		.byte	0x2
 764 0224 23       		.byte	0x23
 765 0225 40       		.uleb128 0x40
 766 0226 06       		.uleb128 0x6
 767 0227 C1000000 		.4byte	.LASF42
 768 022b 06       		.byte	0x6
 769 022c D3       		.byte	0xd3
 770 022d 98020000 		.4byte	0x298
 771 0231 02       		.byte	0x2
 772 0232 23       		.byte	0x23
 773 0233 44       		.uleb128 0x44
 774 0234 00       		.byte	0
 775 0235 08       		.uleb128 0x8
 776 0236 08       		.byte	0x8
 777 0237 05       		.byte	0x5
 778 0238 5A       		.byte	0x5a
 779 0239 5A020000 		.4byte	0x25a
 780 023d 06       		.uleb128 0x6
 781 023e 3E020000 		.4byte	.LASF24
 782 0242 05       		.byte	0x5
 783 0243 5B       		.byte	0x5b
 784 0244 5A020000 		.4byte	0x25a
 785 0248 02       		.byte	0x2
 786 0249 23       		.byte	0x23
 787 024a 00       		.uleb128 0
 788 024b 06       		.uleb128 0x6
 789 024c CF010000 		.4byte	.LASF25
 790 0250 05       		.byte	0x5
 791 0251 5D       		.byte	0x5d
 792 0252 5A020000 		.4byte	0x25a
ARM GAS  C:\Users\Rob\AppData\Local\Temp\ccubDnQ5.s 			page 15


 793 0256 02       		.byte	0x2
 794 0257 23       		.byte	0x23
 795 0258 04       		.uleb128 0x4
 796 0259 00       		.byte	0
 797 025a 09       		.uleb128 0x9
 798 025b 04       		.byte	0x4
 799 025c 05010000 		.4byte	0x105
 800 0260 03       		.uleb128 0x3
 801 0261 AF010000 		.4byte	.LASF43
 802 0265 05       		.byte	0x5
 803 0266 5F       		.byte	0x5f
 804 0267 35020000 		.4byte	0x235
 805 026b 08       		.uleb128 0x8
 806 026c 04       		.byte	0x4
 807 026d 05       		.byte	0x5
 808 026e 64       		.byte	0x64
 809 026f 82020000 		.4byte	0x282
 810 0273 06       		.uleb128 0x6
 811 0274 3E020000 		.4byte	.LASF24
 812 0278 05       		.byte	0x5
 813 0279 66       		.byte	0x66
 814 027a 5A020000 		.4byte	0x25a
 815 027e 02       		.byte	0x2
 816 027f 23       		.byte	0x23
 817 0280 00       		.uleb128 0
 818 0281 00       		.byte	0
 819 0282 03       		.uleb128 0x3
 820 0283 7E010000 		.4byte	.LASF44
 821 0287 05       		.byte	0x5
 822 0288 69       		.byte	0x69
 823 0289 6B020000 		.4byte	0x26b
 824 028d 03       		.uleb128 0x3
 825 028e 1D010000 		.4byte	.LASF45
 826 0292 07       		.byte	0x7
 827 0293 A0       		.byte	0xa0
 828 0294 98020000 		.4byte	0x298
 829 0298 0A       		.uleb128 0xa
 830 0299 04       		.byte	0x4
 831 029a 03       		.uleb128 0x3
 832 029b 9C010000 		.4byte	.LASF46
 833 029f 07       		.byte	0x7
 834 02a0 A6       		.byte	0xa6
 835 02a1 94000000 		.4byte	0x94
 836 02a5 05       		.uleb128 0x5
 837 02a6 C2020000 		.4byte	.LASF47
 838 02aa 24       		.byte	0x24
 839 02ab 07       		.byte	0x7
 840 02ac B3       		.byte	0xb3
 841 02ad 29030000 		.4byte	0x329
 842 02b1 07       		.uleb128 0x7
 843 02b2 723800   		.ascii	"r8\000"
 844 02b5 07       		.byte	0x7
 845 02b6 B4       		.byte	0xb4
 846 02b7 8D020000 		.4byte	0x28d
 847 02bb 02       		.byte	0x2
 848 02bc 23       		.byte	0x23
 849 02bd 00       		.uleb128 0
ARM GAS  C:\Users\Rob\AppData\Local\Temp\ccubDnQ5.s 			page 16


 850 02be 07       		.uleb128 0x7
 851 02bf 723900   		.ascii	"r9\000"
 852 02c2 07       		.byte	0x7
 853 02c3 B5       		.byte	0xb5
 854 02c4 8D020000 		.4byte	0x28d
 855 02c8 02       		.byte	0x2
 856 02c9 23       		.byte	0x23
 857 02ca 04       		.uleb128 0x4
 858 02cb 07       		.uleb128 0x7
 859 02cc 72313000 		.ascii	"r10\000"
 860 02d0 07       		.byte	0x7
 861 02d1 B6       		.byte	0xb6
 862 02d2 8D020000 		.4byte	0x28d
 863 02d6 02       		.byte	0x2
 864 02d7 23       		.byte	0x23
 865 02d8 08       		.uleb128 0x8
 866 02d9 07       		.uleb128 0x7
 867 02da 72313100 		.ascii	"r11\000"
 868 02de 07       		.byte	0x7
 869 02df B7       		.byte	0xb7
 870 02e0 8D020000 		.4byte	0x28d
 871 02e4 02       		.byte	0x2
 872 02e5 23       		.byte	0x23
 873 02e6 0C       		.uleb128 0xc
 874 02e7 07       		.uleb128 0x7
 875 02e8 723400   		.ascii	"r4\000"
 876 02eb 07       		.byte	0x7
 877 02ec B8       		.byte	0xb8
 878 02ed 8D020000 		.4byte	0x28d
 879 02f1 02       		.byte	0x2
 880 02f2 23       		.byte	0x23
 881 02f3 10       		.uleb128 0x10
 882 02f4 07       		.uleb128 0x7
 883 02f5 723500   		.ascii	"r5\000"
 884 02f8 07       		.byte	0x7
 885 02f9 B9       		.byte	0xb9
 886 02fa 8D020000 		.4byte	0x28d
 887 02fe 02       		.byte	0x2
 888 02ff 23       		.byte	0x23
 889 0300 14       		.uleb128 0x14
 890 0301 07       		.uleb128 0x7
 891 0302 723600   		.ascii	"r6\000"
 892 0305 07       		.byte	0x7
 893 0306 BA       		.byte	0xba
 894 0307 8D020000 		.4byte	0x28d
 895 030b 02       		.byte	0x2
 896 030c 23       		.byte	0x23
 897 030d 18       		.uleb128 0x18
 898 030e 07       		.uleb128 0x7
 899 030f 723700   		.ascii	"r7\000"
 900 0312 07       		.byte	0x7
 901 0313 BB       		.byte	0xbb
 902 0314 8D020000 		.4byte	0x28d
 903 0318 02       		.byte	0x2
 904 0319 23       		.byte	0x23
 905 031a 1C       		.uleb128 0x1c
 906 031b 07       		.uleb128 0x7
ARM GAS  C:\Users\Rob\AppData\Local\Temp\ccubDnQ5.s 			page 17


 907 031c 6C7200   		.ascii	"lr\000"
 908 031f 07       		.byte	0x7
 909 0320 BC       		.byte	0xbc
 910 0321 8D020000 		.4byte	0x28d
 911 0325 02       		.byte	0x2
 912 0326 23       		.byte	0x23
 913 0327 20       		.uleb128 0x20
 914 0328 00       		.byte	0
 915 0329 05       		.uleb128 0x5
 916 032a 50010000 		.4byte	.LASF48
 917 032e 04       		.byte	0x4
 918 032f 07       		.byte	0x7
 919 0330 C6       		.byte	0xc6
 920 0331 44030000 		.4byte	0x344
 921 0335 07       		.uleb128 0x7
 922 0336 72313300 		.ascii	"r13\000"
 923 033a 07       		.byte	0x7
 924 033b C7       		.byte	0xc7
 925 033c 44030000 		.4byte	0x344
 926 0340 02       		.byte	0x2
 927 0341 23       		.byte	0x23
 928 0342 00       		.uleb128 0
 929 0343 00       		.byte	0
 930 0344 09       		.uleb128 0x9
 931 0345 04       		.byte	0x4
 932 0346 A5020000 		.4byte	0x2a5
 933 034a 0B       		.uleb128 0xb
 934 034b FA000000 		.4byte	0xfa
 935 034f 05       		.uleb128 0x5
 936 0350 96010000 		.4byte	.LASF49
 937 0354 10       		.byte	0x10
 938 0355 08       		.byte	0x8
 939 0356 25       		.byte	0x25
 940 0357 86030000 		.4byte	0x386
 941 035b 06       		.uleb128 0x6
 942 035c C9000000 		.4byte	.LASF50
 943 0360 08       		.byte	0x8
 944 0361 26       		.byte	0x26
 945 0362 60020000 		.4byte	0x260
 946 0366 02       		.byte	0x2
 947 0367 23       		.byte	0x23
 948 0368 00       		.uleb128 0
 949 0369 06       		.uleb128 0x6
 950 036a 02030000 		.4byte	.LASF51
 951 036e 08       		.byte	0x8
 952 036f 28       		.byte	0x28
 953 0370 5A020000 		.4byte	0x25a
 954 0374 02       		.byte	0x2
 955 0375 23       		.byte	0x23
 956 0376 08       		.uleb128 0x8
 957 0377 06       		.uleb128 0x6
 958 0378 9F020000 		.4byte	.LASF52
 959 037c 08       		.byte	0x8
 960 037d 2A       		.byte	0x2a
 961 037e 86030000 		.4byte	0x386
 962 0382 02       		.byte	0x2
 963 0383 23       		.byte	0x23
ARM GAS  C:\Users\Rob\AppData\Local\Temp\ccubDnQ5.s 			page 18


 964 0384 0C       		.uleb128 0xc
 965 0385 00       		.byte	0
 966 0386 09       		.uleb128 0x9
 967 0387 04       		.byte	0x4
 968 0388 4F030000 		.4byte	0x34f
 969 038c 03       		.uleb128 0x3
 970 038d 96010000 		.4byte	.LASF49
 971 0391 08       		.byte	0x8
 972 0392 2C       		.byte	0x2c
 973 0393 4F030000 		.4byte	0x34f
 974 0397 03       		.uleb128 0x3
 975 0398 1D000000 		.4byte	.LASF53
 976 039c 09       		.byte	0x9
 977 039d 25       		.byte	0x25
 978 039e A2030000 		.4byte	0x3a2
 979 03a2 09       		.uleb128 0x9
 980 03a3 04       		.byte	0x4
 981 03a4 A8030000 		.4byte	0x3a8
 982 03a8 0C       		.uleb128 0xc
 983 03a9 01       		.byte	0x1
 984 03aa 98020000 		.4byte	0x298
 985 03ae B8030000 		.4byte	0x3b8
 986 03b2 0D       		.uleb128 0xd
 987 03b3 30000000 		.4byte	0x30
 988 03b7 00       		.byte	0
 989 03b8 03       		.uleb128 0x3
 990 03b9 BC010000 		.4byte	.LASF54
 991 03bd 0A       		.byte	0xa
 992 03be 2D       		.byte	0x2d
 993 03bf C3030000 		.4byte	0x3c3
 994 03c3 05       		.uleb128 0x5
 995 03c4 1A030000 		.4byte	.LASF55
 996 03c8 20       		.byte	0x20
 997 03c9 0A       		.byte	0xa
 998 03ca 40       		.byte	0x40
 999 03cb FA030000 		.4byte	0x3fa
 1000 03cf 06       		.uleb128 0x6
 1001 03d0 FA010000 		.4byte	.LASF56
 1002 03d4 0A       		.byte	0xa
 1003 03d5 41       		.byte	0x41
 1004 03d6 97030000 		.4byte	0x397
 1005 03da 02       		.byte	0x2
 1006 03db 23       		.byte	0x23
 1007 03dc 00       		.uleb128 0
 1008 03dd 06       		.uleb128 0x6
 1009 03de 4A000000 		.4byte	.LASF57
 1010 03e2 0A       		.byte	0xa
 1011 03e3 43       		.byte	0x43
 1012 03e4 19040000 		.4byte	0x419
 1013 03e8 02       		.byte	0x2
 1014 03e9 23       		.byte	0x23
 1015 03ea 08       		.uleb128 0x8
 1016 03eb 06       		.uleb128 0x6
 1017 03ec BB000000 		.4byte	.LASF58
 1018 03f0 0A       		.byte	0xa
 1019 03f1 45       		.byte	0x45
 1020 03f2 8C030000 		.4byte	0x38c
ARM GAS  C:\Users\Rob\AppData\Local\Temp\ccubDnQ5.s 			page 19


 1021 03f6 02       		.byte	0x2
 1022 03f7 23       		.byte	0x23
 1023 03f8 10       		.uleb128 0x10
 1024 03f9 00       		.byte	0
 1025 03fa 0E       		.uleb128 0xe
 1026 03fb 04       		.byte	0x4
 1027 03fc 0A       		.byte	0xa
 1028 03fd 35       		.byte	0x35
 1029 03fe 19040000 		.4byte	0x419
 1030 0402 0F       		.uleb128 0xf
 1031 0403 62000000 		.4byte	.LASF59
 1032 0407 0A       		.byte	0xa
 1033 0408 36       		.byte	0x36
 1034 0409 3A040000 		.4byte	0x43a
 1035 040d 0F       		.uleb128 0xf
 1036 040e 26010000 		.4byte	.LASF60
 1037 0412 0A       		.byte	0xa
 1038 0413 37       		.byte	0x37
 1039 0414 40040000 		.4byte	0x440
 1040 0418 00       		.byte	0
 1041 0419 10       		.uleb128 0x10
 1042 041a 2B020000 		.4byte	.LASF78
 1043 041e 08       		.byte	0x8
 1044 041f 0A       		.byte	0xa
 1045 0420 32       		.byte	0x32
 1046 0421 3A040000 		.4byte	0x43a
 1047 0425 0F       		.uleb128 0xf
 1048 0426 2B010000 		.4byte	.LASF61
 1049 042a 0A       		.byte	0xa
 1050 042b 33       		.byte	0x33
 1051 042c 9A020000 		.4byte	0x29a
 1052 0430 11       		.uleb128 0x11
 1053 0431 6800     		.ascii	"h\000"
 1054 0433 0A       		.byte	0xa
 1055 0434 3A       		.byte	0x3a
 1056 0435 46040000 		.4byte	0x446
 1057 0439 00       		.byte	0
 1058 043a 09       		.uleb128 0x9
 1059 043b 04       		.byte	0x4
 1060 043c 19040000 		.4byte	0x419
 1061 0440 09       		.uleb128 0x9
 1062 0441 04       		.byte	0x4
 1063 0442 B8030000 		.4byte	0x3b8
 1064 0446 08       		.uleb128 0x8
 1065 0447 08       		.byte	0x8
 1066 0448 0A       		.byte	0xa
 1067 0449 34       		.byte	0x34
 1068 044a 69040000 		.4byte	0x469
 1069 044e 07       		.uleb128 0x7
 1070 044f 7500     		.ascii	"u\000"
 1071 0451 0A       		.byte	0xa
 1072 0452 38       		.byte	0x38
 1073 0453 FA030000 		.4byte	0x3fa
 1074 0457 02       		.byte	0x2
 1075 0458 23       		.byte	0x23
 1076 0459 00       		.uleb128 0
 1077 045a 06       		.uleb128 0x6
ARM GAS  C:\Users\Rob\AppData\Local\Temp\ccubDnQ5.s 			page 20


 1078 045b 58010000 		.4byte	.LASF62
 1079 045f 0A       		.byte	0xa
 1080 0460 39       		.byte	0x39
 1081 0461 30000000 		.4byte	0x30
 1082 0465 02       		.byte	0x2
 1083 0466 23       		.byte	0x23
 1084 0467 04       		.uleb128 0x4
 1085 0468 00       		.byte	0
 1086 0469 0E       		.uleb128 0xe
 1087 046a 04       		.byte	0x4
 1088 046b 06       		.byte	0x6
 1089 046c 8F       		.byte	0x8f
 1090 046d 9E040000 		.4byte	0x49e
 1091 0471 0F       		.uleb128 0xf
 1092 0472 0D000000 		.4byte	.LASF63
 1093 0476 06       		.byte	0x6
 1094 0477 96       		.byte	0x96
 1095 0478 E4000000 		.4byte	0xe4
 1096 047c 0F       		.uleb128 0xf
 1097 047d 41000000 		.4byte	.LASF64
 1098 0481 06       		.byte	0x6
 1099 0482 9D       		.byte	0x9d
 1100 0483 E4000000 		.4byte	0xe4
 1101 0487 0F       		.uleb128 0xf
 1102 0488 E3020000 		.4byte	.LASF65
 1103 048c 06       		.byte	0x6
 1104 048d A4       		.byte	0xa4
 1105 048e 98020000 		.4byte	0x298
 1106 0492 0F       		.uleb128 0xf
 1107 0493 37020000 		.4byte	.LASF66
 1108 0497 06       		.byte	0x6
 1109 0498 AB       		.byte	0xab
 1110 0499 EF000000 		.4byte	0xef
 1111 049d 00       		.byte	0
 1112 049e 09       		.uleb128 0x9
 1113 049f 04       		.byte	0x4
 1114 04a0 A4040000 		.4byte	0x4a4
 1115 04a4 12       		.uleb128 0x12
 1116 04a5 A9040000 		.4byte	0x4a9
 1117 04a9 04       		.uleb128 0x4
 1118 04aa 01       		.byte	0x1
 1119 04ab 08       		.byte	0x8
 1120 04ac 8D020000 		.4byte	.LASF67
 1121 04b0 09       		.uleb128 0x9
 1122 04b1 04       		.byte	0x4
 1123 04b2 8C030000 		.4byte	0x38c
 1124 04b6 13       		.uleb128 0x13
 1125 04b7 01       		.byte	0x1
 1126 04b8 F7020000 		.4byte	.LASF79
 1127 04bc 01       		.byte	0x1
 1128 04bd 44       		.byte	0x44
 1129 04be 01       		.byte	0x1
 1130 04bf 00000000 		.4byte	.LFB7
 1131 04c3 20000000 		.4byte	.LFE7
 1132 04c7 00000000 		.4byte	.LLST0
 1133 04cb 14       		.uleb128 0x14
 1134 04cc 01       		.byte	0x1
ARM GAS  C:\Users\Rob\AppData\Local\Temp\ccubDnQ5.s 			page 21


 1135 04cd 57000000 		.4byte	.LASF69
 1136 04d1 01       		.byte	0x1
 1137 04d2 5C       		.byte	0x5c
 1138 04d3 01       		.byte	0x1
 1139 04d4 00000000 		.4byte	.LFB8
 1140 04d8 18000000 		.4byte	.LFE8
 1141 04dc 20000000 		.4byte	.LLST1
 1142 04e0 20050000 		.4byte	0x520
 1143 04e4 15       		.uleb128 0x15
 1144 04e5 51000000 		.4byte	.LASF68
 1145 04e9 01       		.byte	0x1
 1146 04ea 5C       		.byte	0x5c
 1147 04eb 40040000 		.4byte	0x440
 1148 04ef 40000000 		.4byte	.LLST2
 1149 04f3 16       		.uleb128 0x16
 1150 04f4 62756600 		.ascii	"buf\000"
 1151 04f8 01       		.byte	0x1
 1152 04f9 5C       		.byte	0x5c
 1153 04fa 98020000 		.4byte	0x298
 1154 04fe 60000000 		.4byte	.LLST3
 1155 0502 15       		.uleb128 0x15
 1156 0503 58010000 		.4byte	.LASF62
 1157 0507 01       		.byte	0x1
 1158 0508 5C       		.byte	0x5c
 1159 0509 30000000 		.4byte	0x30
 1160 050d 73000000 		.4byte	.LLST4
 1161 0511 17       		.uleb128 0x17
 1162 0512 687000   		.ascii	"hp\000"
 1163 0515 01       		.byte	0x1
 1164 0516 5D       		.byte	0x5d
 1165 0517 3A040000 		.4byte	0x43a
 1166 051b 93000000 		.4byte	.LLST5
 1167 051f 00       		.byte	0
 1168 0520 18       		.uleb128 0x18
 1169 0521 01       		.byte	0x1
 1170 0522 54020000 		.4byte	.LASF71
 1171 0526 01       		.byte	0x1
 1172 0527 7D       		.byte	0x7d
 1173 0528 01       		.byte	0x1
 1174 0529 98020000 		.4byte	0x298
 1175 052d 00000000 		.4byte	.LFB9
 1176 0531 78000000 		.4byte	.LFE9
 1177 0535 A6000000 		.4byte	.LLST6
 1178 0539 86050000 		.4byte	0x586
 1179 053d 15       		.uleb128 0x15
 1180 053e 51000000 		.4byte	.LASF68
 1181 0542 01       		.byte	0x1
 1182 0543 7D       		.byte	0x7d
 1183 0544 40040000 		.4byte	0x440
 1184 0548 C6000000 		.4byte	.LLST7
 1185 054c 15       		.uleb128 0x15
 1186 054d 58010000 		.4byte	.LASF62
 1187 0551 01       		.byte	0x1
 1188 0552 7D       		.byte	0x7d
 1189 0553 30000000 		.4byte	0x30
 1190 0557 FA000000 		.4byte	.LLST8
 1191 055b 17       		.uleb128 0x17
ARM GAS  C:\Users\Rob\AppData\Local\Temp\ccubDnQ5.s 			page 22


 1192 055c 717000   		.ascii	"qp\000"
 1193 055f 01       		.byte	0x1
 1194 0560 7E       		.byte	0x7e
 1195 0561 3A040000 		.4byte	0x43a
 1196 0565 2E010000 		.4byte	.LLST9
 1197 0569 17       		.uleb128 0x17
 1198 056a 687000   		.ascii	"hp\000"
 1199 056d 01       		.byte	0x1
 1200 056e 7E       		.byte	0x7e
 1201 056f 3A040000 		.4byte	0x43a
 1202 0573 4C010000 		.4byte	.LLST10
 1203 0577 17       		.uleb128 0x17
 1204 0578 667000   		.ascii	"fp\000"
 1205 057b 01       		.byte	0x1
 1206 057c 7E       		.byte	0x7e
 1207 057d 3A040000 		.4byte	0x43a
 1208 0581 A4010000 		.4byte	.LLST11
 1209 0585 00       		.byte	0
 1210 0586 14       		.uleb128 0x14
 1211 0587 01       		.byte	0x1
 1212 0588 D1000000 		.4byte	.LASF70
 1213 058c 01       		.byte	0x1
 1214 058d BB       		.byte	0xbb
 1215 058e 01       		.byte	0x1
 1216 058f 00000000 		.4byte	.LFB10
 1217 0593 80000000 		.4byte	.LFE10
 1218 0597 B7010000 		.4byte	.LLST12
 1219 059b D8050000 		.4byte	0x5d8
 1220 059f 16       		.uleb128 0x16
 1221 05a0 7000     		.ascii	"p\000"
 1222 05a2 01       		.byte	0x1
 1223 05a3 BB       		.byte	0xbb
 1224 05a4 98020000 		.4byte	0x298
 1225 05a8 D7010000 		.4byte	.LLST13
 1226 05ac 17       		.uleb128 0x17
 1227 05ad 717000   		.ascii	"qp\000"
 1228 05b0 01       		.byte	0x1
 1229 05b1 BC       		.byte	0xbc
 1230 05b2 3A040000 		.4byte	0x43a
 1231 05b6 04020000 		.4byte	.LLST14
 1232 05ba 17       		.uleb128 0x17
 1233 05bb 687000   		.ascii	"hp\000"
 1234 05be 01       		.byte	0x1
 1235 05bf BC       		.byte	0xbc
 1236 05c0 3A040000 		.4byte	0x43a
 1237 05c4 4E020000 		.4byte	.LLST15
 1238 05c8 19       		.uleb128 0x19
 1239 05c9 51000000 		.4byte	.LASF68
 1240 05cd 01       		.byte	0x1
 1241 05ce BD       		.byte	0xbd
 1242 05cf 40040000 		.4byte	0x440
 1243 05d3 6C020000 		.4byte	.LLST16
 1244 05d7 00       		.byte	0
 1245 05d8 18       		.uleb128 0x18
 1246 05d9 01       		.byte	0x1
 1247 05da 92020000 		.4byte	.LASF72
 1248 05de 01       		.byte	0x1
ARM GAS  C:\Users\Rob\AppData\Local\Temp\ccubDnQ5.s 			page 23


 1249 05df F3       		.byte	0xf3
 1250 05e0 01       		.byte	0x1
 1251 05e1 30000000 		.4byte	0x30
 1252 05e5 00000000 		.4byte	.LFB11
 1253 05e9 40000000 		.4byte	.LFE11
 1254 05ed 9A020000 		.4byte	.LLST17
 1255 05f1 3D060000 		.4byte	0x63d
 1256 05f5 15       		.uleb128 0x15
 1257 05f6 51000000 		.4byte	.LASF68
 1258 05fa 01       		.byte	0x1
 1259 05fb F3       		.byte	0xf3
 1260 05fc 40040000 		.4byte	0x440
 1261 0600 BA020000 		.4byte	.LLST18
 1262 0604 15       		.uleb128 0x15
 1263 0605 EA020000 		.4byte	.LASF73
 1264 0609 01       		.byte	0x1
 1265 060a F3       		.byte	0xf3
 1266 060b 3D060000 		.4byte	0x63d
 1267 060f E3020000 		.4byte	.LLST19
 1268 0613 17       		.uleb128 0x17
 1269 0614 717000   		.ascii	"qp\000"
 1270 0617 01       		.byte	0x1
 1271 0618 F4       		.byte	0xf4
 1272 0619 3A040000 		.4byte	0x43a
 1273 061d 0C030000 		.4byte	.LLST20
 1274 0621 17       		.uleb128 0x17
 1275 0622 6E00     		.ascii	"n\000"
 1276 0624 01       		.byte	0x1
 1277 0625 F5       		.byte	0xf5
 1278 0626 30000000 		.4byte	0x30
 1279 062a 21030000 		.4byte	.LLST21
 1280 062e 17       		.uleb128 0x17
 1281 062f 737A00   		.ascii	"sz\000"
 1282 0632 01       		.byte	0x1
 1283 0633 F5       		.byte	0xf5
 1284 0634 30000000 		.4byte	0x30
 1285 0638 40030000 		.4byte	.LLST22
 1286 063c 00       		.byte	0
 1287 063d 09       		.uleb128 0x9
 1288 063e 04       		.byte	0x4
 1289 063f 30000000 		.4byte	0x30
 1290 0643 1A       		.uleb128 0x1a
 1291 0644 80020000 		.4byte	.LASF74
 1292 0648 01       		.byte	0x1
 1293 0649 3D       		.byte	0x3d
 1294 064a B8030000 		.4byte	0x3b8
 1295 064e 05       		.byte	0x5
 1296 064f 03       		.byte	0x3
 1297 0650 00000000 		.4byte	default_heap
 1298 0654 00       		.byte	0
 1299              		.section	.debug_abbrev,"",%progbits
 1300              	.Ldebug_abbrev0:
 1301 0000 01       		.uleb128 0x1
 1302 0001 11       		.uleb128 0x11
 1303 0002 01       		.byte	0x1
 1304 0003 25       		.uleb128 0x25
 1305 0004 0E       		.uleb128 0xe
ARM GAS  C:\Users\Rob\AppData\Local\Temp\ccubDnQ5.s 			page 24


 1306 0005 13       		.uleb128 0x13
 1307 0006 0B       		.uleb128 0xb
 1308 0007 03       		.uleb128 0x3
 1309 0008 0E       		.uleb128 0xe
 1310 0009 1B       		.uleb128 0x1b
 1311 000a 0E       		.uleb128 0xe
 1312 000b 11       		.uleb128 0x11
 1313 000c 01       		.uleb128 0x1
 1314 000d 52       		.uleb128 0x52
 1315 000e 01       		.uleb128 0x1
 1316 000f 55       		.uleb128 0x55
 1317 0010 06       		.uleb128 0x6
 1318 0011 10       		.uleb128 0x10
 1319 0012 06       		.uleb128 0x6
 1320 0013 00       		.byte	0
 1321 0014 00       		.byte	0
 1322 0015 02       		.uleb128 0x2
 1323 0016 24       		.uleb128 0x24
 1324 0017 00       		.byte	0
 1325 0018 0B       		.uleb128 0xb
 1326 0019 0B       		.uleb128 0xb
 1327 001a 3E       		.uleb128 0x3e
 1328 001b 0B       		.uleb128 0xb
 1329 001c 03       		.uleb128 0x3
 1330 001d 08       		.uleb128 0x8
 1331 001e 00       		.byte	0
 1332 001f 00       		.byte	0
 1333 0020 03       		.uleb128 0x3
 1334 0021 16       		.uleb128 0x16
 1335 0022 00       		.byte	0
 1336 0023 03       		.uleb128 0x3
 1337 0024 0E       		.uleb128 0xe
 1338 0025 3A       		.uleb128 0x3a
 1339 0026 0B       		.uleb128 0xb
 1340 0027 3B       		.uleb128 0x3b
 1341 0028 0B       		.uleb128 0xb
 1342 0029 49       		.uleb128 0x49
 1343 002a 13       		.uleb128 0x13
 1344 002b 00       		.byte	0
 1345 002c 00       		.byte	0
 1346 002d 04       		.uleb128 0x4
 1347 002e 24       		.uleb128 0x24
 1348 002f 00       		.byte	0
 1349 0030 0B       		.uleb128 0xb
 1350 0031 0B       		.uleb128 0xb
 1351 0032 3E       		.uleb128 0x3e
 1352 0033 0B       		.uleb128 0xb
 1353 0034 03       		.uleb128 0x3
 1354 0035 0E       		.uleb128 0xe
 1355 0036 00       		.byte	0
 1356 0037 00       		.byte	0
 1357 0038 05       		.uleb128 0x5
 1358 0039 13       		.uleb128 0x13
 1359 003a 01       		.byte	0x1
 1360 003b 03       		.uleb128 0x3
 1361 003c 0E       		.uleb128 0xe
 1362 003d 0B       		.uleb128 0xb
ARM GAS  C:\Users\Rob\AppData\Local\Temp\ccubDnQ5.s 			page 25


 1363 003e 0B       		.uleb128 0xb
 1364 003f 3A       		.uleb128 0x3a
 1365 0040 0B       		.uleb128 0xb
 1366 0041 3B       		.uleb128 0x3b
 1367 0042 0B       		.uleb128 0xb
 1368 0043 01       		.uleb128 0x1
 1369 0044 13       		.uleb128 0x13
 1370 0045 00       		.byte	0
 1371 0046 00       		.byte	0
 1372 0047 06       		.uleb128 0x6
 1373 0048 0D       		.uleb128 0xd
 1374 0049 00       		.byte	0
 1375 004a 03       		.uleb128 0x3
 1376 004b 0E       		.uleb128 0xe
 1377 004c 3A       		.uleb128 0x3a
 1378 004d 0B       		.uleb128 0xb
 1379 004e 3B       		.uleb128 0x3b
 1380 004f 0B       		.uleb128 0xb
 1381 0050 49       		.uleb128 0x49
 1382 0051 13       		.uleb128 0x13
 1383 0052 38       		.uleb128 0x38
 1384 0053 0A       		.uleb128 0xa
 1385 0054 00       		.byte	0
 1386 0055 00       		.byte	0
 1387 0056 07       		.uleb128 0x7
 1388 0057 0D       		.uleb128 0xd
 1389 0058 00       		.byte	0
 1390 0059 03       		.uleb128 0x3
 1391 005a 08       		.uleb128 0x8
 1392 005b 3A       		.uleb128 0x3a
 1393 005c 0B       		.uleb128 0xb
 1394 005d 3B       		.uleb128 0x3b
 1395 005e 0B       		.uleb128 0xb
 1396 005f 49       		.uleb128 0x49
 1397 0060 13       		.uleb128 0x13
 1398 0061 38       		.uleb128 0x38
 1399 0062 0A       		.uleb128 0xa
 1400 0063 00       		.byte	0
 1401 0064 00       		.byte	0
 1402 0065 08       		.uleb128 0x8
 1403 0066 13       		.uleb128 0x13
 1404 0067 01       		.byte	0x1
 1405 0068 0B       		.uleb128 0xb
 1406 0069 0B       		.uleb128 0xb
 1407 006a 3A       		.uleb128 0x3a
 1408 006b 0B       		.uleb128 0xb
 1409 006c 3B       		.uleb128 0x3b
 1410 006d 0B       		.uleb128 0xb
 1411 006e 01       		.uleb128 0x1
 1412 006f 13       		.uleb128 0x13
 1413 0070 00       		.byte	0
 1414 0071 00       		.byte	0
 1415 0072 09       		.uleb128 0x9
 1416 0073 0F       		.uleb128 0xf
 1417 0074 00       		.byte	0
 1418 0075 0B       		.uleb128 0xb
 1419 0076 0B       		.uleb128 0xb
ARM GAS  C:\Users\Rob\AppData\Local\Temp\ccubDnQ5.s 			page 26


 1420 0077 49       		.uleb128 0x49
 1421 0078 13       		.uleb128 0x13
 1422 0079 00       		.byte	0
 1423 007a 00       		.byte	0
 1424 007b 0A       		.uleb128 0xa
 1425 007c 0F       		.uleb128 0xf
 1426 007d 00       		.byte	0
 1427 007e 0B       		.uleb128 0xb
 1428 007f 0B       		.uleb128 0xb
 1429 0080 00       		.byte	0
 1430 0081 00       		.byte	0
 1431 0082 0B       		.uleb128 0xb
 1432 0083 35       		.uleb128 0x35
 1433 0084 00       		.byte	0
 1434 0085 49       		.uleb128 0x49
 1435 0086 13       		.uleb128 0x13
 1436 0087 00       		.byte	0
 1437 0088 00       		.byte	0
 1438 0089 0C       		.uleb128 0xc
 1439 008a 15       		.uleb128 0x15
 1440 008b 01       		.byte	0x1
 1441 008c 27       		.uleb128 0x27
 1442 008d 0C       		.uleb128 0xc
 1443 008e 49       		.uleb128 0x49
 1444 008f 13       		.uleb128 0x13
 1445 0090 01       		.uleb128 0x1
 1446 0091 13       		.uleb128 0x13
 1447 0092 00       		.byte	0
 1448 0093 00       		.byte	0
 1449 0094 0D       		.uleb128 0xd
 1450 0095 05       		.uleb128 0x5
 1451 0096 00       		.byte	0
 1452 0097 49       		.uleb128 0x49
 1453 0098 13       		.uleb128 0x13
 1454 0099 00       		.byte	0
 1455 009a 00       		.byte	0
 1456 009b 0E       		.uleb128 0xe
 1457 009c 17       		.uleb128 0x17
 1458 009d 01       		.byte	0x1
 1459 009e 0B       		.uleb128 0xb
 1460 009f 0B       		.uleb128 0xb
 1461 00a0 3A       		.uleb128 0x3a
 1462 00a1 0B       		.uleb128 0xb
 1463 00a2 3B       		.uleb128 0x3b
 1464 00a3 0B       		.uleb128 0xb
 1465 00a4 01       		.uleb128 0x1
 1466 00a5 13       		.uleb128 0x13
 1467 00a6 00       		.byte	0
 1468 00a7 00       		.byte	0
 1469 00a8 0F       		.uleb128 0xf
 1470 00a9 0D       		.uleb128 0xd
 1471 00aa 00       		.byte	0
 1472 00ab 03       		.uleb128 0x3
 1473 00ac 0E       		.uleb128 0xe
 1474 00ad 3A       		.uleb128 0x3a
 1475 00ae 0B       		.uleb128 0xb
 1476 00af 3B       		.uleb128 0x3b
ARM GAS  C:\Users\Rob\AppData\Local\Temp\ccubDnQ5.s 			page 27


 1477 00b0 0B       		.uleb128 0xb
 1478 00b1 49       		.uleb128 0x49
 1479 00b2 13       		.uleb128 0x13
 1480 00b3 00       		.byte	0
 1481 00b4 00       		.byte	0
 1482 00b5 10       		.uleb128 0x10
 1483 00b6 17       		.uleb128 0x17
 1484 00b7 01       		.byte	0x1
 1485 00b8 03       		.uleb128 0x3
 1486 00b9 0E       		.uleb128 0xe
 1487 00ba 0B       		.uleb128 0xb
 1488 00bb 0B       		.uleb128 0xb
 1489 00bc 3A       		.uleb128 0x3a
 1490 00bd 0B       		.uleb128 0xb
 1491 00be 3B       		.uleb128 0x3b
 1492 00bf 0B       		.uleb128 0xb
 1493 00c0 01       		.uleb128 0x1
 1494 00c1 13       		.uleb128 0x13
 1495 00c2 00       		.byte	0
 1496 00c3 00       		.byte	0
 1497 00c4 11       		.uleb128 0x11
 1498 00c5 0D       		.uleb128 0xd
 1499 00c6 00       		.byte	0
 1500 00c7 03       		.uleb128 0x3
 1501 00c8 08       		.uleb128 0x8
 1502 00c9 3A       		.uleb128 0x3a
 1503 00ca 0B       		.uleb128 0xb
 1504 00cb 3B       		.uleb128 0x3b
 1505 00cc 0B       		.uleb128 0xb
 1506 00cd 49       		.uleb128 0x49
 1507 00ce 13       		.uleb128 0x13
 1508 00cf 00       		.byte	0
 1509 00d0 00       		.byte	0
 1510 00d1 12       		.uleb128 0x12
 1511 00d2 26       		.uleb128 0x26
 1512 00d3 00       		.byte	0
 1513 00d4 49       		.uleb128 0x49
 1514 00d5 13       		.uleb128 0x13
 1515 00d6 00       		.byte	0
 1516 00d7 00       		.byte	0
 1517 00d8 13       		.uleb128 0x13
 1518 00d9 2E       		.uleb128 0x2e
 1519 00da 00       		.byte	0
 1520 00db 3F       		.uleb128 0x3f
 1521 00dc 0C       		.uleb128 0xc
 1522 00dd 03       		.uleb128 0x3
 1523 00de 0E       		.uleb128 0xe
 1524 00df 3A       		.uleb128 0x3a
 1525 00e0 0B       		.uleb128 0xb
 1526 00e1 3B       		.uleb128 0x3b
 1527 00e2 0B       		.uleb128 0xb
 1528 00e3 27       		.uleb128 0x27
 1529 00e4 0C       		.uleb128 0xc
 1530 00e5 11       		.uleb128 0x11
 1531 00e6 01       		.uleb128 0x1
 1532 00e7 12       		.uleb128 0x12
 1533 00e8 01       		.uleb128 0x1
ARM GAS  C:\Users\Rob\AppData\Local\Temp\ccubDnQ5.s 			page 28


 1534 00e9 40       		.uleb128 0x40
 1535 00ea 06       		.uleb128 0x6
 1536 00eb 00       		.byte	0
 1537 00ec 00       		.byte	0
 1538 00ed 14       		.uleb128 0x14
 1539 00ee 2E       		.uleb128 0x2e
 1540 00ef 01       		.byte	0x1
 1541 00f0 3F       		.uleb128 0x3f
 1542 00f1 0C       		.uleb128 0xc
 1543 00f2 03       		.uleb128 0x3
 1544 00f3 0E       		.uleb128 0xe
 1545 00f4 3A       		.uleb128 0x3a
 1546 00f5 0B       		.uleb128 0xb
 1547 00f6 3B       		.uleb128 0x3b
 1548 00f7 0B       		.uleb128 0xb
 1549 00f8 27       		.uleb128 0x27
 1550 00f9 0C       		.uleb128 0xc
 1551 00fa 11       		.uleb128 0x11
 1552 00fb 01       		.uleb128 0x1
 1553 00fc 12       		.uleb128 0x12
 1554 00fd 01       		.uleb128 0x1
 1555 00fe 40       		.uleb128 0x40
 1556 00ff 06       		.uleb128 0x6
 1557 0100 01       		.uleb128 0x1
 1558 0101 13       		.uleb128 0x13
 1559 0102 00       		.byte	0
 1560 0103 00       		.byte	0
 1561 0104 15       		.uleb128 0x15
 1562 0105 05       		.uleb128 0x5
 1563 0106 00       		.byte	0
 1564 0107 03       		.uleb128 0x3
 1565 0108 0E       		.uleb128 0xe
 1566 0109 3A       		.uleb128 0x3a
 1567 010a 0B       		.uleb128 0xb
 1568 010b 3B       		.uleb128 0x3b
 1569 010c 0B       		.uleb128 0xb
 1570 010d 49       		.uleb128 0x49
 1571 010e 13       		.uleb128 0x13
 1572 010f 02       		.uleb128 0x2
 1573 0110 06       		.uleb128 0x6
 1574 0111 00       		.byte	0
 1575 0112 00       		.byte	0
 1576 0113 16       		.uleb128 0x16
 1577 0114 05       		.uleb128 0x5
 1578 0115 00       		.byte	0
 1579 0116 03       		.uleb128 0x3
 1580 0117 08       		.uleb128 0x8
 1581 0118 3A       		.uleb128 0x3a
 1582 0119 0B       		.uleb128 0xb
 1583 011a 3B       		.uleb128 0x3b
 1584 011b 0B       		.uleb128 0xb
 1585 011c 49       		.uleb128 0x49
 1586 011d 13       		.uleb128 0x13
 1587 011e 02       		.uleb128 0x2
 1588 011f 06       		.uleb128 0x6
 1589 0120 00       		.byte	0
 1590 0121 00       		.byte	0
ARM GAS  C:\Users\Rob\AppData\Local\Temp\ccubDnQ5.s 			page 29


 1591 0122 17       		.uleb128 0x17
 1592 0123 34       		.uleb128 0x34
 1593 0124 00       		.byte	0
 1594 0125 03       		.uleb128 0x3
 1595 0126 08       		.uleb128 0x8
 1596 0127 3A       		.uleb128 0x3a
 1597 0128 0B       		.uleb128 0xb
 1598 0129 3B       		.uleb128 0x3b
 1599 012a 0B       		.uleb128 0xb
 1600 012b 49       		.uleb128 0x49
 1601 012c 13       		.uleb128 0x13
 1602 012d 02       		.uleb128 0x2
 1603 012e 06       		.uleb128 0x6
 1604 012f 00       		.byte	0
 1605 0130 00       		.byte	0
 1606 0131 18       		.uleb128 0x18
 1607 0132 2E       		.uleb128 0x2e
 1608 0133 01       		.byte	0x1
 1609 0134 3F       		.uleb128 0x3f
 1610 0135 0C       		.uleb128 0xc
 1611 0136 03       		.uleb128 0x3
 1612 0137 0E       		.uleb128 0xe
 1613 0138 3A       		.uleb128 0x3a
 1614 0139 0B       		.uleb128 0xb
 1615 013a 3B       		.uleb128 0x3b
 1616 013b 0B       		.uleb128 0xb
 1617 013c 27       		.uleb128 0x27
 1618 013d 0C       		.uleb128 0xc
 1619 013e 49       		.uleb128 0x49
 1620 013f 13       		.uleb128 0x13
 1621 0140 11       		.uleb128 0x11
 1622 0141 01       		.uleb128 0x1
 1623 0142 12       		.uleb128 0x12
 1624 0143 01       		.uleb128 0x1
 1625 0144 40       		.uleb128 0x40
 1626 0145 06       		.uleb128 0x6
 1627 0146 01       		.uleb128 0x1
 1628 0147 13       		.uleb128 0x13
 1629 0148 00       		.byte	0
 1630 0149 00       		.byte	0
 1631 014a 19       		.uleb128 0x19
 1632 014b 34       		.uleb128 0x34
 1633 014c 00       		.byte	0
 1634 014d 03       		.uleb128 0x3
 1635 014e 0E       		.uleb128 0xe
 1636 014f 3A       		.uleb128 0x3a
 1637 0150 0B       		.uleb128 0xb
 1638 0151 3B       		.uleb128 0x3b
 1639 0152 0B       		.uleb128 0xb
 1640 0153 49       		.uleb128 0x49
 1641 0154 13       		.uleb128 0x13
 1642 0155 02       		.uleb128 0x2
 1643 0156 06       		.uleb128 0x6
 1644 0157 00       		.byte	0
 1645 0158 00       		.byte	0
 1646 0159 1A       		.uleb128 0x1a
 1647 015a 34       		.uleb128 0x34
ARM GAS  C:\Users\Rob\AppData\Local\Temp\ccubDnQ5.s 			page 30


 1648 015b 00       		.byte	0
 1649 015c 03       		.uleb128 0x3
 1650 015d 0E       		.uleb128 0xe
 1651 015e 3A       		.uleb128 0x3a
 1652 015f 0B       		.uleb128 0xb
 1653 0160 3B       		.uleb128 0x3b
 1654 0161 0B       		.uleb128 0xb
 1655 0162 49       		.uleb128 0x49
 1656 0163 13       		.uleb128 0x13
 1657 0164 02       		.uleb128 0x2
 1658 0165 0A       		.uleb128 0xa
 1659 0166 00       		.byte	0
 1660 0167 00       		.byte	0
 1661 0168 00       		.byte	0
 1662              		.section	.debug_loc,"",%progbits
 1663              	.Ldebug_loc0:
 1664              	.LLST0:
 1665 0000 00000000 		.4byte	.LFB7
 1666 0004 02000000 		.4byte	.LCFI0
 1667 0008 0200     		.2byte	0x2
 1668 000a 7D       		.byte	0x7d
 1669 000b 00       		.sleb128 0
 1670 000c 02000000 		.4byte	.LCFI0
 1671 0010 20000000 		.4byte	.LFE7
 1672 0014 0200     		.2byte	0x2
 1673 0016 7D       		.byte	0x7d
 1674 0017 08       		.sleb128 8
 1675 0018 00000000 		.4byte	0
 1676 001c 00000000 		.4byte	0
 1677              	.LLST1:
 1678 0020 00000000 		.4byte	.LFB8
 1679 0024 02000000 		.4byte	.LCFI1
 1680 0028 0200     		.2byte	0x2
 1681 002a 7D       		.byte	0x7d
 1682 002b 00       		.sleb128 0
 1683 002c 02000000 		.4byte	.LCFI1
 1684 0030 18000000 		.4byte	.LFE8
 1685 0034 0200     		.2byte	0x2
 1686 0036 7D       		.byte	0x7d
 1687 0037 08       		.sleb128 8
 1688 0038 00000000 		.4byte	0
 1689 003c 00000000 		.4byte	0
 1690              	.LLST2:
 1691 0040 02000000 		.4byte	.LVL0
 1692 0044 12000000 		.4byte	.LVL3
 1693 0048 0100     		.2byte	0x1
 1694 004a 50       		.byte	0x50
 1695 004b 12000000 		.4byte	.LVL3
 1696 004f 15000000 		.4byte	.LVL4-1
 1697 0053 0300     		.2byte	0x3
 1698 0055 70       		.byte	0x70
 1699 0056 70       		.sleb128 -16
 1700 0057 9F       		.byte	0x9f
 1701 0058 00000000 		.4byte	0
 1702 005c 00000000 		.4byte	0
 1703              	.LLST3:
 1704 0060 02000000 		.4byte	.LVL0
ARM GAS  C:\Users\Rob\AppData\Local\Temp\ccubDnQ5.s 			page 31


 1705 0064 15000000 		.4byte	.LVL4-1
 1706 0068 0100     		.2byte	0x1
 1707 006a 51       		.byte	0x51
 1708 006b 00000000 		.4byte	0
 1709 006f 00000000 		.4byte	0
 1710              	.LLST4:
 1711 0073 02000000 		.4byte	.LVL0
 1712 0077 06000000 		.4byte	.LVL1
 1713 007b 0100     		.2byte	0x1
 1714 007d 52       		.byte	0x52
 1715 007e 06000000 		.4byte	.LVL1
 1716 0082 15000000 		.4byte	.LVL4-1
 1717 0086 0300     		.2byte	0x3
 1718 0088 72       		.byte	0x72
 1719 0089 08       		.sleb128 8
 1720 008a 9F       		.byte	0x9f
 1721 008b 00000000 		.4byte	0
 1722 008f 00000000 		.4byte	0
 1723              	.LLST5:
 1724 0093 08000000 		.4byte	.LVL2
 1725 0097 15000000 		.4byte	.LVL4-1
 1726 009b 0100     		.2byte	0x1
 1727 009d 51       		.byte	0x51
 1728 009e 00000000 		.4byte	0
 1729 00a2 00000000 		.4byte	0
 1730              	.LLST6:
 1731 00a6 00000000 		.4byte	.LFB9
 1732 00aa 02000000 		.4byte	.LCFI2
 1733 00ae 0200     		.2byte	0x2
 1734 00b0 7D       		.byte	0x7d
 1735 00b1 00       		.sleb128 0
 1736 00b2 02000000 		.4byte	.LCFI2
 1737 00b6 78000000 		.4byte	.LFE9
 1738 00ba 0200     		.2byte	0x2
 1739 00bc 7D       		.byte	0x7d
 1740 00bd 18       		.sleb128 24
 1741 00be 00000000 		.4byte	0
 1742 00c2 00000000 		.4byte	0
 1743              	.LLST7:
 1744 00c6 02000000 		.4byte	.LVL5
 1745 00ca 06000000 		.4byte	.LVL6
 1746 00ce 0100     		.2byte	0x1
 1747 00d0 50       		.byte	0x50
 1748 00d1 06000000 		.4byte	.LVL6
 1749 00d5 4A000000 		.4byte	.LVL18
 1750 00d9 0100     		.2byte	0x1
 1751 00db 57       		.byte	0x57
 1752 00dc 4C000000 		.4byte	.LVL19
 1753 00e0 70000000 		.4byte	.LVL24
 1754 00e4 0100     		.2byte	0x1
 1755 00e6 57       		.byte	0x57
 1756 00e7 70000000 		.4byte	.LVL24
 1757 00eb 78000000 		.4byte	.LFE9
 1758 00ef 0100     		.2byte	0x1
 1759 00f1 50       		.byte	0x50
 1760 00f2 00000000 		.4byte	0
 1761 00f6 00000000 		.4byte	0
ARM GAS  C:\Users\Rob\AppData\Local\Temp\ccubDnQ5.s 			page 32


 1762              	.LLST8:
 1763 00fa 02000000 		.4byte	.LVL5
 1764 00fe 12000000 		.4byte	.LVL7
 1765 0102 0100     		.2byte	0x1
 1766 0104 51       		.byte	0x51
 1767 0105 12000000 		.4byte	.LVL7
 1768 0109 4A000000 		.4byte	.LVL17
 1769 010d 0100     		.2byte	0x1
 1770 010f 56       		.byte	0x56
 1771 0110 4C000000 		.4byte	.LVL19
 1772 0114 70000000 		.4byte	.LVL24
 1773 0118 0100     		.2byte	0x1
 1774 011a 56       		.byte	0x56
 1775 011b 70000000 		.4byte	.LVL24
 1776 011f 78000000 		.4byte	.LFE9
 1777 0123 0100     		.2byte	0x1
 1778 0125 51       		.byte	0x51
 1779 0126 00000000 		.4byte	0
 1780 012a 00000000 		.4byte	0
 1781              	.LLST9:
 1782 012e 14000000 		.4byte	.LVL8
 1783 0132 4A000000 		.4byte	.LVL16
 1784 0136 0100     		.2byte	0x1
 1785 0138 55       		.byte	0x55
 1786 0139 4C000000 		.4byte	.LVL19
 1787 013d 70000000 		.4byte	.LVL24
 1788 0141 0100     		.2byte	0x1
 1789 0143 55       		.byte	0x55
 1790 0144 00000000 		.4byte	0
 1791 0148 00000000 		.4byte	0
 1792              	.LLST10:
 1793 014c 1A000000 		.4byte	.LVL9
 1794 0150 1C000000 		.4byte	.LVL10
 1795 0154 0100     		.2byte	0x1
 1796 0156 54       		.byte	0x54
 1797 0157 22000000 		.4byte	.LVL11
 1798 015b 45000000 		.4byte	.LVL14-1
 1799 015f 0200     		.2byte	0x2
 1800 0161 75       		.byte	0x75
 1801 0162 00       		.sleb128 0
 1802 0163 45000000 		.4byte	.LVL14-1
 1803 0167 4A000000 		.4byte	.LVL15
 1804 016b 0100     		.2byte	0x1
 1805 016d 54       		.byte	0x54
 1806 016e 4C000000 		.4byte	.LVL19
 1807 0172 52000000 		.4byte	.LVL20
 1808 0176 0100     		.2byte	0x1
 1809 0178 54       		.byte	0x54
 1810 0179 64000000 		.4byte	.LVL21
 1811 017d 6C000000 		.4byte	.LVL22
 1812 0181 0100     		.2byte	0x1
 1813 0183 50       		.byte	0x50
 1814 0184 6C000000 		.4byte	.LVL22
 1815 0188 6E000000 		.4byte	.LVL23
 1816 018c 0300     		.2byte	0x3
 1817 018e 70       		.byte	0x70
 1818 018f 08       		.sleb128 8
ARM GAS  C:\Users\Rob\AppData\Local\Temp\ccubDnQ5.s 			page 33


 1819 0190 9F       		.byte	0x9f
 1820 0191 6E000000 		.4byte	.LVL23
 1821 0195 70000000 		.4byte	.LVL24
 1822 0199 0100     		.2byte	0x1
 1823 019b 50       		.byte	0x50
 1824 019c 00000000 		.4byte	0
 1825 01a0 00000000 		.4byte	0
 1826              	.LLST11:
 1827 01a4 36000000 		.4byte	.LVL12
 1828 01a8 40000000 		.4byte	.LVL13
 1829 01ac 0100     		.2byte	0x1
 1830 01ae 52       		.byte	0x52
 1831 01af 00000000 		.4byte	0
 1832 01b3 00000000 		.4byte	0
 1833              	.LLST12:
 1834 01b7 00000000 		.4byte	.LFB10
 1835 01bb 02000000 		.4byte	.LCFI3
 1836 01bf 0200     		.2byte	0x2
 1837 01c1 7D       		.byte	0x7d
 1838 01c2 00       		.sleb128 0
 1839 01c3 02000000 		.4byte	.LCFI3
 1840 01c7 80000000 		.4byte	.LFE10
 1841 01cb 0200     		.2byte	0x2
 1842 01cd 7D       		.byte	0x7d
 1843 01ce 10       		.sleb128 16
 1844 01cf 00000000 		.4byte	0
 1845 01d3 00000000 		.4byte	0
 1846              	.LLST13:
 1847 01d7 02000000 		.4byte	.LVL25
 1848 01db 08000000 		.4byte	.LVL27
 1849 01df 0100     		.2byte	0x1
 1850 01e1 50       		.byte	0x50
 1851 01e2 08000000 		.4byte	.LVL27
 1852 01e6 54000000 		.4byte	.LVL34
 1853 01ea 0300     		.2byte	0x3
 1854 01ec 74       		.byte	0x74
 1855 01ed 08       		.sleb128 8
 1856 01ee 9F       		.byte	0x9f
 1857 01ef 56000000 		.4byte	.LVL36
 1858 01f3 80000000 		.4byte	.LFE10
 1859 01f7 0300     		.2byte	0x3
 1860 01f9 74       		.byte	0x74
 1861 01fa 08       		.sleb128 8
 1862 01fb 9F       		.byte	0x9f
 1863 01fc 00000000 		.4byte	0
 1864 0200 00000000 		.4byte	0
 1865              	.LLST14:
 1866 0204 0C000000 		.4byte	.LVL28
 1867 0208 14000000 		.4byte	.LVL30
 1868 020c 0100     		.2byte	0x1
 1869 020e 55       		.byte	0x55
 1870 020f 14000000 		.4byte	.LVL30
 1871 0213 28000000 		.4byte	.LVL31
 1872 0217 0100     		.2byte	0x1
 1873 0219 53       		.byte	0x53
 1874 021a 28000000 		.4byte	.LVL31
 1875 021e 2E000000 		.4byte	.LVL32
ARM GAS  C:\Users\Rob\AppData\Local\Temp\ccubDnQ5.s 			page 34


 1876 0222 0100     		.2byte	0x1
 1877 0224 52       		.byte	0x52
 1878 0225 2E000000 		.4byte	.LVL32
 1879 0229 53000000 		.4byte	.LVL33-1
 1880 022d 0100     		.2byte	0x1
 1881 022f 53       		.byte	0x53
 1882 0230 56000000 		.4byte	.LVL36
 1883 0234 58000000 		.4byte	.LVL37
 1884 0238 0100     		.2byte	0x1
 1885 023a 53       		.byte	0x53
 1886 023b 5A000000 		.4byte	.LVL38
 1887 023f 80000000 		.4byte	.LFE10
 1888 0243 0100     		.2byte	0x1
 1889 0245 53       		.byte	0x53
 1890 0246 00000000 		.4byte	0
 1891 024a 00000000 		.4byte	0
 1892              	.LLST15:
 1893 024e 06000000 		.4byte	.LVL26
 1894 0252 54000000 		.4byte	.LVL34
 1895 0256 0100     		.2byte	0x1
 1896 0258 54       		.byte	0x54
 1897 0259 56000000 		.4byte	.LVL36
 1898 025d 80000000 		.4byte	.LFE10
 1899 0261 0100     		.2byte	0x1
 1900 0263 54       		.byte	0x54
 1901 0264 00000000 		.4byte	0
 1902 0268 00000000 		.4byte	0
 1903              	.LLST16:
 1904 026c 08000000 		.4byte	.LVL27
 1905 0270 11000000 		.4byte	.LVL29-1
 1906 0274 0200     		.2byte	0x2
 1907 0276 74       		.byte	0x74
 1908 0277 00       		.sleb128 0
 1909 0278 11000000 		.4byte	.LVL29-1
 1910 027c 54000000 		.4byte	.LVL35
 1911 0280 0300     		.2byte	0x3
 1912 0282 75       		.byte	0x75
 1913 0283 78       		.sleb128 -8
 1914 0284 9F       		.byte	0x9f
 1915 0285 56000000 		.4byte	.LVL36
 1916 0289 80000000 		.4byte	.LFE10
 1917 028d 0300     		.2byte	0x3
 1918 028f 75       		.byte	0x75
 1919 0290 78       		.sleb128 -8
 1920 0291 9F       		.byte	0x9f
 1921 0292 00000000 		.4byte	0
 1922 0296 00000000 		.4byte	0
 1923              	.LLST17:
 1924 029a 00000000 		.4byte	.LFB11
 1925 029e 02000000 		.4byte	.LCFI4
 1926 02a2 0200     		.2byte	0x2
 1927 02a4 7D       		.byte	0x7d
 1928 02a5 00       		.sleb128 0
 1929 02a6 02000000 		.4byte	.LCFI4
 1930 02aa 40000000 		.4byte	.LFE11
 1931 02ae 0200     		.2byte	0x2
 1932 02b0 7D       		.byte	0x7d
ARM GAS  C:\Users\Rob\AppData\Local\Temp\ccubDnQ5.s 			page 35


 1933 02b1 10       		.sleb128 16
 1934 02b2 00000000 		.4byte	0
 1935 02b6 00000000 		.4byte	0
 1936              	.LLST18:
 1937 02ba 02000000 		.4byte	.LVL39
 1938 02be 0A000000 		.4byte	.LVL40
 1939 02c2 0100     		.2byte	0x1
 1940 02c4 50       		.byte	0x50
 1941 02c5 0A000000 		.4byte	.LVL40
 1942 02c9 18000000 		.4byte	.LVL42
 1943 02cd 0100     		.2byte	0x1
 1944 02cf 54       		.byte	0x54
 1945 02d0 36000000 		.4byte	.LVL48
 1946 02d4 40000000 		.4byte	.LFE11
 1947 02d8 0100     		.2byte	0x1
 1948 02da 50       		.byte	0x50
 1949 02db 00000000 		.4byte	0
 1950 02df 00000000 		.4byte	0
 1951              	.LLST19:
 1952 02e3 02000000 		.4byte	.LVL39
 1953 02e7 11000000 		.4byte	.LVL41-1
 1954 02eb 0100     		.2byte	0x1
 1955 02ed 51       		.byte	0x51
 1956 02ee 11000000 		.4byte	.LVL41-1
 1957 02f2 34000000 		.4byte	.LVL47
 1958 02f6 0100     		.2byte	0x1
 1959 02f8 55       		.byte	0x55
 1960 02f9 36000000 		.4byte	.LVL48
 1961 02fd 40000000 		.4byte	.LFE11
 1962 0301 0100     		.2byte	0x1
 1963 0303 51       		.byte	0x51
 1964 0304 00000000 		.4byte	0
 1965 0308 00000000 		.4byte	0
 1966              	.LLST20:
 1967 030c 12000000 		.4byte	.LVL41
 1968 0310 18000000 		.4byte	.LVL42
 1969 0314 0300     		.2byte	0x3
 1970 0316 74       		.byte	0x74
 1971 0317 08       		.sleb128 8
 1972 0318 9F       		.byte	0x9f
 1973 0319 00000000 		.4byte	0
 1974 031d 00000000 		.4byte	0
 1975              	.LLST21:
 1976 0321 12000000 		.4byte	.LVL41
 1977 0325 1C000000 		.4byte	.LVL43
 1978 0329 0200     		.2byte	0x2
 1979 032b 30       		.byte	0x30
 1980 032c 9F       		.byte	0x9f
 1981 032d 24000000 		.4byte	.LVL45
 1982 0331 28000000 		.4byte	.LVL46
 1983 0335 0100     		.2byte	0x1
 1984 0337 54       		.byte	0x54
 1985 0338 00000000 		.4byte	0
 1986 033c 00000000 		.4byte	0
 1987              	.LLST22:
 1988 0340 12000000 		.4byte	.LVL41
 1989 0344 1C000000 		.4byte	.LVL43
ARM GAS  C:\Users\Rob\AppData\Local\Temp\ccubDnQ5.s 			page 36


 1990 0348 0200     		.2byte	0x2
 1991 034a 30       		.byte	0x30
 1992 034b 9F       		.byte	0x9f
 1993 034c 22000000 		.4byte	.LVL44
 1994 0350 28000000 		.4byte	.LVL46
 1995 0354 0100     		.2byte	0x1
 1996 0356 52       		.byte	0x52
 1997 0357 00000000 		.4byte	0
 1998 035b 00000000 		.4byte	0
 1999              		.section	.debug_aranges,"",%progbits
 2000 0000 3C000000 		.4byte	0x3c
 2001 0004 0200     		.2byte	0x2
 2002 0006 00000000 		.4byte	.Ldebug_info0
 2003 000a 04       		.byte	0x4
 2004 000b 00       		.byte	0
 2005 000c 0000     		.2byte	0
 2006 000e 0000     		.2byte	0
 2007 0010 00000000 		.4byte	.LFB7
 2008 0014 20000000 		.4byte	.LFE7-.LFB7
 2009 0018 00000000 		.4byte	.LFB8
 2010 001c 18000000 		.4byte	.LFE8-.LFB8
 2011 0020 00000000 		.4byte	.LFB9
 2012 0024 78000000 		.4byte	.LFE9-.LFB9
 2013 0028 00000000 		.4byte	.LFB10
 2014 002c 80000000 		.4byte	.LFE10-.LFB10
 2015 0030 00000000 		.4byte	.LFB11
 2016 0034 40000000 		.4byte	.LFE11-.LFB11
 2017 0038 00000000 		.4byte	0
 2018 003c 00000000 		.4byte	0
 2019              		.section	.debug_ranges,"",%progbits
 2020              	.Ldebug_ranges0:
 2021 0000 00000000 		.4byte	.LFB7
 2022 0004 20000000 		.4byte	.LFE7
 2023 0008 00000000 		.4byte	.LFB8
 2024 000c 18000000 		.4byte	.LFE8
 2025 0010 00000000 		.4byte	.LFB9
 2026 0014 78000000 		.4byte	.LFE9
 2027 0018 00000000 		.4byte	.LFB10
 2028 001c 80000000 		.4byte	.LFE10
 2029 0020 00000000 		.4byte	.LFB11
 2030 0024 40000000 		.4byte	.LFE11
 2031 0028 00000000 		.4byte	0
 2032 002c 00000000 		.4byte	0
 2033              		.section	.debug_line,"",%progbits
 2034              	.Ldebug_line0:
 2035 0000 2B020000 		.section	.debug_str,"MS",%progbits,1
 2035      02004501 
 2035      00000201 
 2035      FB0E0D00 
 2035      01010101 
 2036              	.LASF38:
 2037 0000 705F6D73 		.ascii	"p_msg\000"
 2037      6700
 2038              	.LASF2:
 2039 0006 73697A65 		.ascii	"size_t\000"
 2039      5F7400
 2040              	.LASF63:
ARM GAS  C:\Users\Rob\AppData\Local\Temp\ccubDnQ5.s 			page 37


 2041 000d 7264796D 		.ascii	"rdymsg\000"
 2041      736700
 2042              	.LASF12:
 2043 0014 75696E74 		.ascii	"uint64_t\000"
 2043      36345F74 
 2043      00
 2044              	.LASF53:
 2045 001d 6D656D67 		.ascii	"memgetfunc_t\000"
 2045      65746675 
 2045      6E635F74 
 2045      00
 2046              	.LASF13:
 2047 002a 6C6F6E67 		.ascii	"long long unsigned int\000"
 2047      206C6F6E 
 2047      6720756E 
 2047      7369676E 
 2047      65642069 
 2048              	.LASF64:
 2049 0041 65786974 		.ascii	"exitcode\000"
 2049      636F6465 
 2049      00
 2050              	.LASF57:
 2051 004a 685F6672 		.ascii	"h_free\000"
 2051      656500
 2052              	.LASF68:
 2053 0051 68656170 		.ascii	"heapp\000"
 2053      7000
 2054              	.LASF69:
 2055 0057 63684865 		.ascii	"chHeapInit\000"
 2055      6170496E 
 2055      697400
 2056              	.LASF59:
 2057 0062 6E657874 		.ascii	"next\000"
 2057      00
 2058              	.LASF26:
 2059 0067 705F7072 		.ascii	"p_prio\000"
 2059      696F00
 2060              	.LASF77:
 2061 006e 433A5C55 		.ascii	"C:\\Users\\Rob\\Projects\\ECE411Practicum\\src\\vir"
 2061      73657273 
 2061      5C526F62 
 2061      5C50726F 
 2061      6A656374 
 2062 009b 756C656E 		.ascii	"ulent\000"
 2062      7400
 2063              	.LASF11:
 2064 00a1 6C6F6E67 		.ascii	"long long int\000"
 2064      206C6F6E 
 2064      6720696E 
 2064      7400
 2065              	.LASF1:
 2066 00af 7369676E 		.ascii	"signed char\000"
 2066      65642063 
 2066      68617200 
 2067              	.LASF58:
 2068 00bb 685F6D74 		.ascii	"h_mtx\000"
 2068      7800
ARM GAS  C:\Users\Rob\AppData\Local\Temp\ccubDnQ5.s 			page 38


 2069              	.LASF42:
 2070 00c1 705F6D70 		.ascii	"p_mpool\000"
 2070      6F6F6C00 
 2071              	.LASF50:
 2072 00c9 6D5F7175 		.ascii	"m_queue\000"
 2072      65756500 
 2073              	.LASF70:
 2074 00d1 63684865 		.ascii	"chHeapFree\000"
 2074      61704672 
 2074      656500
 2075              	.LASF18:
 2076 00dc 74736C69 		.ascii	"tslices_t\000"
 2076      6365735F 
 2076      7400
 2077              	.LASF8:
 2078 00e6 6C6F6E67 		.ascii	"long int\000"
 2078      20696E74 
 2078      00
 2079              	.LASF76:
 2080 00ef 2E2E2F2E 		.ascii	"../../os/kernel/src/chheap.c\000"
 2080      2E2F6F73 
 2080      2F6B6572 
 2080      6E656C2F 
 2080      7372632F 
 2081              	.LASF16:
 2082 010c 74737461 		.ascii	"tstate_t\000"
 2082      74655F74 
 2082      00
 2083              	.LASF28:
 2084 0115 705F6E65 		.ascii	"p_newer\000"
 2084      77657200 
 2085              	.LASF45:
 2086 011d 72656761 		.ascii	"regarm_t\000"
 2086      726D5F74 
 2086      00
 2087              	.LASF60:
 2088 0126 68656170 		.ascii	"heap\000"
 2088      00
 2089              	.LASF61:
 2090 012b 616C6967 		.ascii	"align\000"
 2090      6E00
 2091              	.LASF0:
 2092 0131 756E7369 		.ascii	"unsigned int\000"
 2092      676E6564 
 2092      20696E74 
 2092      00
 2093              	.LASF10:
 2094 013e 6C6F6E67 		.ascii	"long unsigned int\000"
 2094      20756E73 
 2094      69676E65 
 2094      6420696E 
 2094      7400
 2095              	.LASF48:
 2096 0150 636F6E74 		.ascii	"context\000"
 2096      65787400 
 2097              	.LASF62:
 2098 0158 73697A65 		.ascii	"size\000"
ARM GAS  C:\Users\Rob\AppData\Local\Temp\ccubDnQ5.s 			page 39


 2098      00
 2099              	.LASF6:
 2100 015d 73686F72 		.ascii	"short unsigned int\000"
 2100      7420756E 
 2100      7369676E 
 2100      65642069 
 2100      6E7400
 2101              	.LASF20:
 2102 0170 6D73675F 		.ascii	"msg_t\000"
 2102      7400
 2103              	.LASF15:
 2104 0176 746D6F64 		.ascii	"tmode_t\000"
 2104      655F7400 
 2105              	.LASF44:
 2106 017e 54687265 		.ascii	"ThreadsList\000"
 2106      6164734C 
 2106      69737400 
 2107              	.LASF21:
 2108 018a 6576656E 		.ascii	"eventmask_t\000"
 2108      746D6173 
 2108      6B5F7400 
 2109              	.LASF49:
 2110 0196 4D757465 		.ascii	"Mutex\000"
 2110      7800
 2111              	.LASF46:
 2112 019c 73746B61 		.ascii	"stkalign_t\000"
 2112      6C69676E 
 2112      5F7400
 2113              	.LASF29:
 2114 01a7 705F6F6C 		.ascii	"p_older\000"
 2114      64657200 
 2115              	.LASF43:
 2116 01af 54687265 		.ascii	"ThreadsQueue\000"
 2116      61647351 
 2116      75657565 
 2116      00
 2117              	.LASF54:
 2118 01bc 4D656D6F 		.ascii	"MemoryHeap\000"
 2118      72794865 
 2118      617000
 2119              	.LASF17:
 2120 01c7 74726566 		.ascii	"trefs_t\000"
 2120      735F7400 
 2121              	.LASF25:
 2122 01cf 705F7072 		.ascii	"p_prev\000"
 2122      657600
 2123              	.LASF19:
 2124 01d6 74707269 		.ascii	"tprio_t\000"
 2124      6F5F7400 
 2125              	.LASF14:
 2126 01de 5F426F6F 		.ascii	"_Bool\000"
 2126      6C00
 2127              	.LASF7:
 2128 01e4 696E7433 		.ascii	"int32_t\000"
 2128      325F7400 
 2129              	.LASF4:
 2130 01ec 756E7369 		.ascii	"unsigned char\000"
ARM GAS  C:\Users\Rob\AppData\Local\Temp\ccubDnQ5.s 			page 40


 2130      676E6564 
 2130      20636861 
 2130      7200
 2131              	.LASF56:
 2132 01fa 685F7072 		.ascii	"h_provider\000"
 2132      6F766964 
 2132      657200
 2133              	.LASF40:
 2134 0205 705F6D74 		.ascii	"p_mtxlist\000"
 2134      786C6973 
 2134      7400
 2135              	.LASF5:
 2136 020f 73686F72 		.ascii	"short int\000"
 2136      7420696E 
 2136      7400
 2137              	.LASF31:
 2138 0219 705F7374 		.ascii	"p_state\000"
 2138      61746500 
 2139              	.LASF34:
 2140 0221 705F7072 		.ascii	"p_preempt\000"
 2140      65656D70 
 2140      7400
 2141              	.LASF78:
 2142 022b 68656170 		.ascii	"heap_header\000"
 2142      5F686561 
 2142      64657200 
 2143              	.LASF66:
 2144 0237 65776D61 		.ascii	"ewmask\000"
 2144      736B00
 2145              	.LASF24:
 2146 023e 705F6E65 		.ascii	"p_next\000"
 2146      787400
 2147              	.LASF32:
 2148 0245 705F666C 		.ascii	"p_flags\000"
 2148      61677300 
 2149              	.LASF23:
 2150 024d 54687265 		.ascii	"Thread\000"
 2150      616400
 2151              	.LASF71:
 2152 0254 63684865 		.ascii	"chHeapAlloc\000"
 2152      6170416C 
 2152      6C6F6300 
 2153              	.LASF39:
 2154 0260 705F6570 		.ascii	"p_epending\000"
 2154      656E6469 
 2154      6E6700
 2155              	.LASF9:
 2156 026b 75696E74 		.ascii	"uint32_t\000"
 2156      33325F74 
 2156      00
 2157              	.LASF75:
 2158 0274 474E5520 		.ascii	"GNU C 4.6.2\000"
 2158      4320342E 
 2158      362E3200 
 2159              	.LASF74:
 2160 0280 64656661 		.ascii	"default_heap\000"
 2160      756C745F 
ARM GAS  C:\Users\Rob\AppData\Local\Temp\ccubDnQ5.s 			page 41


 2160      68656170 
 2160      00
 2161              	.LASF67:
 2162 028d 63686172 		.ascii	"char\000"
 2162      00
 2163              	.LASF72:
 2164 0292 63684865 		.ascii	"chHeapStatus\000"
 2164      61705374 
 2164      61747573 
 2164      00
 2165              	.LASF52:
 2166 029f 6D5F6E65 		.ascii	"m_next\000"
 2166      787400
 2167              	.LASF22:
 2168 02a6 73797374 		.ascii	"systime_t\000"
 2168      696D655F 
 2168      7400
 2169              	.LASF41:
 2170 02b0 705F7265 		.ascii	"p_realprio\000"
 2170      616C7072 
 2170      696F00
 2171              	.LASF35:
 2172 02bb 705F7469 		.ascii	"p_time\000"
 2172      6D6500
 2173              	.LASF47:
 2174 02c2 696E7463 		.ascii	"intctx\000"
 2174      747800
 2175              	.LASF37:
 2176 02c9 705F6D73 		.ascii	"p_msgqueue\000"
 2176      67717565 
 2176      756500
 2177              	.LASF33:
 2178 02d4 705F7265 		.ascii	"p_refs\000"
 2178      667300
 2179              	.LASF3:
 2180 02db 75696E74 		.ascii	"uint8_t\000"
 2180      385F7400 
 2181              	.LASF65:
 2182 02e3 77746F62 		.ascii	"wtobjp\000"
 2182      6A7000
 2183              	.LASF73:
 2184 02ea 73697A65 		.ascii	"sizep\000"
 2184      7000
 2185              	.LASF30:
 2186 02f0 705F6E61 		.ascii	"p_name\000"
 2186      6D6500
 2187              	.LASF79:
 2188 02f7 5F686561 		.ascii	"_heap_init\000"
 2188      705F696E 
 2188      697400
 2189              	.LASF51:
 2190 0302 6D5F6F77 		.ascii	"m_owner\000"
 2190      6E657200 
 2191              	.LASF27:
 2192 030a 705F6374 		.ascii	"p_ctx\000"
 2192      7800
 2193              	.LASF36:
ARM GAS  C:\Users\Rob\AppData\Local\Temp\ccubDnQ5.s 			page 42


 2194 0310 705F7761 		.ascii	"p_waiting\000"
 2194      6974696E 
 2194      6700
 2195              	.LASF55:
 2196 031a 6D656D6F 		.ascii	"memory_heap\000"
 2196      72795F68 
 2196      65617000 
 2197              		.ident	"GCC: (GNU) 4.6.2"
ARM GAS  C:\Users\Rob\AppData\Local\Temp\ccubDnQ5.s 			page 43


DEFINED SYMBOLS
                            *ABS*:00000000 chheap.c
C:\Users\Rob\AppData\Local\Temp\ccubDnQ5.s:17     .text._heap_init:00000000 $t
C:\Users\Rob\AppData\Local\Temp\ccubDnQ5.s:23     .text._heap_init:00000000 _heap_init
C:\Users\Rob\AppData\Local\Temp\ccubDnQ5.s:53     .text._heap_init:00000018 $d
C:\Users\Rob\AppData\Local\Temp\ccubDnQ5.s:59     .text.chHeapInit:00000000 $t
C:\Users\Rob\AppData\Local\Temp\ccubDnQ5.s:65     .text.chHeapInit:00000000 chHeapInit
C:\Users\Rob\AppData\Local\Temp\ccubDnQ5.s:103    .text.chHeapAlloc:00000000 $t
C:\Users\Rob\AppData\Local\Temp\ccubDnQ5.s:109    .text.chHeapAlloc:00000000 chHeapAlloc
C:\Users\Rob\AppData\Local\Temp\ccubDnQ5.s:244    .text.chHeapAlloc:00000074 $d
C:\Users\Rob\AppData\Local\Temp\ccubDnQ5.s:249    .text.chHeapFree:00000000 $t
C:\Users\Rob\AppData\Local\Temp\ccubDnQ5.s:255    .text.chHeapFree:00000000 chHeapFree
C:\Users\Rob\AppData\Local\Temp\ccubDnQ5.s:382    .text.chHeapStatus:00000000 $t
C:\Users\Rob\AppData\Local\Temp\ccubDnQ5.s:388    .text.chHeapStatus:00000000 chHeapStatus
C:\Users\Rob\AppData\Local\Temp\ccubDnQ5.s:457    .text.chHeapStatus:0000003c $d
C:\Users\Rob\AppData\Local\Temp\ccubDnQ5.s:462    .bss.default_heap:00000000 $d
C:\Users\Rob\AppData\Local\Temp\ccubDnQ5.s:466    .bss.default_heap:00000000 default_heap
                     .debug_frame:00000010 $d
C:\Users\Rob\AppData\Local\Temp\ccubDnQ5.s:248    .text.chHeapAlloc:00000078 $t

UNDEFINED SYMBOLS
chMtxInit
chCoreAlloc
chMtxLock
chMtxUnlock
