ARM GAS  C:\Users\Rob\AppData\Local\Temp\ccubDnQ5.s 			page 1


   1              		.cpu cortex-m0
   2              		.fpu softvfp
   3              		.eabi_attribute 20, 1
   4              		.eabi_attribute 21, 1
   5              		.eabi_attribute 23, 3
   6              		.eabi_attribute 24, 1
   7              		.eabi_attribute 25, 1
   8              		.eabi_attribute 26, 1
   9              		.eabi_attribute 30, 2
  10              		.eabi_attribute 18, 4
  11              		.code	16
  12              		.file	"chheap.c"
  13              		.text
  14              	.Ltext0:
  15              		.cfi_sections	.debug_frame
  16              		.section	.text._heap_init,"ax",%progbits
  17              		.align	2
  18              		.p2align 4,,15
  19              		.global	_heap_init
  20              		.code	16
  21              		.thumb_func
  22              		.type	_heap_init, %function
  23              	_heap_init:
  24              	.LFB7:
  25              		.file 1 "../../os/kernel/src/chheap.c"
  26              		.loc 1 68 0
  27              		.cfi_startproc
  28 0000 08B5     		push	{r3, lr}
  29              	.LCFI0:
  30              		.cfi_def_cfa_offset 8
  31              		.cfi_offset 3, -8
  32              		.cfi_offset 14, -4
  33              		.loc 1 69 0
  34 0002 0548     		ldr	r0, .L2
  35 0004 054B     		ldr	r3, .L2+4
  36              		.loc 1 77 0
  37              		@ sp needed for prologue
  38              		.loc 1 69 0
  39 0006 0360     		str	r3, [r0]
  40              		.loc 1 70 0
  41 0008 0023     		mov	r3, #0
  42 000a 8360     		str	r3, [r0, #8]
  43              		.loc 1 71 0
  44 000c C360     		str	r3, [r0, #12]
  45              		.loc 1 73 0
  46 000e 1030     		add	r0, r0, #16
  47 0010 FFF7FEFF 		bl	chMtxInit
  48              		.loc 1 77 0
  49 0014 08BD     		pop	{r3, pc}
  50              	.L3:
  51 0016 C046     		.align	2
  52              	.L2:
  53 0018 00000000 		.word	.LANCHOR0
  54 001c 00000000 		.word	chCoreAlloc
  55              		.cfi_endproc
  56              	.LFE7:
  57              		.size	_heap_init, .-_heap_init
ARM GAS  C:\Users\Rob\AppData\Local\Temp\ccubDnQ5.s 			page 2


  58              		.section	.text.chHeapInit,"ax",%progbits
  59              		.align	2
  60              		.p2align 4,,15
  61              		.global	chHeapInit
  62              		.code	16
  63              		.thumb_func
  64              		.type	chHeapInit, %function
  65              	chHeapInit:
  66              	.LFB8:
  67              		.loc 1 92 0
  68              		.cfi_startproc
  69 0000 08B5     		push	{r3, lr}
  70              	.LCFI1:
  71              		.cfi_def_cfa_offset 8
  72              		.cfi_offset 3, -8
  73              		.cfi_offset 14, -4
  74              	.LVL0:
  75              		.loc 1 97 0
  76 0002 0023     		mov	r3, #0
  77              		.loc 1 101 0
  78 0004 083A     		sub	r2, r2, #8
  79              	.LVL1:
  80              		.loc 1 97 0
  81 0006 0360     		str	r3, [r0]
  82              	.LVL2:
  83              		.loc 1 98 0
  84 0008 8160     		str	r1, [r0, #8]
  85              		.loc 1 99 0
  86 000a C360     		str	r3, [r0, #12]
  87              		.loc 1 100 0
  88 000c 0B60     		str	r3, [r1]
  89              		.loc 1 101 0
  90 000e 4A60     		str	r2, [r1, #4]
  91              		.loc 1 103 0
  92 0010 1030     		add	r0, r0, #16
  93              	.LVL3:
  94 0012 FFF7FEFF 		bl	chMtxInit
  95              	.LVL4:
  96              		.loc 1 107 0
  97              		@ sp needed for prologue
  98 0016 08BD     		pop	{r3, pc}
  99              		.cfi_endproc
 100              	.LFE8:
 101              		.size	chHeapInit, .-chHeapInit
 102 0018 C046C046 		.section	.text.chHeapAlloc,"ax",%progbits
 102      C046C046 
 103              		.align	2
 104              		.p2align 4,,15
 105              		.global	chHeapAlloc
 106              		.code	16
 107              		.thumb_func
 108              		.type	chHeapAlloc, %function
 109              	chHeapAlloc:
 110              	.LFB9:
 111              		.loc 1 125 0
 112              		.cfi_startproc
 113 0000 F8B5     		push	{r3, r4, r5, r6, r7, lr}
ARM GAS  C:\Users\Rob\AppData\Local\Temp\ccubDnQ5.s 			page 3


 114              	.LCFI2:
 115              		.cfi_def_cfa_offset 24
 116              		.cfi_offset 3, -24
 117              		.cfi_offset 4, -20
 118              		.cfi_offset 5, -16
 119              		.cfi_offset 6, -12
 120              		.cfi_offset 7, -8
 121              		.cfi_offset 14, -4
 122              	.LVL5:
 123              		.loc 1 128 0
 124 0002 071E     		sub	r7, r0, #0
 125 0004 34D0     		beq	.L16
 126              	.L6:
 127              	.LVL6:
 128              		.loc 1 133 0
 129 0006 381C     		mov	r0, r7
 130              		.loc 1 131 0
 131 0008 CE1D     		add	r6, r1, #7
 132 000a 0723     		mov	r3, #7
 133              		.loc 1 132 0
 134 000c 3D1C     		mov	r5, r7
 135              		.loc 1 133 0
 136 000e 1030     		add	r0, r0, #16
 137              		.loc 1 131 0
 138 0010 9E43     		bic	r6, r3
 139              	.LVL7:
 140              		.loc 1 132 0
 141 0012 0835     		add	r5, r5, #8
 142              	.LVL8:
 143              		.loc 1 133 0
 144 0014 FFF7FEFF 		bl	chMtxLock
 145              		.loc 1 135 0
 146 0018 00E0     		b	.L7
 147              	.LVL9:
 148              	.L13:
 149              		.loc 1 137 0
 150 001a 251C     		mov	r5, r4
 151              	.LVL10:
 152              	.L7:
 153              		.loc 1 135 0 discriminator 1
 154 001c 2C68     		ldr	r4, [r5]
 155 001e 002C     		cmp	r4, #0
 156 0020 17D0     		beq	.L17
 157              	.LVL11:
 158              		.loc 1 137 0
 159 0022 6368     		ldr	r3, [r4, #4]
 160 0024 9E42     		cmp	r6, r3
 161 0026 F8D8     		bhi	.L13
 162              		.loc 1 138 0
 163 0028 321C     		mov	r2, r6
 164 002a 0832     		add	r2, r2, #8
 165 002c 9342     		cmp	r3, r2
 166 002e 0DD3     		bcc	.L18
 167              		.loc 1 147 0
 168 0030 2168     		ldr	r1, [r4]
 169              		.loc 1 148 0
 170 0032 9B1B     		sub	r3, r3, r6
ARM GAS  C:\Users\Rob\AppData\Local\Temp\ccubDnQ5.s 			page 4


 171              		.loc 1 146 0
 172 0034 A218     		add	r2, r4, r2
 173              	.LVL12:
 174              		.loc 1 148 0
 175 0036 083B     		sub	r3, r3, #8
 176              		.loc 1 147 0
 177 0038 1160     		str	r1, [r2]
 178              		.loc 1 148 0
 179 003a 5360     		str	r3, [r2, #4]
 180              		.loc 1 149 0
 181 003c 2A60     		str	r2, [r5]
 182              		.loc 1 150 0
 183 003e 6660     		str	r6, [r4, #4]
 184              	.LVL13:
 185              	.L9:
 186              		.loc 1 152 0
 187 0040 2760     		str	r7, [r4]
 188              		.loc 1 154 0
 189 0042 FFF7FEFF 		bl	chMtxUnlock
 190              	.LVL14:
 191              		.loc 1 155 0
 192 0046 201C     		mov	r0, r4
 193 0048 0830     		add	r0, r0, #8
 194              	.LVL15:
 195              	.L10:
 196              		.loc 1 174 0
 197              		@ sp needed for prologue
 198              	.LVL16:
 199              	.LVL17:
 200              	.LVL18:
 201 004a F8BD     		pop	{r3, r4, r5, r6, r7, pc}
 202              	.LVL19:
 203              	.L18:
 204              		.loc 1 142 0
 205 004c 2368     		ldr	r3, [r4]
 206 004e 2B60     		str	r3, [r5]
 207 0050 F6E7     		b	.L9
 208              	.LVL20:
 209              	.L17:
 210              		.loc 1 160 0
 211 0052 FFF7FEFF 		bl	chMtxUnlock
 212              		.loc 1 164 0
 213 0056 3B68     		ldr	r3, [r7]
 214              		.loc 1 173 0
 215 0058 0020     		mov	r0, #0
 216              		.loc 1 164 0
 217 005a 002B     		cmp	r3, #0
 218 005c F5D0     		beq	.L10
 219              		.loc 1 165 0
 220 005e 301C     		mov	r0, r6
 221 0060 0830     		add	r0, r0, #8
 222 0062 9847     		blx	r3
 223              	.LVL21:
 224              		.loc 1 166 0
 225 0064 0028     		cmp	r0, #0
 226 0066 F0D0     		beq	.L10
 227              		.loc 1 167 0
ARM GAS  C:\Users\Rob\AppData\Local\Temp\ccubDnQ5.s 			page 5


 228 0068 0760     		str	r7, [r0]
 229              		.loc 1 168 0
 230 006a 4660     		str	r6, [r0, #4]
 231              	.LVL22:
 232              		.loc 1 170 0
 233 006c 0830     		add	r0, r0, #8
 234              	.LVL23:
 235 006e ECE7     		b	.L10
 236              	.LVL24:
 237              	.L16:
 238              		.loc 1 129 0
 239 0070 004F     		ldr	r7, .L19
 240 0072 C8E7     		b	.L6
 241              	.L20:
 242              		.align	2
 243              	.L19:
 244 0074 00000000 		.word	.LANCHOR0
 245              		.cfi_endproc
 246              	.LFE9:
 247              		.size	chHeapAlloc, .-chHeapAlloc
 248 0078 C046C046 		.section	.text.chHeapFree,"ax",%progbits
 248      C046C046 
 249              		.align	2
 250              		.p2align 4,,15
 251              		.global	chHeapFree
 252              		.code	16
 253              		.thumb_func
 254              		.type	chHeapFree, %function
 255              	chHeapFree:
 256              	.LFB10:
 257              		.loc 1 187 0
 258              		.cfi_startproc
 259 0000 38B5     		push	{r3, r4, r5, lr}
 260              	.LCFI3:
 261              		.cfi_def_cfa_offset 16
 262              		.cfi_offset 3, -16
 263              		.cfi_offset 4, -12
 264              		.cfi_offset 5, -8
 265              		.cfi_offset 14, -4
 266              	.LVL25:
 267              		.loc 1 193 0
 268 0002 041C     		mov	r4, r0
 269 0004 083C     		sub	r4, r4, #8
 270              	.LVL26:
 271              		.loc 1 194 0
 272 0006 2068     		ldr	r0, [r4]
 273              	.LVL27:
 274              		.loc 1 195 0
 275 0008 051C     		mov	r5, r0
 276 000a 0835     		add	r5, r5, #8
 277              	.LVL28:
 278              		.loc 1 196 0
 279 000c 1030     		add	r0, r0, #16
 280 000e FFF7FEFF 		bl	chMtxLock
 281              	.LVL29:
 282              		.loc 1 195 0
 283 0012 2B1C     		mov	r3, r5
ARM GAS  C:\Users\Rob\AppData\Local\Temp\ccubDnQ5.s 			page 6


 284              	.LVL30:
 285              	.L31:
 286              		.loc 1 203 0
 287 0014 A342     		cmp	r3, r4
 288 0016 01D3     		bcc	.L30
 289              	.L33:
 290 0018 AB42     		cmp	r3, r5
 291 001a 1CD1     		bne	.L22
 292              	.L30:
 293              		.loc 1 204 0 discriminator 1
 294 001c 1A68     		ldr	r2, [r3]
 295              		.loc 1 203 0 discriminator 1
 296 001e 002A     		cmp	r2, #0
 297 0020 07D0     		beq	.L24
 298              	.L34:
 299              		.loc 1 204 0
 300 0022 9442     		cmp	r4, r2
 301 0024 05D3     		bcc	.L24
 302 0026 131C     		mov	r3, r2
 303              	.LVL31:
 304              		.loc 1 203 0
 305 0028 A342     		cmp	r3, r4
 306 002a F5D2     		bcs	.L33
 307              		.loc 1 204 0
 308 002c 1A68     		ldr	r2, [r3]
 309              	.LVL32:
 310              		.loc 1 203 0
 311 002e 002A     		cmp	r2, #0
 312 0030 F7D1     		bne	.L34
 313              	.L24:
 314              		.loc 1 209 0
 315 0032 6168     		ldr	r1, [r4, #4]
 316              		.loc 1 206 0
 317 0034 2260     		str	r2, [r4]
 318              		.loc 1 207 0
 319 0036 1C60     		str	r4, [r3]
 320              		.loc 1 209 0
 321 0038 0A1C     		mov	r2, r1
 322 003a 0832     		add	r2, r2, #8
 323 003c 2068     		ldr	r0, [r4]
 324 003e A218     		add	r2, r4, r2
 325 0040 8242     		cmp	r2, r0
 326 0042 0AD0     		beq	.L35
 327              		.loc 1 214 0
 328 0044 5A68     		ldr	r2, [r3, #4]
 329 0046 111C     		mov	r1, r2
 330 0048 0831     		add	r1, r1, #8
 331 004a 5918     		add	r1, r3, r1
 332 004c 8C42     		cmp	r4, r1
 333 004e 10D0     		beq	.L36
 334              	.L27:
 335              		.loc 1 224 0
 336 0050 FFF7FEFF 		bl	chMtxUnlock
 337              	.LVL33:
 338              		.loc 1 226 0
 339              		@ sp needed for prologue
 340              	.LVL34:
ARM GAS  C:\Users\Rob\AppData\Local\Temp\ccubDnQ5.s 			page 7


 341              	.LVL35:
 342 0054 38BD     		pop	{r3, r4, r5, pc}
 343              	.LVL36:
 344              	.L22:
 345              		.loc 1 217 0
 346 0056 1B68     		ldr	r3, [r3]
 347              	.LVL37:
 348 0058 DCE7     		b	.L31
 349              	.LVL38:
 350              	.L35:
 351              		.loc 1 211 0
 352 005a 5068     		ldr	r0, [r2, #4]
 353              		.loc 1 212 0
 354 005c 1268     		ldr	r2, [r2]
 355              		.loc 1 211 0
 356 005e 0918     		add	r1, r1, r0
 357 0060 0831     		add	r1, r1, #8
 358 0062 6160     		str	r1, [r4, #4]
 359              		.loc 1 212 0
 360 0064 2260     		str	r2, [r4]
 361              		.loc 1 214 0
 362 0066 5A68     		ldr	r2, [r3, #4]
 363 0068 111C     		mov	r1, r2
 364 006a 0831     		add	r1, r1, #8
 365 006c 5918     		add	r1, r3, r1
 366 006e 8C42     		cmp	r4, r1
 367 0070 EED1     		bne	.L27
 368              	.L36:
 369              		.loc 1 216 0
 370 0072 6168     		ldr	r1, [r4, #4]
 371 0074 5218     		add	r2, r2, r1
 372 0076 0832     		add	r2, r2, #8
 373 0078 5A60     		str	r2, [r3, #4]
 374              		.loc 1 217 0
 375 007a 2268     		ldr	r2, [r4]
 376 007c 1A60     		str	r2, [r3]
 377 007e E7E7     		b	.L27
 378              		.cfi_endproc
 379              	.LFE10:
 380              		.size	chHeapFree, .-chHeapFree
 381              		.section	.text.chHeapStatus,"ax",%progbits
 382              		.align	2
 383              		.p2align 4,,15
 384              		.global	chHeapStatus
 385              		.code	16
 386              		.thumb_func
 387              		.type	chHeapStatus, %function
 388              	chHeapStatus:
 389              	.LFB11:
 390              		.loc 1 243 0
 391              		.cfi_startproc
 392 0000 38B5     		push	{r3, r4, r5, lr}
 393              	.LCFI4:
 394              		.cfi_def_cfa_offset 16
 395              		.cfi_offset 3, -16
 396              		.cfi_offset 4, -12
 397              		.cfi_offset 5, -8
ARM GAS  C:\Users\Rob\AppData\Local\Temp\ccubDnQ5.s 			page 8


 398              		.cfi_offset 14, -4
 399              	.LVL39:
 400              		.loc 1 243 0
 401 0002 041C     		mov	r4, r0
 402 0004 0D1C     		mov	r5, r1
 403              		.loc 1 247 0
 404 0006 0028     		cmp	r0, #0
 405 0008 15D0     		beq	.L45
 406              	.L38:
 407              	.LVL40:
 408              		.loc 1 250 0
 409 000a 201C     		mov	r0, r4
 410 000c 1030     		add	r0, r0, #16
 411 000e FFF7FEFF 		bl	chMtxLock
 412              	.LVL41:
 413              		.loc 1 253 0
 414 0012 A368     		ldr	r3, [r4, #8]
 415 0014 0022     		mov	r2, #0
 416 0016 0024     		mov	r4, #0
 417              	.LVL42:
 418 0018 002B     		cmp	r3, #0
 419 001a 05D0     		beq	.L39
 420              	.LVL43:
 421              	.L40:
 422              		.loc 1 254 0 discriminator 2
 423 001c 5968     		ldr	r1, [r3, #4]
 424              		.loc 1 253 0 discriminator 2
 425 001e 1B68     		ldr	r3, [r3]
 426              		.loc 1 254 0 discriminator 2
 427 0020 5218     		add	r2, r2, r1
 428              	.LVL44:
 429              		.loc 1 253 0 discriminator 2
 430 0022 0134     		add	r4, r4, #1
 431              	.LVL45:
 432 0024 002B     		cmp	r3, #0
 433 0026 F9D1     		bne	.L40
 434              	.LVL46:
 435              	.L39:
 436              		.loc 1 255 0
 437 0028 002D     		cmp	r5, #0
 438 002a 00D0     		beq	.L41
 439              		.loc 1 256 0
 440 002c 2A60     		str	r2, [r5]
 441              	.L41:
 442              		.loc 1 258 0
 443 002e FFF7FEFF 		bl	chMtxUnlock
 444              		.loc 1 260 0
 445              		@ sp needed for prologue
 446 0032 201C     		mov	r0, r4
 447              	.LVL47:
 448 0034 38BD     		pop	{r3, r4, r5, pc}
 449              	.LVL48:
 450              	.L45:
 451              		.loc 1 248 0
 452 0036 014C     		ldr	r4, .L46
 453 0038 E7E7     		b	.L38
 454              	.L47:
ARM GAS  C:\Users\Rob\AppData\Local\Temp\ccubDnQ5.s 			page 9


 455 003a C046     		.align	2
 456              	.L46:
 457 003c 00000000 		.word	.LANCHOR0
 458              		.cfi_endproc
 459              	.LFE11:
 460              		.size	chHeapStatus, .-chHeapStatus
 461              		.section	.bss.default_heap,"aw",%nobits
 462              		.align	3
 463              		.set	.LANCHOR0,. + 0
 464              		.type	default_heap, %object
 465              		.size	default_heap, 32
 466              	default_heap:
 467 0000 00000000 		.space	32
 467      00000000 
 467      00000000 
 467      00000000 
 467      00000000 
 468              		.text
 469              	.Letext0:
 470              		.file 2 "c:\\yagarto\\bin\\../lib/gcc/arm-none-eabi/4.6.2/include/stddef.h"
 471              		.file 3 "c:/yagarto/lib/gcc/../../arm-none-eabi/sys-include/stdint.h"
 472              		.file 4 "../../os/ports/GCC/ARMCMx/chtypes.h"
 473              		.file 5 "../../os/kernel/include/chlists.h"
 474              		.file 6 "../../os/kernel/include/chthreads.h"
 475              		.file 7 "../../os/ports/GCC/ARMCMx/chcore_v6m.h"
 476              		.file 8 "../../os/kernel/include/chmtx.h"
 477              		.file 9 "../../os/kernel/include/chmemcore.h"
 478              		.file 10 "../../os/kernel/include/chheap.h"