ARM GAS  C:\Users\Rob\AppData\Local\Temp\cchktrNl.s 			page 1


   1              		.cpu cortex-m0
   2              		.fpu softvfp
   3              		.eabi_attribute 20, 1
   4              		.eabi_attribute 21, 1
   5              		.eabi_attribute 23, 3
   6              		.eabi_attribute 24, 1
   7              		.eabi_attribute 25, 1
   8              		.eabi_attribute 26, 1
   9              		.eabi_attribute 30, 2
  10              		.eabi_attribute 18, 4
  11              		.code	16
  12              		.file	"chmempools.c"
  13              		.text
  14              	.Ltext0:
  15              		.cfi_sections	.debug_frame
  16              		.section	.text.chPoolInit,"ax",%progbits
  17              		.align	2
  18              		.p2align 4,,15
  19              		.global	chPoolInit
  20              		.code	16
  21              		.thumb_func
  22              		.type	chPoolInit, %function
  23              	chPoolInit:
  24              	.LFB7:
  25              		.file 1 "../../os/kernel/src/chmempools.c"
  26              		.loc 1 55 0
  27              		.cfi_startproc
  28              	.LVL0:
  29              		.loc 1 59 0
  30 0000 0023     		mov	r3, #0
  31 0002 0360     		str	r3, [r0]
  32              		.loc 1 60 0
  33 0004 4160     		str	r1, [r0, #4]
  34              		.loc 1 61 0
  35 0006 8260     		str	r2, [r0, #8]
  36              		.loc 1 62 0
  37              		@ sp needed for prologue
  38 0008 7047     		bx	lr
  39              		.cfi_endproc
  40              	.LFE7:
  41              		.size	chPoolInit, .-chPoolInit
  42 000a C046C046 		.section	.text.chPoolLoadArray,"ax",%progbits
  42      C046
  43              		.align	2
  44              		.p2align 4,,15
  45              		.global	chPoolLoadArray
  46              		.code	16
  47              		.thumb_func
  48              		.type	chPoolLoadArray, %function
  49              	chPoolLoadArray:
  50              	.LFB8:
  51              		.loc 1 77 0
  52              		.cfi_startproc
  53 0000 00B5     		push	{lr}
  54              	.LCFI0:
  55              		.cfi_def_cfa_offset 4
  56              		.cfi_offset 14, -4
ARM GAS  C:\Users\Rob\AppData\Local\Temp\cchktrNl.s 			page 2


  57              	.LVL1:
  58 0002 07E0     		b	.L7
  59              	.L5:
  60              	.LVL2:
  61              	.LBB10:
  62              	.LBB11:
  63              		.loc 1 166 0
  64              	@ 166 "../../os/kernel/src/chmempools.c" 1
  65 0004 72B6     		cpsid   i
  66              	@ 0 "" 2
  67              	.LVL3:
  68              		.code	16
  69              	.LBB12:
  70              	.LBB13:
  71              		.loc 1 148 0
  72 0006 0368     		ldr	r3, [r0]
  73 0008 0B60     		str	r3, [r1]
  74              		.loc 1 149 0
  75 000a 0160     		str	r1, [r0]
  76              	.LBE13:
  77              	.LBE12:
  78              		.loc 1 168 0
  79              	@ 168 "../../os/kernel/src/chmempools.c" 1
  80 000c 62B6     		cpsie   i
  81              	@ 0 "" 2
  82              		.code	16
  83              	.LBE11:
  84              	.LBE10:
  85              		.loc 1 83 0
  86 000e 4368     		ldr	r3, [r0, #4]
  87              		.loc 1 84 0
  88 0010 013A     		sub	r2, r2, #1
  89              	.LVL4:
  90              		.loc 1 83 0
  91 0012 C918     		add	r1, r1, r3
  92              	.LVL5:
  93              	.L7:
  94              		.loc 1 81 0
  95 0014 002A     		cmp	r2, #0
  96 0016 F5D1     		bne	.L5
  97              		.loc 1 86 0
  98              		@ sp needed for prologue
  99 0018 00BD     		pop	{pc}
 100              		.cfi_endproc
 101              	.LFE8:
 102              		.size	chPoolLoadArray, .-chPoolLoadArray
 103 001a C046C046 		.section	.text.chPoolAllocI,"ax",%progbits
 103      C046
 104              		.align	2
 105              		.p2align 4,,15
 106              		.global	chPoolAllocI
 107              		.code	16
 108              		.thumb_func
 109              		.type	chPoolAllocI, %function
 110              	chPoolAllocI:
 111              	.LFB9:
 112              		.loc 1 98 0
ARM GAS  C:\Users\Rob\AppData\Local\Temp\cchktrNl.s 			page 3


 113              		.cfi_startproc
 114 0000 08B5     		push	{r3, lr}
 115              	.LCFI1:
 116              		.cfi_def_cfa_offset 8
 117              		.cfi_offset 3, -8
 118              		.cfi_offset 14, -4
 119              	.LVL6:
 120              		.loc 1 98 0
 121 0002 021C     		mov	r2, r0
 122              		.loc 1 104 0
 123 0004 0068     		ldr	r0, [r0]
 124              	.LVL7:
 125 0006 0028     		cmp	r0, #0
 126 0008 02D0     		beq	.L10
 127              		.loc 1 105 0
 128 000a 0368     		ldr	r3, [r0]
 129 000c 1360     		str	r3, [r2]
 130              	.LVL8:
 131              	.L11:
 132              		.loc 1 109 0
 133              		@ sp needed for prologue
 134 000e 08BD     		pop	{r3, pc}
 135              	.LVL9:
 136              	.L10:
 137              		.loc 1 106 0
 138 0010 9368     		ldr	r3, [r2, #8]
 139 0012 002B     		cmp	r3, #0
 140 0014 FBD0     		beq	.L11
 141              		.loc 1 107 0
 142 0016 5068     		ldr	r0, [r2, #4]
 143              	.LVL10:
 144 0018 9847     		blx	r3
 145              	.LVL11:
 146 001a F8E7     		b	.L11
 147              		.cfi_endproc
 148              	.LFE9:
 149              		.size	chPoolAllocI, .-chPoolAllocI
 150 001c C046C046 		.section	.text.chPoolAlloc,"ax",%progbits
 151              		.align	2
 152              		.p2align 4,,15
 153              		.global	chPoolAlloc
 154              		.code	16
 155              		.thumb_func
 156              		.type	chPoolAlloc, %function
 157              	chPoolAlloc:
 158              	.LFB10:
 159              		.loc 1 121 0
 160              		.cfi_startproc
 161 0000 08B5     		push	{r3, lr}
 162              	.LCFI2:
 163              		.cfi_def_cfa_offset 8
 164              		.cfi_offset 3, -8
 165              		.cfi_offset 14, -4
 166              	.LVL12:
 167              		.loc 1 121 0
 168 0002 021C     		mov	r2, r0
 169              		.loc 1 124 0
ARM GAS  C:\Users\Rob\AppData\Local\Temp\cchktrNl.s 			page 4


 170              	@ 124 "../../os/kernel/src/chmempools.c" 1
 171 0004 72B6     		cpsid   i
 172              	@ 0 "" 2
 173              	.LVL13:
 174              		.code	16
 175              	.LBB14:
 176              	.LBB15:
 177              		.loc 1 104 0
 178 0006 0068     		ldr	r0, [r0]
 179              	.LVL14:
 180 0008 0028     		cmp	r0, #0
 181 000a 03D0     		beq	.L13
 182              		.loc 1 105 0
 183 000c 0368     		ldr	r3, [r0]
 184 000e 1360     		str	r3, [r2]
 185              	.LVL15:
 186              	.L14:
 187              	.LBE15:
 188              	.LBE14:
 189              		.loc 1 126 0
 190              	@ 126 "../../os/kernel/src/chmempools.c" 1
 191 0010 62B6     		cpsie   i
 192              	@ 0 "" 2
 193              		.loc 1 128 0
 194              		.code	16
 195              		@ sp needed for prologue
 196 0012 08BD     		pop	{r3, pc}
 197              	.LVL16:
 198              	.L13:
 199              	.LBB17:
 200              	.LBB16:
 201              		.loc 1 106 0
 202 0014 9368     		ldr	r3, [r2, #8]
 203 0016 002B     		cmp	r3, #0
 204 0018 FAD0     		beq	.L14
 205              		.loc 1 107 0
 206 001a 5068     		ldr	r0, [r2, #4]
 207              	.LVL17:
 208 001c 9847     		blx	r3
 209              	.LVL18:
 210 001e F7E7     		b	.L14
 211              	.LBE16:
 212              	.LBE17:
 213              		.cfi_endproc
 214              	.LFE10:
 215              		.size	chPoolAlloc, .-chPoolAlloc
 216              		.section	.text.chPoolFreeI,"ax",%progbits
 217              		.align	2
 218              		.p2align 4,,15
 219              		.global	chPoolFreeI
 220              		.code	16
 221              		.thumb_func
 222              		.type	chPoolFreeI, %function
 223              	chPoolFreeI:
 224              	.LFB11:
 225              		.loc 1 142 0
 226              		.cfi_startproc
ARM GAS  C:\Users\Rob\AppData\Local\Temp\cchktrNl.s 			page 5


 227              	.LVL19:
 228              		.loc 1 148 0
 229 0000 0368     		ldr	r3, [r0]
 230              		.loc 1 150 0
 231              		@ sp needed for prologue
 232              		.loc 1 148 0
 233 0002 0B60     		str	r3, [r1]
 234              		.loc 1 149 0
 235 0004 0160     		str	r1, [r0]
 236              		.loc 1 150 0
 237 0006 7047     		bx	lr
 238              		.cfi_endproc
 239              	.LFE11:
 240              		.size	chPoolFreeI, .-chPoolFreeI
 241 0008 C046C046 		.section	.text.chPoolFree,"ax",%progbits
 241      C046C046 
 242              		.align	2
 243              		.p2align 4,,15
 244              		.global	chPoolFree
 245              		.code	16
 246              		.thumb_func
 247              		.type	chPoolFree, %function
 248              	chPoolFree:
 249              	.LFB12:
 250              		.loc 1 164 0
 251              		.cfi_startproc
 252              	.LVL20:
 253              		.loc 1 166 0
 254              	@ 166 "../../os/kernel/src/chmempools.c" 1
 255 0000 72B6     		cpsid   i
 256              	@ 0 "" 2
 257              	.LVL21:
 258              		.code	16
 259              	.LBB18:
 260              	.LBB19:
 261              		.loc 1 148 0
 262 0002 0368     		ldr	r3, [r0]
 263 0004 0B60     		str	r3, [r1]
 264              		.loc 1 149 0
 265 0006 0160     		str	r1, [r0]
 266              	.LBE19:
 267              	.LBE18:
 268              		.loc 1 168 0
 269              	@ 168 "../../os/kernel/src/chmempools.c" 1
 270 0008 62B6     		cpsie   i
 271              	@ 0 "" 2
 272              		.loc 1 169 0
 273              		.code	16
 274              		@ sp needed for prologue
 275 000a 7047     		bx	lr
 276              		.cfi_endproc
 277              	.LFE12:
 278              		.size	chPoolFree, .-chPoolFree
 279 000c C046C046 		.text
 280              	.Letext0:
 281              		.file 2 "c:\\yagarto\\bin\\../lib/gcc/arm-none-eabi/4.6.2/include/stddef.h"
 282              		.file 3 "c:/yagarto/lib/gcc/../../arm-none-eabi/sys-include/stdint.h"
ARM GAS  C:\Users\Rob\AppData\Local\Temp\cchktrNl.s 			page 6


 283              		.file 4 "../../os/kernel/include/chmemcore.h"
 284              		.file 5 "../../os/kernel/include/chmempools.h"