ARM GAS  C:\Users\Rob\AppData\Local\Temp\cchktrNl.s 			page 1


   1              		.cpu cortex-m0
   2              		.fpu softvfp
   3              		.eabi_attribute 20, 1
   4              		.eabi_attribute 21, 1
   5              		.eabi_attribute 23, 3
   6              		.eabi_attribute 24, 1
   7              		.eabi_attribute 25, 1
   8              		.eabi_attribute 26, 1
   9              		.eabi_attribute 30, 2
  10              		.eabi_attribute 18, 4
  11              		.code	16
  12              		.file	"chmempools.c"
  13              		.text
  14              	.Ltext0:
  15              		.cfi_sections	.debug_frame
  16              		.section	.text.chPoolInit,"ax",%progbits
  17              		.align	2
  18              		.p2align 4,,15
  19              		.global	chPoolInit
  20              		.code	16
  21              		.thumb_func
  22              		.type	chPoolInit, %function
  23              	chPoolInit:
  24              	.LFB7:
  25              		.file 1 "../../os/kernel/src/chmempools.c"
  26              		.loc 1 55 0
  27              		.cfi_startproc
  28              	.LVL0:
  29              		.loc 1 59 0
  30 0000 0023     		mov	r3, #0
  31 0002 0360     		str	r3, [r0]
  32              		.loc 1 60 0
  33 0004 4160     		str	r1, [r0, #4]
  34              		.loc 1 61 0
  35 0006 8260     		str	r2, [r0, #8]
  36              		.loc 1 62 0
  37              		@ sp needed for prologue
  38 0008 7047     		bx	lr
  39              		.cfi_endproc
  40              	.LFE7:
  41              		.size	chPoolInit, .-chPoolInit
  42 000a C046C046 		.section	.text.chPoolLoadArray,"ax",%progbits
  42      C046
  43              		.align	2
  44              		.p2align 4,,15
  45              		.global	chPoolLoadArray
  46              		.code	16
  47              		.thumb_func
  48              		.type	chPoolLoadArray, %function
  49              	chPoolLoadArray:
  50              	.LFB8:
  51              		.loc 1 77 0
  52              		.cfi_startproc
  53 0000 00B5     		push	{lr}
  54              	.LCFI0:
  55              		.cfi_def_cfa_offset 4
  56              		.cfi_offset 14, -4
ARM GAS  C:\Users\Rob\AppData\Local\Temp\cchktrNl.s 			page 2


  57              	.LVL1:
  58 0002 07E0     		b	.L7
  59              	.L5:
  60              	.LVL2:
  61              	.LBB10:
  62              	.LBB11:
  63              		.loc 1 166 0
  64              	@ 166 "../../os/kernel/src/chmempools.c" 1
  65 0004 72B6     		cpsid   i
  66              	@ 0 "" 2
  67              	.LVL3:
  68              		.code	16
  69              	.LBB12:
  70              	.LBB13:
  71              		.loc 1 148 0
  72 0006 0368     		ldr	r3, [r0]
  73 0008 0B60     		str	r3, [r1]
  74              		.loc 1 149 0
  75 000a 0160     		str	r1, [r0]
  76              	.LBE13:
  77              	.LBE12:
  78              		.loc 1 168 0
  79              	@ 168 "../../os/kernel/src/chmempools.c" 1
  80 000c 62B6     		cpsie   i
  81              	@ 0 "" 2
  82              		.code	16
  83              	.LBE11:
  84              	.LBE10:
  85              		.loc 1 83 0
  86 000e 4368     		ldr	r3, [r0, #4]
  87              		.loc 1 84 0
  88 0010 013A     		sub	r2, r2, #1
  89              	.LVL4:
  90              		.loc 1 83 0
  91 0012 C918     		add	r1, r1, r3
  92              	.LVL5:
  93              	.L7:
  94              		.loc 1 81 0
  95 0014 002A     		cmp	r2, #0
  96 0016 F5D1     		bne	.L5
  97              		.loc 1 86 0
  98              		@ sp needed for prologue
  99 0018 00BD     		pop	{pc}
 100              		.cfi_endproc
 101              	.LFE8:
 102              		.size	chPoolLoadArray, .-chPoolLoadArray
 103 001a C046C046 		.section	.text.chPoolAllocI,"ax",%progbits
 103      C046
 104              		.align	2
 105              		.p2align 4,,15
 106              		.global	chPoolAllocI
 107              		.code	16
 108              		.thumb_func
 109              		.type	chPoolAllocI, %function
 110              	chPoolAllocI:
 111              	.LFB9:
 112              		.loc 1 98 0
ARM GAS  C:\Users\Rob\AppData\Local\Temp\cchktrNl.s 			page 3


 113              		.cfi_startproc
 114 0000 08B5     		push	{r3, lr}
 115              	.LCFI1:
 116              		.cfi_def_cfa_offset 8
 117              		.cfi_offset 3, -8
 118              		.cfi_offset 14, -4
 119              	.LVL6:
 120              		.loc 1 98 0
 121 0002 021C     		mov	r2, r0
 122              		.loc 1 104 0
 123 0004 0068     		ldr	r0, [r0]
 124              	.LVL7:
 125 0006 0028     		cmp	r0, #0
 126 0008 02D0     		beq	.L10
 127              		.loc 1 105 0
 128 000a 0368     		ldr	r3, [r0]
 129 000c 1360     		str	r3, [r2]
 130              	.LVL8:
 131              	.L11:
 132              		.loc 1 109 0
 133              		@ sp needed for prologue
 134 000e 08BD     		pop	{r3, pc}
 135              	.LVL9:
 136              	.L10:
 137              		.loc 1 106 0
 138 0010 9368     		ldr	r3, [r2, #8]
 139 0012 002B     		cmp	r3, #0
 140 0014 FBD0     		beq	.L11
 141              		.loc 1 107 0
 142 0016 5068     		ldr	r0, [r2, #4]
 143              	.LVL10:
 144 0018 9847     		blx	r3
 145              	.LVL11:
 146 001a F8E7     		b	.L11
 147              		.cfi_endproc
 148              	.LFE9:
 149              		.size	chPoolAllocI, .-chPoolAllocI
 150 001c C046C046 		.section	.text.chPoolAlloc,"ax",%progbits
 151              		.align	2
 152              		.p2align 4,,15
 153              		.global	chPoolAlloc
 154              		.code	16
 155              		.thumb_func
 156              		.type	chPoolAlloc, %function
 157              	chPoolAlloc:
 158              	.LFB10:
 159              		.loc 1 121 0
 160              		.cfi_startproc
 161 0000 08B5     		push	{r3, lr}
 162              	.LCFI2:
 163              		.cfi_def_cfa_offset 8
 164              		.cfi_offset 3, -8
 165              		.cfi_offset 14, -4
 166              	.LVL12:
 167              		.loc 1 121 0
 168 0002 021C     		mov	r2, r0
 169              		.loc 1 124 0
ARM GAS  C:\Users\Rob\AppData\Local\Temp\cchktrNl.s 			page 4


 170              	@ 124 "../../os/kernel/src/chmempools.c" 1
 171 0004 72B6     		cpsid   i
 172              	@ 0 "" 2
 173              	.LVL13:
 174              		.code	16
 175              	.LBB14:
 176              	.LBB15:
 177              		.loc 1 104 0
 178 0006 0068     		ldr	r0, [r0]
 179              	.LVL14:
 180 0008 0028     		cmp	r0, #0
 181 000a 03D0     		beq	.L13
 182              		.loc 1 105 0
 183 000c 0368     		ldr	r3, [r0]
 184 000e 1360     		str	r3, [r2]
 185              	.LVL15:
 186              	.L14:
 187              	.LBE15:
 188              	.LBE14:
 189              		.loc 1 126 0
 190              	@ 126 "../../os/kernel/src/chmempools.c" 1
 191 0010 62B6     		cpsie   i
 192              	@ 0 "" 2
 193              		.loc 1 128 0
 194              		.code	16
 195              		@ sp needed for prologue
 196 0012 08BD     		pop	{r3, pc}
 197              	.LVL16:
 198              	.L13:
 199              	.LBB17:
 200              	.LBB16:
 201              		.loc 1 106 0
 202 0014 9368     		ldr	r3, [r2, #8]
 203 0016 002B     		cmp	r3, #0
 204 0018 FAD0     		beq	.L14
 205              		.loc 1 107 0
 206 001a 5068     		ldr	r0, [r2, #4]
 207              	.LVL17:
 208 001c 9847     		blx	r3
 209              	.LVL18:
 210 001e F7E7     		b	.L14
 211              	.LBE16:
 212              	.LBE17:
 213              		.cfi_endproc
 214              	.LFE10:
 215              		.size	chPoolAlloc, .-chPoolAlloc
 216              		.section	.text.chPoolFreeI,"ax",%progbits
 217              		.align	2
 218              		.p2align 4,,15
 219              		.global	chPoolFreeI
 220              		.code	16
 221              		.thumb_func
 222              		.type	chPoolFreeI, %function
 223              	chPoolFreeI:
 224              	.LFB11:
 225              		.loc 1 142 0
 226              		.cfi_startproc
ARM GAS  C:\Users\Rob\AppData\Local\Temp\cchktrNl.s 			page 5


 227              	.LVL19:
 228              		.loc 1 148 0
 229 0000 0368     		ldr	r3, [r0]
 230              		.loc 1 150 0
 231              		@ sp needed for prologue
 232              		.loc 1 148 0
 233 0002 0B60     		str	r3, [r1]
 234              		.loc 1 149 0
 235 0004 0160     		str	r1, [r0]
 236              		.loc 1 150 0
 237 0006 7047     		bx	lr
 238              		.cfi_endproc
 239              	.LFE11:
 240              		.size	chPoolFreeI, .-chPoolFreeI
 241 0008 C046C046 		.section	.text.chPoolFree,"ax",%progbits
 241      C046C046 
 242              		.align	2
 243              		.p2align 4,,15
 244              		.global	chPoolFree
 245              		.code	16
 246              		.thumb_func
 247              		.type	chPoolFree, %function
 248              	chPoolFree:
 249              	.LFB12:
 250              		.loc 1 164 0
 251              		.cfi_startproc
 252              	.LVL20:
 253              		.loc 1 166 0
 254              	@ 166 "../../os/kernel/src/chmempools.c" 1
 255 0000 72B6     		cpsid   i
 256              	@ 0 "" 2
 257              	.LVL21:
 258              		.code	16
 259              	.LBB18:
 260              	.LBB19:
 261              		.loc 1 148 0
 262 0002 0368     		ldr	r3, [r0]
 263 0004 0B60     		str	r3, [r1]
 264              		.loc 1 149 0
 265 0006 0160     		str	r1, [r0]
 266              	.LBE19:
 267              	.LBE18:
 268              		.loc 1 168 0
 269              	@ 168 "../../os/kernel/src/chmempools.c" 1
 270 0008 62B6     		cpsie   i
 271              	@ 0 "" 2
 272              		.loc 1 169 0
 273              		.code	16
 274              		@ sp needed for prologue
 275 000a 7047     		bx	lr
 276              		.cfi_endproc
 277              	.LFE12:
 278              		.size	chPoolFree, .-chPoolFree
 279 000c C046C046 		.text
 280              	.Letext0:
 281              		.file 2 "c:\\yagarto\\bin\\../lib/gcc/arm-none-eabi/4.6.2/include/stddef.h"
 282              		.file 3 "c:/yagarto/lib/gcc/../../arm-none-eabi/sys-include/stdint.h"
ARM GAS  C:\Users\Rob\AppData\Local\Temp\cchktrNl.s 			page 6


 283              		.file 4 "../../os/kernel/include/chmemcore.h"
 284              		.file 5 "../../os/kernel/include/chmempools.h"
 285              		.section	.debug_info,"",%progbits
 286              	.Ldebug_info0:
 287 0000 68030000 		.4byte	0x368
 288 0004 0200     		.2byte	0x2
 289 0006 00000000 		.4byte	.Ldebug_abbrev0
 290 000a 04       		.byte	0x4
 291 000b 01       		.uleb128 0x1
 292 000c 07000000 		.4byte	.LASF26
 293 0010 01       		.byte	0x1
 294 0011 5C010000 		.4byte	.LASF27
 295 0015 8B000000 		.4byte	.LASF28
 296 0019 00000000 		.4byte	0
 297 001d 00000000 		.4byte	0
 298 0021 30000000 		.4byte	.Ldebug_ranges0+0x30
 299 0025 00000000 		.4byte	.Ldebug_line0
 300 0029 02       		.uleb128 0x2
 301 002a 04       		.byte	0x4
 302 002b 05       		.byte	0x5
 303 002c 696E7400 		.ascii	"int\000"
 304 0030 03       		.uleb128 0x3
 305 0031 00000000 		.4byte	.LASF2
 306 0035 02       		.byte	0x2
 307 0036 D4       		.byte	0xd4
 308 0037 3B000000 		.4byte	0x3b
 309 003b 04       		.uleb128 0x4
 310 003c 04       		.byte	0x4
 311 003d 07       		.byte	0x7
 312 003e E6000000 		.4byte	.LASF0
 313 0042 04       		.uleb128 0x4
 314 0043 01       		.byte	0x1
 315 0044 06       		.byte	0x6
 316 0045 86010000 		.4byte	.LASF1
 317 0049 03       		.uleb128 0x3
 318 004a 0A010000 		.4byte	.LASF3
 319 004e 03       		.byte	0x3
 320 004f 2A       		.byte	0x2a
 321 0050 54000000 		.4byte	0x54
 322 0054 04       		.uleb128 0x4
 323 0055 01       		.byte	0x1
 324 0056 08       		.byte	0x8
 325 0057 7D000000 		.4byte	.LASF4
 326 005b 04       		.uleb128 0x4
 327 005c 02       		.byte	0x2
 328 005d 05       		.byte	0x5
 329 005e 46010000 		.4byte	.LASF5
 330 0062 04       		.uleb128 0x4
 331 0063 02       		.byte	0x2
 332 0064 07       		.byte	0x7
 333 0065 55000000 		.4byte	.LASF6
 334 0069 04       		.uleb128 0x4
 335 006a 04       		.byte	0x4
 336 006b 05       		.byte	0x5
 337 006c 7D010000 		.4byte	.LASF7
 338 0070 04       		.uleb128 0x4
 339 0071 04       		.byte	0x4
ARM GAS  C:\Users\Rob\AppData\Local\Temp\cchktrNl.s 			page 7


 340 0072 07       		.byte	0x7
 341 0073 43000000 		.4byte	.LASF8
 342 0077 04       		.uleb128 0x4
 343 0078 08       		.byte	0x8
 344 0079 05       		.byte	0x5
 345 007a 1A010000 		.4byte	.LASF9
 346 007e 04       		.uleb128 0x4
 347 007f 08       		.byte	0x8
 348 0080 07       		.byte	0x7
 349 0081 F3000000 		.4byte	.LASF10
 350 0085 04       		.uleb128 0x4
 351 0086 01       		.byte	0x1
 352 0087 02       		.byte	0x2
 353 0088 9A010000 		.4byte	.LASF11
 354 008c 05       		.uleb128 0x5
 355 008d 04       		.byte	0x4
 356 008e 03       		.uleb128 0x3
 357 008f 2D010000 		.4byte	.LASF12
 358 0093 04       		.byte	0x4
 359 0094 25       		.byte	0x25
 360 0095 99000000 		.4byte	0x99
 361 0099 06       		.uleb128 0x6
 362 009a 04       		.byte	0x4
 363 009b 9F000000 		.4byte	0x9f
 364 009f 07       		.uleb128 0x7
 365 00a0 01       		.byte	0x1
 366 00a1 8C000000 		.4byte	0x8c
 367 00a5 AF000000 		.4byte	0xaf
 368 00a9 08       		.uleb128 0x8
 369 00aa 30000000 		.4byte	0x30
 370 00ae 00       		.byte	0
 371 00af 09       		.uleb128 0x9
 372 00b0 32000000 		.4byte	.LASF29
 373 00b4 04       		.byte	0x4
 374 00b5 05       		.byte	0x5
 375 00b6 25       		.byte	0x25
 376 00b7 CA000000 		.4byte	0xca
 377 00bb 0A       		.uleb128 0xa
 378 00bc 12010000 		.4byte	.LASF13
 379 00c0 05       		.byte	0x5
 380 00c1 26       		.byte	0x26
 381 00c2 CA000000 		.4byte	0xca
 382 00c6 02       		.byte	0x2
 383 00c7 23       		.byte	0x23
 384 00c8 00       		.uleb128 0
 385 00c9 00       		.byte	0
 386 00ca 06       		.uleb128 0x6
 387 00cb 04       		.byte	0x4
 388 00cc AF000000 		.4byte	0xaf
 389 00d0 0B       		.uleb128 0xb
 390 00d1 0C       		.byte	0xc
 391 00d2 05       		.byte	0x5
 392 00d3 2D       		.byte	0x2d
 393 00d4 03010000 		.4byte	0x103
 394 00d8 0A       		.uleb128 0xa
 395 00d9 92010000 		.4byte	.LASF14
 396 00dd 05       		.byte	0x5
ARM GAS  C:\Users\Rob\AppData\Local\Temp\cchktrNl.s 			page 8


 397 00de 2E       		.byte	0x2e
 398 00df CA000000 		.4byte	0xca
 399 00e3 02       		.byte	0x2
 400 00e4 23       		.byte	0x23
 401 00e5 00       		.uleb128 0
 402 00e6 0A       		.uleb128 0xa
 403 00e7 13000000 		.4byte	.LASF15
 404 00eb 05       		.byte	0x5
 405 00ec 2F       		.byte	0x2f
 406 00ed 30000000 		.4byte	0x30
 407 00f1 02       		.byte	0x2
 408 00f2 23       		.byte	0x23
 409 00f3 04       		.uleb128 0x4
 410 00f4 0A       		.uleb128 0xa
 411 00f5 3A010000 		.4byte	.LASF16
 412 00f9 05       		.byte	0x5
 413 00fa 31       		.byte	0x31
 414 00fb 8E000000 		.4byte	0x8e
 415 00ff 02       		.byte	0x2
 416 0100 23       		.byte	0x23
 417 0101 08       		.uleb128 0x8
 418 0102 00       		.byte	0
 419 0103 03       		.uleb128 0x3
 420 0104 C9000000 		.4byte	.LASF17
 421 0108 05       		.byte	0x5
 422 0109 33       		.byte	0x33
 423 010a D0000000 		.4byte	0xd0
 424 010e 04       		.uleb128 0x4
 425 010f 01       		.byte	0x1
 426 0110 08       		.byte	0x8
 427 0111 28010000 		.4byte	.LASF18
 428 0115 0C       		.uleb128 0xc
 429 0116 01       		.byte	0x1
 430 0117 D9000000 		.4byte	.LASF30
 431 011b 01       		.byte	0x1
 432 011c 62       		.byte	0x62
 433 011d 01       		.byte	0x1
 434 011e 8C000000 		.4byte	0x8c
 435 0122 01       		.byte	0x1
 436 0123 3D010000 		.4byte	0x13d
 437 0127 0D       		.uleb128 0xd
 438 0128 6D7000   		.ascii	"mp\000"
 439 012b 01       		.byte	0x1
 440 012c 62       		.byte	0x62
 441 012d 3D010000 		.4byte	0x13d
 442 0131 0E       		.uleb128 0xe
 443 0132 D4000000 		.4byte	.LASF19
 444 0136 01       		.byte	0x1
 445 0137 63       		.byte	0x63
 446 0138 8C000000 		.4byte	0x8c
 447 013c 00       		.byte	0
 448 013d 06       		.uleb128 0x6
 449 013e 04       		.byte	0x4
 450 013f 03010000 		.4byte	0x103
 451 0143 0F       		.uleb128 0xf
 452 0144 01       		.byte	0x1
 453 0145 71000000 		.4byte	.LASF20
ARM GAS  C:\Users\Rob\AppData\Local\Temp\cchktrNl.s 			page 9


 454 0149 01       		.byte	0x1
 455 014a 8E       		.byte	0x8e
 456 014b 01       		.byte	0x1
 457 014c 01       		.byte	0x1
 458 014d 72010000 		.4byte	0x172
 459 0151 0D       		.uleb128 0xd
 460 0152 6D7000   		.ascii	"mp\000"
 461 0155 01       		.byte	0x1
 462 0156 8E       		.byte	0x8e
 463 0157 3D010000 		.4byte	0x13d
 464 015b 10       		.uleb128 0x10
 465 015c D4000000 		.4byte	.LASF19
 466 0160 01       		.byte	0x1
 467 0161 8E       		.byte	0x8e
 468 0162 8C000000 		.4byte	0x8c
 469 0166 11       		.uleb128 0x11
 470 0167 70687000 		.ascii	"php\000"
 471 016b 01       		.byte	0x1
 472 016c 8F       		.byte	0x8f
 473 016d CA000000 		.4byte	0xca
 474 0171 00       		.byte	0
 475 0172 0F       		.uleb128 0xf
 476 0173 01       		.byte	0x1
 477 0174 BE000000 		.4byte	.LASF21
 478 0178 01       		.byte	0x1
 479 0179 A4       		.byte	0xa4
 480 017a 01       		.byte	0x1
 481 017b 01       		.byte	0x1
 482 017c 96010000 		.4byte	0x196
 483 0180 0D       		.uleb128 0xd
 484 0181 6D7000   		.ascii	"mp\000"
 485 0184 01       		.byte	0x1
 486 0185 A4       		.byte	0xa4
 487 0186 3D010000 		.4byte	0x13d
 488 018a 10       		.uleb128 0x10
 489 018b D4000000 		.4byte	.LASF19
 490 018f 01       		.byte	0x1
 491 0190 A4       		.byte	0xa4
 492 0191 8C000000 		.4byte	0x8c
 493 0195 00       		.byte	0
 494 0196 12       		.uleb128 0x12
 495 0197 01       		.byte	0x1
 496 0198 A0010000 		.4byte	.LASF24
 497 019c 01       		.byte	0x1
 498 019d 37       		.byte	0x37
 499 019e 01       		.byte	0x1
 500 019f 00000000 		.4byte	.LFB7
 501 01a3 0A000000 		.4byte	.LFE7
 502 01a7 02       		.byte	0x2
 503 01a8 7D       		.byte	0x7d
 504 01a9 00       		.sleb128 0
 505 01aa D5010000 		.4byte	0x1d5
 506 01ae 13       		.uleb128 0x13
 507 01af 6D7000   		.ascii	"mp\000"
 508 01b2 01       		.byte	0x1
 509 01b3 37       		.byte	0x37
 510 01b4 3D010000 		.4byte	0x13d
ARM GAS  C:\Users\Rob\AppData\Local\Temp\cchktrNl.s 			page 10


 511 01b8 01       		.byte	0x1
 512 01b9 50       		.byte	0x50
 513 01ba 14       		.uleb128 0x14
 514 01bb 3E000000 		.4byte	.LASF22
 515 01bf 01       		.byte	0x1
 516 01c0 37       		.byte	0x37
 517 01c1 30000000 		.4byte	0x30
 518 01c5 01       		.byte	0x1
 519 01c6 51       		.byte	0x51
 520 01c7 14       		.uleb128 0x14
 521 01c8 68000000 		.4byte	.LASF23
 522 01cc 01       		.byte	0x1
 523 01cd 37       		.byte	0x37
 524 01ce 8E000000 		.4byte	0x8e
 525 01d2 01       		.byte	0x1
 526 01d3 52       		.byte	0x52
 527 01d4 00       		.byte	0
 528 01d5 15       		.uleb128 0x15
 529 01d6 01       		.byte	0x1
 530 01d7 22000000 		.4byte	.LASF25
 531 01db 01       		.byte	0x1
 532 01dc 4D       		.byte	0x4d
 533 01dd 01       		.byte	0x1
 534 01de 00000000 		.4byte	.LFB8
 535 01e2 1A000000 		.4byte	.LFE8
 536 01e6 00000000 		.4byte	.LLST0
 537 01ea 6A020000 		.4byte	0x26a
 538 01ee 13       		.uleb128 0x13
 539 01ef 6D7000   		.ascii	"mp\000"
 540 01f2 01       		.byte	0x1
 541 01f3 4D       		.byte	0x4d
 542 01f4 3D010000 		.4byte	0x13d
 543 01f8 01       		.byte	0x1
 544 01f9 50       		.byte	0x50
 545 01fa 13       		.uleb128 0x13
 546 01fb 7000     		.ascii	"p\000"
 547 01fd 01       		.byte	0x1
 548 01fe 4D       		.byte	0x4d
 549 01ff 8C000000 		.4byte	0x8c
 550 0203 01       		.byte	0x1
 551 0204 51       		.byte	0x51
 552 0205 16       		.uleb128 0x16
 553 0206 6E00     		.ascii	"n\000"
 554 0208 01       		.byte	0x1
 555 0209 4D       		.byte	0x4d
 556 020a 30000000 		.4byte	0x30
 557 020e 20000000 		.4byte	.LLST1
 558 0212 17       		.uleb128 0x17
 559 0213 72010000 		.4byte	0x172
 560 0217 04000000 		.4byte	.LBB10
 561 021b 0E000000 		.4byte	.LBE10
 562 021f 01       		.byte	0x1
 563 0220 52       		.byte	0x52
 564 0221 18       		.uleb128 0x18
 565 0222 8A010000 		.4byte	0x18a
 566 0226 4B000000 		.4byte	.LLST2
 567 022a 18       		.uleb128 0x18
ARM GAS  C:\Users\Rob\AppData\Local\Temp\cchktrNl.s 			page 11


 568 022b 80010000 		.4byte	0x180
 569 022f 5E000000 		.4byte	.LLST3
 570 0233 17       		.uleb128 0x17
 571 0234 43010000 		.4byte	0x143
 572 0238 06000000 		.4byte	.LBB12
 573 023c 0C000000 		.4byte	.LBE12
 574 0240 01       		.byte	0x1
 575 0241 A7       		.byte	0xa7
 576 0242 18       		.uleb128 0x18
 577 0243 5B010000 		.4byte	0x15b
 578 0247 71000000 		.4byte	.LLST4
 579 024b 18       		.uleb128 0x18
 580 024c 51010000 		.4byte	0x151
 581 0250 84000000 		.4byte	.LLST5
 582 0254 19       		.uleb128 0x19
 583 0255 06000000 		.4byte	.LBB13
 584 0259 0C000000 		.4byte	.LBE13
 585 025d 1A       		.uleb128 0x1a
 586 025e 66010000 		.4byte	0x166
 587 0262 71000000 		.4byte	.LLST4
 588 0266 00       		.byte	0
 589 0267 00       		.byte	0
 590 0268 00       		.byte	0
 591 0269 00       		.byte	0
 592 026a 1B       		.uleb128 0x1b
 593 026b 15010000 		.4byte	0x115
 594 026f 00000000 		.4byte	.LFB9
 595 0273 1C000000 		.4byte	.LFE9
 596 0277 97000000 		.4byte	.LLST7
 597 027b 92020000 		.4byte	0x292
 598 027f 18       		.uleb128 0x18
 599 0280 27010000 		.4byte	0x127
 600 0284 B7000000 		.4byte	.LLST8
 601 0288 1A       		.uleb128 0x1a
 602 0289 31010000 		.4byte	0x131
 603 028d E0000000 		.4byte	.LLST9
 604 0291 00       		.byte	0
 605 0292 1C       		.uleb128 0x1c
 606 0293 01       		.byte	0x1
 607 0294 50010000 		.4byte	.LASF31
 608 0298 01       		.byte	0x1
 609 0299 79       		.byte	0x79
 610 029a 01       		.byte	0x1
 611 029b 8C000000 		.4byte	0x8c
 612 029f 00000000 		.4byte	.LFB10
 613 02a3 20000000 		.4byte	.LFE10
 614 02a7 16010000 		.4byte	.LLST10
 615 02ab F3020000 		.4byte	0x2f3
 616 02af 16       		.uleb128 0x16
 617 02b0 6D7000   		.ascii	"mp\000"
 618 02b3 01       		.byte	0x1
 619 02b4 79       		.byte	0x79
 620 02b5 3D010000 		.4byte	0x13d
 621 02b9 36010000 		.4byte	.LLST11
 622 02bd 1D       		.uleb128 0x1d
 623 02be D4000000 		.4byte	.LASF19
 624 02c2 01       		.byte	0x1
ARM GAS  C:\Users\Rob\AppData\Local\Temp\cchktrNl.s 			page 12


 625 02c3 7A       		.byte	0x7a
 626 02c4 8C000000 		.4byte	0x8c
 627 02c8 01       		.byte	0x1
 628 02c9 50       		.byte	0x50
 629 02ca 1E       		.uleb128 0x1e
 630 02cb 15010000 		.4byte	0x115
 631 02cf 06000000 		.4byte	.LBB14
 632 02d3 00000000 		.4byte	.Ldebug_ranges0+0
 633 02d7 01       		.byte	0x1
 634 02d8 7D       		.byte	0x7d
 635 02d9 18       		.uleb128 0x18
 636 02da 27010000 		.4byte	0x127
 637 02de 54010000 		.4byte	.LLST12
 638 02e2 1F       		.uleb128 0x1f
 639 02e3 18000000 		.4byte	.Ldebug_ranges0+0x18
 640 02e7 1A       		.uleb128 0x1a
 641 02e8 31010000 		.4byte	0x131
 642 02ec 7D010000 		.4byte	.LLST13
 643 02f0 00       		.byte	0
 644 02f1 00       		.byte	0
 645 02f2 00       		.byte	0
 646 02f3 20       		.uleb128 0x20
 647 02f4 43010000 		.4byte	0x143
 648 02f8 00000000 		.4byte	.LFB11
 649 02fc 08000000 		.4byte	.LFE11
 650 0300 02       		.byte	0x2
 651 0301 7D       		.byte	0x7d
 652 0302 00       		.sleb128 0
 653 0303 1D030000 		.4byte	0x31d
 654 0307 21       		.uleb128 0x21
 655 0308 51010000 		.4byte	0x151
 656 030c 01       		.byte	0x1
 657 030d 50       		.byte	0x50
 658 030e 21       		.uleb128 0x21
 659 030f 5B010000 		.4byte	0x15b
 660 0313 01       		.byte	0x1
 661 0314 51       		.byte	0x51
 662 0315 22       		.uleb128 0x22
 663 0316 66010000 		.4byte	0x166
 664 031a 01       		.byte	0x1
 665 031b 51       		.byte	0x51
 666 031c 00       		.byte	0
 667 031d 23       		.uleb128 0x23
 668 031e 72010000 		.4byte	0x172
 669 0322 00000000 		.4byte	.LFB12
 670 0326 0C000000 		.4byte	.LFE12
 671 032a 02       		.byte	0x2
 672 032b 7D       		.byte	0x7d
 673 032c 00       		.sleb128 0
 674 032d 21       		.uleb128 0x21
 675 032e 80010000 		.4byte	0x180
 676 0332 01       		.byte	0x1
 677 0333 50       		.byte	0x50
 678 0334 21       		.uleb128 0x21
 679 0335 8A010000 		.4byte	0x18a
 680 0339 01       		.byte	0x1
 681 033a 51       		.byte	0x51
ARM GAS  C:\Users\Rob\AppData\Local\Temp\cchktrNl.s 			page 13


 682 033b 17       		.uleb128 0x17
 683 033c 43010000 		.4byte	0x143
 684 0340 02000000 		.4byte	.LBB18
 685 0344 08000000 		.4byte	.LBE18
 686 0348 01       		.byte	0x1
 687 0349 A7       		.byte	0xa7
 688 034a 21       		.uleb128 0x21
 689 034b 5B010000 		.4byte	0x15b
 690 034f 01       		.byte	0x1
 691 0350 51       		.byte	0x51
 692 0351 21       		.uleb128 0x21
 693 0352 51010000 		.4byte	0x151
 694 0356 01       		.byte	0x1
 695 0357 50       		.byte	0x50
 696 0358 19       		.uleb128 0x19
 697 0359 02000000 		.4byte	.LBB19
 698 035d 08000000 		.4byte	.LBE19
 699 0361 22       		.uleb128 0x22
 700 0362 66010000 		.4byte	0x166
 701 0366 01       		.byte	0x1
 702 0367 51       		.byte	0x51
 703 0368 00       		.byte	0
 704 0369 00       		.byte	0
 705 036a 00       		.byte	0
 706 036b 00       		.byte	0
 707              		.section	.debug_abbrev,"",%progbits
 708              	.Ldebug_abbrev0:
 709 0000 01       		.uleb128 0x1
 710 0001 11       		.uleb128 0x11
 711 0002 01       		.byte	0x1
 712 0003 25       		.uleb128 0x25
 713 0004 0E       		.uleb128 0xe
 714 0005 13       		.uleb128 0x13
 715 0006 0B       		.uleb128 0xb
 716 0007 03       		.uleb128 0x3
 717 0008 0E       		.uleb128 0xe
 718 0009 1B       		.uleb128 0x1b
 719 000a 0E       		.uleb128 0xe
 720 000b 11       		.uleb128 0x11
 721 000c 01       		.uleb128 0x1
 722 000d 52       		.uleb128 0x52
 723 000e 01       		.uleb128 0x1
 724 000f 55       		.uleb128 0x55
 725 0010 06       		.uleb128 0x6
 726 0011 10       		.uleb128 0x10
 727 0012 06       		.uleb128 0x6
 728 0013 00       		.byte	0
 729 0014 00       		.byte	0
 730 0015 02       		.uleb128 0x2
 731 0016 24       		.uleb128 0x24
 732 0017 00       		.byte	0
 733 0018 0B       		.uleb128 0xb
 734 0019 0B       		.uleb128 0xb
 735 001a 3E       		.uleb128 0x3e
 736 001b 0B       		.uleb128 0xb
 737 001c 03       		.uleb128 0x3
 738 001d 08       		.uleb128 0x8
ARM GAS  C:\Users\Rob\AppData\Local\Temp\cchktrNl.s 			page 14


 739 001e 00       		.byte	0
 740 001f 00       		.byte	0
 741 0020 03       		.uleb128 0x3
 742 0021 16       		.uleb128 0x16
 743 0022 00       		.byte	0
 744 0023 03       		.uleb128 0x3
 745 0024 0E       		.uleb128 0xe
 746 0025 3A       		.uleb128 0x3a
 747 0026 0B       		.uleb128 0xb
 748 0027 3B       		.uleb128 0x3b
 749 0028 0B       		.uleb128 0xb
 750 0029 49       		.uleb128 0x49
 751 002a 13       		.uleb128 0x13
 752 002b 00       		.byte	0
 753 002c 00       		.byte	0
 754 002d 04       		.uleb128 0x4
 755 002e 24       		.uleb128 0x24
 756 002f 00       		.byte	0
 757 0030 0B       		.uleb128 0xb
 758 0031 0B       		.uleb128 0xb
 759 0032 3E       		.uleb128 0x3e
 760 0033 0B       		.uleb128 0xb
 761 0034 03       		.uleb128 0x3
 762 0035 0E       		.uleb128 0xe
 763 0036 00       		.byte	0
 764 0037 00       		.byte	0
 765 0038 05       		.uleb128 0x5
 766 0039 0F       		.uleb128 0xf
 767 003a 00       		.byte	0
 768 003b 0B       		.uleb128 0xb
 769 003c 0B       		.uleb128 0xb
 770 003d 00       		.byte	0
 771 003e 00       		.byte	0
 772 003f 06       		.uleb128 0x6
 773 0040 0F       		.uleb128 0xf
 774 0041 00       		.byte	0
 775 0042 0B       		.uleb128 0xb
 776 0043 0B       		.uleb128 0xb
 777 0044 49       		.uleb128 0x49
 778 0045 13       		.uleb128 0x13
 779 0046 00       		.byte	0
 780 0047 00       		.byte	0
 781 0048 07       		.uleb128 0x7
 782 0049 15       		.uleb128 0x15
 783 004a 01       		.byte	0x1
 784 004b 27       		.uleb128 0x27
 785 004c 0C       		.uleb128 0xc
 786 004d 49       		.uleb128 0x49
 787 004e 13       		.uleb128 0x13
 788 004f 01       		.uleb128 0x1
 789 0050 13       		.uleb128 0x13
 790 0051 00       		.byte	0
 791 0052 00       		.byte	0
 792 0053 08       		.uleb128 0x8
 793 0054 05       		.uleb128 0x5
 794 0055 00       		.byte	0
 795 0056 49       		.uleb128 0x49
ARM GAS  C:\Users\Rob\AppData\Local\Temp\cchktrNl.s 			page 15


 796 0057 13       		.uleb128 0x13
 797 0058 00       		.byte	0
 798 0059 00       		.byte	0
 799 005a 09       		.uleb128 0x9
 800 005b 13       		.uleb128 0x13
 801 005c 01       		.byte	0x1
 802 005d 03       		.uleb128 0x3
 803 005e 0E       		.uleb128 0xe
 804 005f 0B       		.uleb128 0xb
 805 0060 0B       		.uleb128 0xb
 806 0061 3A       		.uleb128 0x3a
 807 0062 0B       		.uleb128 0xb
 808 0063 3B       		.uleb128 0x3b
 809 0064 0B       		.uleb128 0xb
 810 0065 01       		.uleb128 0x1
 811 0066 13       		.uleb128 0x13
 812 0067 00       		.byte	0
 813 0068 00       		.byte	0
 814 0069 0A       		.uleb128 0xa
 815 006a 0D       		.uleb128 0xd
 816 006b 00       		.byte	0
 817 006c 03       		.uleb128 0x3
 818 006d 0E       		.uleb128 0xe
 819 006e 3A       		.uleb128 0x3a
 820 006f 0B       		.uleb128 0xb
 821 0070 3B       		.uleb128 0x3b
 822 0071 0B       		.uleb128 0xb
 823 0072 49       		.uleb128 0x49
 824 0073 13       		.uleb128 0x13
 825 0074 38       		.uleb128 0x38
 826 0075 0A       		.uleb128 0xa
 827 0076 00       		.byte	0
 828 0077 00       		.byte	0
 829 0078 0B       		.uleb128 0xb
 830 0079 13       		.uleb128 0x13
 831 007a 01       		.byte	0x1
 832 007b 0B       		.uleb128 0xb
 833 007c 0B       		.uleb128 0xb
 834 007d 3A       		.uleb128 0x3a
 835 007e 0B       		.uleb128 0xb
 836 007f 3B       		.uleb128 0x3b
 837 0080 0B       		.uleb128 0xb
 838 0081 01       		.uleb128 0x1
 839 0082 13       		.uleb128 0x13
 840 0083 00       		.byte	0
 841 0084 00       		.byte	0
 842 0085 0C       		.uleb128 0xc
 843 0086 2E       		.uleb128 0x2e
 844 0087 01       		.byte	0x1
 845 0088 3F       		.uleb128 0x3f
 846 0089 0C       		.uleb128 0xc
 847 008a 03       		.uleb128 0x3
 848 008b 0E       		.uleb128 0xe
 849 008c 3A       		.uleb128 0x3a
 850 008d 0B       		.uleb128 0xb
 851 008e 3B       		.uleb128 0x3b
 852 008f 0B       		.uleb128 0xb
ARM GAS  C:\Users\Rob\AppData\Local\Temp\cchktrNl.s 			page 16


 853 0090 27       		.uleb128 0x27
 854 0091 0C       		.uleb128 0xc
 855 0092 49       		.uleb128 0x49
 856 0093 13       		.uleb128 0x13
 857 0094 20       		.uleb128 0x20
 858 0095 0B       		.uleb128 0xb
 859 0096 01       		.uleb128 0x1
 860 0097 13       		.uleb128 0x13
 861 0098 00       		.byte	0
 862 0099 00       		.byte	0
 863 009a 0D       		.uleb128 0xd
 864 009b 05       		.uleb128 0x5
 865 009c 00       		.byte	0
 866 009d 03       		.uleb128 0x3
 867 009e 08       		.uleb128 0x8
 868 009f 3A       		.uleb128 0x3a
 869 00a0 0B       		.uleb128 0xb
 870 00a1 3B       		.uleb128 0x3b
 871 00a2 0B       		.uleb128 0xb
 872 00a3 49       		.uleb128 0x49
 873 00a4 13       		.uleb128 0x13
 874 00a5 00       		.byte	0
 875 00a6 00       		.byte	0
 876 00a7 0E       		.uleb128 0xe
 877 00a8 34       		.uleb128 0x34
 878 00a9 00       		.byte	0
 879 00aa 03       		.uleb128 0x3
 880 00ab 0E       		.uleb128 0xe
 881 00ac 3A       		.uleb128 0x3a
 882 00ad 0B       		.uleb128 0xb
 883 00ae 3B       		.uleb128 0x3b
 884 00af 0B       		.uleb128 0xb
 885 00b0 49       		.uleb128 0x49
 886 00b1 13       		.uleb128 0x13
 887 00b2 00       		.byte	0
 888 00b3 00       		.byte	0
 889 00b4 0F       		.uleb128 0xf
 890 00b5 2E       		.uleb128 0x2e
 891 00b6 01       		.byte	0x1
 892 00b7 3F       		.uleb128 0x3f
 893 00b8 0C       		.uleb128 0xc
 894 00b9 03       		.uleb128 0x3
 895 00ba 0E       		.uleb128 0xe
 896 00bb 3A       		.uleb128 0x3a
 897 00bc 0B       		.uleb128 0xb
 898 00bd 3B       		.uleb128 0x3b
 899 00be 0B       		.uleb128 0xb
 900 00bf 27       		.uleb128 0x27
 901 00c0 0C       		.uleb128 0xc
 902 00c1 20       		.uleb128 0x20
 903 00c2 0B       		.uleb128 0xb
 904 00c3 01       		.uleb128 0x1
 905 00c4 13       		.uleb128 0x13
 906 00c5 00       		.byte	0
 907 00c6 00       		.byte	0
 908 00c7 10       		.uleb128 0x10
 909 00c8 05       		.uleb128 0x5
ARM GAS  C:\Users\Rob\AppData\Local\Temp\cchktrNl.s 			page 17


 910 00c9 00       		.byte	0
 911 00ca 03       		.uleb128 0x3
 912 00cb 0E       		.uleb128 0xe
 913 00cc 3A       		.uleb128 0x3a
 914 00cd 0B       		.uleb128 0xb
 915 00ce 3B       		.uleb128 0x3b
 916 00cf 0B       		.uleb128 0xb
 917 00d0 49       		.uleb128 0x49
 918 00d1 13       		.uleb128 0x13
 919 00d2 00       		.byte	0
 920 00d3 00       		.byte	0
 921 00d4 11       		.uleb128 0x11
 922 00d5 34       		.uleb128 0x34
 923 00d6 00       		.byte	0
 924 00d7 03       		.uleb128 0x3
 925 00d8 08       		.uleb128 0x8
 926 00d9 3A       		.uleb128 0x3a
 927 00da 0B       		.uleb128 0xb
 928 00db 3B       		.uleb128 0x3b
 929 00dc 0B       		.uleb128 0xb
 930 00dd 49       		.uleb128 0x49
 931 00de 13       		.uleb128 0x13
 932 00df 00       		.byte	0
 933 00e0 00       		.byte	0
 934 00e1 12       		.uleb128 0x12
 935 00e2 2E       		.uleb128 0x2e
 936 00e3 01       		.byte	0x1
 937 00e4 3F       		.uleb128 0x3f
 938 00e5 0C       		.uleb128 0xc
 939 00e6 03       		.uleb128 0x3
 940 00e7 0E       		.uleb128 0xe
 941 00e8 3A       		.uleb128 0x3a
 942 00e9 0B       		.uleb128 0xb
 943 00ea 3B       		.uleb128 0x3b
 944 00eb 0B       		.uleb128 0xb
 945 00ec 27       		.uleb128 0x27
 946 00ed 0C       		.uleb128 0xc
 947 00ee 11       		.uleb128 0x11
 948 00ef 01       		.uleb128 0x1
 949 00f0 12       		.uleb128 0x12
 950 00f1 01       		.uleb128 0x1
 951 00f2 40       		.uleb128 0x40
 952 00f3 0A       		.uleb128 0xa
 953 00f4 01       		.uleb128 0x1
 954 00f5 13       		.uleb128 0x13
 955 00f6 00       		.byte	0
 956 00f7 00       		.byte	0
 957 00f8 13       		.uleb128 0x13
 958 00f9 05       		.uleb128 0x5
 959 00fa 00       		.byte	0
 960 00fb 03       		.uleb128 0x3
 961 00fc 08       		.uleb128 0x8
 962 00fd 3A       		.uleb128 0x3a
 963 00fe 0B       		.uleb128 0xb
 964 00ff 3B       		.uleb128 0x3b
 965 0100 0B       		.uleb128 0xb
 966 0101 49       		.uleb128 0x49
ARM GAS  C:\Users\Rob\AppData\Local\Temp\cchktrNl.s 			page 18


 967 0102 13       		.uleb128 0x13
 968 0103 02       		.uleb128 0x2
 969 0104 0A       		.uleb128 0xa
 970 0105 00       		.byte	0
 971 0106 00       		.byte	0
 972 0107 14       		.uleb128 0x14
 973 0108 05       		.uleb128 0x5
 974 0109 00       		.byte	0
 975 010a 03       		.uleb128 0x3
 976 010b 0E       		.uleb128 0xe
 977 010c 3A       		.uleb128 0x3a
 978 010d 0B       		.uleb128 0xb
 979 010e 3B       		.uleb128 0x3b
 980 010f 0B       		.uleb128 0xb
 981 0110 49       		.uleb128 0x49
 982 0111 13       		.uleb128 0x13
 983 0112 02       		.uleb128 0x2
 984 0113 0A       		.uleb128 0xa
 985 0114 00       		.byte	0
 986 0115 00       		.byte	0
 987 0116 15       		.uleb128 0x15
 988 0117 2E       		.uleb128 0x2e
 989 0118 01       		.byte	0x1
 990 0119 3F       		.uleb128 0x3f
 991 011a 0C       		.uleb128 0xc
 992 011b 03       		.uleb128 0x3
 993 011c 0E       		.uleb128 0xe
 994 011d 3A       		.uleb128 0x3a
 995 011e 0B       		.uleb128 0xb
 996 011f 3B       		.uleb128 0x3b
 997 0120 0B       		.uleb128 0xb
 998 0121 27       		.uleb128 0x27
 999 0122 0C       		.uleb128 0xc
 1000 0123 11       		.uleb128 0x11
 1001 0124 01       		.uleb128 0x1
 1002 0125 12       		.uleb128 0x12
 1003 0126 01       		.uleb128 0x1
 1004 0127 40       		.uleb128 0x40
 1005 0128 06       		.uleb128 0x6
 1006 0129 01       		.uleb128 0x1
 1007 012a 13       		.uleb128 0x13
 1008 012b 00       		.byte	0
 1009 012c 00       		.byte	0
 1010 012d 16       		.uleb128 0x16
 1011 012e 05       		.uleb128 0x5
 1012 012f 00       		.byte	0
 1013 0130 03       		.uleb128 0x3
 1014 0131 08       		.uleb128 0x8
 1015 0132 3A       		.uleb128 0x3a
 1016 0133 0B       		.uleb128 0xb
 1017 0134 3B       		.uleb128 0x3b
 1018 0135 0B       		.uleb128 0xb
 1019 0136 49       		.uleb128 0x49
 1020 0137 13       		.uleb128 0x13
 1021 0138 02       		.uleb128 0x2
 1022 0139 06       		.uleb128 0x6
 1023 013a 00       		.byte	0
ARM GAS  C:\Users\Rob\AppData\Local\Temp\cchktrNl.s 			page 19


 1024 013b 00       		.byte	0
 1025 013c 17       		.uleb128 0x17
 1026 013d 1D       		.uleb128 0x1d
 1027 013e 01       		.byte	0x1
 1028 013f 31       		.uleb128 0x31
 1029 0140 13       		.uleb128 0x13
 1030 0141 11       		.uleb128 0x11
 1031 0142 01       		.uleb128 0x1
 1032 0143 12       		.uleb128 0x12
 1033 0144 01       		.uleb128 0x1
 1034 0145 58       		.uleb128 0x58
 1035 0146 0B       		.uleb128 0xb
 1036 0147 59       		.uleb128 0x59
 1037 0148 0B       		.uleb128 0xb
 1038 0149 00       		.byte	0
 1039 014a 00       		.byte	0
 1040 014b 18       		.uleb128 0x18
 1041 014c 05       		.uleb128 0x5
 1042 014d 00       		.byte	0
 1043 014e 31       		.uleb128 0x31
 1044 014f 13       		.uleb128 0x13
 1045 0150 02       		.uleb128 0x2
 1046 0151 06       		.uleb128 0x6
 1047 0152 00       		.byte	0
 1048 0153 00       		.byte	0
 1049 0154 19       		.uleb128 0x19
 1050 0155 0B       		.uleb128 0xb
 1051 0156 01       		.byte	0x1
 1052 0157 11       		.uleb128 0x11
 1053 0158 01       		.uleb128 0x1
 1054 0159 12       		.uleb128 0x12
 1055 015a 01       		.uleb128 0x1
 1056 015b 00       		.byte	0
 1057 015c 00       		.byte	0
 1058 015d 1A       		.uleb128 0x1a
 1059 015e 34       		.uleb128 0x34
 1060 015f 00       		.byte	0
 1061 0160 31       		.uleb128 0x31
 1062 0161 13       		.uleb128 0x13
 1063 0162 02       		.uleb128 0x2
 1064 0163 06       		.uleb128 0x6
 1065 0164 00       		.byte	0
 1066 0165 00       		.byte	0
 1067 0166 1B       		.uleb128 0x1b
 1068 0167 2E       		.uleb128 0x2e
 1069 0168 01       		.byte	0x1
 1070 0169 31       		.uleb128 0x31
 1071 016a 13       		.uleb128 0x13
 1072 016b 11       		.uleb128 0x11
 1073 016c 01       		.uleb128 0x1
 1074 016d 12       		.uleb128 0x12
 1075 016e 01       		.uleb128 0x1
 1076 016f 40       		.uleb128 0x40
 1077 0170 06       		.uleb128 0x6
 1078 0171 01       		.uleb128 0x1
 1079 0172 13       		.uleb128 0x13
 1080 0173 00       		.byte	0
ARM GAS  C:\Users\Rob\AppData\Local\Temp\cchktrNl.s 			page 20


 1081 0174 00       		.byte	0
 1082 0175 1C       		.uleb128 0x1c
 1083 0176 2E       		.uleb128 0x2e
 1084 0177 01       		.byte	0x1
 1085 0178 3F       		.uleb128 0x3f
 1086 0179 0C       		.uleb128 0xc
 1087 017a 03       		.uleb128 0x3
 1088 017b 0E       		.uleb128 0xe
 1089 017c 3A       		.uleb128 0x3a
 1090 017d 0B       		.uleb128 0xb
 1091 017e 3B       		.uleb128 0x3b
 1092 017f 0B       		.uleb128 0xb
 1093 0180 27       		.uleb128 0x27
 1094 0181 0C       		.uleb128 0xc
 1095 0182 49       		.uleb128 0x49
 1096 0183 13       		.uleb128 0x13
 1097 0184 11       		.uleb128 0x11
 1098 0185 01       		.uleb128 0x1
 1099 0186 12       		.uleb128 0x12
 1100 0187 01       		.uleb128 0x1
 1101 0188 40       		.uleb128 0x40
 1102 0189 06       		.uleb128 0x6
 1103 018a 01       		.uleb128 0x1
 1104 018b 13       		.uleb128 0x13
 1105 018c 00       		.byte	0
 1106 018d 00       		.byte	0
 1107 018e 1D       		.uleb128 0x1d
 1108 018f 34       		.uleb128 0x34
 1109 0190 00       		.byte	0
 1110 0191 03       		.uleb128 0x3
 1111 0192 0E       		.uleb128 0xe
 1112 0193 3A       		.uleb128 0x3a
 1113 0194 0B       		.uleb128 0xb
 1114 0195 3B       		.uleb128 0x3b
 1115 0196 0B       		.uleb128 0xb
 1116 0197 49       		.uleb128 0x49
 1117 0198 13       		.uleb128 0x13
 1118 0199 02       		.uleb128 0x2
 1119 019a 0A       		.uleb128 0xa
 1120 019b 00       		.byte	0
 1121 019c 00       		.byte	0
 1122 019d 1E       		.uleb128 0x1e
 1123 019e 1D       		.uleb128 0x1d
 1124 019f 01       		.byte	0x1
 1125 01a0 31       		.uleb128 0x31
 1126 01a1 13       		.uleb128 0x13
 1127 01a2 52       		.uleb128 0x52
 1128 01a3 01       		.uleb128 0x1
 1129 01a4 55       		.uleb128 0x55
 1130 01a5 06       		.uleb128 0x6
 1131 01a6 58       		.uleb128 0x58
 1132 01a7 0B       		.uleb128 0xb
 1133 01a8 59       		.uleb128 0x59
 1134 01a9 0B       		.uleb128 0xb
 1135 01aa 00       		.byte	0
 1136 01ab 00       		.byte	0
 1137 01ac 1F       		.uleb128 0x1f
ARM GAS  C:\Users\Rob\AppData\Local\Temp\cchktrNl.s 			page 21


 1138 01ad 0B       		.uleb128 0xb
 1139 01ae 01       		.byte	0x1
 1140 01af 55       		.uleb128 0x55
 1141 01b0 06       		.uleb128 0x6
 1142 01b1 00       		.byte	0
 1143 01b2 00       		.byte	0
 1144 01b3 20       		.uleb128 0x20
 1145 01b4 2E       		.uleb128 0x2e
 1146 01b5 01       		.byte	0x1
 1147 01b6 31       		.uleb128 0x31
 1148 01b7 13       		.uleb128 0x13
 1149 01b8 11       		.uleb128 0x11
 1150 01b9 01       		.uleb128 0x1
 1151 01ba 12       		.uleb128 0x12
 1152 01bb 01       		.uleb128 0x1
 1153 01bc 40       		.uleb128 0x40
 1154 01bd 0A       		.uleb128 0xa
 1155 01be 01       		.uleb128 0x1
 1156 01bf 13       		.uleb128 0x13
 1157 01c0 00       		.byte	0
 1158 01c1 00       		.byte	0
 1159 01c2 21       		.uleb128 0x21
 1160 01c3 05       		.uleb128 0x5
 1161 01c4 00       		.byte	0
 1162 01c5 31       		.uleb128 0x31
 1163 01c6 13       		.uleb128 0x13
 1164 01c7 02       		.uleb128 0x2
 1165 01c8 0A       		.uleb128 0xa
 1166 01c9 00       		.byte	0
 1167 01ca 00       		.byte	0
 1168 01cb 22       		.uleb128 0x22
 1169 01cc 34       		.uleb128 0x34
 1170 01cd 00       		.byte	0
 1171 01ce 31       		.uleb128 0x31
 1172 01cf 13       		.uleb128 0x13
 1173 01d0 02       		.uleb128 0x2
 1174 01d1 0A       		.uleb128 0xa
 1175 01d2 00       		.byte	0
 1176 01d3 00       		.byte	0
 1177 01d4 23       		.uleb128 0x23
 1178 01d5 2E       		.uleb128 0x2e
 1179 01d6 01       		.byte	0x1
 1180 01d7 31       		.uleb128 0x31
 1181 01d8 13       		.uleb128 0x13
 1182 01d9 11       		.uleb128 0x11
 1183 01da 01       		.uleb128 0x1
 1184 01db 12       		.uleb128 0x12
 1185 01dc 01       		.uleb128 0x1
 1186 01dd 40       		.uleb128 0x40
 1187 01de 0A       		.uleb128 0xa
 1188 01df 00       		.byte	0
 1189 01e0 00       		.byte	0
 1190 01e1 00       		.byte	0
 1191              		.section	.debug_loc,"",%progbits
 1192              	.Ldebug_loc0:
 1193              	.LLST0:
 1194 0000 00000000 		.4byte	.LFB8
ARM GAS  C:\Users\Rob\AppData\Local\Temp\cchktrNl.s 			page 22


 1195 0004 02000000 		.4byte	.LCFI0
 1196 0008 0200     		.2byte	0x2
 1197 000a 7D       		.byte	0x7d
 1198 000b 00       		.sleb128 0
 1199 000c 02000000 		.4byte	.LCFI0
 1200 0010 1A000000 		.4byte	.LFE8
 1201 0014 0200     		.2byte	0x2
 1202 0016 7D       		.byte	0x7d
 1203 0017 04       		.sleb128 4
 1204 0018 00000000 		.4byte	0
 1205 001c 00000000 		.4byte	0
 1206              	.LLST1:
 1207 0020 02000000 		.4byte	.LVL1
 1208 0024 12000000 		.4byte	.LVL4
 1209 0028 0100     		.2byte	0x1
 1210 002a 52       		.byte	0x52
 1211 002b 12000000 		.4byte	.LVL4
 1212 002f 14000000 		.4byte	.LVL5
 1213 0033 0300     		.2byte	0x3
 1214 0035 72       		.byte	0x72
 1215 0036 01       		.sleb128 1
 1216 0037 9F       		.byte	0x9f
 1217 0038 14000000 		.4byte	.LVL5
 1218 003c 1A000000 		.4byte	.LFE8
 1219 0040 0100     		.2byte	0x1
 1220 0042 52       		.byte	0x52
 1221 0043 00000000 		.4byte	0
 1222 0047 00000000 		.4byte	0
 1223              	.LLST2:
 1224 004b 04000000 		.4byte	.LVL2
 1225 004f 14000000 		.4byte	.LVL5
 1226 0053 0100     		.2byte	0x1
 1227 0055 51       		.byte	0x51
 1228 0056 00000000 		.4byte	0
 1229 005a 00000000 		.4byte	0
 1230              	.LLST3:
 1231 005e 04000000 		.4byte	.LVL2
 1232 0062 14000000 		.4byte	.LVL5
 1233 0066 0100     		.2byte	0x1
 1234 0068 50       		.byte	0x50
 1235 0069 00000000 		.4byte	0
 1236 006d 00000000 		.4byte	0
 1237              	.LLST4:
 1238 0071 06000000 		.4byte	.LVL3
 1239 0075 14000000 		.4byte	.LVL5
 1240 0079 0100     		.2byte	0x1
 1241 007b 51       		.byte	0x51
 1242 007c 00000000 		.4byte	0
 1243 0080 00000000 		.4byte	0
 1244              	.LLST5:
 1245 0084 06000000 		.4byte	.LVL3
 1246 0088 14000000 		.4byte	.LVL5
 1247 008c 0100     		.2byte	0x1
 1248 008e 50       		.byte	0x50
 1249 008f 00000000 		.4byte	0
 1250 0093 00000000 		.4byte	0
 1251              	.LLST7:
ARM GAS  C:\Users\Rob\AppData\Local\Temp\cchktrNl.s 			page 23


 1252 0097 00000000 		.4byte	.LFB9
 1253 009b 02000000 		.4byte	.LCFI1
 1254 009f 0200     		.2byte	0x2
 1255 00a1 7D       		.byte	0x7d
 1256 00a2 00       		.sleb128 0
 1257 00a3 02000000 		.4byte	.LCFI1
 1258 00a7 1C000000 		.4byte	.LFE9
 1259 00ab 0200     		.2byte	0x2
 1260 00ad 7D       		.byte	0x7d
 1261 00ae 08       		.sleb128 8
 1262 00af 00000000 		.4byte	0
 1263 00b3 00000000 		.4byte	0
 1264              	.LLST8:
 1265 00b7 02000000 		.4byte	.LVL6
 1266 00bb 06000000 		.4byte	.LVL7
 1267 00bf 0100     		.2byte	0x1
 1268 00c1 50       		.byte	0x50
 1269 00c2 06000000 		.4byte	.LVL7
 1270 00c6 0E000000 		.4byte	.LVL8
 1271 00ca 0100     		.2byte	0x1
 1272 00cc 52       		.byte	0x52
 1273 00cd 10000000 		.4byte	.LVL9
 1274 00d1 19000000 		.4byte	.LVL11-1
 1275 00d5 0100     		.2byte	0x1
 1276 00d7 52       		.byte	0x52
 1277 00d8 00000000 		.4byte	0
 1278 00dc 00000000 		.4byte	0
 1279              	.LLST9:
 1280 00e0 06000000 		.4byte	.LVL7
 1281 00e4 0E000000 		.4byte	.LVL8
 1282 00e8 0200     		.2byte	0x2
 1283 00ea 72       		.byte	0x72
 1284 00eb 00       		.sleb128 0
 1285 00ec 0E000000 		.4byte	.LVL8
 1286 00f0 18000000 		.4byte	.LVL10
 1287 00f4 0100     		.2byte	0x1
 1288 00f6 50       		.byte	0x50
 1289 00f7 18000000 		.4byte	.LVL10
 1290 00fb 19000000 		.4byte	.LVL11-1
 1291 00ff 0200     		.2byte	0x2
 1292 0101 72       		.byte	0x72
 1293 0102 00       		.sleb128 0
 1294 0103 1A000000 		.4byte	.LVL11
 1295 0107 1C000000 		.4byte	.LFE9
 1296 010b 0100     		.2byte	0x1
 1297 010d 50       		.byte	0x50
 1298 010e 00000000 		.4byte	0
 1299 0112 00000000 		.4byte	0
 1300              	.LLST10:
 1301 0116 00000000 		.4byte	.LFB10
 1302 011a 02000000 		.4byte	.LCFI2
 1303 011e 0200     		.2byte	0x2
 1304 0120 7D       		.byte	0x7d
 1305 0121 00       		.sleb128 0
 1306 0122 02000000 		.4byte	.LCFI2
 1307 0126 20000000 		.4byte	.LFE10
 1308 012a 0200     		.2byte	0x2
ARM GAS  C:\Users\Rob\AppData\Local\Temp\cchktrNl.s 			page 24


 1309 012c 7D       		.byte	0x7d
 1310 012d 08       		.sleb128 8
 1311 012e 00000000 		.4byte	0
 1312 0132 00000000 		.4byte	0
 1313              	.LLST11:
 1314 0136 02000000 		.4byte	.LVL12
 1315 013a 08000000 		.4byte	.LVL14
 1316 013e 0100     		.2byte	0x1
 1317 0140 50       		.byte	0x50
 1318 0141 14000000 		.4byte	.LVL16
 1319 0145 1D000000 		.4byte	.LVL18-1
 1320 0149 0100     		.2byte	0x1
 1321 014b 52       		.byte	0x52
 1322 014c 00000000 		.4byte	0
 1323 0150 00000000 		.4byte	0
 1324              	.LLST12:
 1325 0154 06000000 		.4byte	.LVL13
 1326 0158 08000000 		.4byte	.LVL14
 1327 015c 0100     		.2byte	0x1
 1328 015e 50       		.byte	0x50
 1329 015f 08000000 		.4byte	.LVL14
 1330 0163 10000000 		.4byte	.LVL15
 1331 0167 0100     		.2byte	0x1
 1332 0169 52       		.byte	0x52
 1333 016a 14000000 		.4byte	.LVL16
 1334 016e 1D000000 		.4byte	.LVL18-1
 1335 0172 0100     		.2byte	0x1
 1336 0174 52       		.byte	0x52
 1337 0175 00000000 		.4byte	0
 1338 0179 00000000 		.4byte	0
 1339              	.LLST13:
 1340 017d 08000000 		.4byte	.LVL14
 1341 0181 10000000 		.4byte	.LVL15
 1342 0185 0200     		.2byte	0x2
 1343 0187 72       		.byte	0x72
 1344 0188 00       		.sleb128 0
 1345 0189 10000000 		.4byte	.LVL15
 1346 018d 1C000000 		.4byte	.LVL17
 1347 0191 0100     		.2byte	0x1
 1348 0193 50       		.byte	0x50
 1349 0194 1C000000 		.4byte	.LVL17
 1350 0198 1D000000 		.4byte	.LVL18-1
 1351 019c 0200     		.2byte	0x2
 1352 019e 72       		.byte	0x72
 1353 019f 00       		.sleb128 0
 1354 01a0 1E000000 		.4byte	.LVL18
 1355 01a4 20000000 		.4byte	.LFE10
 1356 01a8 0100     		.2byte	0x1
 1357 01aa 50       		.byte	0x50
 1358 01ab 00000000 		.4byte	0
 1359 01af 00000000 		.4byte	0
 1360              		.section	.debug_aranges,"",%progbits
 1361 0000 44000000 		.4byte	0x44
 1362 0004 0200     		.2byte	0x2
 1363 0006 00000000 		.4byte	.Ldebug_info0
 1364 000a 04       		.byte	0x4
 1365 000b 00       		.byte	0
ARM GAS  C:\Users\Rob\AppData\Local\Temp\cchktrNl.s 			page 25


 1366 000c 0000     		.2byte	0
 1367 000e 0000     		.2byte	0
 1368 0010 00000000 		.4byte	.LFB7
 1369 0014 0A000000 		.4byte	.LFE7-.LFB7
 1370 0018 00000000 		.4byte	.LFB8
 1371 001c 1A000000 		.4byte	.LFE8-.LFB8
 1372 0020 00000000 		.4byte	.LFB9
 1373 0024 1C000000 		.4byte	.LFE9-.LFB9
 1374 0028 00000000 		.4byte	.LFB10
 1375 002c 20000000 		.4byte	.LFE10-.LFB10
 1376 0030 00000000 		.4byte	.LFB11
 1377 0034 08000000 		.4byte	.LFE11-.LFB11
 1378 0038 00000000 		.4byte	.LFB12
 1379 003c 0C000000 		.4byte	.LFE12-.LFB12
 1380 0040 00000000 		.4byte	0
 1381 0044 00000000 		.4byte	0
 1382              		.section	.debug_ranges,"",%progbits
 1383              	.Ldebug_ranges0:
 1384 0000 06000000 		.4byte	.LBB14
 1385 0004 10000000 		.4byte	.LBE14
 1386 0008 14000000 		.4byte	.LBB17
 1387 000c 20000000 		.4byte	.LBE17
 1388 0010 00000000 		.4byte	0
 1389 0014 00000000 		.4byte	0
 1390 0018 06000000 		.4byte	.LBB15
 1391 001c 10000000 		.4byte	.LBE15
 1392 0020 14000000 		.4byte	.LBB16
 1393 0024 20000000 		.4byte	.LBE16
 1394 0028 00000000 		.4byte	0
 1395 002c 00000000 		.4byte	0
 1396 0030 00000000 		.4byte	.LFB7
 1397 0034 0A000000 		.4byte	.LFE7
 1398 0038 00000000 		.4byte	.LFB8
 1399 003c 1A000000 		.4byte	.LFE8
 1400 0040 00000000 		.4byte	.LFB9
 1401 0044 1C000000 		.4byte	.LFE9
 1402 0048 00000000 		.4byte	.LFB10
 1403 004c 20000000 		.4byte	.LFE10
 1404 0050 00000000 		.4byte	.LFB11
 1405 0054 08000000 		.4byte	.LFE11
 1406 0058 00000000 		.4byte	.LFB12
 1407 005c 0C000000 		.4byte	.LFE12
 1408 0060 00000000 		.4byte	0
 1409 0064 00000000 		.4byte	0
 1410              		.section	.debug_line,"",%progbits
 1411              	.Ldebug_line0:
 1412 0000 8D010000 		.section	.debug_str,"MS",%progbits,1
 1412      0200EF00 
 1412      00000201 
 1412      FB0E0D00 
 1412      01010101 
 1413              	.LASF2:
 1414 0000 73697A65 		.ascii	"size_t\000"
 1414      5F7400
 1415              	.LASF26:
 1416 0007 474E5520 		.ascii	"GNU C 4.6.2\000"
 1416      4320342E 
ARM GAS  C:\Users\Rob\AppData\Local\Temp\cchktrNl.s 			page 26


 1416      362E3200 
 1417              	.LASF15:
 1418 0013 6D705F6F 		.ascii	"mp_object_size\000"
 1418      626A6563 
 1418      745F7369 
 1418      7A6500
 1419              	.LASF25:
 1420 0022 6368506F 		.ascii	"chPoolLoadArray\000"
 1420      6F6C4C6F 
 1420      61644172 
 1420      72617900 
 1421              	.LASF29:
 1422 0032 706F6F6C 		.ascii	"pool_header\000"
 1422      5F686561 
 1422      64657200 
 1423              	.LASF22:
 1424 003e 73697A65 		.ascii	"size\000"
 1424      00
 1425              	.LASF8:
 1426 0043 6C6F6E67 		.ascii	"long unsigned int\000"
 1426      20756E73 
 1426      69676E65 
 1426      6420696E 
 1426      7400
 1427              	.LASF6:
 1428 0055 73686F72 		.ascii	"short unsigned int\000"
 1428      7420756E 
 1428      7369676E 
 1428      65642069 
 1428      6E7400
 1429              	.LASF23:
 1430 0068 70726F76 		.ascii	"provider\000"
 1430      69646572 
 1430      00
 1431              	.LASF20:
 1432 0071 6368506F 		.ascii	"chPoolFreeI\000"
 1432      6F6C4672 
 1432      65654900 
 1433              	.LASF4:
 1434 007d 756E7369 		.ascii	"unsigned char\000"
 1434      676E6564 
 1434      20636861 
 1434      7200
 1435              	.LASF28:
 1436 008b 433A5C55 		.ascii	"C:\\Users\\Rob\\Projects\\ECE411Practicum\\src\\vir"
 1436      73657273 
 1436      5C526F62 
 1436      5C50726F 
 1436      6A656374 
 1437 00b8 756C656E 		.ascii	"ulent\000"
 1437      7400
 1438              	.LASF21:
 1439 00be 6368506F 		.ascii	"chPoolFree\000"
 1439      6F6C4672 
 1439      656500
 1440              	.LASF17:
 1441 00c9 4D656D6F 		.ascii	"MemoryPool\000"
ARM GAS  C:\Users\Rob\AppData\Local\Temp\cchktrNl.s 			page 27


 1441      7279506F 
 1441      6F6C00
 1442              	.LASF19:
 1443 00d4 6F626A70 		.ascii	"objp\000"
 1443      00
 1444              	.LASF30:
 1445 00d9 6368506F 		.ascii	"chPoolAllocI\000"
 1445      6F6C416C 
 1445      6C6F6349 
 1445      00
 1446              	.LASF0:
 1447 00e6 756E7369 		.ascii	"unsigned int\000"
 1447      676E6564 
 1447      20696E74 
 1447      00
 1448              	.LASF10:
 1449 00f3 6C6F6E67 		.ascii	"long long unsigned int\000"
 1449      206C6F6E 
 1449      6720756E 
 1449      7369676E 
 1449      65642069 
 1450              	.LASF3:
 1451 010a 75696E74 		.ascii	"uint8_t\000"
 1451      385F7400 
 1452              	.LASF13:
 1453 0112 70685F6E 		.ascii	"ph_next\000"
 1453      65787400 
 1454              	.LASF9:
 1455 011a 6C6F6E67 		.ascii	"long long int\000"
 1455      206C6F6E 
 1455      6720696E 
 1455      7400
 1456              	.LASF18:
 1457 0128 63686172 		.ascii	"char\000"
 1457      00
 1458              	.LASF12:
 1459 012d 6D656D67 		.ascii	"memgetfunc_t\000"
 1459      65746675 
 1459      6E635F74 
 1459      00
 1460              	.LASF16:
 1461 013a 6D705F70 		.ascii	"mp_provider\000"
 1461      726F7669 
 1461      64657200 
 1462              	.LASF5:
 1463 0146 73686F72 		.ascii	"short int\000"
 1463      7420696E 
 1463      7400
 1464              	.LASF31:
 1465 0150 6368506F 		.ascii	"chPoolAlloc\000"
 1465      6F6C416C 
 1465      6C6F6300 
 1466              	.LASF27:
 1467 015c 2E2E2F2E 		.ascii	"../../os/kernel/src/chmempools.c\000"
 1467      2E2F6F73 
 1467      2F6B6572 
 1467      6E656C2F 
ARM GAS  C:\Users\Rob\AppData\Local\Temp\cchktrNl.s 			page 28


 1467      7372632F 
 1468              	.LASF7:
 1469 017d 6C6F6E67 		.ascii	"long int\000"
 1469      20696E74 
 1469      00
 1470              	.LASF1:
 1471 0186 7369676E 		.ascii	"signed char\000"
 1471      65642063 
 1471      68617200 
 1472              	.LASF14:
 1473 0192 6D705F6E 		.ascii	"mp_next\000"
 1473      65787400 
 1474              	.LASF11:
 1475 019a 5F426F6F 		.ascii	"_Bool\000"
 1475      6C00
 1476              	.LASF24:
 1477 01a0 6368506F 		.ascii	"chPoolInit\000"
 1477      6F6C496E 
 1477      697400
 1478              		.ident	"GCC: (GNU) 4.6.2"
ARM GAS  C:\Users\Rob\AppData\Local\Temp\cchktrNl.s 			page 29


DEFINED SYMBOLS
                            *ABS*:00000000 chmempools.c
C:\Users\Rob\AppData\Local\Temp\cchktrNl.s:17     .text.chPoolInit:00000000 $t
C:\Users\Rob\AppData\Local\Temp\cchktrNl.s:23     .text.chPoolInit:00000000 chPoolInit
C:\Users\Rob\AppData\Local\Temp\cchktrNl.s:43     .text.chPoolLoadArray:00000000 $t
C:\Users\Rob\AppData\Local\Temp\cchktrNl.s:49     .text.chPoolLoadArray:00000000 chPoolLoadArray
C:\Users\Rob\AppData\Local\Temp\cchktrNl.s:104    .text.chPoolAllocI:00000000 $t
C:\Users\Rob\AppData\Local\Temp\cchktrNl.s:110    .text.chPoolAllocI:00000000 chPoolAllocI
C:\Users\Rob\AppData\Local\Temp\cchktrNl.s:151    .text.chPoolAlloc:00000000 $t
C:\Users\Rob\AppData\Local\Temp\cchktrNl.s:157    .text.chPoolAlloc:00000000 chPoolAlloc
C:\Users\Rob\AppData\Local\Temp\cchktrNl.s:217    .text.chPoolFreeI:00000000 $t
C:\Users\Rob\AppData\Local\Temp\cchktrNl.s:223    .text.chPoolFreeI:00000000 chPoolFreeI
C:\Users\Rob\AppData\Local\Temp\cchktrNl.s:242    .text.chPoolFree:00000000 $t
C:\Users\Rob\AppData\Local\Temp\cchktrNl.s:248    .text.chPoolFree:00000000 chPoolFree
                     .debug_frame:00000010 $d

NO UNDEFINED SYMBOLS
