ARM GAS  C:\Users\Rob\AppData\Local\Temp\ccAk5ryi.s 			page 1


   1              		.cpu cortex-m0
   2              		.fpu softvfp
   3              		.eabi_attribute 20, 1
   4              		.eabi_attribute 21, 1
   5              		.eabi_attribute 23, 3
   6              		.eabi_attribute 24, 1
   7              		.eabi_attribute 25, 1
   8              		.eabi_attribute 26, 1
   9              		.eabi_attribute 30, 2
  10              		.eabi_attribute 18, 4
  11              		.code	16
  12              		.file	"chqueues.c"
  13              		.text
  14              	.Ltext0:
  15              		.cfi_sections	.debug_frame
  16              		.section	.text.qwait,"ax",%progbits
  17              		.align	2
  18              		.p2align 4,,15
  19              		.code	16
  20              		.thumb_func
  21              		.type	qwait, %function
  22              	qwait:
  23              	.LFB7:
  24              		.file 1 "../../os/kernel/src/chqueues.c"
  25              		.loc 1 63 0
  26              		.cfi_startproc
  27 0000 08B5     		push	{r3, lr}
  28              	.LCFI0:
  29              		.cfi_def_cfa_offset 8
  30              		.cfi_offset 3, -8
  31              		.cfi_offset 14, -4
  32              	.LVL0:
  33              		.loc 1 65 0
  34 0002 0029     		cmp	r1, #0
  35 0004 0BD0     		beq	.L3
  36              		.loc 1 67 0
  37 0006 074B     		ldr	r3, .L5
  38 0008 9B69     		ldr	r3, [r3, #24]
  39 000a 5862     		str	r0, [r3, #36]
  40              	.LVL1:
  41              	.LBB12:
  42              	.LBB13:
  43              		.file 2 "../../os/kernel/include/chinline.h"
  44              		.loc 2 48 0
  45 000c 4268     		ldr	r2, [r0, #4]
  46              		.loc 2 47 0
  47 000e 1860     		str	r0, [r3]
  48              		.loc 2 48 0
  49 0010 5A60     		str	r2, [r3, #4]
  50              		.loc 2 49 0
  51 0012 4360     		str	r3, [r0, #4]
  52 0014 1360     		str	r3, [r2]
  53              	.LBE13:
  54              	.LBE12:
  55              		.loc 1 69 0
  56 0016 0D20     		mov	r0, #13
  57              	.LVL2:
ARM GAS  C:\Users\Rob\AppData\Local\Temp\ccAk5ryi.s 			page 2


  58 0018 FFF7FEFF 		bl	chSchGoSleepTimeoutS
  59              	.LVL3:
  60              	.L2:
  61              		.loc 1 70 0
  62              		@ sp needed for prologue
  63 001c 08BD     		pop	{r3, pc}
  64              	.LVL4:
  65              	.L3:
  66              		.loc 1 66 0
  67 001e 0120     		mov	r0, #1
  68              	.LVL5:
  69 0020 4042     		neg	r0, r0
  70 0022 FBE7     		b	.L2
  71              	.L6:
  72              		.align	2
  73              	.L5:
  74 0024 00000000 		.word	rlist
  75              		.cfi_endproc
  76              	.LFE7:
  77              		.size	qwait, .-qwait
  78 0028 C046C046 		.section	.text.chIQInit,"ax",%progbits
  78      C046C046 
  79              		.align	2
  80              		.p2align 4,,15
  81              		.global	chIQInit
  82              		.code	16
  83              		.thumb_func
  84              		.type	chIQInit, %function
  85              	chIQInit:
  86              	.LFB8:
  87              		.loc 1 89 0
  88              		.cfi_startproc
  89 0000 10B5     		push	{r4, lr}
  90              	.LCFI1:
  91              		.cfi_def_cfa_offset 8
  92              		.cfi_offset 4, -8
  93              		.cfi_offset 14, -4
  94              	.LVL6:
  95              		.loc 1 95 0
  96 0002 C361     		str	r3, [r0, #28]
  97              		.loc 1 96 0
  98 0004 029B     		ldr	r3, [sp, #8]
  99              	.LVL7:
 100              		.loc 1 92 0
 101 0006 0024     		mov	r4, #0
 102              		.loc 1 93 0
 103 0008 4161     		str	r1, [r0, #20]
 104 000a 8161     		str	r1, [r0, #24]
 105 000c C160     		str	r1, [r0, #12]
 106              		.loc 1 94 0
 107 000e 8918     		add	r1, r1, r2
 108              	.LVL8:
 109              		.loc 1 91 0
 110 0010 4060     		str	r0, [r0, #4]
 111 0012 0060     		str	r0, [r0]
 112              		.loc 1 92 0
 113 0014 8460     		str	r4, [r0, #8]
ARM GAS  C:\Users\Rob\AppData\Local\Temp\ccAk5ryi.s 			page 3


 114              		.loc 1 94 0
 115 0016 0161     		str	r1, [r0, #16]
 116              		.loc 1 96 0
 117 0018 0362     		str	r3, [r0, #32]
 118              		.loc 1 97 0
 119              		@ sp needed for prologue
 120 001a 10BD     		pop	{r4, pc}
 121              		.cfi_endproc
 122              	.LFE8:
 123              		.size	chIQInit, .-chIQInit
 124 001c C046C046 		.section	.text.chIQResetI,"ax",%progbits
 125              		.align	2
 126              		.p2align 4,,15
 127              		.global	chIQResetI
 128              		.code	16
 129              		.thumb_func
 130              		.type	chIQResetI, %function
 131              	chIQResetI:
 132              	.LFB9:
 133              		.loc 1 110 0
 134              		.cfi_startproc
 135 0000 38B5     		push	{r3, r4, r5, lr}
 136              	.LCFI2:
 137              		.cfi_def_cfa_offset 16
 138              		.cfi_offset 3, -16
 139              		.cfi_offset 4, -12
 140              		.cfi_offset 5, -8
 141              		.cfi_offset 14, -4
 142              	.LVL9:
 143              		.loc 1 114 0
 144 0002 C368     		ldr	r3, [r0, #12]
 145              		.loc 1 110 0
 146 0004 041C     		mov	r4, r0
 147              		.loc 1 114 0
 148 0006 4361     		str	r3, [r0, #20]
 149 0008 8361     		str	r3, [r0, #24]
 150              		.loc 1 115 0
 151 000a 0023     		mov	r3, #0
 152 000c 8360     		str	r3, [r0, #8]
 153              		.loc 1 116 0
 154 000e 0068     		ldr	r0, [r0]
 155              	.LVL10:
 156 0010 A042     		cmp	r0, r4
 157 0012 0AD0     		beq	.L8
 158              		.loc 1 117 0
 159 0014 0225     		mov	r5, #2
 160 0016 6D42     		neg	r5, r5
 161              	.L11:
 162              	.LVL11:
 163              	.LBB14:
 164              	.LBB15:
 165              		.loc 2 55 0
 166 0018 0368     		ldr	r3, [r0]
 167 001a 2360     		str	r3, [r4]
 168 001c 5C60     		str	r4, [r3, #4]
 169              	.LBE15:
 170              	.LBE14:
ARM GAS  C:\Users\Rob\AppData\Local\Temp\ccAk5ryi.s 			page 4


 171              		.loc 1 117 0
 172 001e FFF7FEFF 		bl	chSchReadyI
 173              	.LVL12:
 174 0022 4562     		str	r5, [r0, #36]
 175              		.loc 1 116 0
 176 0024 2068     		ldr	r0, [r4]
 177 0026 8442     		cmp	r4, r0
 178 0028 F6D1     		bne	.L11
 179              	.LVL13:
 180              	.L8:
 181              		.loc 1 118 0
 182              		@ sp needed for prologue
 183              	.LVL14:
 184 002a 38BD     		pop	{r3, r4, r5, pc}
 185              		.cfi_endproc
 186              	.LFE9:
 187              		.size	chIQResetI, .-chIQResetI
 188 002c C046C046 		.section	.text.chIQPutI,"ax",%progbits
 189              		.align	2
 190              		.p2align 4,,15
 191              		.global	chIQPutI
 192              		.code	16
 193              		.thumb_func
 194              		.type	chIQPutI, %function
 195              	chIQPutI:
 196              	.LFB10:
 197              		.loc 1 133 0
 198              		.cfi_startproc
 199 0000 10B5     		push	{r4, lr}
 200              	.LCFI3:
 201              		.cfi_def_cfa_offset 8
 202              		.cfi_offset 4, -8
 203              		.cfi_offset 14, -4
 204              	.LVL15:
 205              		.loc 1 137 0
 206 0002 4369     		ldr	r3, [r0, #20]
 207 0004 8269     		ldr	r2, [r0, #24]
 208 0006 9342     		cmp	r3, r2
 209 0008 18D0     		beq	.L21
 210              		.loc 1 146 0
 211 000a 8268     		ldr	r2, [r0, #8]
 212              	.L16:
 213              		.loc 1 140 0
 214 000c 0132     		add	r2, r2, #1
 215 000e 8260     		str	r2, [r0, #8]
 216              		.loc 1 141 0
 217 0010 1970     		strb	r1, [r3]
 218              		.loc 1 142 0
 219 0012 0269     		ldr	r2, [r0, #16]
 220              		.loc 1 141 0
 221 0014 0133     		add	r3, r3, #1
 222 0016 4361     		str	r3, [r0, #20]
 223              		.loc 1 142 0
 224 0018 9342     		cmp	r3, r2
 225 001a 0CD2     		bcs	.L17
 226              	.L18:
 227              		.loc 1 145 0
ARM GAS  C:\Users\Rob\AppData\Local\Temp\ccAk5ryi.s 			page 5


 228 001c 0368     		ldr	r3, [r0]
 229              		.loc 1 148 0
 230 001e 0024     		mov	r4, #0
 231              		.loc 1 145 0
 232 0020 8342     		cmp	r3, r0
 233 0022 06D0     		beq	.L15
 234              	.LVL16:
 235              	.LBB16:
 236              	.LBB17:
 237              		.loc 2 55 0
 238 0024 1A68     		ldr	r2, [r3]
 239 0026 0260     		str	r2, [r0]
 240 0028 5060     		str	r0, [r2, #4]
 241              	.LBE17:
 242              	.LBE16:
 243              		.loc 1 146 0
 244 002a 181C     		mov	r0, r3
 245              	.LVL17:
 246 002c FFF7FEFF 		bl	chSchReadyI
 247              	.LVL18:
 248 0030 4462     		str	r4, [r0, #36]
 249              	.L15:
 250              		.loc 1 149 0
 251 0032 201C     		mov	r0, r4
 252              		@ sp needed for prologue
 253 0034 10BD     		pop	{r4, pc}
 254              	.LVL19:
 255              	.L17:
 256              		.loc 1 143 0
 257 0036 C368     		ldr	r3, [r0, #12]
 258 0038 4361     		str	r3, [r0, #20]
 259 003a EFE7     		b	.L18
 260              	.L21:
 261              		.loc 1 137 0 discriminator 1
 262 003c 8268     		ldr	r2, [r0, #8]
 263 003e 002A     		cmp	r2, #0
 264 0040 E4D0     		beq	.L16
 265              		.loc 1 138 0
 266 0042 0424     		mov	r4, #4
 267 0044 6442     		neg	r4, r4
 268 0046 F4E7     		b	.L15
 269              		.cfi_endproc
 270              	.LFE10:
 271              		.size	chIQPutI, .-chIQPutI
 272 0048 C046C046 		.section	.text.chIQGetTimeout,"ax",%progbits
 272      C046C046 
 273              		.align	2
 274              		.p2align 4,,15
 275              		.global	chIQGetTimeout
 276              		.code	16
 277              		.thumb_func
 278              		.type	chIQGetTimeout, %function
 279              	chIQGetTimeout:
 280              	.LFB11:
 281              		.loc 1 171 0
 282              		.cfi_startproc
 283 0000 38B5     		push	{r3, r4, r5, lr}
ARM GAS  C:\Users\Rob\AppData\Local\Temp\ccAk5ryi.s 			page 6


 284              	.LCFI4:
 285              		.cfi_def_cfa_offset 16
 286              		.cfi_offset 3, -16
 287              		.cfi_offset 4, -12
 288              		.cfi_offset 5, -8
 289              		.cfi_offset 14, -4
 290              	.LVL20:
 291              		.loc 1 171 0
 292 0002 041C     		mov	r4, r0
 293 0004 0D1C     		mov	r5, r1
 294              		.loc 1 174 0
 295              	@ 174 "../../os/kernel/src/chqueues.c" 1
 296 0006 72B6     		cpsid   i
 297              	@ 0 "" 2
 298              		.loc 1 175 0
 299              		.code	16
 300 0008 C369     		ldr	r3, [r0, #28]
 301 000a 002B     		cmp	r3, #0
 302 000c 00D0     		beq	.L28
 303              		.loc 1 176 0
 304 000e 9847     		blx	r3
 305              	.LVL21:
 306              	.L28:
 307              		.loc 1 178 0 discriminator 1
 308 0010 A368     		ldr	r3, [r4, #8]
 309 0012 002B     		cmp	r3, #0
 310 0014 07D1     		bne	.L30
 311              	.LBB18:
 312              		.loc 1 180 0
 313 0016 201C     		mov	r0, r4
 314 0018 291C     		mov	r1, r5
 315 001a FFF7FEFF 		bl	qwait
 316              	.LVL22:
 317 001e 0028     		cmp	r0, #0
 318 0020 F6DA     		bge	.L28
 319              	.LVL23:
 320              	.L27:
 321              	.LBE18:
 322              		.loc 1 191 0
 323              	@ 191 "../../os/kernel/src/chqueues.c" 1
 324 0022 62B6     		cpsie   i
 325              	@ 0 "" 2
 326              		.loc 1 193 0
 327              		.code	16
 328              		@ sp needed for prologue
 329              	.LVL24:
 330              	.LVL25:
 331 0024 38BD     		pop	{r3, r4, r5, pc}
 332              	.LVL26:
 333              	.L30:
 334              		.loc 1 186 0
 335 0026 013B     		sub	r3, r3, #1
 336 0028 A360     		str	r3, [r4, #8]
 337              		.loc 1 187 0
 338 002a A369     		ldr	r3, [r4, #24]
 339              		.loc 1 188 0
 340 002c 2269     		ldr	r2, [r4, #16]
ARM GAS  C:\Users\Rob\AppData\Local\Temp\ccAk5ryi.s 			page 7


 341              		.loc 1 187 0
 342 002e 1878     		ldrb	r0, [r3]
 343              	.LVL27:
 344 0030 0133     		add	r3, r3, #1
 345 0032 A361     		str	r3, [r4, #24]
 346              		.loc 1 188 0
 347 0034 9342     		cmp	r3, r2
 348 0036 F4D3     		bcc	.L27
 349              		.loc 1 189 0
 350 0038 E368     		ldr	r3, [r4, #12]
 351 003a A361     		str	r3, [r4, #24]
 352 003c F1E7     		b	.L27
 353              		.cfi_endproc
 354              	.LFE11:
 355              		.size	chIQGetTimeout, .-chIQGetTimeout
 356 003e C046     		.section	.text.chIQReadTimeout,"ax",%progbits
 357              		.align	2
 358              		.p2align 4,,15
 359              		.global	chIQReadTimeout
 360              		.code	16
 361              		.thumb_func
 362              		.type	chIQReadTimeout, %function
 363              	chIQReadTimeout:
 364              	.LFB12:
 365              		.loc 1 220 0
 366              		.cfi_startproc
 367 0000 F8B5     		push	{r3, r4, r5, r6, r7, lr}
 368              	.LCFI5:
 369              		.cfi_def_cfa_offset 24
 370              		.cfi_offset 3, -24
 371              		.cfi_offset 4, -20
 372              		.cfi_offset 5, -16
 373              		.cfi_offset 6, -12
 374              		.cfi_offset 7, -8
 375              		.cfi_offset 14, -4
 376 0002 4F46     		mov	r7, r9
 377 0004 4646     		mov	r6, r8
 378 0006 C0B4     		push	{r6, r7}
 379              	.LCFI6:
 380              		.cfi_def_cfa_offset 32
 381              		.cfi_offset 8, -32
 382              		.cfi_offset 9, -28
 383              	.LVL28:
 384              		.loc 1 220 0
 385 0008 041C     		mov	r4, r0
 386 000a 8846     		mov	r8, r1
 387 000c 9146     		mov	r9, r2
 388 000e 1D1C     		mov	r5, r3
 389              		.loc 1 221 0
 390 0010 C769     		ldr	r7, [r0, #28]
 391              	.LVL29:
 392              		.loc 1 226 0
 393              	@ 226 "../../os/kernel/src/chqueues.c" 1
 394 0012 72B6     		cpsid   i
 395              	@ 0 "" 2
 396              		.loc 1 222 0
 397              		.code	16
ARM GAS  C:\Users\Rob\AppData\Local\Temp\ccAk5ryi.s 			page 8


 398 0014 0026     		mov	r6, #0
 399              	.LVL30:
 400              	.L37:
 401              		.loc 1 228 0
 402 0016 002F     		cmp	r7, #0
 403 0018 01D0     		beq	.L38
 404              		.loc 1 229 0
 405 001a 201C     		mov	r0, r4
 406 001c B847     		blx	r7
 407              	.L38:
 408              		.loc 1 231 0 discriminator 1
 409 001e A368     		ldr	r3, [r4, #8]
 410 0020 002B     		cmp	r3, #0
 411 0022 0BD1     		bne	.L40
 412              		.loc 1 232 0
 413 0024 201C     		mov	r0, r4
 414 0026 291C     		mov	r1, r5
 415 0028 FFF7FEFF 		bl	qwait
 416 002c 0028     		cmp	r0, #0
 417 002e F6D0     		beq	.L38
 418              		.loc 1 233 0
 419              	@ 233 "../../os/kernel/src/chqueues.c" 1
 420 0030 62B6     		cpsie   i
 421              	@ 0 "" 2
 422              		.code	16
 423              	.L34:
 424              		.loc 1 250 0
 425 0032 301C     		mov	r0, r6
 426              		@ sp needed for prologue
 427              	.LVL31:
 428              	.LVL32:
 429              	.LVL33:
 430              	.LVL34:
 431 0034 0CBC     		pop	{r2, r3}
 432 0036 9046     		mov	r8, r2
 433 0038 9946     		mov	r9, r3
 434 003a F8BD     		pop	{r3, r4, r5, r6, r7, pc}
 435              	.LVL35:
 436              	.L40:
 437              		.loc 1 238 0
 438 003c 013B     		sub	r3, r3, #1
 439 003e A360     		str	r3, [r4, #8]
 440              		.loc 1 239 0
 441 0040 A369     		ldr	r3, [r4, #24]
 442 0042 4146     		mov	r1, r8
 443 0044 1A78     		ldrb	r2, [r3]
 444 0046 0133     		add	r3, r3, #1
 445 0048 8A55     		strb	r2, [r1, r6]
 446              		.loc 1 240 0
 447 004a 2269     		ldr	r2, [r4, #16]
 448              		.loc 1 239 0
 449 004c A361     		str	r3, [r4, #24]
 450              		.loc 1 240 0
 451 004e 9342     		cmp	r3, r2
 452 0050 05D2     		bcs	.L41
 453              	.L36:
 454              		.loc 1 243 0
ARM GAS  C:\Users\Rob\AppData\Local\Temp\ccAk5ryi.s 			page 9


 455              	@ 243 "../../os/kernel/src/chqueues.c" 1
 456 0052 62B6     		cpsie   i
 457              	@ 0 "" 2
 458              		.loc 1 244 0
 459              		.code	16
 460 0054 0136     		add	r6, r6, #1
 461              	.LVL36:
 462              		.loc 1 245 0
 463 0056 B145     		cmp	r9, r6
 464 0058 EBD0     		beq	.L34
 465              		.loc 1 248 0
 466              	@ 248 "../../os/kernel/src/chqueues.c" 1
 467 005a 72B6     		cpsid   i
 468              	@ 0 "" 2
 469              		.loc 1 249 0
 470              		.code	16
 471 005c DBE7     		b	.L37
 472              	.L41:
 473              		.loc 1 241 0
 474 005e E368     		ldr	r3, [r4, #12]
 475 0060 A361     		str	r3, [r4, #24]
 476 0062 F6E7     		b	.L36
 477              		.cfi_endproc
 478              	.LFE12:
 479              		.size	chIQReadTimeout, .-chIQReadTimeout
 480 0064 C046C046 		.section	.text.chOQInit,"ax",%progbits
 480      C046C046 
 480      C046C046 
 481              		.align	2
 482              		.p2align 4,,15
 483              		.global	chOQInit
 484              		.code	16
 485              		.thumb_func
 486              		.type	chOQInit, %function
 487              	chOQInit:
 488              	.LFB13:
 489              		.loc 1 269 0
 490              		.cfi_startproc
 491              	.LVL37:
 492              		.loc 1 275 0
 493 0000 C361     		str	r3, [r0, #28]
 494              		.loc 1 276 0
 495 0002 009B     		ldr	r3, [sp]
 496              	.LVL38:
 497              		.loc 1 273 0
 498 0004 4161     		str	r1, [r0, #20]
 499 0006 8161     		str	r1, [r0, #24]
 500 0008 C160     		str	r1, [r0, #12]
 501              		.loc 1 274 0
 502 000a 8918     		add	r1, r1, r2
 503              	.LVL39:
 504              		.loc 1 271 0
 505 000c 4060     		str	r0, [r0, #4]
 506 000e 0060     		str	r0, [r0]
 507              		.loc 1 272 0
 508 0010 8260     		str	r2, [r0, #8]
 509              		.loc 1 274 0
ARM GAS  C:\Users\Rob\AppData\Local\Temp\ccAk5ryi.s 			page 10


 510 0012 0161     		str	r1, [r0, #16]
 511              		.loc 1 276 0
 512 0014 0362     		str	r3, [r0, #32]
 513              		.loc 1 277 0
 514              		@ sp needed for prologue
 515 0016 7047     		bx	lr
 516              		.cfi_endproc
 517              	.LFE13:
 518              		.size	chOQInit, .-chOQInit
 519 0018 C046C046 		.section	.text.chOQResetI,"ax",%progbits
 519      C046C046 
 520              		.align	2
 521              		.p2align 4,,15
 522              		.global	chOQResetI
 523              		.code	16
 524              		.thumb_func
 525              		.type	chOQResetI, %function
 526              	chOQResetI:
 527              	.LFB14:
 528              		.loc 1 290 0
 529              		.cfi_startproc
 530 0000 38B5     		push	{r3, r4, r5, lr}
 531              	.LCFI7:
 532              		.cfi_def_cfa_offset 16
 533              		.cfi_offset 3, -16
 534              		.cfi_offset 4, -12
 535              		.cfi_offset 5, -8
 536              		.cfi_offset 14, -4
 537              	.LVL40:
 538              		.loc 1 294 0
 539 0002 C368     		ldr	r3, [r0, #12]
 540              		.loc 1 295 0
 541 0004 0269     		ldr	r2, [r0, #16]
 542              		.loc 1 294 0
 543 0006 4361     		str	r3, [r0, #20]
 544 0008 8361     		str	r3, [r0, #24]
 545              		.loc 1 295 0
 546 000a D31A     		sub	r3, r2, r3
 547              		.loc 1 290 0
 548 000c 041C     		mov	r4, r0
 549              		.loc 1 295 0
 550 000e 8360     		str	r3, [r0, #8]
 551              		.loc 1 296 0
 552 0010 0068     		ldr	r0, [r0]
 553              	.LVL41:
 554 0012 A042     		cmp	r0, r4
 555 0014 0AD0     		beq	.L43
 556              		.loc 1 297 0
 557 0016 0225     		mov	r5, #2
 558 0018 6D42     		neg	r5, r5
 559              	.L46:
 560              	.LVL42:
 561              	.LBB19:
 562              	.LBB20:
 563              		.loc 2 55 0
 564 001a 0368     		ldr	r3, [r0]
 565 001c 2360     		str	r3, [r4]
ARM GAS  C:\Users\Rob\AppData\Local\Temp\ccAk5ryi.s 			page 11


 566 001e 5C60     		str	r4, [r3, #4]
 567              	.LBE20:
 568              	.LBE19:
 569              		.loc 1 297 0
 570 0020 FFF7FEFF 		bl	chSchReadyI
 571              	.LVL43:
 572 0024 4562     		str	r5, [r0, #36]
 573              		.loc 1 296 0
 574 0026 2068     		ldr	r0, [r4]
 575 0028 8442     		cmp	r4, r0
 576 002a F6D1     		bne	.L46
 577              	.LVL44:
 578              	.L43:
 579              		.loc 1 298 0
 580              		@ sp needed for prologue
 581              	.LVL45:
 582 002c 38BD     		pop	{r3, r4, r5, pc}
 583              		.cfi_endproc
 584              	.LFE14:
 585              		.size	chOQResetI, .-chOQResetI
 586 002e C046     		.section	.text.chOQPutTimeout,"ax",%progbits
 587              		.align	2
 588              		.p2align 4,,15
 589              		.global	chOQPutTimeout
 590              		.code	16
 591              		.thumb_func
 592              		.type	chOQPutTimeout, %function
 593              	chOQPutTimeout:
 594              	.LFB15:
 595              		.loc 1 322 0
 596              		.cfi_startproc
 597 0000 70B5     		push	{r4, r5, r6, lr}
 598              	.LCFI8:
 599              		.cfi_def_cfa_offset 16
 600              		.cfi_offset 4, -16
 601              		.cfi_offset 5, -12
 602              		.cfi_offset 6, -8
 603              		.cfi_offset 14, -4
 604              	.LVL46:
 605              		.loc 1 322 0
 606 0002 041C     		mov	r4, r0
 607 0004 0E1C     		mov	r6, r1
 608 0006 151C     		mov	r5, r2
 609              		.loc 1 324 0
 610              	@ 324 "../../os/kernel/src/chqueues.c" 1
 611 0008 72B6     		cpsid   i
 612              	@ 0 "" 2
 613              	.LVL47:
 614              		.code	16
 615              	.L49:
 616              		.loc 1 325 0 discriminator 1
 617 000a A368     		ldr	r3, [r4, #8]
 618 000c 002B     		cmp	r3, #0
 619 000e 07D1     		bne	.L55
 620              	.LBB21:
 621              		.loc 1 328 0
 622 0010 201C     		mov	r0, r4
ARM GAS  C:\Users\Rob\AppData\Local\Temp\ccAk5ryi.s 			page 12


 623 0012 291C     		mov	r1, r5
 624 0014 FFF7FEFF 		bl	qwait
 625              	.LVL48:
 626 0018 0028     		cmp	r0, #0
 627 001a F6DA     		bge	.L49
 628              		.loc 1 329 0
 629              	@ 329 "../../os/kernel/src/chqueues.c" 1
 630 001c 62B6     		cpsie   i
 631              	@ 0 "" 2
 632              	.LVL49:
 633              		.code	16
 634              	.L50:
 635              	.LBE21:
 636              		.loc 1 344 0
 637              		@ sp needed for prologue
 638              	.LVL50:
 639              	.LVL51:
 640 001e 70BD     		pop	{r4, r5, r6, pc}
 641              	.LVL52:
 642              	.L55:
 643              		.loc 1 334 0
 644 0020 013B     		sub	r3, r3, #1
 645 0022 A360     		str	r3, [r4, #8]
 646              		.loc 1 335 0
 647 0024 6369     		ldr	r3, [r4, #20]
 648 0026 1E70     		strb	r6, [r3]
 649              		.loc 1 336 0
 650 0028 2269     		ldr	r2, [r4, #16]
 651              		.loc 1 335 0
 652 002a 0133     		add	r3, r3, #1
 653 002c 6361     		str	r3, [r4, #20]
 654              		.loc 1 336 0
 655 002e 9342     		cmp	r3, r2
 656 0030 01D3     		bcc	.L52
 657              		.loc 1 337 0
 658 0032 E368     		ldr	r3, [r4, #12]
 659 0034 6361     		str	r3, [r4, #20]
 660              	.L52:
 661              		.loc 1 339 0
 662 0036 E369     		ldr	r3, [r4, #28]
 663 0038 002B     		cmp	r3, #0
 664 003a 01D0     		beq	.L53
 665              		.loc 1 340 0
 666 003c 201C     		mov	r0, r4
 667 003e 9847     		blx	r3
 668              	.L53:
 669              		.loc 1 342 0
 670              	@ 342 "../../os/kernel/src/chqueues.c" 1
 671 0040 62B6     		cpsie   i
 672              	@ 0 "" 2
 673              		.loc 1 343 0
 674              		.code	16
 675 0042 0020     		mov	r0, #0
 676 0044 EBE7     		b	.L50
 677              		.cfi_endproc
 678              	.LFE15:
 679              		.size	chOQPutTimeout, .-chOQPutTimeout
ARM GAS  C:\Users\Rob\AppData\Local\Temp\ccAk5ryi.s 			page 13


 680 0046 C046C046 		.section	.text.chOQGetI,"ax",%progbits
 680      C046C046 
 680      C046
 681              		.align	2
 682              		.p2align 4,,15
 683              		.global	chOQGetI
 684              		.code	16
 685              		.thumb_func
 686              		.type	chOQGetI, %function
 687              	chOQGetI:
 688              	.LFB16:
 689              		.loc 1 356 0
 690              		.cfi_startproc
 691 0000 10B5     		push	{r4, lr}
 692              	.LCFI9:
 693              		.cfi_def_cfa_offset 8
 694              		.cfi_offset 4, -8
 695              		.cfi_offset 14, -4
 696              	.LVL53:
 697              		.loc 1 361 0
 698 0002 8369     		ldr	r3, [r0, #24]
 699 0004 4269     		ldr	r2, [r0, #20]
 700 0006 9A42     		cmp	r2, r3
 701 0008 18D0     		beq	.L64
 702              		.loc 1 372 0
 703 000a 8268     		ldr	r2, [r0, #8]
 704              	.L59:
 705              		.loc 1 364 0
 706 000c 0132     		add	r2, r2, #1
 707 000e 8260     		str	r2, [r0, #8]
 708              		.loc 1 366 0
 709 0010 0269     		ldr	r2, [r0, #16]
 710              		.loc 1 365 0
 711 0012 1C78     		ldrb	r4, [r3]
 712              	.LVL54:
 713 0014 0133     		add	r3, r3, #1
 714 0016 8361     		str	r3, [r0, #24]
 715              		.loc 1 366 0
 716 0018 9342     		cmp	r3, r2
 717 001a 0CD2     		bcs	.L61
 718              	.L62:
 719              		.loc 1 369 0
 720 001c 0368     		ldr	r3, [r0]
 721 001e 8342     		cmp	r3, r0
 722 0020 07D0     		beq	.L60
 723              	.LVL55:
 724              	.LBB22:
 725              	.LBB23:
 726              		.loc 2 55 0
 727 0022 1A68     		ldr	r2, [r3]
 728 0024 0260     		str	r2, [r0]
 729 0026 5060     		str	r0, [r2, #4]
 730              	.LBE23:
 731              	.LBE22:
 732              		.loc 1 370 0
 733 0028 181C     		mov	r0, r3
 734              	.LVL56:
ARM GAS  C:\Users\Rob\AppData\Local\Temp\ccAk5ryi.s 			page 14


 735 002a FFF7FEFF 		bl	chSchReadyI
 736              	.LVL57:
 737 002e 0023     		mov	r3, #0
 738 0030 4362     		str	r3, [r0, #36]
 739              	.L60:
 740              		.loc 1 372 0
 741 0032 201C     		mov	r0, r4
 742              	.LVL58:
 743              	.L58:
 744              		.loc 1 373 0
 745              		@ sp needed for prologue
 746 0034 10BD     		pop	{r4, pc}
 747              	.LVL59:
 748              	.L61:
 749              		.loc 1 367 0
 750 0036 C368     		ldr	r3, [r0, #12]
 751 0038 8361     		str	r3, [r0, #24]
 752 003a EFE7     		b	.L62
 753              	.LVL60:
 754              	.L64:
 755              		.loc 1 361 0 discriminator 1
 756 003c 8268     		ldr	r2, [r0, #8]
 757 003e 002A     		cmp	r2, #0
 758 0040 E4D0     		beq	.L59
 759              		.loc 1 362 0
 760 0042 0320     		mov	r0, #3
 761              	.LVL61:
 762 0044 4042     		neg	r0, r0
 763 0046 F5E7     		b	.L58
 764              		.cfi_endproc
 765              	.LFE16:
 766              		.size	chOQGetI, .-chOQGetI
 767 0048 C046C046 		.section	.text.chOQWriteTimeout,"ax",%progbits
 767      C046C046 
 768              		.align	2
 769              		.p2align 4,,15
 770              		.global	chOQWriteTimeout
 771              		.code	16
 772              		.thumb_func
 773              		.type	chOQWriteTimeout, %function
 774              	chOQWriteTimeout:
 775              	.LFB17:
 776              		.loc 1 400 0
 777              		.cfi_startproc
 778 0000 F8B5     		push	{r3, r4, r5, r6, r7, lr}
 779              	.LCFI10:
 780              		.cfi_def_cfa_offset 24
 781              		.cfi_offset 3, -24
 782              		.cfi_offset 4, -20
 783              		.cfi_offset 5, -16
 784              		.cfi_offset 6, -12
 785              		.cfi_offset 7, -8
 786              		.cfi_offset 14, -4
 787 0002 4F46     		mov	r7, r9
 788 0004 4646     		mov	r6, r8
 789 0006 C0B4     		push	{r6, r7}
 790              	.LCFI11:
ARM GAS  C:\Users\Rob\AppData\Local\Temp\ccAk5ryi.s 			page 15


 791              		.cfi_def_cfa_offset 32
 792              		.cfi_offset 8, -32
 793              		.cfi_offset 9, -28
 794              	.LVL62:
 795              		.loc 1 400 0
 796 0008 9946     		mov	r9, r3
 797              		.loc 1 401 0
 798 000a C369     		ldr	r3, [r0, #28]
 799              	.LVL63:
 800              		.loc 1 400 0
 801 000c 041C     		mov	r4, r0
 802 000e 0E1C     		mov	r6, r1
 803 0010 151C     		mov	r5, r2
 804              		.loc 1 401 0
 805 0012 9846     		mov	r8, r3
 806              	.LVL64:
 807              		.loc 1 406 0
 808              	@ 406 "../../os/kernel/src/chqueues.c" 1
 809 0014 72B6     		cpsid   i
 810              	@ 0 "" 2
 811              		.loc 1 402 0
 812              		.code	16
 813 0016 0027     		mov	r7, #0
 814              	.LVL65:
 815              	.L74:
 816              		.loc 1 408 0 discriminator 1
 817 0018 A368     		ldr	r3, [r4, #8]
 818 001a 002B     		cmp	r3, #0
 819 001c 1AD0     		beq	.L69
 820              	.L75:
 821              		.loc 1 414 0
 822 001e 013B     		sub	r3, r3, #1
 823 0020 A360     		str	r3, [r4, #8]
 824              		.loc 1 415 0
 825 0022 3278     		ldrb	r2, [r6]
 826 0024 6369     		ldr	r3, [r4, #20]
 827 0026 1A70     		strb	r2, [r3]
 828              		.loc 1 416 0
 829 0028 2269     		ldr	r2, [r4, #16]
 830              		.loc 1 415 0
 831 002a 0133     		add	r3, r3, #1
 832 002c 6361     		str	r3, [r4, #20]
 833              	.LVL66:
 834              		.loc 1 416 0
 835 002e 9342     		cmp	r3, r2
 836 0030 01D3     		bcc	.L70
 837              		.loc 1 417 0
 838 0032 E368     		ldr	r3, [r4, #12]
 839 0034 6361     		str	r3, [r4, #20]
 840              	.L70:
 841              		.loc 1 419 0
 842 0036 4346     		mov	r3, r8
 843 0038 002B     		cmp	r3, #0
 844 003a 01D0     		beq	.L71
 845              		.loc 1 420 0
 846 003c 201C     		mov	r0, r4
 847 003e C047     		blx	r8
ARM GAS  C:\Users\Rob\AppData\Local\Temp\ccAk5ryi.s 			page 16


 848              	.L71:
 849              		.loc 1 422 0
 850              	@ 422 "../../os/kernel/src/chqueues.c" 1
 851 0040 62B6     		cpsie   i
 852              	@ 0 "" 2
 853              		.loc 1 424 0
 854              		.code	16
 855 0042 013D     		sub	r5, r5, #1
 856              	.LVL67:
 857              		.loc 1 423 0
 858 0044 0137     		add	r7, r7, #1
 859              	.LVL68:
 860              		.loc 1 424 0
 861 0046 002D     		cmp	r5, #0
 862 0048 0BD0     		beq	.L68
 863              		.loc 1 415 0
 864 004a 0136     		add	r6, r6, #1
 865              	.LVL69:
 866              		.loc 1 426 0
 867              	@ 426 "../../os/kernel/src/chqueues.c" 1
 868 004c 72B6     		cpsid   i
 869              	@ 0 "" 2
 870              		.loc 1 408 0
 871              		.code	16
 872 004e A368     		ldr	r3, [r4, #8]
 873 0050 002B     		cmp	r3, #0
 874 0052 E4D1     		bne	.L75
 875              	.L69:
 876              		.loc 1 409 0
 877 0054 201C     		mov	r0, r4
 878 0056 4946     		mov	r1, r9
 879 0058 FFF7FEFF 		bl	qwait
 880 005c 0028     		cmp	r0, #0
 881 005e DBD0     		beq	.L74
 882              		.loc 1 410 0
 883              	@ 410 "../../os/kernel/src/chqueues.c" 1
 884 0060 62B6     		cpsie   i
 885              	@ 0 "" 2
 886              	.LVL70:
 887              		.code	16
 888              	.L68:
 889              		.loc 1 428 0
 890 0062 381C     		mov	r0, r7
 891              		@ sp needed for prologue
 892              	.LVL71:
 893              	.LVL72:
 894              	.LVL73:
 895              	.LVL74:
 896              	.LVL75:
 897 0064 0CBC     		pop	{r2, r3}
 898 0066 9046     		mov	r8, r2
 899 0068 9946     		mov	r9, r3
 900 006a F8BD     		pop	{r3, r4, r5, r6, r7, pc}
 901              		.cfi_endproc
 902              	.LFE17:
 903              		.size	chOQWriteTimeout, .-chOQWriteTimeout
 904 006c C046C046 		.text
ARM GAS  C:\Users\Rob\AppData\Local\Temp\ccAk5ryi.s 			page 17


 905              	.Letext0:
 906              		.file 3 "c:\\yagarto\\bin\\../lib/gcc/arm-none-eabi/4.6.2/include/stddef.h"
 907              		.file 4 "c:/yagarto/lib/gcc/../../arm-none-eabi/sys-include/stdint.h"
 908              		.file 5 "../../os/ports/GCC/ARMCMx/chtypes.h"
 909              		.file 6 "../../os/kernel/include/chlists.h"
 910              		.file 7 "../../os/kernel/include/chthreads.h"
 911              		.file 8 "../../os/ports/GCC/ARMCMx/chcore_v6m.h"
 912              		.file 9 "../../os/kernel/include/chschd.h"
 913              		.file 10 "../../os/kernel/include/chmtx.h"
 914              		.file 11 "../../os/kernel/include/chqueues.h"