ARM GAS  C:\Users\Rob\AppData\Local\Temp\ccsWif2A.s 			page 1


   1              		.cpu cortex-m0
   2              		.fpu softvfp
   3              		.eabi_attribute 20, 1
   4              		.eabi_attribute 21, 1
   5              		.eabi_attribute 23, 3
   6              		.eabi_attribute 24, 1
   7              		.eabi_attribute 25, 1
   8              		.eabi_attribute 26, 1
   9              		.eabi_attribute 30, 2
  10              		.eabi_attribute 18, 4
  11              		.code	16
  12              		.file	"chschd.c"
  13              		.text
  14              	.Ltext0:
  15              		.cfi_sections	.debug_frame
  16              		.section	.text.wakeup,"ax",%progbits
  17              		.align	2
  18              		.p2align 4,,15
  19              		.code	16
  20              		.thumb_func
  21              		.type	wakeup, %function
  22              	wakeup:
  23              	.LFB10:
  24              		.file 1 "../../os/kernel/src/chschd.c"
  25              		.loc 1 129 0
  26              		.cfi_startproc
  27 0000 00B5     		push	{lr}
  28              	.LCFI0:
  29              		.cfi_def_cfa_offset 4
  30              		.cfi_offset 14, -4
  31              	.LVL0:
  32              		.loc 1 132 0
  33              	@ 132 "../../os/kernel/src/chschd.c" 1
  34 0002 72B6     		cpsid   i
  35              	@ 0 "" 2
  36              		.loc 1 133 0
  37              		.code	16
  38 0004 037F     		ldrb	r3, [r0, #28]
  39 0006 032B     		cmp	r3, #3
  40 0008 19D0     		beq	.L4
  41              	.LVL1:
  42 000a 15D9     		bls	.L12
  43 000c 052B     		cmp	r3, #5
  44 000e 1AD0     		beq	.L5
  45 0010 0D2B     		cmp	r3, #13
  46 0012 18D0     		beq	.L5
  47              	.LVL2:
  48              	.L2:
  49              		.loc 1 156 0
  50 0014 0123     		mov	r3, #1
  51 0016 5B42     		neg	r3, r3
  52 0018 4362     		str	r3, [r0, #36]
  53              	.LVL3:
  54              	.LBB19:
  55              	.LBB20:
  56              		.loc 1 85 0
  57 001a 0023     		mov	r3, #0
ARM GAS  C:\Users\Rob\AppData\Local\Temp\ccsWif2A.s 			page 2


  58 001c 0377     		strb	r3, [r0, #28]
  59              	.LVL4:
  60 001e 8168     		ldr	r1, [r0, #8]
  61              		.loc 1 86 0
  62 0020 0C4B     		ldr	r3, .L13
  63              	.LVL5:
  64              	.L8:
  65              		.loc 1 88 0
  66 0022 1B68     		ldr	r3, [r3]
  67              	.LVL6:
  68              		.loc 1 89 0
  69 0024 9A68     		ldr	r2, [r3, #8]
  70 0026 8A42     		cmp	r2, r1
  71 0028 FBD2     		bcs	.L8
  72              		.loc 1 92 0
  73 002a 5A68     		ldr	r2, [r3, #4]
  74              		.loc 1 91 0
  75 002c 0360     		str	r3, [r0]
  76              		.loc 1 92 0
  77 002e 4260     		str	r2, [r0, #4]
  78              		.loc 1 93 0
  79 0030 1060     		str	r0, [r2]
  80 0032 5860     		str	r0, [r3, #4]
  81              	.LVL7:
  82              	.L10:
  83              	.LBE20:
  84              	.LBE19:
  85              		.loc 1 158 0
  86              	@ 158 "../../os/kernel/src/chschd.c" 1
  87 0034 62B6     		cpsie   i
  88              	@ 0 "" 2
  89              		.loc 1 159 0
  90              		.code	16
  91              		@ sp needed for prologue
  92 0036 00BD     		pop	{pc}
  93              	.L12:
  94              		.loc 1 133 0
  95 0038 002B     		cmp	r3, #0
  96 003a FBD0     		beq	.L10
  97 003c EAE7     		b	.L2
  98              	.L4:
  99              		.loc 1 143 0
 100 003e 436A     		ldr	r3, [r0, #36]
 101 0040 9A68     		ldr	r2, [r3, #8]
 102 0042 0132     		add	r2, r2, #1
 103 0044 9A60     		str	r2, [r3, #8]
 104              	.L5:
 105              	.LVL8:
 106              	.LBB21:
 107              	.LBB22:
 108              		.file 2 "../../os/kernel/include/chinline.h"
 109              		.loc 2 68 0
 110 0046 4368     		ldr	r3, [r0, #4]
 111 0048 0268     		ldr	r2, [r0]
 112 004a 1A60     		str	r2, [r3]
 113              		.loc 2 69 0
 114 004c 0268     		ldr	r2, [r0]
ARM GAS  C:\Users\Rob\AppData\Local\Temp\ccsWif2A.s 			page 3


 115 004e 5360     		str	r3, [r2, #4]
 116 0050 E0E7     		b	.L2
 117              	.L14:
 118 0052 C046     		.align	2
 119              	.L13:
 120 0054 00000000 		.word	.LANCHOR0
 121              	.LBE22:
 122              	.LBE21:
 123              		.cfi_endproc
 124              	.LFE10:
 125              		.size	wakeup, .-wakeup
 126 0058 C046C046 		.section	.text._scheduler_init,"ax",%progbits
 126      C046C046 
 127              		.align	2
 128              		.p2align 4,,15
 129              		.global	_scheduler_init
 130              		.code	16
 131              		.thumb_func
 132              		.type	_scheduler_init, %function
 133              	_scheduler_init:
 134              	.LFB7:
 135              		.loc 1 48 0
 136              		.cfi_startproc
 137              		.loc 1 50 0
 138 0000 034B     		ldr	r3, .L16
 139              		.loc 1 51 0
 140 0002 0022     		mov	r2, #0
 141              		.loc 1 50 0
 142 0004 5B60     		str	r3, [r3, #4]
 143 0006 1B60     		str	r3, [r3]
 144              		.loc 1 51 0
 145 0008 9A60     		str	r2, [r3, #8]
 146              		.loc 1 53 0
 147 000a 5B61     		str	r3, [r3, #20]
 148 000c 1B61     		str	r3, [r3, #16]
 149              		.loc 1 55 0
 150              		@ sp needed for prologue
 151 000e 7047     		bx	lr
 152              	.L17:
 153              		.align	2
 154              	.L16:
 155 0010 00000000 		.word	.LANCHOR0
 156              		.cfi_endproc
 157              	.LFE7:
 158              		.size	_scheduler_init, .-_scheduler_init
 159 0014 C046C046 		.section	.text.chSchReadyI,"ax",%progbits
 159      C046C046 
 159      C046C046 
 160              		.align	2
 161              		.p2align 4,,15
 162              		.global	chSchReadyI
 163              		.code	16
 164              		.thumb_func
 165              		.type	chSchReadyI, %function
 166              	chSchReadyI:
 167              	.LFB8:
 168              		.loc 1 74 0
ARM GAS  C:\Users\Rob\AppData\Local\Temp\ccsWif2A.s 			page 4


 169              		.cfi_startproc
 170 0000 00B5     		push	{lr}
 171              	.LCFI1:
 172              		.cfi_def_cfa_offset 4
 173              		.cfi_offset 14, -4
 174              	.LVL9:
 175              		.loc 1 85 0
 176 0002 0023     		mov	r3, #0
 177 0004 0377     		strb	r3, [r0, #28]
 178              	.LVL10:
 179 0006 8168     		ldr	r1, [r0, #8]
 180              		.loc 1 86 0
 181 0008 054B     		ldr	r3, .L21
 182              	.LVL11:
 183              	.L19:
 184              		.loc 1 88 0 discriminator 1
 185 000a 1B68     		ldr	r3, [r3]
 186              	.LVL12:
 187              		.loc 1 89 0 discriminator 1
 188 000c 9A68     		ldr	r2, [r3, #8]
 189 000e 8A42     		cmp	r2, r1
 190 0010 FBD2     		bcs	.L19
 191              		.loc 1 92 0
 192 0012 5A68     		ldr	r2, [r3, #4]
 193              		.loc 1 91 0
 194 0014 0360     		str	r3, [r0]
 195              		.loc 1 92 0
 196 0016 4260     		str	r2, [r0, #4]
 197              		.loc 1 93 0
 198 0018 1060     		str	r0, [r2]
 199 001a 5860     		str	r0, [r3, #4]
 200              		.loc 1 95 0
 201              		@ sp needed for prologue
 202 001c 00BD     		pop	{pc}
 203              	.L22:
 204 001e C046     		.align	2
 205              	.L21:
 206 0020 00000000 		.word	.LANCHOR0
 207              		.cfi_endproc
 208              	.LFE8:
 209              		.size	chSchReadyI, .-chSchReadyI
 210 0024 C046C046 		.section	.text.chSchGoSleepS,"ax",%progbits
 210      C046C046 
 210      C046C046 
 211              		.align	2
 212              		.p2align 4,,15
 213              		.global	chSchGoSleepS
 214              		.code	16
 215              		.thumb_func
 216              		.type	chSchGoSleepS, %function
 217              	chSchGoSleepS:
 218              	.LFB9:
 219              		.loc 1 108 0
 220              		.cfi_startproc
 221 0000 08B5     		push	{r3, lr}
 222              	.LCFI2:
 223              		.cfi_def_cfa_offset 8
ARM GAS  C:\Users\Rob\AppData\Local\Temp\ccsWif2A.s 			page 5


 224              		.cfi_offset 3, -8
 225              		.cfi_offset 14, -4
 226              	.LVL13:
 227              		.loc 1 113 0
 228 0002 074B     		ldr	r3, .L24
 229              		.loc 1 117 0
 230 0004 1422     		mov	r2, #20
 231              		.loc 1 113 0
 232 0006 9969     		ldr	r1, [r3, #24]
 233              	.LVL14:
 234              		.loc 1 122 0
 235              		@ sp needed for prologue
 236              		.loc 1 113 0
 237 0008 0877     		strb	r0, [r1, #28]
 238              	.LBB23:
 239              	.LBB24:
 240              		.loc 2 53 0
 241 000a 1868     		ldr	r0, [r3]
 242              	.LVL15:
 243              	.LBE24:
 244              	.LBE23:
 245              		.loc 1 117 0
 246 000c CA77     		strb	r2, [r1, #31]
 247              	.LVL16:
 248              	.LBB26:
 249              	.LBB25:
 250              		.loc 2 55 0
 251 000e 0268     		ldr	r2, [r0]
 252 0010 5360     		str	r3, [r2, #4]
 253 0012 1A60     		str	r2, [r3]
 254              	.LBE25:
 255              	.LBE26:
 256              		.loc 1 119 0
 257 0014 9861     		str	r0, [r3, #24]
 258              		.loc 1 120 0
 259 0016 0123     		mov	r3, #1
 260 0018 0377     		strb	r3, [r0, #28]
 261              		.loc 1 121 0
 262 001a FFF7FEFF 		bl	_port_switch
 263              	.LVL17:
 264              		.loc 1 122 0
 265 001e 08BD     		pop	{r3, pc}
 266              	.L25:
 267              		.align	2
 268              	.L24:
 269 0020 00000000 		.word	.LANCHOR0
 270              		.cfi_endproc
 271              	.LFE9:
 272              		.size	chSchGoSleepS, .-chSchGoSleepS
 273 0024 C046C046 		.section	.text.chSchGoSleepTimeoutS,"ax",%progbits
 273      C046C046 
 273      C046C046 
 274              		.align	2
 275              		.p2align 4,,15
 276              		.global	chSchGoSleepTimeoutS
 277              		.code	16
 278              		.thumb_func
ARM GAS  C:\Users\Rob\AppData\Local\Temp\ccsWif2A.s 			page 6


 279              		.type	chSchGoSleepTimeoutS, %function
 280              	chSchGoSleepTimeoutS:
 281              	.LFB11:
 282              		.loc 1 182 0
 283              		.cfi_startproc
 284 0000 30B5     		push	{r4, r5, lr}
 285              	.LCFI3:
 286              		.cfi_def_cfa_offset 12
 287              		.cfi_offset 4, -12
 288              		.cfi_offset 5, -8
 289              		.cfi_offset 14, -4
 290              	.LVL18:
 291 0002 87B0     		sub	sp, sp, #28
 292              	.LCFI4:
 293              		.cfi_def_cfa_offset 40
 294              		.loc 1 182 0
 295 0004 051C     		mov	r5, r0
 296              		.loc 1 186 0
 297 0006 4B1C     		add	r3, r1, #1
 298 0008 12D0     		beq	.L27
 299              	.LBB27:
 300              		.loc 1 189 0
 301 000a 0B4C     		ldr	r4, .L29
 302 000c 01A8     		add	r0, sp, #4
 303              	.LVL19:
 304 000e A369     		ldr	r3, [r4, #24]
 305 0010 0A4A     		ldr	r2, .L29+4
 306 0012 FFF7FEFF 		bl	chVTSetI
 307              	.LVL20:
 308              		.loc 1 190 0
 309 0016 281C     		mov	r0, r5
 310 0018 FFF7FEFF 		bl	chSchGoSleepS
 311              		.loc 1 191 0
 312 001c 049B     		ldr	r3, [sp, #16]
 313 001e 002B     		cmp	r3, #0
 314 0020 02D0     		beq	.L28
 315              		.loc 1 192 0
 316 0022 01A8     		add	r0, sp, #4
 317 0024 FFF7FEFF 		bl	chVTResetI
 318              	.L28:
 319              	.LBE27:
 320              		.loc 1 196 0
 321 0028 A369     		ldr	r3, [r4, #24]
 322              		.loc 1 197 0
 323 002a 07B0     		add	sp, sp, #28
 324              		.loc 1 196 0
 325 002c 586A     		ldr	r0, [r3, #36]
 326              		.loc 1 197 0
 327              		@ sp needed for prologue
 328 002e 30BD     		pop	{r4, r5, pc}
 329              	.LVL21:
 330              	.L27:
 331              		.loc 1 195 0
 332 0030 FFF7FEFF 		bl	chSchGoSleepS
 333              	.LVL22:
 334 0034 004C     		ldr	r4, .L29
 335 0036 F7E7     		b	.L28
ARM GAS  C:\Users\Rob\AppData\Local\Temp\ccsWif2A.s 			page 7


 336              	.L30:
 337              		.align	2
 338              	.L29:
 339 0038 00000000 		.word	.LANCHOR0
 340 003c 00000000 		.word	wakeup
 341              		.cfi_endproc
 342              	.LFE11:
 343              		.size	chSchGoSleepTimeoutS, .-chSchGoSleepTimeoutS
 344              		.section	.text.chSchWakeupS,"ax",%progbits
 345              		.align	2
 346              		.p2align 4,,15
 347              		.global	chSchWakeupS
 348              		.code	16
 349              		.thumb_func
 350              		.type	chSchWakeupS, %function
 351              	chSchWakeupS:
 352              	.LFB12:
 353              		.loc 1 218 0
 354              		.cfi_startproc
 355 0000 70B5     		push	{r4, r5, r6, lr}
 356              	.LCFI5:
 357              		.cfi_def_cfa_offset 16
 358              		.cfi_offset 4, -16
 359              		.cfi_offset 5, -12
 360              		.cfi_offset 6, -8
 361              		.cfi_offset 14, -4
 362              	.LVL23:
 363              		.loc 1 227 0
 364 0002 124E     		ldr	r6, .L38
 365              		.loc 1 222 0
 366 0004 4162     		str	r1, [r0, #36]
 367              		.loc 1 227 0
 368 0006 B169     		ldr	r1, [r6, #24]
 369              	.LVL24:
 370 0008 8568     		ldr	r5, [r0, #8]
 371 000a 8C68     		ldr	r4, [r1, #8]
 372              	.LBB28:
 373              	.LBB29:
 374              		.loc 1 85 0
 375 000c 0023     		mov	r3, #0
 376              	.LBE29:
 377              	.LBE28:
 378              		.loc 1 227 0
 379 000e A542     		cmp	r5, r4
 380 0010 0BD8     		bhi	.L32
 381              	.LVL25:
 382              	.LBB31:
 383              	.LBB30:
 384              		.loc 1 85 0
 385 0012 0377     		strb	r3, [r0, #28]
 386              	.LVL26:
 387              		.loc 1 86 0
 388 0014 331C     		mov	r3, r6
 389              	.LVL27:
 390              	.L33:
 391              		.loc 1 88 0
 392 0016 1B68     		ldr	r3, [r3]
ARM GAS  C:\Users\Rob\AppData\Local\Temp\ccsWif2A.s 			page 8


 393              	.LVL28:
 394              		.loc 1 89 0
 395 0018 9A68     		ldr	r2, [r3, #8]
 396 001a 9542     		cmp	r5, r2
 397 001c FBD9     		bls	.L33
 398              		.loc 1 92 0
 399 001e 5A68     		ldr	r2, [r3, #4]
 400              		.loc 1 91 0
 401 0020 0360     		str	r3, [r0]
 402              		.loc 1 92 0
 403 0022 4260     		str	r2, [r0, #4]
 404              		.loc 1 93 0
 405 0024 1060     		str	r0, [r2]
 406 0026 5860     		str	r0, [r3, #4]
 407              	.LVL29:
 408              	.L31:
 409              	.LBE30:
 410              	.LBE31:
 411              		.loc 1 235 0
 412              		@ sp needed for prologue
 413 0028 70BD     		pop	{r4, r5, r6, pc}
 414              	.LVL30:
 415              	.L32:
 416              	.LBB32:
 417              	.LBB33:
 418              	.LBB34:
 419              		.loc 1 85 0
 420 002a 0B77     		strb	r3, [r1, #28]
 421              	.LVL31:
 422              		.loc 1 86 0
 423 002c 331C     		mov	r3, r6
 424              	.LVL32:
 425              	.L35:
 426              		.loc 1 88 0
 427 002e 1B68     		ldr	r3, [r3]
 428              	.LVL33:
 429              		.loc 1 89 0
 430 0030 9A68     		ldr	r2, [r3, #8]
 431 0032 9442     		cmp	r4, r2
 432 0034 FBD9     		bls	.L35
 433              		.loc 1 92 0
 434 0036 5A68     		ldr	r2, [r3, #4]
 435              		.loc 1 91 0
 436 0038 0B60     		str	r3, [r1]
 437              		.loc 1 92 0
 438 003a 4A60     		str	r2, [r1, #4]
 439              		.loc 1 93 0
 440 003c 5960     		str	r1, [r3, #4]
 441              	.LBE34:
 442              	.LBE33:
 443              		.loc 1 232 0
 444 003e 0123     		mov	r3, #1
 445              	.LVL34:
 446              	.LBB36:
 447              	.LBB35:
 448              		.loc 1 93 0
 449 0040 1160     		str	r1, [r2]
ARM GAS  C:\Users\Rob\AppData\Local\Temp\ccsWif2A.s 			page 9


 450              	.LBE35:
 451              	.LBE36:
 452              		.loc 1 232 0
 453 0042 0377     		strb	r3, [r0, #28]
 454              		.loc 1 231 0
 455 0044 B061     		str	r0, [r6, #24]
 456              		.loc 1 233 0
 457 0046 FFF7FEFF 		bl	_port_switch
 458              	.LVL35:
 459 004a EDE7     		b	.L31
 460              	.L39:
 461              		.align	2
 462              	.L38:
 463 004c 00000000 		.word	.LANCHOR0
 464              	.LBE32:
 465              		.cfi_endproc
 466              	.LFE12:
 467              		.size	chSchWakeupS, .-chSchWakeupS
 468              		.section	.text.chSchDoRescheduleBehind,"ax",%progbits
 469              		.align	2
 470              		.p2align 4,,15
 471              		.global	chSchDoRescheduleBehind
 472              		.code	16
 473              		.thumb_func
 474              		.type	chSchDoRescheduleBehind, %function
 475              	chSchDoRescheduleBehind:
 476              	.LFB14:
 477              		.loc 1 297 0
 478              		.cfi_startproc
 479 0000 10B5     		push	{r4, lr}
 480              	.LCFI6:
 481              		.cfi_def_cfa_offset 8
 482              		.cfi_offset 4, -8
 483              		.cfi_offset 14, -4
 484              		.loc 1 300 0
 485 0002 0E4B     		ldr	r3, .L44
 486              	.LBB37:
 487              	.LBB38:
 488              		.loc 2 53 0
 489 0004 1868     		ldr	r0, [r3]
 490              	.LBE38:
 491              	.LBE37:
 492              		.loc 1 300 0
 493 0006 9969     		ldr	r1, [r3, #24]
 494              	.LVL36:
 495              	.LBB41:
 496              	.LBB39:
 497              		.loc 2 55 0
 498 0008 0268     		ldr	r2, [r0]
 499              	.LBE39:
 500              	.LBE41:
 501              	.LBB42:
 502              	.LBB43:
 503              		.loc 1 85 0
 504 000a 8C68     		ldr	r4, [r1, #8]
 505              	.LBE43:
 506              	.LBE42:
ARM GAS  C:\Users\Rob\AppData\Local\Temp\ccsWif2A.s 			page 10


 507              	.LBB45:
 508              	.LBB40:
 509              		.loc 2 55 0
 510 000c 5360     		str	r3, [r2, #4]
 511 000e 1A60     		str	r2, [r3]
 512              	.LBE40:
 513              	.LBE45:
 514              		.loc 1 302 0
 515 0010 9861     		str	r0, [r3, #24]
 516              		.loc 1 303 0
 517 0012 0123     		mov	r3, #1
 518 0014 0377     		strb	r3, [r0, #28]
 519              		.loc 1 305 0
 520 0016 1423     		mov	r3, #20
 521 0018 CB77     		strb	r3, [r1, #31]
 522              	.LVL37:
 523              	.LBB46:
 524              	.LBB44:
 525              		.loc 1 85 0
 526 001a 0023     		mov	r3, #0
 527 001c 0B77     		strb	r3, [r1, #28]
 528              	.LVL38:
 529 001e 031C     		mov	r3, r0
 530 0020 00E0     		b	.L42
 531              	.LVL39:
 532              	.L43:
 533              		.loc 1 89 0
 534 0022 1B68     		ldr	r3, [r3]
 535              	.LVL40:
 536              	.L42:
 537 0024 9A68     		ldr	r2, [r3, #8]
 538 0026 A242     		cmp	r2, r4
 539 0028 FBD2     		bcs	.L43
 540              		.loc 1 92 0
 541 002a 5A68     		ldr	r2, [r3, #4]
 542              		.loc 1 91 0
 543 002c 0B60     		str	r3, [r1]
 544              		.loc 1 92 0
 545 002e 4A60     		str	r2, [r1, #4]
 546              		.loc 1 93 0
 547 0030 1160     		str	r1, [r2]
 548 0032 5960     		str	r1, [r3, #4]
 549              	.LBE44:
 550              	.LBE46:
 551              		.loc 1 308 0
 552 0034 FFF7FEFF 		bl	_port_switch
 553              	.LVL41:
 554              		.loc 1 309 0
 555              		@ sp needed for prologue
 556 0038 10BD     		pop	{r4, pc}
 557              	.L45:
 558 003a C046     		.align	2
 559              	.L44:
 560 003c 00000000 		.word	.LANCHOR0
 561              		.cfi_endproc
 562              	.LFE14:
 563              		.size	chSchDoRescheduleBehind, .-chSchDoRescheduleBehind
ARM GAS  C:\Users\Rob\AppData\Local\Temp\ccsWif2A.s 			page 11


 564              		.section	.text.chSchDoRescheduleAhead,"ax",%progbits
 565              		.align	2
 566              		.p2align 4,,15
 567              		.global	chSchDoRescheduleAhead
 568              		.code	16
 569              		.thumb_func
 570              		.type	chSchDoRescheduleAhead, %function
 571              	chSchDoRescheduleAhead:
 572              	.LFB15:
 573              		.loc 1 322 0
 574              		.cfi_startproc
 575 0000 10B5     		push	{r4, lr}
 576              	.LCFI7:
 577              		.cfi_def_cfa_offset 8
 578              		.cfi_offset 4, -8
 579              		.cfi_offset 14, -4
 580              		.loc 1 325 0
 581 0002 0D4B     		ldr	r3, .L50
 582              	.LBB47:
 583              	.LBB48:
 584              		.loc 2 53 0
 585 0004 1868     		ldr	r0, [r3]
 586              	.LBE48:
 587              	.LBE47:
 588              		.loc 1 325 0
 589 0006 9969     		ldr	r1, [r3, #24]
 590              	.LVL42:
 591              	.LBB51:
 592              	.LBB49:
 593              		.loc 2 55 0
 594 0008 0268     		ldr	r2, [r0]
 595              	.LBE49:
 596              	.LBE51:
 597              		.loc 1 330 0
 598 000a 8C68     		ldr	r4, [r1, #8]
 599              	.LBB52:
 600              	.LBB50:
 601              		.loc 2 55 0
 602 000c 5360     		str	r3, [r2, #4]
 603 000e 1A60     		str	r2, [r3]
 604              	.LBE50:
 605              	.LBE52:
 606              		.loc 1 327 0
 607 0010 9861     		str	r0, [r3, #24]
 608              		.loc 1 328 0
 609 0012 0123     		mov	r3, #1
 610 0014 0377     		strb	r3, [r0, #28]
 611              		.loc 1 330 0
 612 0016 0023     		mov	r3, #0
 613 0018 0B77     		strb	r3, [r1, #28]
 614              	.LVL43:
 615 001a 031C     		mov	r3, r0
 616 001c 00E0     		b	.L48
 617              	.LVL44:
 618              	.L49:
 619              		.loc 1 334 0
 620 001e 1B68     		ldr	r3, [r3]
ARM GAS  C:\Users\Rob\AppData\Local\Temp\ccsWif2A.s 			page 12


 621              	.LVL45:
 622              	.L48:
 623              		.loc 1 334 0 is_stmt 0 discriminator 1
 624 0020 9A68     		ldr	r2, [r3, #8]
 625 0022 A242     		cmp	r2, r4
 626 0024 FBD8     		bhi	.L49
 627              		.loc 1 337 0 is_stmt 1
 628 0026 5A68     		ldr	r2, [r3, #4]
 629              		.loc 1 336 0
 630 0028 0B60     		str	r3, [r1]
 631              		.loc 1 337 0
 632 002a 4A60     		str	r2, [r1, #4]
 633              		.loc 1 338 0
 634 002c 1160     		str	r1, [r2]
 635 002e 5960     		str	r1, [r3, #4]
 636              		.loc 1 340 0
 637 0030 FFF7FEFF 		bl	_port_switch
 638              	.LVL46:
 639              		.loc 1 341 0
 640              		@ sp needed for prologue
 641 0034 10BD     		pop	{r4, pc}
 642              	.L51:
 643 0036 C046     		.align	2
 644              	.L50:
 645 0038 00000000 		.word	.LANCHOR0
 646              		.cfi_endproc
 647              	.LFE15:
 648              		.size	chSchDoRescheduleAhead, .-chSchDoRescheduleAhead
 649 003c C046C046 		.section	.text.chSchRescheduleS,"ax",%progbits
 650              		.align	2
 651              		.p2align 4,,15
 652              		.global	chSchRescheduleS
 653              		.code	16
 654              		.thumb_func
 655              		.type	chSchRescheduleS, %function
 656              	chSchRescheduleS:
 657              	.LFB13:
 658              		.loc 1 246 0
 659              		.cfi_startproc
 660 0000 08B5     		push	{r3, lr}
 661              	.LCFI8:
 662              		.cfi_def_cfa_offset 8
 663              		.cfi_offset 3, -8
 664              		.cfi_offset 14, -4
 665              		.loc 1 250 0
 666 0002 054B     		ldr	r3, .L54
 667 0004 1A68     		ldr	r2, [r3]
 668 0006 9B69     		ldr	r3, [r3, #24]
 669 0008 9268     		ldr	r2, [r2, #8]
 670 000a 9B68     		ldr	r3, [r3, #8]
 671 000c 9A42     		cmp	r2, r3
 672 000e 01D9     		bls	.L52
 673              		.loc 1 251 0
 674 0010 FFF7FEFF 		bl	chSchDoRescheduleAhead
 675              	.L52:
 676              		.loc 1 252 0
 677              		@ sp needed for prologue
ARM GAS  C:\Users\Rob\AppData\Local\Temp\ccsWif2A.s 			page 13


 678 0014 08BD     		pop	{r3, pc}
 679              	.L55:
 680 0016 C046     		.align	2
 681              	.L54:
 682 0018 00000000 		.word	.LANCHOR0
 683              		.cfi_endproc
 684              	.LFE13:
 685              		.size	chSchRescheduleS, .-chSchRescheduleS
 686 001c C046C046 		.section	.text.chSchDoReschedule,"ax",%progbits
 687              		.align	2
 688              		.p2align 4,,15
 689              		.global	chSchDoReschedule
 690              		.code	16
 691              		.thumb_func
 692              		.type	chSchDoReschedule, %function
 693              	chSchDoReschedule:
 694              	.LFB16:
 695              		.loc 1 355 0
 696              		.cfi_startproc
 697 0000 08B5     		push	{r3, lr}
 698              	.LCFI9:
 699              		.cfi_def_cfa_offset 8
 700              		.cfi_offset 3, -8
 701              		.cfi_offset 14, -4
 702              		.loc 1 360 0
 703 0002 054B     		ldr	r3, .L60
 704 0004 9B69     		ldr	r3, [r3, #24]
 705 0006 DB7F     		ldrb	r3, [r3, #31]
 706 0008 002B     		cmp	r3, #0
 707 000a 02D0     		beq	.L59
 708              		.loc 1 368 0
 709 000c FFF7FEFF 		bl	chSchDoRescheduleAhead
 710              	.L56:
 711              		.loc 1 375 0
 712              		@ sp needed for prologue
 713 0010 08BD     		pop	{r3, pc}
 714              	.L59:
 715              		.loc 1 363 0
 716 0012 FFF7FEFF 		bl	chSchDoRescheduleBehind
 717 0016 FBE7     		b	.L56
 718              	.L61:
 719              		.align	2
 720              	.L60:
 721 0018 00000000 		.word	.LANCHOR0
 722              		.cfi_endproc
 723              	.LFE16:
 724              		.size	chSchDoReschedule, .-chSchDoReschedule
 725              		.global	rlist
 726 001c C046C046 		.section	.bss.rlist,"aw",%nobits
 727              		.align	2
 728              		.set	.LANCHOR0,. + 0
 729              		.type	rlist, %object
 730              		.size	rlist, 28
 731              	rlist:
 732 0000 00000000 		.space	28
 732      00000000 
 732      00000000 
ARM GAS  C:\Users\Rob\AppData\Local\Temp\ccsWif2A.s 			page 14


 732      00000000 
 732      00000000 
 733              		.text
 734              	.Letext0:
 735              		.file 3 "c:/yagarto/lib/gcc/../../arm-none-eabi/sys-include/stdint.h"
 736              		.file 4 "../../os/ports/GCC/ARMCMx/chtypes.h"
 737              		.file 5 "../../os/kernel/include/chlists.h"
 738              		.file 6 "../../os/kernel/include/chthreads.h"
 739              		.file 7 "../../os/ports/GCC/ARMCMx/chcore_v6m.h"
 740              		.file 8 "../../os/kernel/include/chvt.h"
 741              		.file 9 "../../os/kernel/include/chschd.h"
 742              		.file 10 "../../os/kernel/include/chsem.h"
 743              		.file 11 "../../os/kernel/include/chmtx.h"
 744              		.section	.debug_info,"",%progbits
 745              	.Ldebug_info0:
 746 0000 96080000 		.4byte	0x896
 747 0004 0200     		.2byte	0x2
 748 0006 00000000 		.4byte	.Ldebug_abbrev0
 749 000a 04       		.byte	0x4
 750 000b 01       		.uleb128 0x1
 751 000c C8020000 		.4byte	.LASF85
 752 0010 01       		.byte	0x1
 753 0011 56030000 		.4byte	.LASF86
 754 0015 4B000000 		.4byte	.LASF87
 755 0019 00000000 		.4byte	0
 756 001d 00000000 		.4byte	0
 757 0021 40010000 		.4byte	.Ldebug_ranges0+0x140
 758 0025 00000000 		.4byte	.Ldebug_line0
 759 0029 02       		.uleb128 0x2
 760 002a 04       		.byte	0x4
 761 002b 05       		.byte	0x5
 762 002c 696E7400 		.ascii	"int\000"
 763 0030 03       		.uleb128 0x3
 764 0031 04       		.byte	0x4
 765 0032 07       		.byte	0x7
 766 0033 16010000 		.4byte	.LASF0
 767 0037 03       		.uleb128 0x3
 768 0038 01       		.byte	0x1
 769 0039 06       		.byte	0x6
 770 003a 8C000000 		.4byte	.LASF1
 771 003e 04       		.uleb128 0x4
 772 003f 79030000 		.4byte	.LASF5
 773 0043 03       		.byte	0x3
 774 0044 2A       		.byte	0x2a
 775 0045 49000000 		.4byte	0x49
 776 0049 03       		.uleb128 0x3
 777 004a 01       		.byte	0x1
 778 004b 08       		.byte	0x8
 779 004c 30020000 		.4byte	.LASF2
 780 0050 03       		.uleb128 0x3
 781 0051 02       		.byte	0x2
 782 0052 05       		.byte	0x5
 783 0053 51020000 		.4byte	.LASF3
 784 0057 03       		.uleb128 0x3
 785 0058 02       		.byte	0x2
 786 0059 07       		.byte	0x7
 787 005a 52010000 		.4byte	.LASF4
ARM GAS  C:\Users\Rob\AppData\Local\Temp\ccsWif2A.s 			page 15


 788 005e 04       		.uleb128 0x4
 789 005f 28020000 		.4byte	.LASF6
 790 0063 03       		.byte	0x3
 791 0064 4F       		.byte	0x4f
 792 0065 69000000 		.4byte	0x69
 793 0069 03       		.uleb128 0x3
 794 006a 04       		.byte	0x4
 795 006b 05       		.byte	0x5
 796 006c B2000000 		.4byte	.LASF7
 797 0070 04       		.uleb128 0x4
 798 0071 AA020000 		.4byte	.LASF8
 799 0075 03       		.byte	0x3
 800 0076 50       		.byte	0x50
 801 0077 7B000000 		.4byte	0x7b
 802 007b 03       		.uleb128 0x3
 803 007c 04       		.byte	0x4
 804 007d 07       		.byte	0x7
 805 007e 32010000 		.4byte	.LASF9
 806 0082 03       		.uleb128 0x3
 807 0083 08       		.byte	0x8
 808 0084 05       		.byte	0x5
 809 0085 7E000000 		.4byte	.LASF10
 810 0089 03       		.uleb128 0x3
 811 008a 08       		.byte	0x8
 812 008b 07       		.byte	0x7
 813 008c 24000000 		.4byte	.LASF11
 814 0090 03       		.uleb128 0x3
 815 0091 01       		.byte	0x1
 816 0092 02       		.byte	0x2
 817 0093 22020000 		.4byte	.LASF12
 818 0097 04       		.uleb128 0x4
 819 0098 78010000 		.4byte	.LASF13
 820 009c 04       		.byte	0x4
 821 009d 25       		.byte	0x25
 822 009e 3E000000 		.4byte	0x3e
 823 00a2 04       		.uleb128 0x4
 824 00a3 BB000000 		.4byte	.LASF14
 825 00a7 04       		.byte	0x4
 826 00a8 26       		.byte	0x26
 827 00a9 3E000000 		.4byte	0x3e
 828 00ad 04       		.uleb128 0x4
 829 00ae 0B020000 		.4byte	.LASF15
 830 00b2 04       		.byte	0x4
 831 00b3 27       		.byte	0x27
 832 00b4 3E000000 		.4byte	0x3e
 833 00b8 04       		.uleb128 0x4
 834 00b9 A8000000 		.4byte	.LASF16
 835 00bd 04       		.byte	0x4
 836 00be 28       		.byte	0x28
 837 00bf 3E000000 		.4byte	0x3e
 838 00c3 04       		.uleb128 0x4
 839 00c4 1A020000 		.4byte	.LASF17
 840 00c8 04       		.byte	0x4
 841 00c9 29       		.byte	0x29
 842 00ca 70000000 		.4byte	0x70
 843 00ce 04       		.uleb128 0x4
 844 00cf 72010000 		.4byte	.LASF18
ARM GAS  C:\Users\Rob\AppData\Local\Temp\ccsWif2A.s 			page 16


 845 00d3 04       		.byte	0x4
 846 00d4 2A       		.byte	0x2a
 847 00d5 5E000000 		.4byte	0x5e
 848 00d9 04       		.uleb128 0x4
 849 00da 8C010000 		.4byte	.LASF19
 850 00de 04       		.byte	0x4
 851 00df 2C       		.byte	0x2c
 852 00e0 70000000 		.4byte	0x70
 853 00e4 04       		.uleb128 0x4
 854 00e5 F8020000 		.4byte	.LASF20
 855 00e9 04       		.byte	0x4
 856 00ea 2E       		.byte	0x2e
 857 00eb 70000000 		.4byte	0x70
 858 00ef 04       		.uleb128 0x4
 859 00f0 10010000 		.4byte	.LASF21
 860 00f4 04       		.byte	0x4
 861 00f5 2F       		.byte	0x2f
 862 00f6 5E000000 		.4byte	0x5e
 863 00fa 04       		.uleb128 0x4
 864 00fb 8A020000 		.4byte	.LASF22
 865 00ff 05       		.byte	0x5
 866 0100 23       		.byte	0x23
 867 0101 05010000 		.4byte	0x105
 868 0105 05       		.uleb128 0x5
 869 0106 8A020000 		.4byte	.LASF22
 870 010a 48       		.byte	0x48
 871 010b 06       		.byte	0x6
 872 010c 57       		.byte	0x57
 873 010d 2A020000 		.4byte	0x22a
 874 0111 06       		.uleb128 0x6
 875 0112 7B020000 		.4byte	.LASF23
 876 0116 06       		.byte	0x6
 877 0117 58       		.byte	0x58
 878 0118 4F020000 		.4byte	0x24f
 879 011c 02       		.byte	0x2
 880 011d 23       		.byte	0x23
 881 011e 00       		.uleb128 0
 882 011f 06       		.uleb128 0x6
 883 0120 13020000 		.4byte	.LASF24
 884 0124 06       		.byte	0x6
 885 0125 5A       		.byte	0x5a
 886 0126 4F020000 		.4byte	0x24f
 887 012a 02       		.byte	0x2
 888 012b 23       		.byte	0x23
 889 012c 04       		.uleb128 0x4
 890 012d 06       		.uleb128 0x6
 891 012e 44000000 		.4byte	.LASF25
 892 0132 06       		.byte	0x6
 893 0133 5C       		.byte	0x5c
 894 0134 C3000000 		.4byte	0xc3
 895 0138 02       		.byte	0x2
 896 0139 23       		.byte	0x23
 897 013a 08       		.uleb128 0x8
 898 013b 06       		.uleb128 0x6
 899 013c AC030000 		.4byte	.LASF26
 900 0140 06       		.byte	0x6
 901 0141 5D       		.byte	0x5d
ARM GAS  C:\Users\Rob\AppData\Local\Temp\ccsWif2A.s 			page 17


 902 0142 13030000 		.4byte	0x313
 903 0146 02       		.byte	0x2
 904 0147 23       		.byte	0x23
 905 0148 0C       		.uleb128 0xc
 906 0149 06       		.uleb128 0x6
 907 014a C4000000 		.4byte	.LASF27
 908 014e 06       		.byte	0x6
 909 014f 5F       		.byte	0x5f
 910 0150 4F020000 		.4byte	0x24f
 911 0154 02       		.byte	0x2
 912 0155 23       		.byte	0x23
 913 0156 10       		.uleb128 0x10
 914 0157 06       		.uleb128 0x6
 915 0158 D6010000 		.4byte	.LASF28
 916 015c 06       		.byte	0x6
 917 015d 60       		.byte	0x60
 918 015e 4F020000 		.4byte	0x24f
 919 0162 02       		.byte	0x2
 920 0163 23       		.byte	0x23
 921 0164 14       		.uleb128 0x14
 922 0165 06       		.uleb128 0x6
 923 0166 88030000 		.4byte	.LASF29
 924 016a 06       		.byte	0x6
 925 016b 67       		.byte	0x67
 926 016c D3040000 		.4byte	0x4d3
 927 0170 02       		.byte	0x2
 928 0171 23       		.byte	0x23
 929 0172 18       		.uleb128 0x18
 930 0173 06       		.uleb128 0x6
 931 0174 5B020000 		.4byte	.LASF30
 932 0178 06       		.byte	0x6
 933 0179 72       		.byte	0x72
 934 017a A2000000 		.4byte	0xa2
 935 017e 02       		.byte	0x2
 936 017f 23       		.byte	0x23
 937 0180 1C       		.uleb128 0x1c
 938 0181 06       		.uleb128 0x6
 939 0182 82020000 		.4byte	.LASF31
 940 0186 06       		.byte	0x6
 941 0187 76       		.byte	0x76
 942 0188 97000000 		.4byte	0x97
 943 018c 02       		.byte	0x2
 944 018d 23       		.byte	0x23
 945 018e 1D       		.uleb128 0x1d
 946 018f 06       		.uleb128 0x6
 947 0190 45030000 		.4byte	.LASF32
 948 0194 06       		.byte	0x6
 949 0195 7B       		.byte	0x7b
 950 0196 AD000000 		.4byte	0xad
 951 019a 02       		.byte	0x2
 952 019b 23       		.byte	0x23
 953 019c 1E       		.uleb128 0x1e
 954 019d 06       		.uleb128 0x6
 955 019e 63020000 		.4byte	.LASF33
 956 01a2 06       		.byte	0x6
 957 01a3 81       		.byte	0x81
 958 01a4 B8000000 		.4byte	0xb8
ARM GAS  C:\Users\Rob\AppData\Local\Temp\ccsWif2A.s 			page 18


 959 01a8 02       		.byte	0x2
 960 01a9 23       		.byte	0x23
 961 01aa 1F       		.uleb128 0x1f
 962 01ab 06       		.uleb128 0x6
 963 01ac 16030000 		.4byte	.LASF34
 964 01b0 06       		.byte	0x6
 965 01b1 88       		.byte	0x88
 966 01b2 B5030000 		.4byte	0x3b5
 967 01b6 02       		.byte	0x2
 968 01b7 23       		.byte	0x23
 969 01b8 20       		.uleb128 0x20
 970 01b9 07       		.uleb128 0x7
 971 01ba 705F7500 		.ascii	"p_u\000"
 972 01be 06       		.byte	0x6
 973 01bf AD       		.byte	0xad
 974 01c0 9E040000 		.4byte	0x49e
 975 01c4 02       		.byte	0x2
 976 01c5 23       		.byte	0x23
 977 01c6 24       		.uleb128 0x24
 978 01c7 06       		.uleb128 0x6
 979 01c8 B2030000 		.4byte	.LASF35
 980 01cc 06       		.byte	0x6
 981 01cd B2       		.byte	0xb2
 982 01ce 77020000 		.4byte	0x277
 983 01d2 02       		.byte	0x2
 984 01d3 23       		.byte	0x23
 985 01d4 28       		.uleb128 0x28
 986 01d5 06       		.uleb128 0x6
 987 01d6 24030000 		.4byte	.LASF36
 988 01da 06       		.byte	0x6
 989 01db B8       		.byte	0xb8
 990 01dc 55020000 		.4byte	0x255
 991 01e0 02       		.byte	0x2
 992 01e1 23       		.byte	0x23
 993 01e2 2C       		.uleb128 0x2c
 994 01e3 06       		.uleb128 0x6
 995 01e4 00000000 		.4byte	.LASF37
 996 01e8 06       		.byte	0x6
 997 01e9 BC       		.byte	0xbc
 998 01ea CE000000 		.4byte	0xce
 999 01ee 02       		.byte	0x2
 1000 01ef 23       		.byte	0x23
 1001 01f0 34       		.uleb128 0x34
 1002 01f1 06       		.uleb128 0x6
 1003 01f2 9F020000 		.4byte	.LASF38
 1004 01f6 06       		.byte	0x6
 1005 01f7 C2       		.byte	0xc2
 1006 01f8 D9000000 		.4byte	0xd9
 1007 01fc 02       		.byte	0x2
 1008 01fd 23       		.byte	0x23
 1009 01fe 38       		.uleb128 0x38
 1010 01ff 06       		.uleb128 0x6
 1011 0200 47020000 		.4byte	.LASF39
 1012 0204 06       		.byte	0x6
 1013 0205 C9       		.byte	0xc9
 1014 0206 E5040000 		.4byte	0x4e5
 1015 020a 02       		.byte	0x2
ARM GAS  C:\Users\Rob\AppData\Local\Temp\ccsWif2A.s 			page 19


 1016 020b 23       		.byte	0x23
 1017 020c 3C       		.uleb128 0x3c
 1018 020d 06       		.uleb128 0x6
 1019 020e 02030000 		.4byte	.LASF40
 1020 0212 06       		.byte	0x6
 1021 0213 CD       		.byte	0xcd
 1022 0214 C3000000 		.4byte	0xc3
 1023 0218 02       		.byte	0x2
 1024 0219 23       		.byte	0x23
 1025 021a 40       		.uleb128 0x40
 1026 021b 06       		.uleb128 0x6
 1027 021c 98000000 		.4byte	.LASF41
 1028 0220 06       		.byte	0x6
 1029 0221 D3       		.byte	0xd3
 1030 0222 8D020000 		.4byte	0x28d
 1031 0226 02       		.byte	0x2
 1032 0227 23       		.byte	0x23
 1033 0228 44       		.uleb128 0x44
 1034 0229 00       		.byte	0
 1035 022a 08       		.uleb128 0x8
 1036 022b 08       		.byte	0x8
 1037 022c 05       		.byte	0x5
 1038 022d 5A       		.byte	0x5a
 1039 022e 4F020000 		.4byte	0x24f
 1040 0232 06       		.uleb128 0x6
 1041 0233 7B020000 		.4byte	.LASF23
 1042 0237 05       		.byte	0x5
 1043 0238 5B       		.byte	0x5b
 1044 0239 4F020000 		.4byte	0x24f
 1045 023d 02       		.byte	0x2
 1046 023e 23       		.byte	0x23
 1047 023f 00       		.uleb128 0
 1048 0240 06       		.uleb128 0x6
 1049 0241 13020000 		.4byte	.LASF24
 1050 0245 05       		.byte	0x5
 1051 0246 5D       		.byte	0x5d
 1052 0247 4F020000 		.4byte	0x24f
 1053 024b 02       		.byte	0x2
 1054 024c 23       		.byte	0x23
 1055 024d 04       		.uleb128 0x4
 1056 024e 00       		.byte	0
 1057 024f 09       		.uleb128 0x9
 1058 0250 04       		.byte	0x4
 1059 0251 FA000000 		.4byte	0xfa
 1060 0255 04       		.uleb128 0x4
 1061 0256 E4010000 		.4byte	.LASF42
 1062 025a 05       		.byte	0x5
 1063 025b 5F       		.byte	0x5f
 1064 025c 2A020000 		.4byte	0x22a
 1065 0260 08       		.uleb128 0x8
 1066 0261 04       		.byte	0x4
 1067 0262 05       		.byte	0x5
 1068 0263 64       		.byte	0x64
 1069 0264 77020000 		.4byte	0x277
 1070 0268 06       		.uleb128 0x6
 1071 0269 7B020000 		.4byte	.LASF23
 1072 026d 05       		.byte	0x5
ARM GAS  C:\Users\Rob\AppData\Local\Temp\ccsWif2A.s 			page 20


 1073 026e 66       		.byte	0x66
 1074 026f 4F020000 		.4byte	0x24f
 1075 0273 02       		.byte	0x2
 1076 0274 23       		.byte	0x23
 1077 0275 00       		.uleb128 0
 1078 0276 00       		.byte	0
 1079 0277 04       		.uleb128 0x4
 1080 0278 80010000 		.4byte	.LASF43
 1081 027c 05       		.byte	0x5
 1082 027d 69       		.byte	0x69
 1083 027e 60020000 		.4byte	0x260
 1084 0282 04       		.uleb128 0x4
 1085 0283 ED000000 		.4byte	.LASF44
 1086 0287 07       		.byte	0x7
 1087 0288 A0       		.byte	0xa0
 1088 0289 8D020000 		.4byte	0x28d
 1089 028d 0A       		.uleb128 0xa
 1090 028e 04       		.byte	0x4
 1091 028f 05       		.uleb128 0x5
 1092 0290 1D030000 		.4byte	.LASF45
 1093 0294 24       		.byte	0x24
 1094 0295 07       		.byte	0x7
 1095 0296 B3       		.byte	0xb3
 1096 0297 13030000 		.4byte	0x313
 1097 029b 07       		.uleb128 0x7
 1098 029c 723800   		.ascii	"r8\000"
 1099 029f 07       		.byte	0x7
 1100 02a0 B4       		.byte	0xb4
 1101 02a1 82020000 		.4byte	0x282
 1102 02a5 02       		.byte	0x2
 1103 02a6 23       		.byte	0x23
 1104 02a7 00       		.uleb128 0
 1105 02a8 07       		.uleb128 0x7
 1106 02a9 723900   		.ascii	"r9\000"
 1107 02ac 07       		.byte	0x7
 1108 02ad B5       		.byte	0xb5
 1109 02ae 82020000 		.4byte	0x282
 1110 02b2 02       		.byte	0x2
 1111 02b3 23       		.byte	0x23
 1112 02b4 04       		.uleb128 0x4
 1113 02b5 07       		.uleb128 0x7
 1114 02b6 72313000 		.ascii	"r10\000"
 1115 02ba 07       		.byte	0x7
 1116 02bb B6       		.byte	0xb6
 1117 02bc 82020000 		.4byte	0x282
 1118 02c0 02       		.byte	0x2
 1119 02c1 23       		.byte	0x23
 1120 02c2 08       		.uleb128 0x8
 1121 02c3 07       		.uleb128 0x7
 1122 02c4 72313100 		.ascii	"r11\000"
 1123 02c8 07       		.byte	0x7
 1124 02c9 B7       		.byte	0xb7
 1125 02ca 82020000 		.4byte	0x282
 1126 02ce 02       		.byte	0x2
 1127 02cf 23       		.byte	0x23
 1128 02d0 0C       		.uleb128 0xc
 1129 02d1 07       		.uleb128 0x7
ARM GAS  C:\Users\Rob\AppData\Local\Temp\ccsWif2A.s 			page 21


 1130 02d2 723400   		.ascii	"r4\000"
 1131 02d5 07       		.byte	0x7
 1132 02d6 B8       		.byte	0xb8
 1133 02d7 82020000 		.4byte	0x282
 1134 02db 02       		.byte	0x2
 1135 02dc 23       		.byte	0x23
 1136 02dd 10       		.uleb128 0x10
 1137 02de 07       		.uleb128 0x7
 1138 02df 723500   		.ascii	"r5\000"
 1139 02e2 07       		.byte	0x7
 1140 02e3 B9       		.byte	0xb9
 1141 02e4 82020000 		.4byte	0x282
 1142 02e8 02       		.byte	0x2
 1143 02e9 23       		.byte	0x23
 1144 02ea 14       		.uleb128 0x14
 1145 02eb 07       		.uleb128 0x7
 1146 02ec 723600   		.ascii	"r6\000"
 1147 02ef 07       		.byte	0x7
 1148 02f0 BA       		.byte	0xba
 1149 02f1 82020000 		.4byte	0x282
 1150 02f5 02       		.byte	0x2
 1151 02f6 23       		.byte	0x23
 1152 02f7 18       		.uleb128 0x18
 1153 02f8 07       		.uleb128 0x7
 1154 02f9 723700   		.ascii	"r7\000"
 1155 02fc 07       		.byte	0x7
 1156 02fd BB       		.byte	0xbb
 1157 02fe 82020000 		.4byte	0x282
 1158 0302 02       		.byte	0x2
 1159 0303 23       		.byte	0x23
 1160 0304 1C       		.uleb128 0x1c
 1161 0305 07       		.uleb128 0x7
 1162 0306 6C7200   		.ascii	"lr\000"
 1163 0309 07       		.byte	0x7
 1164 030a BC       		.byte	0xbc
 1165 030b 82020000 		.4byte	0x282
 1166 030f 02       		.byte	0x2
 1167 0310 23       		.byte	0x23
 1168 0311 20       		.uleb128 0x20
 1169 0312 00       		.byte	0
 1170 0313 05       		.uleb128 0x5
 1171 0314 4A010000 		.4byte	.LASF46
 1172 0318 04       		.byte	0x4
 1173 0319 07       		.byte	0x7
 1174 031a C6       		.byte	0xc6
 1175 031b 2E030000 		.4byte	0x32e
 1176 031f 07       		.uleb128 0x7
 1177 0320 72313300 		.ascii	"r13\000"
 1178 0324 07       		.byte	0x7
 1179 0325 C7       		.byte	0xc7
 1180 0326 2E030000 		.4byte	0x32e
 1181 032a 02       		.byte	0x2
 1182 032b 23       		.byte	0x23
 1183 032c 00       		.uleb128 0
 1184 032d 00       		.byte	0
 1185 032e 09       		.uleb128 0x9
 1186 032f 04       		.byte	0x4
ARM GAS  C:\Users\Rob\AppData\Local\Temp\ccsWif2A.s 			page 22


 1187 0330 8F020000 		.4byte	0x28f
 1188 0334 04       		.uleb128 0x4
 1189 0335 0D030000 		.4byte	.LASF47
 1190 0339 08       		.byte	0x8
 1191 033a 51       		.byte	0x51
 1192 033b 3F030000 		.4byte	0x33f
 1193 033f 09       		.uleb128 0x9
 1194 0340 04       		.byte	0x4
 1195 0341 45030000 		.4byte	0x345
 1196 0345 0B       		.uleb128 0xb
 1197 0346 01       		.byte	0x1
 1198 0347 51030000 		.4byte	0x351
 1199 034b 0C       		.uleb128 0xc
 1200 034c 8D020000 		.4byte	0x28d
 1201 0350 00       		.byte	0
 1202 0351 04       		.uleb128 0x4
 1203 0352 BB020000 		.4byte	.LASF48
 1204 0356 08       		.byte	0x8
 1205 0357 56       		.byte	0x56
 1206 0358 5C030000 		.4byte	0x35c
 1207 035c 05       		.uleb128 0x5
 1208 035d BB020000 		.4byte	.LASF48
 1209 0361 14       		.byte	0x14
 1210 0362 08       		.byte	0x8
 1211 0363 5D       		.byte	0x5d
 1212 0364 AF030000 		.4byte	0x3af
 1213 0368 06       		.uleb128 0x6
 1214 0369 2A010000 		.4byte	.LASF49
 1215 036d 08       		.byte	0x8
 1216 036e 5E       		.byte	0x5e
 1217 036f AF030000 		.4byte	0x3af
 1218 0373 02       		.byte	0x2
 1219 0374 23       		.byte	0x23
 1220 0375 00       		.uleb128 0
 1221 0376 06       		.uleb128 0x6
 1222 0377 F6000000 		.4byte	.LASF50
 1223 037b 08       		.byte	0x8
 1224 037c 60       		.byte	0x60
 1225 037d AF030000 		.4byte	0x3af
 1226 0381 02       		.byte	0x2
 1227 0382 23       		.byte	0x23
 1228 0383 04       		.uleb128 0x4
 1229 0384 06       		.uleb128 0x6
 1230 0385 AE010000 		.4byte	.LASF51
 1231 0389 08       		.byte	0x8
 1232 038a 62       		.byte	0x62
 1233 038b E4000000 		.4byte	0xe4
 1234 038f 02       		.byte	0x2
 1235 0390 23       		.byte	0x23
 1236 0391 08       		.uleb128 0x8
 1237 0392 06       		.uleb128 0x6
 1238 0393 B6010000 		.4byte	.LASF52
 1239 0397 08       		.byte	0x8
 1240 0398 63       		.byte	0x63
 1241 0399 34030000 		.4byte	0x334
 1242 039d 02       		.byte	0x2
 1243 039e 23       		.byte	0x23
ARM GAS  C:\Users\Rob\AppData\Local\Temp\ccsWif2A.s 			page 23


 1244 039f 0C       		.uleb128 0xc
 1245 03a0 06       		.uleb128 0x6
 1246 03a1 34030000 		.4byte	.LASF53
 1247 03a5 08       		.byte	0x8
 1248 03a6 65       		.byte	0x65
 1249 03a7 8D020000 		.4byte	0x28d
 1250 03ab 02       		.byte	0x2
 1251 03ac 23       		.byte	0x23
 1252 03ad 10       		.uleb128 0x10
 1253 03ae 00       		.byte	0
 1254 03af 09       		.uleb128 0x9
 1255 03b0 04       		.byte	0x4
 1256 03b1 51030000 		.4byte	0x351
 1257 03b5 0D       		.uleb128 0xd
 1258 03b6 E4000000 		.4byte	0xe4
 1259 03ba 08       		.uleb128 0x8
 1260 03bb 1C       		.byte	0x1c
 1261 03bc 09       		.byte	0x9
 1262 03bd 57       		.byte	0x57
 1263 03be 17040000 		.4byte	0x417
 1264 03c2 06       		.uleb128 0x6
 1265 03c3 B3020000 		.4byte	.LASF54
 1266 03c7 09       		.byte	0x9
 1267 03c8 58       		.byte	0x58
 1268 03c9 55020000 		.4byte	0x255
 1269 03cd 02       		.byte	0x2
 1270 03ce 23       		.byte	0x23
 1271 03cf 00       		.uleb128 0
 1272 03d0 06       		.uleb128 0x6
 1273 03d1 6D020000 		.4byte	.LASF55
 1274 03d5 09       		.byte	0x9
 1275 03d6 59       		.byte	0x59
 1276 03d7 C3000000 		.4byte	0xc3
 1277 03db 02       		.byte	0x2
 1278 03dc 23       		.byte	0x23
 1279 03dd 08       		.uleb128 0x8
 1280 03de 06       		.uleb128 0x6
 1281 03df DE010000 		.4byte	.LASF56
 1282 03e3 09       		.byte	0x9
 1283 03e4 5B       		.byte	0x5b
 1284 03e5 13030000 		.4byte	0x313
 1285 03e9 02       		.byte	0x2
 1286 03ea 23       		.byte	0x23
 1287 03eb 0C       		.uleb128 0xc
 1288 03ec 06       		.uleb128 0x6
 1289 03ed E5000000 		.4byte	.LASF57
 1290 03f1 09       		.byte	0x9
 1291 03f2 5E       		.byte	0x5e
 1292 03f3 4F020000 		.4byte	0x24f
 1293 03f7 02       		.byte	0x2
 1294 03f8 23       		.byte	0x23
 1295 03f9 10       		.uleb128 0x10
 1296 03fa 06       		.uleb128 0x6
 1297 03fb 03020000 		.4byte	.LASF58
 1298 03ff 09       		.byte	0x9
 1299 0400 5F       		.byte	0x5f
 1300 0401 4F020000 		.4byte	0x24f
ARM GAS  C:\Users\Rob\AppData\Local\Temp\ccsWif2A.s 			page 24


 1301 0405 02       		.byte	0x2
 1302 0406 23       		.byte	0x23
 1303 0407 14       		.uleb128 0x14
 1304 0408 06       		.uleb128 0x6
 1305 0409 F9010000 		.4byte	.LASF59
 1306 040d 09       		.byte	0x9
 1307 040e 62       		.byte	0x62
 1308 040f 4F020000 		.4byte	0x24f
 1309 0413 02       		.byte	0x2
 1310 0414 23       		.byte	0x23
 1311 0415 18       		.uleb128 0x18
 1312 0416 00       		.byte	0
 1313 0417 04       		.uleb128 0x4
 1314 0418 4C030000 		.4byte	.LASF60
 1315 041c 09       		.byte	0x9
 1316 041d 64       		.byte	0x64
 1317 041e BA030000 		.4byte	0x3ba
 1318 0422 05       		.uleb128 0x5
 1319 0423 3B030000 		.4byte	.LASF61
 1320 0427 0C       		.byte	0xc
 1321 0428 0A       		.byte	0xa
 1322 0429 25       		.byte	0x25
 1323 042a 4B040000 		.4byte	0x44b
 1324 042e 06       		.uleb128 0x6
 1325 042f CC000000 		.4byte	.LASF62
 1326 0433 0A       		.byte	0xa
 1327 0434 26       		.byte	0x26
 1328 0435 55020000 		.4byte	0x255
 1329 0439 02       		.byte	0x2
 1330 043a 23       		.byte	0x23
 1331 043b 00       		.uleb128 0
 1332 043c 06       		.uleb128 0x6
 1333 043d 44010000 		.4byte	.LASF63
 1334 0441 0A       		.byte	0xa
 1335 0442 28       		.byte	0x28
 1336 0443 EF000000 		.4byte	0xef
 1337 0447 02       		.byte	0x2
 1338 0448 23       		.byte	0x23
 1339 0449 08       		.uleb128 0x8
 1340 044a 00       		.byte	0
 1341 044b 04       		.uleb128 0x4
 1342 044c 3B030000 		.4byte	.LASF61
 1343 0450 0A       		.byte	0xa
 1344 0451 29       		.byte	0x29
 1345 0452 22040000 		.4byte	0x422
 1346 0456 05       		.uleb128 0x5
 1347 0457 98010000 		.4byte	.LASF64
 1348 045b 10       		.byte	0x10
 1349 045c 0B       		.byte	0xb
 1350 045d 25       		.byte	0x25
 1351 045e 8D040000 		.4byte	0x48d
 1352 0462 06       		.uleb128 0x6
 1353 0463 A0000000 		.4byte	.LASF65
 1354 0467 0B       		.byte	0xb
 1355 0468 26       		.byte	0x26
 1356 0469 55020000 		.4byte	0x255
 1357 046d 02       		.byte	0x2
ARM GAS  C:\Users\Rob\AppData\Local\Temp\ccsWif2A.s 			page 25


 1358 046e 23       		.byte	0x23
 1359 046f 00       		.uleb128 0
 1360 0470 06       		.uleb128 0x6
 1361 0471 A4030000 		.4byte	.LASF66
 1362 0475 0B       		.byte	0xb
 1363 0476 28       		.byte	0x28
 1364 0477 4F020000 		.4byte	0x24f
 1365 047b 02       		.byte	0x2
 1366 047c 23       		.byte	0x23
 1367 047d 08       		.uleb128 0x8
 1368 047e 06       		.uleb128 0x6
 1369 047f F1020000 		.4byte	.LASF67
 1370 0483 0B       		.byte	0xb
 1371 0484 2A       		.byte	0x2a
 1372 0485 8D040000 		.4byte	0x48d
 1373 0489 02       		.byte	0x2
 1374 048a 23       		.byte	0x23
 1375 048b 0C       		.uleb128 0xc
 1376 048c 00       		.byte	0
 1377 048d 09       		.uleb128 0x9
 1378 048e 04       		.byte	0x4
 1379 048f 56040000 		.4byte	0x456
 1380 0493 04       		.uleb128 0x4
 1381 0494 98010000 		.4byte	.LASF64
 1382 0498 0B       		.byte	0xb
 1383 0499 2C       		.byte	0x2c
 1384 049a 56040000 		.4byte	0x456
 1385 049e 0E       		.uleb128 0xe
 1386 049f 04       		.byte	0x4
 1387 04a0 06       		.byte	0x6
 1388 04a1 8F       		.byte	0x8f
 1389 04a2 D3040000 		.4byte	0x4d3
 1390 04a6 0F       		.uleb128 0xf
 1391 04a7 06000000 		.4byte	.LASF68
 1392 04ab 06       		.byte	0x6
 1393 04ac 96       		.byte	0x96
 1394 04ad CE000000 		.4byte	0xce
 1395 04b1 0F       		.uleb128 0xf
 1396 04b2 3B000000 		.4byte	.LASF69
 1397 04b6 06       		.byte	0x6
 1398 04b7 9D       		.byte	0x9d
 1399 04b8 CE000000 		.4byte	0xce
 1400 04bc 0F       		.uleb128 0xf
 1401 04bd 81030000 		.4byte	.LASF70
 1402 04c1 06       		.byte	0x6
 1403 04c2 A4       		.byte	0xa4
 1404 04c3 8D020000 		.4byte	0x28d
 1405 04c7 0F       		.uleb128 0xf
 1406 04c8 74020000 		.4byte	.LASF71
 1407 04cc 06       		.byte	0x6
 1408 04cd AB       		.byte	0xab
 1409 04ce D9000000 		.4byte	0xd9
 1410 04d2 00       		.byte	0
 1411 04d3 09       		.uleb128 0x9
 1412 04d4 04       		.byte	0x4
 1413 04d5 D9040000 		.4byte	0x4d9
 1414 04d9 10       		.uleb128 0x10
ARM GAS  C:\Users\Rob\AppData\Local\Temp\ccsWif2A.s 			page 26


 1415 04da DE040000 		.4byte	0x4de
 1416 04de 03       		.uleb128 0x3
 1417 04df 01       		.byte	0x1
 1418 04e0 08       		.byte	0x8
 1419 04e1 D4020000 		.4byte	.LASF72
 1420 04e5 09       		.uleb128 0x9
 1421 04e6 04       		.byte	0x4
 1422 04e7 93040000 		.4byte	0x493
 1423 04eb 11       		.uleb128 0x11
 1424 04ec F1010000 		.4byte	.LASF73
 1425 04f0 02       		.byte	0x2
 1426 04f1 42       		.byte	0x42
 1427 04f2 01       		.byte	0x1
 1428 04f3 4F020000 		.4byte	0x24f
 1429 04f7 03       		.byte	0x3
 1430 04f8 07050000 		.4byte	0x507
 1431 04fc 12       		.uleb128 0x12
 1432 04fd 747000   		.ascii	"tp\000"
 1433 0500 02       		.byte	0x2
 1434 0501 42       		.byte	0x42
 1435 0502 4F020000 		.4byte	0x24f
 1436 0506 00       		.byte	0
 1437 0507 13       		.uleb128 0x13
 1438 0508 01       		.byte	0x1
 1439 0509 E5020000 		.4byte	.LASF88
 1440 050d 01       		.byte	0x1
 1441 050e 4A       		.byte	0x4a
 1442 050f 01       		.byte	0x1
 1443 0510 4F020000 		.4byte	0x24f
 1444 0514 01       		.byte	0x1
 1445 0515 2E050000 		.4byte	0x52e
 1446 0519 12       		.uleb128 0x12
 1447 051a 747000   		.ascii	"tp\000"
 1448 051d 01       		.byte	0x1
 1449 051e 4A       		.byte	0x4a
 1450 051f 4F020000 		.4byte	0x24f
 1451 0523 14       		.uleb128 0x14
 1452 0524 637000   		.ascii	"cp\000"
 1453 0527 01       		.byte	0x1
 1454 0528 4B       		.byte	0x4b
 1455 0529 4F020000 		.4byte	0x24f
 1456 052d 00       		.byte	0
 1457 052e 11       		.uleb128 0x11
 1458 052f D9020000 		.4byte	.LASF74
 1459 0533 02       		.byte	0x2
 1460 0534 34       		.byte	0x34
 1461 0535 01       		.byte	0x1
 1462 0536 4F020000 		.4byte	0x24f
 1463 053a 03       		.byte	0x3
 1464 053b 55050000 		.4byte	0x555
 1465 053f 12       		.uleb128 0x12
 1466 0540 74717000 		.ascii	"tqp\000"
 1467 0544 02       		.byte	0x2
 1468 0545 34       		.byte	0x34
 1469 0546 55050000 		.4byte	0x555
 1470 054a 14       		.uleb128 0x14
 1471 054b 747000   		.ascii	"tp\000"
ARM GAS  C:\Users\Rob\AppData\Local\Temp\ccsWif2A.s 			page 27


 1472 054e 02       		.byte	0x2
 1473 054f 35       		.byte	0x35
 1474 0550 4F020000 		.4byte	0x24f
 1475 0554 00       		.byte	0
 1476 0555 09       		.uleb128 0x9
 1477 0556 04       		.byte	0x4
 1478 0557 55020000 		.4byte	0x255
 1479 055b 15       		.uleb128 0x15
 1480 055c 23010000 		.4byte	.LASF89
 1481 0560 01       		.byte	0x1
 1482 0561 81       		.byte	0x81
 1483 0562 01       		.byte	0x1
 1484 0563 00000000 		.4byte	.LFB10
 1485 0567 58000000 		.4byte	.LFE10
 1486 056b 00000000 		.4byte	.LLST0
 1487 056f D4050000 		.4byte	0x5d4
 1488 0573 16       		.uleb128 0x16
 1489 0574 7000     		.ascii	"p\000"
 1490 0576 01       		.byte	0x1
 1491 0577 81       		.byte	0x81
 1492 0578 8D020000 		.4byte	0x28d
 1493 057c 20000000 		.4byte	.LLST1
 1494 0580 17       		.uleb128 0x17
 1495 0581 747000   		.ascii	"tp\000"
 1496 0584 01       		.byte	0x1
 1497 0585 82       		.byte	0x82
 1498 0586 4F020000 		.4byte	0x24f
 1499 058a 01       		.byte	0x1
 1500 058b 50       		.byte	0x50
 1501 058c 18       		.uleb128 0x18
 1502 058d 07050000 		.4byte	0x507
 1503 0591 1A000000 		.4byte	.LBB19
 1504 0595 34000000 		.4byte	.LBE19
 1505 0599 01       		.byte	0x1
 1506 059a 9D       		.byte	0x9d
 1507 059b BC050000 		.4byte	0x5bc
 1508 059f 19       		.uleb128 0x19
 1509 05a0 19050000 		.4byte	0x519
 1510 05a4 3E000000 		.4byte	.LLST2
 1511 05a8 1A       		.uleb128 0x1a
 1512 05a9 1A000000 		.4byte	.LBB20
 1513 05ad 34000000 		.4byte	.LBE20
 1514 05b1 1B       		.uleb128 0x1b
 1515 05b2 23050000 		.4byte	0x523
 1516 05b6 51000000 		.4byte	.LLST3
 1517 05ba 00       		.byte	0
 1518 05bb 00       		.byte	0
 1519 05bc 1C       		.uleb128 0x1c
 1520 05bd EB040000 		.4byte	0x4eb
 1521 05c1 46000000 		.4byte	.LBB21
 1522 05c5 58000000 		.4byte	.LBE21
 1523 05c9 01       		.byte	0x1
 1524 05ca 99       		.byte	0x99
 1525 05cb 1D       		.uleb128 0x1d
 1526 05cc FC040000 		.4byte	0x4fc
 1527 05d0 01       		.byte	0x1
 1528 05d1 50       		.byte	0x50
ARM GAS  C:\Users\Rob\AppData\Local\Temp\ccsWif2A.s 			page 28


 1529 05d2 00       		.byte	0
 1530 05d3 00       		.byte	0
 1531 05d4 1E       		.uleb128 0x1e
 1532 05d5 01       		.byte	0x1
 1533 05d6 9E010000 		.4byte	.LASF81
 1534 05da 01       		.byte	0x1
 1535 05db 30       		.byte	0x30
 1536 05dc 01       		.byte	0x1
 1537 05dd 00000000 		.4byte	.LFB7
 1538 05e1 14000000 		.4byte	.LFE7
 1539 05e5 02       		.byte	0x2
 1540 05e6 7D       		.byte	0x7d
 1541 05e7 00       		.sleb128 0
 1542 05e8 1F       		.uleb128 0x1f
 1543 05e9 07050000 		.4byte	0x507
 1544 05ed 00000000 		.4byte	.LFB8
 1545 05f1 24000000 		.4byte	.LFE8
 1546 05f5 74000000 		.4byte	.LLST4
 1547 05f9 0E060000 		.4byte	0x60e
 1548 05fd 1D       		.uleb128 0x1d
 1549 05fe 19050000 		.4byte	0x519
 1550 0602 01       		.byte	0x1
 1551 0603 50       		.byte	0x50
 1552 0604 1B       		.uleb128 0x1b
 1553 0605 23050000 		.4byte	0x523
 1554 0609 94000000 		.4byte	.LLST5
 1555 060d 00       		.byte	0
 1556 060e 20       		.uleb128 0x20
 1557 060f 01       		.byte	0x1
 1558 0610 91020000 		.4byte	.LASF77
 1559 0614 01       		.byte	0x1
 1560 0615 6C       		.byte	0x6c
 1561 0616 01       		.byte	0x1
 1562 0617 00000000 		.4byte	.LFB9
 1563 061b 24000000 		.4byte	.LFE9
 1564 061f B7000000 		.4byte	.LLST6
 1565 0623 71060000 		.4byte	0x671
 1566 0627 21       		.uleb128 0x21
 1567 0628 3E020000 		.4byte	.LASF75
 1568 062c 01       		.byte	0x1
 1569 062d 6C       		.byte	0x6c
 1570 062e A2000000 		.4byte	0xa2
 1571 0632 D7000000 		.4byte	.LLST7
 1572 0636 22       		.uleb128 0x22
 1573 0637 6F747000 		.ascii	"otp\000"
 1574 063b 01       		.byte	0x1
 1575 063c 6D       		.byte	0x6d
 1576 063d 4F020000 		.4byte	0x24f
 1577 0641 FC000000 		.4byte	.LLST8
 1578 0645 23       		.uleb128 0x23
 1579 0646 2E050000 		.4byte	0x52e
 1580 064a 0A000000 		.4byte	.LBB23
 1581 064e 00000000 		.4byte	.Ldebug_ranges0+0
 1582 0652 01       		.byte	0x1
 1583 0653 77       		.byte	0x77
 1584 0654 1D       		.uleb128 0x1d
 1585 0655 3F050000 		.4byte	0x53f
ARM GAS  C:\Users\Rob\AppData\Local\Temp\ccsWif2A.s 			page 29


 1586 0659 06       		.byte	0x6
 1587 065a 03       		.byte	0x3
 1588 065b 00000000 		.4byte	rlist
 1589 065f 9F       		.byte	0x9f
 1590 0660 24       		.uleb128 0x24
 1591 0661 18000000 		.4byte	.Ldebug_ranges0+0x18
 1592 0665 1B       		.uleb128 0x1b
 1593 0666 4A050000 		.4byte	0x54a
 1594 066a 13010000 		.4byte	.LLST9
 1595 066e 00       		.byte	0
 1596 066f 00       		.byte	0
 1597 0670 00       		.byte	0
 1598 0671 25       		.uleb128 0x25
 1599 0672 01       		.byte	0x1
 1600 0673 8F030000 		.4byte	.LASF90
 1601 0677 01       		.byte	0x1
 1602 0678 B6       		.byte	0xb6
 1603 0679 01       		.byte	0x1
 1604 067a CE000000 		.4byte	0xce
 1605 067e 00000000 		.4byte	.LFB11
 1606 0682 40000000 		.4byte	.LFE11
 1607 0686 2A010000 		.4byte	.LLST10
 1608 068a C4060000 		.4byte	0x6c4
 1609 068e 21       		.uleb128 0x21
 1610 068f 3E020000 		.4byte	.LASF75
 1611 0693 01       		.byte	0x1
 1612 0694 B6       		.byte	0xb6
 1613 0695 A2000000 		.4byte	0xa2
 1614 0699 56010000 		.4byte	.LLST11
 1615 069d 21       		.uleb128 0x21
 1616 069e 2F030000 		.4byte	.LASF76
 1617 06a2 01       		.byte	0x1
 1618 06a3 B6       		.byte	0xb6
 1619 06a4 E4000000 		.4byte	0xe4
 1620 06a8 74010000 		.4byte	.LLST12
 1621 06ac 1A       		.uleb128 0x1a
 1622 06ad 0A000000 		.4byte	.LBB27
 1623 06b1 28000000 		.4byte	.LBE27
 1624 06b5 17       		.uleb128 0x17
 1625 06b6 767400   		.ascii	"vt\000"
 1626 06b9 01       		.byte	0x1
 1627 06ba BB       		.byte	0xbb
 1628 06bb 51030000 		.4byte	0x351
 1629 06bf 02       		.byte	0x2
 1630 06c0 91       		.byte	0x91
 1631 06c1 5C       		.sleb128 -36
 1632 06c2 00       		.byte	0
 1633 06c3 00       		.byte	0
 1634 06c4 20       		.uleb128 0x20
 1635 06c5 01       		.byte	0x1
 1636 06c6 65010000 		.4byte	.LASF78
 1637 06ca 01       		.byte	0x1
 1638 06cb DA       		.byte	0xda
 1639 06cc 01       		.byte	0x1
 1640 06cd 00000000 		.4byte	.LFB12
 1641 06d1 50000000 		.4byte	.LFE12
 1642 06d5 92010000 		.4byte	.LLST13
ARM GAS  C:\Users\Rob\AppData\Local\Temp\ccsWif2A.s 			page 30


 1643 06d9 65070000 		.4byte	0x765
 1644 06dd 16       		.uleb128 0x16
 1645 06de 6E747000 		.ascii	"ntp\000"
 1646 06e2 01       		.byte	0x1
 1647 06e3 DA       		.byte	0xda
 1648 06e4 4F020000 		.4byte	0x24f
 1649 06e8 B2010000 		.4byte	.LLST14
 1650 06ec 16       		.uleb128 0x16
 1651 06ed 6D736700 		.ascii	"msg\000"
 1652 06f1 01       		.byte	0x1
 1653 06f2 DA       		.byte	0xda
 1654 06f3 CE000000 		.4byte	0xce
 1655 06f7 DB010000 		.4byte	.LLST15
 1656 06fb 26       		.uleb128 0x26
 1657 06fc 07050000 		.4byte	0x507
 1658 0700 0C000000 		.4byte	.LBB28
 1659 0704 30000000 		.4byte	.Ldebug_ranges0+0x30
 1660 0708 01       		.byte	0x1
 1661 0709 E4       		.byte	0xe4
 1662 070a 27070000 		.4byte	0x727
 1663 070e 19       		.uleb128 0x19
 1664 070f 19050000 		.4byte	0x519
 1665 0713 06020000 		.4byte	.LLST16
 1666 0717 24       		.uleb128 0x24
 1667 0718 48000000 		.4byte	.Ldebug_ranges0+0x48
 1668 071c 1B       		.uleb128 0x1b
 1669 071d 23050000 		.4byte	0x523
 1670 0721 19020000 		.4byte	.LLST17
 1671 0725 00       		.byte	0
 1672 0726 00       		.byte	0
 1673 0727 1A       		.uleb128 0x1a
 1674 0728 2A000000 		.4byte	.LBB32
 1675 072c 50000000 		.4byte	.LBE32
 1676 0730 14       		.uleb128 0x14
 1677 0731 6F747000 		.ascii	"otp\000"
 1678 0735 01       		.byte	0x1
 1679 0736 E6       		.byte	0xe6
 1680 0737 4F020000 		.4byte	0x24f
 1681 073b 23       		.uleb128 0x23
 1682 073c 07050000 		.4byte	0x507
 1683 0740 2A000000 		.4byte	.LBB33
 1684 0744 60000000 		.4byte	.Ldebug_ranges0+0x60
 1685 0748 01       		.byte	0x1
 1686 0749 E6       		.byte	0xe6
 1687 074a 19       		.uleb128 0x19
 1688 074b 19050000 		.4byte	0x519
 1689 074f 3C020000 		.4byte	.LLST18
 1690 0753 24       		.uleb128 0x24
 1691 0754 78000000 		.4byte	.Ldebug_ranges0+0x78
 1692 0758 1B       		.uleb128 0x1b
 1693 0759 23050000 		.4byte	0x523
 1694 075d 4F020000 		.4byte	.LLST19
 1695 0761 00       		.byte	0
 1696 0762 00       		.byte	0
 1697 0763 00       		.byte	0
 1698 0764 00       		.byte	0
 1699 0765 27       		.uleb128 0x27
ARM GAS  C:\Users\Rob\AppData\Local\Temp\ccsWif2A.s 			page 31


 1700 0766 01       		.byte	0x1
 1701 0767 BE010000 		.4byte	.LASF79
 1702 076b 01       		.byte	0x1
 1703 076c 2901     		.2byte	0x129
 1704 076e 01       		.byte	0x1
 1705 076f 00000000 		.4byte	.LFB14
 1706 0773 40000000 		.4byte	.LFE14
 1707 0777 7E020000 		.4byte	.LLST20
 1708 077b E9070000 		.4byte	0x7e9
 1709 077f 28       		.uleb128 0x28
 1710 0780 6F747000 		.ascii	"otp\000"
 1711 0784 01       		.byte	0x1
 1712 0785 2A01     		.2byte	0x12a
 1713 0787 4F020000 		.4byte	0x24f
 1714 078b 9E020000 		.4byte	.LLST21
 1715 078f 29       		.uleb128 0x29
 1716 0790 2E050000 		.4byte	0x52e
 1717 0794 04000000 		.4byte	.LBB37
 1718 0798 90000000 		.4byte	.Ldebug_ranges0+0x90
 1719 079c 01       		.byte	0x1
 1720 079d 2E01     		.2byte	0x12e
 1721 079f BF070000 		.4byte	0x7bf
 1722 07a3 1D       		.uleb128 0x1d
 1723 07a4 3F050000 		.4byte	0x53f
 1724 07a8 06       		.byte	0x6
 1725 07a9 03       		.byte	0x3
 1726 07aa 00000000 		.4byte	rlist
 1727 07ae 9F       		.byte	0x9f
 1728 07af 24       		.uleb128 0x24
 1729 07b0 B0000000 		.4byte	.Ldebug_ranges0+0xb0
 1730 07b4 1B       		.uleb128 0x1b
 1731 07b5 4A050000 		.4byte	0x54a
 1732 07b9 B5020000 		.4byte	.LLST22
 1733 07bd 00       		.byte	0
 1734 07be 00       		.byte	0
 1735 07bf 2A       		.uleb128 0x2a
 1736 07c0 07050000 		.4byte	0x507
 1737 07c4 0A000000 		.4byte	.LBB42
 1738 07c8 D0000000 		.4byte	.Ldebug_ranges0+0xd0
 1739 07cc 01       		.byte	0x1
 1740 07cd 3301     		.2byte	0x133
 1741 07cf 19       		.uleb128 0x19
 1742 07d0 19050000 		.4byte	0x519
 1743 07d4 CC020000 		.4byte	.LLST23
 1744 07d8 24       		.uleb128 0x24
 1745 07d9 E8000000 		.4byte	.Ldebug_ranges0+0xe8
 1746 07dd 1B       		.uleb128 0x1b
 1747 07de 23050000 		.4byte	0x523
 1748 07e2 E3020000 		.4byte	.LLST24
 1749 07e6 00       		.byte	0
 1750 07e7 00       		.byte	0
 1751 07e8 00       		.byte	0
 1752 07e9 27       		.uleb128 0x27
 1753 07ea 01       		.byte	0x1
 1754 07eb 0D000000 		.4byte	.LASF80
 1755 07ef 01       		.byte	0x1
 1756 07f0 4201     		.2byte	0x142
ARM GAS  C:\Users\Rob\AppData\Local\Temp\ccsWif2A.s 			page 32


 1757 07f2 01       		.byte	0x1
 1758 07f3 00000000 		.4byte	.LFB15
 1759 07f7 3C000000 		.4byte	.LFE15
 1760 07fb 06030000 		.4byte	.LLST25
 1761 07ff 4F080000 		.4byte	0x84f
 1762 0803 28       		.uleb128 0x28
 1763 0804 6F747000 		.ascii	"otp\000"
 1764 0808 01       		.byte	0x1
 1765 0809 4301     		.2byte	0x143
 1766 080b 4F020000 		.4byte	0x24f
 1767 080f 26030000 		.4byte	.LLST26
 1768 0813 28       		.uleb128 0x28
 1769 0814 637000   		.ascii	"cp\000"
 1770 0817 01       		.byte	0x1
 1771 0818 4301     		.2byte	0x143
 1772 081a 4F020000 		.4byte	0x24f
 1773 081e 3D030000 		.4byte	.LLST27
 1774 0822 2A       		.uleb128 0x2a
 1775 0823 2E050000 		.4byte	0x52e
 1776 0827 04000000 		.4byte	.LBB47
 1777 082b 00010000 		.4byte	.Ldebug_ranges0+0x100
 1778 082f 01       		.byte	0x1
 1779 0830 4701     		.2byte	0x147
 1780 0832 1D       		.uleb128 0x1d
 1781 0833 3F050000 		.4byte	0x53f
 1782 0837 06       		.byte	0x6
 1783 0838 03       		.byte	0x3
 1784 0839 00000000 		.4byte	rlist
 1785 083d 9F       		.byte	0x9f
 1786 083e 24       		.uleb128 0x24
 1787 083f 20010000 		.4byte	.Ldebug_ranges0+0x120
 1788 0843 1B       		.uleb128 0x1b
 1789 0844 4A050000 		.4byte	0x54a
 1790 0848 60030000 		.4byte	.LLST28
 1791 084c 00       		.byte	0
 1792 084d 00       		.byte	0
 1793 084e 00       		.byte	0
 1794 084f 2B       		.uleb128 0x2b
 1795 0850 01       		.byte	0x1
 1796 0851 D4000000 		.4byte	.LASF82
 1797 0855 01       		.byte	0x1
 1798 0856 F6       		.byte	0xf6
 1799 0857 01       		.byte	0x1
 1800 0858 00000000 		.4byte	.LFB13
 1801 085c 1C000000 		.4byte	.LFE13
 1802 0860 77030000 		.4byte	.LLST29
 1803 0864 2C       		.uleb128 0x2c
 1804 0865 01       		.byte	0x1
 1805 0866 FE000000 		.4byte	.LASF83
 1806 086a 01       		.byte	0x1
 1807 086b 6301     		.2byte	0x163
 1808 086d 01       		.byte	0x1
 1809 086e 00000000 		.4byte	.LFB16
 1810 0872 1C000000 		.4byte	.LFE16
 1811 0876 97030000 		.4byte	.LLST30
 1812 087a 2D       		.uleb128 0x2d
 1813 087b 73030000 		.4byte	.LASF84
ARM GAS  C:\Users\Rob\AppData\Local\Temp\ccsWif2A.s 			page 33


 1814 087f 09       		.byte	0x9
 1815 0880 68       		.byte	0x68
 1816 0881 17040000 		.4byte	0x417
 1817 0885 01       		.byte	0x1
 1818 0886 01       		.byte	0x1
 1819 0887 2E       		.uleb128 0x2e
 1820 0888 73030000 		.4byte	.LASF84
 1821 088c 01       		.byte	0x1
 1822 088d 28       		.byte	0x28
 1823 088e 17040000 		.4byte	0x417
 1824 0892 01       		.byte	0x1
 1825 0893 05       		.byte	0x5
 1826 0894 03       		.byte	0x3
 1827 0895 00000000 		.4byte	rlist
 1828 0899 00       		.byte	0
 1829              		.section	.debug_abbrev,"",%progbits
 1830              	.Ldebug_abbrev0:
 1831 0000 01       		.uleb128 0x1
 1832 0001 11       		.uleb128 0x11
 1833 0002 01       		.byte	0x1
 1834 0003 25       		.uleb128 0x25
 1835 0004 0E       		.uleb128 0xe
 1836 0005 13       		.uleb128 0x13
 1837 0006 0B       		.uleb128 0xb
 1838 0007 03       		.uleb128 0x3
 1839 0008 0E       		.uleb128 0xe
 1840 0009 1B       		.uleb128 0x1b
 1841 000a 0E       		.uleb128 0xe
 1842 000b 11       		.uleb128 0x11
 1843 000c 01       		.uleb128 0x1
 1844 000d 52       		.uleb128 0x52
 1845 000e 01       		.uleb128 0x1
 1846 000f 55       		.uleb128 0x55
 1847 0010 06       		.uleb128 0x6
 1848 0011 10       		.uleb128 0x10
 1849 0012 06       		.uleb128 0x6
 1850 0013 00       		.byte	0
 1851 0014 00       		.byte	0
 1852 0015 02       		.uleb128 0x2
 1853 0016 24       		.uleb128 0x24
 1854 0017 00       		.byte	0
 1855 0018 0B       		.uleb128 0xb
 1856 0019 0B       		.uleb128 0xb
 1857 001a 3E       		.uleb128 0x3e
 1858 001b 0B       		.uleb128 0xb
 1859 001c 03       		.uleb128 0x3
 1860 001d 08       		.uleb128 0x8
 1861 001e 00       		.byte	0
 1862 001f 00       		.byte	0
 1863 0020 03       		.uleb128 0x3
 1864 0021 24       		.uleb128 0x24
 1865 0022 00       		.byte	0
 1866 0023 0B       		.uleb128 0xb
 1867 0024 0B       		.uleb128 0xb
 1868 0025 3E       		.uleb128 0x3e
 1869 0026 0B       		.uleb128 0xb
 1870 0027 03       		.uleb128 0x3
ARM GAS  C:\Users\Rob\AppData\Local\Temp\ccsWif2A.s 			page 34


 1871 0028 0E       		.uleb128 0xe
 1872 0029 00       		.byte	0
 1873 002a 00       		.byte	0
 1874 002b 04       		.uleb128 0x4
 1875 002c 16       		.uleb128 0x16
 1876 002d 00       		.byte	0
 1877 002e 03       		.uleb128 0x3
 1878 002f 0E       		.uleb128 0xe
 1879 0030 3A       		.uleb128 0x3a
 1880 0031 0B       		.uleb128 0xb
 1881 0032 3B       		.uleb128 0x3b
 1882 0033 0B       		.uleb128 0xb
 1883 0034 49       		.uleb128 0x49
 1884 0035 13       		.uleb128 0x13
 1885 0036 00       		.byte	0
 1886 0037 00       		.byte	0
 1887 0038 05       		.uleb128 0x5
 1888 0039 13       		.uleb128 0x13
 1889 003a 01       		.byte	0x1
 1890 003b 03       		.uleb128 0x3
 1891 003c 0E       		.uleb128 0xe
 1892 003d 0B       		.uleb128 0xb
 1893 003e 0B       		.uleb128 0xb
 1894 003f 3A       		.uleb128 0x3a
 1895 0040 0B       		.uleb128 0xb
 1896 0041 3B       		.uleb128 0x3b
 1897 0042 0B       		.uleb128 0xb
 1898 0043 01       		.uleb128 0x1
 1899 0044 13       		.uleb128 0x13
 1900 0045 00       		.byte	0
 1901 0046 00       		.byte	0
 1902 0047 06       		.uleb128 0x6
 1903 0048 0D       		.uleb128 0xd
 1904 0049 00       		.byte	0
 1905 004a 03       		.uleb128 0x3
 1906 004b 0E       		.uleb128 0xe
 1907 004c 3A       		.uleb128 0x3a
 1908 004d 0B       		.uleb128 0xb
 1909 004e 3B       		.uleb128 0x3b
 1910 004f 0B       		.uleb128 0xb
 1911 0050 49       		.uleb128 0x49
 1912 0051 13       		.uleb128 0x13
 1913 0052 38       		.uleb128 0x38
 1914 0053 0A       		.uleb128 0xa
 1915 0054 00       		.byte	0
 1916 0055 00       		.byte	0
 1917 0056 07       		.uleb128 0x7
 1918 0057 0D       		.uleb128 0xd
 1919 0058 00       		.byte	0
 1920 0059 03       		.uleb128 0x3
 1921 005a 08       		.uleb128 0x8
 1922 005b 3A       		.uleb128 0x3a
 1923 005c 0B       		.uleb128 0xb
 1924 005d 3B       		.uleb128 0x3b
 1925 005e 0B       		.uleb128 0xb
 1926 005f 49       		.uleb128 0x49
 1927 0060 13       		.uleb128 0x13
ARM GAS  C:\Users\Rob\AppData\Local\Temp\ccsWif2A.s 			page 35


 1928 0061 38       		.uleb128 0x38
 1929 0062 0A       		.uleb128 0xa
 1930 0063 00       		.byte	0
 1931 0064 00       		.byte	0
 1932 0065 08       		.uleb128 0x8
 1933 0066 13       		.uleb128 0x13
 1934 0067 01       		.byte	0x1
 1935 0068 0B       		.uleb128 0xb
 1936 0069 0B       		.uleb128 0xb
 1937 006a 3A       		.uleb128 0x3a
 1938 006b 0B       		.uleb128 0xb
 1939 006c 3B       		.uleb128 0x3b
 1940 006d 0B       		.uleb128 0xb
 1941 006e 01       		.uleb128 0x1
 1942 006f 13       		.uleb128 0x13
 1943 0070 00       		.byte	0
 1944 0071 00       		.byte	0
 1945 0072 09       		.uleb128 0x9
 1946 0073 0F       		.uleb128 0xf
 1947 0074 00       		.byte	0
 1948 0075 0B       		.uleb128 0xb
 1949 0076 0B       		.uleb128 0xb
 1950 0077 49       		.uleb128 0x49
 1951 0078 13       		.uleb128 0x13
 1952 0079 00       		.byte	0
 1953 007a 00       		.byte	0
 1954 007b 0A       		.uleb128 0xa
 1955 007c 0F       		.uleb128 0xf
 1956 007d 00       		.byte	0
 1957 007e 0B       		.uleb128 0xb
 1958 007f 0B       		.uleb128 0xb
 1959 0080 00       		.byte	0
 1960 0081 00       		.byte	0
 1961 0082 0B       		.uleb128 0xb
 1962 0083 15       		.uleb128 0x15
 1963 0084 01       		.byte	0x1
 1964 0085 27       		.uleb128 0x27
 1965 0086 0C       		.uleb128 0xc
 1966 0087 01       		.uleb128 0x1
 1967 0088 13       		.uleb128 0x13
 1968 0089 00       		.byte	0
 1969 008a 00       		.byte	0
 1970 008b 0C       		.uleb128 0xc
 1971 008c 05       		.uleb128 0x5
 1972 008d 00       		.byte	0
 1973 008e 49       		.uleb128 0x49
 1974 008f 13       		.uleb128 0x13
 1975 0090 00       		.byte	0
 1976 0091 00       		.byte	0
 1977 0092 0D       		.uleb128 0xd
 1978 0093 35       		.uleb128 0x35
 1979 0094 00       		.byte	0
 1980 0095 49       		.uleb128 0x49
 1981 0096 13       		.uleb128 0x13
 1982 0097 00       		.byte	0
 1983 0098 00       		.byte	0
 1984 0099 0E       		.uleb128 0xe
ARM GAS  C:\Users\Rob\AppData\Local\Temp\ccsWif2A.s 			page 36


 1985 009a 17       		.uleb128 0x17
 1986 009b 01       		.byte	0x1
 1987 009c 0B       		.uleb128 0xb
 1988 009d 0B       		.uleb128 0xb
 1989 009e 3A       		.uleb128 0x3a
 1990 009f 0B       		.uleb128 0xb
 1991 00a0 3B       		.uleb128 0x3b
 1992 00a1 0B       		.uleb128 0xb
 1993 00a2 01       		.uleb128 0x1
 1994 00a3 13       		.uleb128 0x13
 1995 00a4 00       		.byte	0
 1996 00a5 00       		.byte	0
 1997 00a6 0F       		.uleb128 0xf
 1998 00a7 0D       		.uleb128 0xd
 1999 00a8 00       		.byte	0
 2000 00a9 03       		.uleb128 0x3
 2001 00aa 0E       		.uleb128 0xe
 2002 00ab 3A       		.uleb128 0x3a
 2003 00ac 0B       		.uleb128 0xb
 2004 00ad 3B       		.uleb128 0x3b
 2005 00ae 0B       		.uleb128 0xb
 2006 00af 49       		.uleb128 0x49
 2007 00b0 13       		.uleb128 0x13
 2008 00b1 00       		.byte	0
 2009 00b2 00       		.byte	0
 2010 00b3 10       		.uleb128 0x10
 2011 00b4 26       		.uleb128 0x26
 2012 00b5 00       		.byte	0
 2013 00b6 49       		.uleb128 0x49
 2014 00b7 13       		.uleb128 0x13
 2015 00b8 00       		.byte	0
 2016 00b9 00       		.byte	0
 2017 00ba 11       		.uleb128 0x11
 2018 00bb 2E       		.uleb128 0x2e
 2019 00bc 01       		.byte	0x1
 2020 00bd 03       		.uleb128 0x3
 2021 00be 0E       		.uleb128 0xe
 2022 00bf 3A       		.uleb128 0x3a
 2023 00c0 0B       		.uleb128 0xb
 2024 00c1 3B       		.uleb128 0x3b
 2025 00c2 0B       		.uleb128 0xb
 2026 00c3 27       		.uleb128 0x27
 2027 00c4 0C       		.uleb128 0xc
 2028 00c5 49       		.uleb128 0x49
 2029 00c6 13       		.uleb128 0x13
 2030 00c7 20       		.uleb128 0x20
 2031 00c8 0B       		.uleb128 0xb
 2032 00c9 01       		.uleb128 0x1
 2033 00ca 13       		.uleb128 0x13
 2034 00cb 00       		.byte	0
 2035 00cc 00       		.byte	0
 2036 00cd 12       		.uleb128 0x12
 2037 00ce 05       		.uleb128 0x5
 2038 00cf 00       		.byte	0
 2039 00d0 03       		.uleb128 0x3
 2040 00d1 08       		.uleb128 0x8
 2041 00d2 3A       		.uleb128 0x3a
ARM GAS  C:\Users\Rob\AppData\Local\Temp\ccsWif2A.s 			page 37


 2042 00d3 0B       		.uleb128 0xb
 2043 00d4 3B       		.uleb128 0x3b
 2044 00d5 0B       		.uleb128 0xb
 2045 00d6 49       		.uleb128 0x49
 2046 00d7 13       		.uleb128 0x13
 2047 00d8 00       		.byte	0
 2048 00d9 00       		.byte	0
 2049 00da 13       		.uleb128 0x13
 2050 00db 2E       		.uleb128 0x2e
 2051 00dc 01       		.byte	0x1
 2052 00dd 3F       		.uleb128 0x3f
 2053 00de 0C       		.uleb128 0xc
 2054 00df 03       		.uleb128 0x3
 2055 00e0 0E       		.uleb128 0xe
 2056 00e1 3A       		.uleb128 0x3a
 2057 00e2 0B       		.uleb128 0xb
 2058 00e3 3B       		.uleb128 0x3b
 2059 00e4 0B       		.uleb128 0xb
 2060 00e5 27       		.uleb128 0x27
 2061 00e6 0C       		.uleb128 0xc
 2062 00e7 49       		.uleb128 0x49
 2063 00e8 13       		.uleb128 0x13
 2064 00e9 20       		.uleb128 0x20
 2065 00ea 0B       		.uleb128 0xb
 2066 00eb 01       		.uleb128 0x1
 2067 00ec 13       		.uleb128 0x13
 2068 00ed 00       		.byte	0
 2069 00ee 00       		.byte	0
 2070 00ef 14       		.uleb128 0x14
 2071 00f0 34       		.uleb128 0x34
 2072 00f1 00       		.byte	0
 2073 00f2 03       		.uleb128 0x3
 2074 00f3 08       		.uleb128 0x8
 2075 00f4 3A       		.uleb128 0x3a
 2076 00f5 0B       		.uleb128 0xb
 2077 00f6 3B       		.uleb128 0x3b
 2078 00f7 0B       		.uleb128 0xb
 2079 00f8 49       		.uleb128 0x49
 2080 00f9 13       		.uleb128 0x13
 2081 00fa 00       		.byte	0
 2082 00fb 00       		.byte	0
 2083 00fc 15       		.uleb128 0x15
 2084 00fd 2E       		.uleb128 0x2e
 2085 00fe 01       		.byte	0x1
 2086 00ff 03       		.uleb128 0x3
 2087 0100 0E       		.uleb128 0xe
 2088 0101 3A       		.uleb128 0x3a
 2089 0102 0B       		.uleb128 0xb
 2090 0103 3B       		.uleb128 0x3b
 2091 0104 0B       		.uleb128 0xb
 2092 0105 27       		.uleb128 0x27
 2093 0106 0C       		.uleb128 0xc
 2094 0107 11       		.uleb128 0x11
 2095 0108 01       		.uleb128 0x1
 2096 0109 12       		.uleb128 0x12
 2097 010a 01       		.uleb128 0x1
 2098 010b 40       		.uleb128 0x40
ARM GAS  C:\Users\Rob\AppData\Local\Temp\ccsWif2A.s 			page 38


 2099 010c 06       		.uleb128 0x6
 2100 010d 01       		.uleb128 0x1
 2101 010e 13       		.uleb128 0x13
 2102 010f 00       		.byte	0
 2103 0110 00       		.byte	0
 2104 0111 16       		.uleb128 0x16
 2105 0112 05       		.uleb128 0x5
 2106 0113 00       		.byte	0
 2107 0114 03       		.uleb128 0x3
 2108 0115 08       		.uleb128 0x8
 2109 0116 3A       		.uleb128 0x3a
 2110 0117 0B       		.uleb128 0xb
 2111 0118 3B       		.uleb128 0x3b
 2112 0119 0B       		.uleb128 0xb
 2113 011a 49       		.uleb128 0x49
 2114 011b 13       		.uleb128 0x13
 2115 011c 02       		.uleb128 0x2
 2116 011d 06       		.uleb128 0x6
 2117 011e 00       		.byte	0
 2118 011f 00       		.byte	0
 2119 0120 17       		.uleb128 0x17
 2120 0121 34       		.uleb128 0x34
 2121 0122 00       		.byte	0
 2122 0123 03       		.uleb128 0x3
 2123 0124 08       		.uleb128 0x8
 2124 0125 3A       		.uleb128 0x3a
 2125 0126 0B       		.uleb128 0xb
 2126 0127 3B       		.uleb128 0x3b
 2127 0128 0B       		.uleb128 0xb
 2128 0129 49       		.uleb128 0x49
 2129 012a 13       		.uleb128 0x13
 2130 012b 02       		.uleb128 0x2
 2131 012c 0A       		.uleb128 0xa
 2132 012d 00       		.byte	0
 2133 012e 00       		.byte	0
 2134 012f 18       		.uleb128 0x18
 2135 0130 1D       		.uleb128 0x1d
 2136 0131 01       		.byte	0x1
 2137 0132 31       		.uleb128 0x31
 2138 0133 13       		.uleb128 0x13
 2139 0134 11       		.uleb128 0x11
 2140 0135 01       		.uleb128 0x1
 2141 0136 12       		.uleb128 0x12
 2142 0137 01       		.uleb128 0x1
 2143 0138 58       		.uleb128 0x58
 2144 0139 0B       		.uleb128 0xb
 2145 013a 59       		.uleb128 0x59
 2146 013b 0B       		.uleb128 0xb
 2147 013c 01       		.uleb128 0x1
 2148 013d 13       		.uleb128 0x13
 2149 013e 00       		.byte	0
 2150 013f 00       		.byte	0
 2151 0140 19       		.uleb128 0x19
 2152 0141 05       		.uleb128 0x5
 2153 0142 00       		.byte	0
 2154 0143 31       		.uleb128 0x31
 2155 0144 13       		.uleb128 0x13
ARM GAS  C:\Users\Rob\AppData\Local\Temp\ccsWif2A.s 			page 39


 2156 0145 02       		.uleb128 0x2
 2157 0146 06       		.uleb128 0x6
 2158 0147 00       		.byte	0
 2159 0148 00       		.byte	0
 2160 0149 1A       		.uleb128 0x1a
 2161 014a 0B       		.uleb128 0xb
 2162 014b 01       		.byte	0x1
 2163 014c 11       		.uleb128 0x11
 2164 014d 01       		.uleb128 0x1
 2165 014e 12       		.uleb128 0x12
 2166 014f 01       		.uleb128 0x1
 2167 0150 00       		.byte	0
 2168 0151 00       		.byte	0
 2169 0152 1B       		.uleb128 0x1b
 2170 0153 34       		.uleb128 0x34
 2171 0154 00       		.byte	0
 2172 0155 31       		.uleb128 0x31
 2173 0156 13       		.uleb128 0x13
 2174 0157 02       		.uleb128 0x2
 2175 0158 06       		.uleb128 0x6
 2176 0159 00       		.byte	0
 2177 015a 00       		.byte	0
 2178 015b 1C       		.uleb128 0x1c
 2179 015c 1D       		.uleb128 0x1d
 2180 015d 01       		.byte	0x1
 2181 015e 31       		.uleb128 0x31
 2182 015f 13       		.uleb128 0x13
 2183 0160 11       		.uleb128 0x11
 2184 0161 01       		.uleb128 0x1
 2185 0162 12       		.uleb128 0x12
 2186 0163 01       		.uleb128 0x1
 2187 0164 58       		.uleb128 0x58
 2188 0165 0B       		.uleb128 0xb
 2189 0166 59       		.uleb128 0x59
 2190 0167 0B       		.uleb128 0xb
 2191 0168 00       		.byte	0
 2192 0169 00       		.byte	0
 2193 016a 1D       		.uleb128 0x1d
 2194 016b 05       		.uleb128 0x5
 2195 016c 00       		.byte	0
 2196 016d 31       		.uleb128 0x31
 2197 016e 13       		.uleb128 0x13
 2198 016f 02       		.uleb128 0x2
 2199 0170 0A       		.uleb128 0xa
 2200 0171 00       		.byte	0
 2201 0172 00       		.byte	0
 2202 0173 1E       		.uleb128 0x1e
 2203 0174 2E       		.uleb128 0x2e
 2204 0175 00       		.byte	0
 2205 0176 3F       		.uleb128 0x3f
 2206 0177 0C       		.uleb128 0xc
 2207 0178 03       		.uleb128 0x3
 2208 0179 0E       		.uleb128 0xe
 2209 017a 3A       		.uleb128 0x3a
 2210 017b 0B       		.uleb128 0xb
 2211 017c 3B       		.uleb128 0x3b
 2212 017d 0B       		.uleb128 0xb
ARM GAS  C:\Users\Rob\AppData\Local\Temp\ccsWif2A.s 			page 40


 2213 017e 27       		.uleb128 0x27
 2214 017f 0C       		.uleb128 0xc
 2215 0180 11       		.uleb128 0x11
 2216 0181 01       		.uleb128 0x1
 2217 0182 12       		.uleb128 0x12
 2218 0183 01       		.uleb128 0x1
 2219 0184 40       		.uleb128 0x40
 2220 0185 0A       		.uleb128 0xa
 2221 0186 00       		.byte	0
 2222 0187 00       		.byte	0
 2223 0188 1F       		.uleb128 0x1f
 2224 0189 2E       		.uleb128 0x2e
 2225 018a 01       		.byte	0x1
 2226 018b 31       		.uleb128 0x31
 2227 018c 13       		.uleb128 0x13
 2228 018d 11       		.uleb128 0x11
 2229 018e 01       		.uleb128 0x1
 2230 018f 12       		.uleb128 0x12
 2231 0190 01       		.uleb128 0x1
 2232 0191 40       		.uleb128 0x40
 2233 0192 06       		.uleb128 0x6
 2234 0193 01       		.uleb128 0x1
 2235 0194 13       		.uleb128 0x13
 2236 0195 00       		.byte	0
 2237 0196 00       		.byte	0
 2238 0197 20       		.uleb128 0x20
 2239 0198 2E       		.uleb128 0x2e
 2240 0199 01       		.byte	0x1
 2241 019a 3F       		.uleb128 0x3f
 2242 019b 0C       		.uleb128 0xc
 2243 019c 03       		.uleb128 0x3
 2244 019d 0E       		.uleb128 0xe
 2245 019e 3A       		.uleb128 0x3a
 2246 019f 0B       		.uleb128 0xb
 2247 01a0 3B       		.uleb128 0x3b
 2248 01a1 0B       		.uleb128 0xb
 2249 01a2 27       		.uleb128 0x27
 2250 01a3 0C       		.uleb128 0xc
 2251 01a4 11       		.uleb128 0x11
 2252 01a5 01       		.uleb128 0x1
 2253 01a6 12       		.uleb128 0x12
 2254 01a7 01       		.uleb128 0x1
 2255 01a8 40       		.uleb128 0x40
 2256 01a9 06       		.uleb128 0x6
 2257 01aa 01       		.uleb128 0x1
 2258 01ab 13       		.uleb128 0x13
 2259 01ac 00       		.byte	0
 2260 01ad 00       		.byte	0
 2261 01ae 21       		.uleb128 0x21
 2262 01af 05       		.uleb128 0x5
 2263 01b0 00       		.byte	0
 2264 01b1 03       		.uleb128 0x3
 2265 01b2 0E       		.uleb128 0xe
 2266 01b3 3A       		.uleb128 0x3a
 2267 01b4 0B       		.uleb128 0xb
 2268 01b5 3B       		.uleb128 0x3b
 2269 01b6 0B       		.uleb128 0xb
ARM GAS  C:\Users\Rob\AppData\Local\Temp\ccsWif2A.s 			page 41


 2270 01b7 49       		.uleb128 0x49
 2271 01b8 13       		.uleb128 0x13
 2272 01b9 02       		.uleb128 0x2
 2273 01ba 06       		.uleb128 0x6
 2274 01bb 00       		.byte	0
 2275 01bc 00       		.byte	0
 2276 01bd 22       		.uleb128 0x22
 2277 01be 34       		.uleb128 0x34
 2278 01bf 00       		.byte	0
 2279 01c0 03       		.uleb128 0x3
 2280 01c1 08       		.uleb128 0x8
 2281 01c2 3A       		.uleb128 0x3a
 2282 01c3 0B       		.uleb128 0xb
 2283 01c4 3B       		.uleb128 0x3b
 2284 01c5 0B       		.uleb128 0xb
 2285 01c6 49       		.uleb128 0x49
 2286 01c7 13       		.uleb128 0x13
 2287 01c8 02       		.uleb128 0x2
 2288 01c9 06       		.uleb128 0x6
 2289 01ca 00       		.byte	0
 2290 01cb 00       		.byte	0
 2291 01cc 23       		.uleb128 0x23
 2292 01cd 1D       		.uleb128 0x1d
 2293 01ce 01       		.byte	0x1
 2294 01cf 31       		.uleb128 0x31
 2295 01d0 13       		.uleb128 0x13
 2296 01d1 52       		.uleb128 0x52
 2297 01d2 01       		.uleb128 0x1
 2298 01d3 55       		.uleb128 0x55
 2299 01d4 06       		.uleb128 0x6
 2300 01d5 58       		.uleb128 0x58
 2301 01d6 0B       		.uleb128 0xb
 2302 01d7 59       		.uleb128 0x59
 2303 01d8 0B       		.uleb128 0xb
 2304 01d9 00       		.byte	0
 2305 01da 00       		.byte	0
 2306 01db 24       		.uleb128 0x24
 2307 01dc 0B       		.uleb128 0xb
 2308 01dd 01       		.byte	0x1
 2309 01de 55       		.uleb128 0x55
 2310 01df 06       		.uleb128 0x6
 2311 01e0 00       		.byte	0
 2312 01e1 00       		.byte	0
 2313 01e2 25       		.uleb128 0x25
 2314 01e3 2E       		.uleb128 0x2e
 2315 01e4 01       		.byte	0x1
 2316 01e5 3F       		.uleb128 0x3f
 2317 01e6 0C       		.uleb128 0xc
 2318 01e7 03       		.uleb128 0x3
 2319 01e8 0E       		.uleb128 0xe
 2320 01e9 3A       		.uleb128 0x3a
 2321 01ea 0B       		.uleb128 0xb
 2322 01eb 3B       		.uleb128 0x3b
 2323 01ec 0B       		.uleb128 0xb
 2324 01ed 27       		.uleb128 0x27
 2325 01ee 0C       		.uleb128 0xc
 2326 01ef 49       		.uleb128 0x49
ARM GAS  C:\Users\Rob\AppData\Local\Temp\ccsWif2A.s 			page 42


 2327 01f0 13       		.uleb128 0x13
 2328 01f1 11       		.uleb128 0x11
 2329 01f2 01       		.uleb128 0x1
 2330 01f3 12       		.uleb128 0x12
 2331 01f4 01       		.uleb128 0x1
 2332 01f5 40       		.uleb128 0x40
 2333 01f6 06       		.uleb128 0x6
 2334 01f7 01       		.uleb128 0x1
 2335 01f8 13       		.uleb128 0x13
 2336 01f9 00       		.byte	0
 2337 01fa 00       		.byte	0
 2338 01fb 26       		.uleb128 0x26
 2339 01fc 1D       		.uleb128 0x1d
 2340 01fd 01       		.byte	0x1
 2341 01fe 31       		.uleb128 0x31
 2342 01ff 13       		.uleb128 0x13
 2343 0200 52       		.uleb128 0x52
 2344 0201 01       		.uleb128 0x1
 2345 0202 55       		.uleb128 0x55
 2346 0203 06       		.uleb128 0x6
 2347 0204 58       		.uleb128 0x58
 2348 0205 0B       		.uleb128 0xb
 2349 0206 59       		.uleb128 0x59
 2350 0207 0B       		.uleb128 0xb
 2351 0208 01       		.uleb128 0x1
 2352 0209 13       		.uleb128 0x13
 2353 020a 00       		.byte	0
 2354 020b 00       		.byte	0
 2355 020c 27       		.uleb128 0x27
 2356 020d 2E       		.uleb128 0x2e
 2357 020e 01       		.byte	0x1
 2358 020f 3F       		.uleb128 0x3f
 2359 0210 0C       		.uleb128 0xc
 2360 0211 03       		.uleb128 0x3
 2361 0212 0E       		.uleb128 0xe
 2362 0213 3A       		.uleb128 0x3a
 2363 0214 0B       		.uleb128 0xb
 2364 0215 3B       		.uleb128 0x3b
 2365 0216 05       		.uleb128 0x5
 2366 0217 27       		.uleb128 0x27
 2367 0218 0C       		.uleb128 0xc
 2368 0219 11       		.uleb128 0x11
 2369 021a 01       		.uleb128 0x1
 2370 021b 12       		.uleb128 0x12
 2371 021c 01       		.uleb128 0x1
 2372 021d 40       		.uleb128 0x40
 2373 021e 06       		.uleb128 0x6
 2374 021f 01       		.uleb128 0x1
 2375 0220 13       		.uleb128 0x13
 2376 0221 00       		.byte	0
 2377 0222 00       		.byte	0
 2378 0223 28       		.uleb128 0x28
 2379 0224 34       		.uleb128 0x34
 2380 0225 00       		.byte	0
 2381 0226 03       		.uleb128 0x3
 2382 0227 08       		.uleb128 0x8
 2383 0228 3A       		.uleb128 0x3a
ARM GAS  C:\Users\Rob\AppData\Local\Temp\ccsWif2A.s 			page 43


 2384 0229 0B       		.uleb128 0xb
 2385 022a 3B       		.uleb128 0x3b
 2386 022b 05       		.uleb128 0x5
 2387 022c 49       		.uleb128 0x49
 2388 022d 13       		.uleb128 0x13
 2389 022e 02       		.uleb128 0x2
 2390 022f 06       		.uleb128 0x6
 2391 0230 00       		.byte	0
 2392 0231 00       		.byte	0
 2393 0232 29       		.uleb128 0x29
 2394 0233 1D       		.uleb128 0x1d
 2395 0234 01       		.byte	0x1
 2396 0235 31       		.uleb128 0x31
 2397 0236 13       		.uleb128 0x13
 2398 0237 52       		.uleb128 0x52
 2399 0238 01       		.uleb128 0x1
 2400 0239 55       		.uleb128 0x55
 2401 023a 06       		.uleb128 0x6
 2402 023b 58       		.uleb128 0x58
 2403 023c 0B       		.uleb128 0xb
 2404 023d 59       		.uleb128 0x59
 2405 023e 05       		.uleb128 0x5
 2406 023f 01       		.uleb128 0x1
 2407 0240 13       		.uleb128 0x13
 2408 0241 00       		.byte	0
 2409 0242 00       		.byte	0
 2410 0243 2A       		.uleb128 0x2a
 2411 0244 1D       		.uleb128 0x1d
 2412 0245 01       		.byte	0x1
 2413 0246 31       		.uleb128 0x31
 2414 0247 13       		.uleb128 0x13
 2415 0248 52       		.uleb128 0x52
 2416 0249 01       		.uleb128 0x1
 2417 024a 55       		.uleb128 0x55
 2418 024b 06       		.uleb128 0x6
 2419 024c 58       		.uleb128 0x58
 2420 024d 0B       		.uleb128 0xb
 2421 024e 59       		.uleb128 0x59
 2422 024f 05       		.uleb128 0x5
 2423 0250 00       		.byte	0
 2424 0251 00       		.byte	0
 2425 0252 2B       		.uleb128 0x2b
 2426 0253 2E       		.uleb128 0x2e
 2427 0254 00       		.byte	0
 2428 0255 3F       		.uleb128 0x3f
 2429 0256 0C       		.uleb128 0xc
 2430 0257 03       		.uleb128 0x3
 2431 0258 0E       		.uleb128 0xe
 2432 0259 3A       		.uleb128 0x3a
 2433 025a 0B       		.uleb128 0xb
 2434 025b 3B       		.uleb128 0x3b
 2435 025c 0B       		.uleb128 0xb
 2436 025d 27       		.uleb128 0x27
 2437 025e 0C       		.uleb128 0xc
 2438 025f 11       		.uleb128 0x11
 2439 0260 01       		.uleb128 0x1
 2440 0261 12       		.uleb128 0x12
ARM GAS  C:\Users\Rob\AppData\Local\Temp\ccsWif2A.s 			page 44


 2441 0262 01       		.uleb128 0x1
 2442 0263 40       		.uleb128 0x40
 2443 0264 06       		.uleb128 0x6
 2444 0265 00       		.byte	0
 2445 0266 00       		.byte	0
 2446 0267 2C       		.uleb128 0x2c
 2447 0268 2E       		.uleb128 0x2e
 2448 0269 00       		.byte	0
 2449 026a 3F       		.uleb128 0x3f
 2450 026b 0C       		.uleb128 0xc
 2451 026c 03       		.uleb128 0x3
 2452 026d 0E       		.uleb128 0xe
 2453 026e 3A       		.uleb128 0x3a
 2454 026f 0B       		.uleb128 0xb
 2455 0270 3B       		.uleb128 0x3b
 2456 0271 05       		.uleb128 0x5
 2457 0272 27       		.uleb128 0x27
 2458 0273 0C       		.uleb128 0xc
 2459 0274 11       		.uleb128 0x11
 2460 0275 01       		.uleb128 0x1
 2461 0276 12       		.uleb128 0x12
 2462 0277 01       		.uleb128 0x1
 2463 0278 40       		.uleb128 0x40
 2464 0279 06       		.uleb128 0x6
 2465 027a 00       		.byte	0
 2466 027b 00       		.byte	0
 2467 027c 2D       		.uleb128 0x2d
 2468 027d 34       		.uleb128 0x34
 2469 027e 00       		.byte	0
 2470 027f 03       		.uleb128 0x3
 2471 0280 0E       		.uleb128 0xe
 2472 0281 3A       		.uleb128 0x3a
 2473 0282 0B       		.uleb128 0xb
 2474 0283 3B       		.uleb128 0x3b
 2475 0284 0B       		.uleb128 0xb
 2476 0285 49       		.uleb128 0x49
 2477 0286 13       		.uleb128 0x13
 2478 0287 3F       		.uleb128 0x3f
 2479 0288 0C       		.uleb128 0xc
 2480 0289 3C       		.uleb128 0x3c
 2481 028a 0C       		.uleb128 0xc
 2482 028b 00       		.byte	0
 2483 028c 00       		.byte	0
 2484 028d 2E       		.uleb128 0x2e
 2485 028e 34       		.uleb128 0x34
 2486 028f 00       		.byte	0
 2487 0290 03       		.uleb128 0x3
 2488 0291 0E       		.uleb128 0xe
 2489 0292 3A       		.uleb128 0x3a
 2490 0293 0B       		.uleb128 0xb
 2491 0294 3B       		.uleb128 0x3b
 2492 0295 0B       		.uleb128 0xb
 2493 0296 49       		.uleb128 0x49
 2494 0297 13       		.uleb128 0x13
 2495 0298 3F       		.uleb128 0x3f
 2496 0299 0C       		.uleb128 0xc
 2497 029a 02       		.uleb128 0x2
ARM GAS  C:\Users\Rob\AppData\Local\Temp\ccsWif2A.s 			page 45


 2498 029b 0A       		.uleb128 0xa
 2499 029c 00       		.byte	0
 2500 029d 00       		.byte	0
 2501 029e 00       		.byte	0
 2502              		.section	.debug_loc,"",%progbits
 2503              	.Ldebug_loc0:
 2504              	.LLST0:
 2505 0000 00000000 		.4byte	.LFB10
 2506 0004 02000000 		.4byte	.LCFI0
 2507 0008 0200     		.2byte	0x2
 2508 000a 7D       		.byte	0x7d
 2509 000b 00       		.sleb128 0
 2510 000c 02000000 		.4byte	.LCFI0
 2511 0010 58000000 		.4byte	.LFE10
 2512 0014 0200     		.2byte	0x2
 2513 0016 7D       		.byte	0x7d
 2514 0017 04       		.sleb128 4
 2515 0018 00000000 		.4byte	0
 2516 001c 00000000 		.4byte	0
 2517              	.LLST1:
 2518 0020 02000000 		.4byte	.LVL0
 2519 0024 0A000000 		.4byte	.LVL1
 2520 0028 0100     		.2byte	0x1
 2521 002a 50       		.byte	0x50
 2522 002b 14000000 		.4byte	.LVL2
 2523 002f 58000000 		.4byte	.LFE10
 2524 0033 0100     		.2byte	0x1
 2525 0035 50       		.byte	0x50
 2526 0036 00000000 		.4byte	0
 2527 003a 00000000 		.4byte	0
 2528              	.LLST2:
 2529 003e 1A000000 		.4byte	.LVL3
 2530 0042 34000000 		.4byte	.LVL7
 2531 0046 0100     		.2byte	0x1
 2532 0048 50       		.byte	0x50
 2533 0049 00000000 		.4byte	0
 2534 004d 00000000 		.4byte	0
 2535              	.LLST3:
 2536 0051 1E000000 		.4byte	.LVL4
 2537 0055 22000000 		.4byte	.LVL5
 2538 0059 0600     		.2byte	0x6
 2539 005b 03       		.byte	0x3
 2540 005c 00000000 		.4byte	rlist
 2541 0060 9F       		.byte	0x9f
 2542 0061 22000000 		.4byte	.LVL5
 2543 0065 34000000 		.4byte	.LVL7
 2544 0069 0100     		.2byte	0x1
 2545 006b 53       		.byte	0x53
 2546 006c 00000000 		.4byte	0
 2547 0070 00000000 		.4byte	0
 2548              	.LLST4:
 2549 0074 00000000 		.4byte	.LFB8
 2550 0078 02000000 		.4byte	.LCFI1
 2551 007c 0200     		.2byte	0x2
 2552 007e 7D       		.byte	0x7d
 2553 007f 00       		.sleb128 0
 2554 0080 02000000 		.4byte	.LCFI1
ARM GAS  C:\Users\Rob\AppData\Local\Temp\ccsWif2A.s 			page 46


 2555 0084 24000000 		.4byte	.LFE8
 2556 0088 0200     		.2byte	0x2
 2557 008a 7D       		.byte	0x7d
 2558 008b 04       		.sleb128 4
 2559 008c 00000000 		.4byte	0
 2560 0090 00000000 		.4byte	0
 2561              	.LLST5:
 2562 0094 06000000 		.4byte	.LVL10
 2563 0098 0A000000 		.4byte	.LVL11
 2564 009c 0600     		.2byte	0x6
 2565 009e 03       		.byte	0x3
 2566 009f 00000000 		.4byte	rlist
 2567 00a3 9F       		.byte	0x9f
 2568 00a4 0A000000 		.4byte	.LVL11
 2569 00a8 24000000 		.4byte	.LFE8
 2570 00ac 0100     		.2byte	0x1
 2571 00ae 53       		.byte	0x53
 2572 00af 00000000 		.4byte	0
 2573 00b3 00000000 		.4byte	0
 2574              	.LLST6:
 2575 00b7 00000000 		.4byte	.LFB9
 2576 00bb 02000000 		.4byte	.LCFI2
 2577 00bf 0200     		.2byte	0x2
 2578 00c1 7D       		.byte	0x7d
 2579 00c2 00       		.sleb128 0
 2580 00c3 02000000 		.4byte	.LCFI2
 2581 00c7 24000000 		.4byte	.LFE9
 2582 00cb 0200     		.2byte	0x2
 2583 00cd 7D       		.byte	0x7d
 2584 00ce 08       		.sleb128 8
 2585 00cf 00000000 		.4byte	0
 2586 00d3 00000000 		.4byte	0
 2587              	.LLST7:
 2588 00d7 02000000 		.4byte	.LVL13
 2589 00db 0C000000 		.4byte	.LVL15
 2590 00df 0100     		.2byte	0x1
 2591 00e1 50       		.byte	0x50
 2592 00e2 0C000000 		.4byte	.LVL15
 2593 00e6 1D000000 		.4byte	.LVL17-1
 2594 00ea 0800     		.2byte	0x8
 2595 00ec 03       		.byte	0x3
 2596 00ed 18000000 		.4byte	rlist+24
 2597 00f1 06       		.byte	0x6
 2598 00f2 23       		.byte	0x23
 2599 00f3 1C       		.uleb128 0x1c
 2600 00f4 00000000 		.4byte	0
 2601 00f8 00000000 		.4byte	0
 2602              	.LLST8:
 2603 00fc 08000000 		.4byte	.LVL14
 2604 0100 1D000000 		.4byte	.LVL17-1
 2605 0104 0500     		.2byte	0x5
 2606 0106 03       		.byte	0x3
 2607 0107 18000000 		.4byte	rlist+24
 2608 010b 00000000 		.4byte	0
 2609 010f 00000000 		.4byte	0
 2610              	.LLST9:
 2611 0113 0E000000 		.4byte	.LVL16
ARM GAS  C:\Users\Rob\AppData\Local\Temp\ccsWif2A.s 			page 47


 2612 0117 1D000000 		.4byte	.LVL17-1
 2613 011b 0500     		.2byte	0x5
 2614 011d 03       		.byte	0x3
 2615 011e 00000000 		.4byte	rlist
 2616 0122 00000000 		.4byte	0
 2617 0126 00000000 		.4byte	0
 2618              	.LLST10:
 2619 012a 00000000 		.4byte	.LFB11
 2620 012e 02000000 		.4byte	.LCFI3
 2621 0132 0200     		.2byte	0x2
 2622 0134 7D       		.byte	0x7d
 2623 0135 00       		.sleb128 0
 2624 0136 02000000 		.4byte	.LCFI3
 2625 013a 04000000 		.4byte	.LCFI4
 2626 013e 0200     		.2byte	0x2
 2627 0140 7D       		.byte	0x7d
 2628 0141 0C       		.sleb128 12
 2629 0142 04000000 		.4byte	.LCFI4
 2630 0146 40000000 		.4byte	.LFE11
 2631 014a 0200     		.2byte	0x2
 2632 014c 7D       		.byte	0x7d
 2633 014d 28       		.sleb128 40
 2634 014e 00000000 		.4byte	0
 2635 0152 00000000 		.4byte	0
 2636              	.LLST11:
 2637 0156 02000000 		.4byte	.LVL18
 2638 015a 0E000000 		.4byte	.LVL19
 2639 015e 0100     		.2byte	0x1
 2640 0160 50       		.byte	0x50
 2641 0161 30000000 		.4byte	.LVL21
 2642 0165 33000000 		.4byte	.LVL22-1
 2643 0169 0100     		.2byte	0x1
 2644 016b 50       		.byte	0x50
 2645 016c 00000000 		.4byte	0
 2646 0170 00000000 		.4byte	0
 2647              	.LLST12:
 2648 0174 02000000 		.4byte	.LVL18
 2649 0178 15000000 		.4byte	.LVL20-1
 2650 017c 0100     		.2byte	0x1
 2651 017e 51       		.byte	0x51
 2652 017f 30000000 		.4byte	.LVL21
 2653 0183 33000000 		.4byte	.LVL22-1
 2654 0187 0100     		.2byte	0x1
 2655 0189 51       		.byte	0x51
 2656 018a 00000000 		.4byte	0
 2657 018e 00000000 		.4byte	0
 2658              	.LLST13:
 2659 0192 00000000 		.4byte	.LFB12
 2660 0196 02000000 		.4byte	.LCFI5
 2661 019a 0200     		.2byte	0x2
 2662 019c 7D       		.byte	0x7d
 2663 019d 00       		.sleb128 0
 2664 019e 02000000 		.4byte	.LCFI5
 2665 01a2 50000000 		.4byte	.LFE12
 2666 01a6 0200     		.2byte	0x2
 2667 01a8 7D       		.byte	0x7d
 2668 01a9 10       		.sleb128 16
ARM GAS  C:\Users\Rob\AppData\Local\Temp\ccsWif2A.s 			page 48


 2669 01aa 00000000 		.4byte	0
 2670 01ae 00000000 		.4byte	0
 2671              	.LLST14:
 2672 01b2 02000000 		.4byte	.LVL23
 2673 01b6 12000000 		.4byte	.LVL25
 2674 01ba 0100     		.2byte	0x1
 2675 01bc 50       		.byte	0x50
 2676 01bd 16000000 		.4byte	.LVL27
 2677 01c1 28000000 		.4byte	.LVL29
 2678 01c5 0100     		.2byte	0x1
 2679 01c7 50       		.byte	0x50
 2680 01c8 2A000000 		.4byte	.LVL30
 2681 01cc 49000000 		.4byte	.LVL35-1
 2682 01d0 0100     		.2byte	0x1
 2683 01d2 50       		.byte	0x50
 2684 01d3 00000000 		.4byte	0
 2685 01d7 00000000 		.4byte	0
 2686              	.LLST15:
 2687 01db 02000000 		.4byte	.LVL23
 2688 01df 08000000 		.4byte	.LVL24
 2689 01e3 0100     		.2byte	0x1
 2690 01e5 51       		.byte	0x51
 2691 01e6 08000000 		.4byte	.LVL24
 2692 01ea 28000000 		.4byte	.LVL29
 2693 01ee 0200     		.2byte	0x2
 2694 01f0 70       		.byte	0x70
 2695 01f1 24       		.sleb128 36
 2696 01f2 2A000000 		.4byte	.LVL30
 2697 01f6 49000000 		.4byte	.LVL35-1
 2698 01fa 0200     		.2byte	0x2
 2699 01fc 70       		.byte	0x70
 2700 01fd 24       		.sleb128 36
 2701 01fe 00000000 		.4byte	0
 2702 0202 00000000 		.4byte	0
 2703              	.LLST16:
 2704 0206 12000000 		.4byte	.LVL25
 2705 020a 28000000 		.4byte	.LVL29
 2706 020e 0100     		.2byte	0x1
 2707 0210 50       		.byte	0x50
 2708 0211 00000000 		.4byte	0
 2709 0215 00000000 		.4byte	0
 2710              	.LLST17:
 2711 0219 14000000 		.4byte	.LVL26
 2712 021d 16000000 		.4byte	.LVL27
 2713 0221 0600     		.2byte	0x6
 2714 0223 03       		.byte	0x3
 2715 0224 00000000 		.4byte	rlist
 2716 0228 9F       		.byte	0x9f
 2717 0229 16000000 		.4byte	.LVL27
 2718 022d 28000000 		.4byte	.LVL29
 2719 0231 0100     		.2byte	0x1
 2720 0233 53       		.byte	0x53
 2721 0234 00000000 		.4byte	0
 2722 0238 00000000 		.4byte	0
 2723              	.LLST18:
 2724 023c 2A000000 		.4byte	.LVL30
 2725 0240 49000000 		.4byte	.LVL35-1
ARM GAS  C:\Users\Rob\AppData\Local\Temp\ccsWif2A.s 			page 49


 2726 0244 0100     		.2byte	0x1
 2727 0246 51       		.byte	0x51
 2728 0247 00000000 		.4byte	0
 2729 024b 00000000 		.4byte	0
 2730              	.LLST19:
 2731 024f 2C000000 		.4byte	.LVL31
 2732 0253 2E000000 		.4byte	.LVL32
 2733 0257 0600     		.2byte	0x6
 2734 0259 03       		.byte	0x3
 2735 025a 00000000 		.4byte	rlist
 2736 025e 9F       		.byte	0x9f
 2737 025f 2E000000 		.4byte	.LVL32
 2738 0263 40000000 		.4byte	.LVL34
 2739 0267 0100     		.2byte	0x1
 2740 0269 53       		.byte	0x53
 2741 026a 40000000 		.4byte	.LVL34
 2742 026e 49000000 		.4byte	.LVL35-1
 2743 0272 0200     		.2byte	0x2
 2744 0274 71       		.byte	0x71
 2745 0275 00       		.sleb128 0
 2746 0276 00000000 		.4byte	0
 2747 027a 00000000 		.4byte	0
 2748              	.LLST20:
 2749 027e 00000000 		.4byte	.LFB14
 2750 0282 02000000 		.4byte	.LCFI6
 2751 0286 0200     		.2byte	0x2
 2752 0288 7D       		.byte	0x7d
 2753 0289 00       		.sleb128 0
 2754 028a 02000000 		.4byte	.LCFI6
 2755 028e 40000000 		.4byte	.LFE14
 2756 0292 0200     		.2byte	0x2
 2757 0294 7D       		.byte	0x7d
 2758 0295 08       		.sleb128 8
 2759 0296 00000000 		.4byte	0
 2760 029a 00000000 		.4byte	0
 2761              	.LLST21:
 2762 029e 08000000 		.4byte	.LVL36
 2763 02a2 37000000 		.4byte	.LVL41-1
 2764 02a6 0500     		.2byte	0x5
 2765 02a8 03       		.byte	0x3
 2766 02a9 18000000 		.4byte	rlist+24
 2767 02ad 00000000 		.4byte	0
 2768 02b1 00000000 		.4byte	0
 2769              	.LLST22:
 2770 02b5 08000000 		.4byte	.LVL36
 2771 02b9 37000000 		.4byte	.LVL41-1
 2772 02bd 0500     		.2byte	0x5
 2773 02bf 03       		.byte	0x3
 2774 02c0 00000000 		.4byte	rlist
 2775 02c4 00000000 		.4byte	0
 2776 02c8 00000000 		.4byte	0
 2777              	.LLST23:
 2778 02cc 1A000000 		.4byte	.LVL37
 2779 02d0 37000000 		.4byte	.LVL41-1
 2780 02d4 0500     		.2byte	0x5
 2781 02d6 03       		.byte	0x3
 2782 02d7 18000000 		.4byte	rlist+24
ARM GAS  C:\Users\Rob\AppData\Local\Temp\ccsWif2A.s 			page 50


 2783 02db 00000000 		.4byte	0
 2784 02df 00000000 		.4byte	0
 2785              	.LLST24:
 2786 02e3 1E000000 		.4byte	.LVL38
 2787 02e7 22000000 		.4byte	.LVL39
 2788 02eb 0600     		.2byte	0x6
 2789 02ed 03       		.byte	0x3
 2790 02ee 00000000 		.4byte	rlist
 2791 02f2 9F       		.byte	0x9f
 2792 02f3 22000000 		.4byte	.LVL39
 2793 02f7 37000000 		.4byte	.LVL41-1
 2794 02fb 0100     		.2byte	0x1
 2795 02fd 53       		.byte	0x53
 2796 02fe 00000000 		.4byte	0
 2797 0302 00000000 		.4byte	0
 2798              	.LLST25:
 2799 0306 00000000 		.4byte	.LFB15
 2800 030a 02000000 		.4byte	.LCFI7
 2801 030e 0200     		.2byte	0x2
 2802 0310 7D       		.byte	0x7d
 2803 0311 00       		.sleb128 0
 2804 0312 02000000 		.4byte	.LCFI7
 2805 0316 3C000000 		.4byte	.LFE15
 2806 031a 0200     		.2byte	0x2
 2807 031c 7D       		.byte	0x7d
 2808 031d 08       		.sleb128 8
 2809 031e 00000000 		.4byte	0
 2810 0322 00000000 		.4byte	0
 2811              	.LLST26:
 2812 0326 08000000 		.4byte	.LVL42
 2813 032a 33000000 		.4byte	.LVL46-1
 2814 032e 0500     		.2byte	0x5
 2815 0330 03       		.byte	0x3
 2816 0331 18000000 		.4byte	rlist+24
 2817 0335 00000000 		.4byte	0
 2818 0339 00000000 		.4byte	0
 2819              	.LLST27:
 2820 033d 1A000000 		.4byte	.LVL43
 2821 0341 1E000000 		.4byte	.LVL44
 2822 0345 0600     		.2byte	0x6
 2823 0347 03       		.byte	0x3
 2824 0348 00000000 		.4byte	rlist
 2825 034c 9F       		.byte	0x9f
 2826 034d 1E000000 		.4byte	.LVL44
 2827 0351 33000000 		.4byte	.LVL46-1
 2828 0355 0100     		.2byte	0x1
 2829 0357 53       		.byte	0x53
 2830 0358 00000000 		.4byte	0
 2831 035c 00000000 		.4byte	0
 2832              	.LLST28:
 2833 0360 08000000 		.4byte	.LVL42
 2834 0364 33000000 		.4byte	.LVL46-1
 2835 0368 0500     		.2byte	0x5
 2836 036a 03       		.byte	0x3
 2837 036b 00000000 		.4byte	rlist
 2838 036f 00000000 		.4byte	0
 2839 0373 00000000 		.4byte	0
ARM GAS  C:\Users\Rob\AppData\Local\Temp\ccsWif2A.s 			page 51


 2840              	.LLST29:
 2841 0377 00000000 		.4byte	.LFB13
 2842 037b 02000000 		.4byte	.LCFI8
 2843 037f 0200     		.2byte	0x2
 2844 0381 7D       		.byte	0x7d
 2845 0382 00       		.sleb128 0
 2846 0383 02000000 		.4byte	.LCFI8
 2847 0387 1C000000 		.4byte	.LFE13
 2848 038b 0200     		.2byte	0x2
 2849 038d 7D       		.byte	0x7d
 2850 038e 08       		.sleb128 8
 2851 038f 00000000 		.4byte	0
 2852 0393 00000000 		.4byte	0
 2853              	.LLST30:
 2854 0397 00000000 		.4byte	.LFB16
 2855 039b 02000000 		.4byte	.LCFI9
 2856 039f 0200     		.2byte	0x2
 2857 03a1 7D       		.byte	0x7d
 2858 03a2 00       		.sleb128 0
 2859 03a3 02000000 		.4byte	.LCFI9
 2860 03a7 1C000000 		.4byte	.LFE16
 2861 03ab 0200     		.2byte	0x2
 2862 03ad 7D       		.byte	0x7d
 2863 03ae 08       		.sleb128 8
 2864 03af 00000000 		.4byte	0
 2865 03b3 00000000 		.4byte	0
 2866              		.section	.debug_aranges,"",%progbits
 2867 0000 64000000 		.4byte	0x64
 2868 0004 0200     		.2byte	0x2
 2869 0006 00000000 		.4byte	.Ldebug_info0
 2870 000a 04       		.byte	0x4
 2871 000b 00       		.byte	0
 2872 000c 0000     		.2byte	0
 2873 000e 0000     		.2byte	0
 2874 0010 00000000 		.4byte	.LFB10
 2875 0014 58000000 		.4byte	.LFE10-.LFB10
 2876 0018 00000000 		.4byte	.LFB7
 2877 001c 14000000 		.4byte	.LFE7-.LFB7
 2878 0020 00000000 		.4byte	.LFB8
 2879 0024 24000000 		.4byte	.LFE8-.LFB8
 2880 0028 00000000 		.4byte	.LFB9
 2881 002c 24000000 		.4byte	.LFE9-.LFB9
 2882 0030 00000000 		.4byte	.LFB11
 2883 0034 40000000 		.4byte	.LFE11-.LFB11
 2884 0038 00000000 		.4byte	.LFB12
 2885 003c 50000000 		.4byte	.LFE12-.LFB12
 2886 0040 00000000 		.4byte	.LFB14
 2887 0044 40000000 		.4byte	.LFE14-.LFB14
 2888 0048 00000000 		.4byte	.LFB15
 2889 004c 3C000000 		.4byte	.LFE15-.LFB15
 2890 0050 00000000 		.4byte	.LFB13
 2891 0054 1C000000 		.4byte	.LFE13-.LFB13
 2892 0058 00000000 		.4byte	.LFB16
 2893 005c 1C000000 		.4byte	.LFE16-.LFB16
 2894 0060 00000000 		.4byte	0
 2895 0064 00000000 		.4byte	0
 2896              		.section	.debug_ranges,"",%progbits
ARM GAS  C:\Users\Rob\AppData\Local\Temp\ccsWif2A.s 			page 52


 2897              	.Ldebug_ranges0:
 2898 0000 0A000000 		.4byte	.LBB23
 2899 0004 0C000000 		.4byte	.LBE23
 2900 0008 0E000000 		.4byte	.LBB26
 2901 000c 14000000 		.4byte	.LBE26
 2902 0010 00000000 		.4byte	0
 2903 0014 00000000 		.4byte	0
 2904 0018 0A000000 		.4byte	.LBB24
 2905 001c 0C000000 		.4byte	.LBE24
 2906 0020 0E000000 		.4byte	.LBB25
 2907 0024 14000000 		.4byte	.LBE25
 2908 0028 00000000 		.4byte	0
 2909 002c 00000000 		.4byte	0
 2910 0030 0C000000 		.4byte	.LBB28
 2911 0034 0E000000 		.4byte	.LBE28
 2912 0038 12000000 		.4byte	.LBB31
 2913 003c 28000000 		.4byte	.LBE31
 2914 0040 00000000 		.4byte	0
 2915 0044 00000000 		.4byte	0
 2916 0048 0C000000 		.4byte	.LBB29
 2917 004c 0E000000 		.4byte	.LBE29
 2918 0050 12000000 		.4byte	.LBB30
 2919 0054 28000000 		.4byte	.LBE30
 2920 0058 00000000 		.4byte	0
 2921 005c 00000000 		.4byte	0
 2922 0060 2A000000 		.4byte	.LBB33
 2923 0064 3E000000 		.4byte	.LBE33
 2924 0068 40000000 		.4byte	.LBB36
 2925 006c 42000000 		.4byte	.LBE36
 2926 0070 00000000 		.4byte	0
 2927 0074 00000000 		.4byte	0
 2928 0078 2A000000 		.4byte	.LBB34
 2929 007c 3E000000 		.4byte	.LBE34
 2930 0080 40000000 		.4byte	.LBB35
 2931 0084 42000000 		.4byte	.LBE35
 2932 0088 00000000 		.4byte	0
 2933 008c 00000000 		.4byte	0
 2934 0090 04000000 		.4byte	.LBB37
 2935 0094 06000000 		.4byte	.LBE37
 2936 0098 08000000 		.4byte	.LBB41
 2937 009c 0A000000 		.4byte	.LBE41
 2938 00a0 0C000000 		.4byte	.LBB45
 2939 00a4 10000000 		.4byte	.LBE45
 2940 00a8 00000000 		.4byte	0
 2941 00ac 00000000 		.4byte	0
 2942 00b0 04000000 		.4byte	.LBB38
 2943 00b4 06000000 		.4byte	.LBE38
 2944 00b8 08000000 		.4byte	.LBB39
 2945 00bc 0A000000 		.4byte	.LBE39
 2946 00c0 0C000000 		.4byte	.LBB40
 2947 00c4 10000000 		.4byte	.LBE40
 2948 00c8 00000000 		.4byte	0
 2949 00cc 00000000 		.4byte	0
 2950 00d0 0A000000 		.4byte	.LBB42
 2951 00d4 0C000000 		.4byte	.LBE42
 2952 00d8 1A000000 		.4byte	.LBB46
 2953 00dc 34000000 		.4byte	.LBE46
ARM GAS  C:\Users\Rob\AppData\Local\Temp\ccsWif2A.s 			page 53


 2954 00e0 00000000 		.4byte	0
 2955 00e4 00000000 		.4byte	0
 2956 00e8 0A000000 		.4byte	.LBB43
 2957 00ec 0C000000 		.4byte	.LBE43
 2958 00f0 1A000000 		.4byte	.LBB44
 2959 00f4 34000000 		.4byte	.LBE44
 2960 00f8 00000000 		.4byte	0
 2961 00fc 00000000 		.4byte	0
 2962 0100 04000000 		.4byte	.LBB47
 2963 0104 06000000 		.4byte	.LBE47
 2964 0108 08000000 		.4byte	.LBB51
 2965 010c 0A000000 		.4byte	.LBE51
 2966 0110 0C000000 		.4byte	.LBB52
 2967 0114 10000000 		.4byte	.LBE52
 2968 0118 00000000 		.4byte	0
 2969 011c 00000000 		.4byte	0
 2970 0120 04000000 		.4byte	.LBB48
 2971 0124 06000000 		.4byte	.LBE48
 2972 0128 08000000 		.4byte	.LBB49
 2973 012c 0A000000 		.4byte	.LBE49
 2974 0130 0C000000 		.4byte	.LBB50
 2975 0134 10000000 		.4byte	.LBE50
 2976 0138 00000000 		.4byte	0
 2977 013c 00000000 		.4byte	0
 2978 0140 00000000 		.4byte	.LFB10
 2979 0144 58000000 		.4byte	.LFE10
 2980 0148 00000000 		.4byte	.LFB7
 2981 014c 14000000 		.4byte	.LFE7
 2982 0150 00000000 		.4byte	.LFB8
 2983 0154 24000000 		.4byte	.LFE8
 2984 0158 00000000 		.4byte	.LFB9
 2985 015c 24000000 		.4byte	.LFE9
 2986 0160 00000000 		.4byte	.LFB11
 2987 0164 40000000 		.4byte	.LFE11
 2988 0168 00000000 		.4byte	.LFB12
 2989 016c 50000000 		.4byte	.LFE12
 2990 0170 00000000 		.4byte	.LFB14
 2991 0174 40000000 		.4byte	.LFE14
 2992 0178 00000000 		.4byte	.LFB15
 2993 017c 3C000000 		.4byte	.LFE15
 2994 0180 00000000 		.4byte	.LFB13
 2995 0184 1C000000 		.4byte	.LFE13
 2996 0188 00000000 		.4byte	.LFB16
 2997 018c 1C000000 		.4byte	.LFE16
 2998 0190 00000000 		.4byte	0
 2999 0194 00000000 		.4byte	0
 3000              		.section	.debug_line,"",%progbits
 3001              	.Ldebug_line0:
 3002 0000 CA020000 		.section	.debug_str,"MS",%progbits,1
 3002      02001701 
 3002      00000201 
 3002      FB0E0D00 
 3002      01010101 
 3003              	.LASF37:
 3004 0000 705F6D73 		.ascii	"p_msg\000"
 3004      6700
 3005              	.LASF68:
ARM GAS  C:\Users\Rob\AppData\Local\Temp\ccsWif2A.s 			page 54


 3006 0006 7264796D 		.ascii	"rdymsg\000"
 3006      736700
 3007              	.LASF80:
 3008 000d 63685363 		.ascii	"chSchDoRescheduleAhead\000"
 3008      68446F52 
 3008      65736368 
 3008      6564756C 
 3008      65416865 
 3009              	.LASF11:
 3010 0024 6C6F6E67 		.ascii	"long long unsigned int\000"
 3010      206C6F6E 
 3010      6720756E 
 3010      7369676E 
 3010      65642069 
 3011              	.LASF69:
 3012 003b 65786974 		.ascii	"exitcode\000"
 3012      636F6465 
 3012      00
 3013              	.LASF25:
 3014 0044 705F7072 		.ascii	"p_prio\000"
 3014      696F00
 3015              	.LASF87:
 3016 004b 433A5C55 		.ascii	"C:\\Users\\Rob\\Projects\\ECE411Practicum\\src\\vir"
 3016      73657273 
 3016      5C526F62 
 3016      5C50726F 
 3016      6A656374 
 3017 0078 756C656E 		.ascii	"ulent\000"
 3017      7400
 3018              	.LASF10:
 3019 007e 6C6F6E67 		.ascii	"long long int\000"
 3019      206C6F6E 
 3019      6720696E 
 3019      7400
 3020              	.LASF1:
 3021 008c 7369676E 		.ascii	"signed char\000"
 3021      65642063 
 3021      68617200 
 3022              	.LASF41:
 3023 0098 705F6D70 		.ascii	"p_mpool\000"
 3023      6F6F6C00 
 3024              	.LASF65:
 3025 00a0 6D5F7175 		.ascii	"m_queue\000"
 3025      65756500 
 3026              	.LASF16:
 3027 00a8 74736C69 		.ascii	"tslices_t\000"
 3027      6365735F 
 3027      7400
 3028              	.LASF7:
 3029 00b2 6C6F6E67 		.ascii	"long int\000"
 3029      20696E74 
 3029      00
 3030              	.LASF14:
 3031 00bb 74737461 		.ascii	"tstate_t\000"
 3031      74655F74 
 3031      00
 3032              	.LASF27:
ARM GAS  C:\Users\Rob\AppData\Local\Temp\ccsWif2A.s 			page 55


 3033 00c4 705F6E65 		.ascii	"p_newer\000"
 3033      77657200 
 3034              	.LASF62:
 3035 00cc 735F7175 		.ascii	"s_queue\000"
 3035      65756500 
 3036              	.LASF82:
 3037 00d4 63685363 		.ascii	"chSchRescheduleS\000"
 3037      68526573 
 3037      63686564 
 3037      756C6553 
 3037      00
 3038              	.LASF57:
 3039 00e5 725F6E65 		.ascii	"r_newer\000"
 3039      77657200 
 3040              	.LASF44:
 3041 00ed 72656761 		.ascii	"regarm_t\000"
 3041      726D5F74 
 3041      00
 3042              	.LASF50:
 3043 00f6 76745F70 		.ascii	"vt_prev\000"
 3043      72657600 
 3044              	.LASF83:
 3045 00fe 63685363 		.ascii	"chSchDoReschedule\000"
 3045      68446F52 
 3045      65736368 
 3045      6564756C 
 3045      6500
 3046              	.LASF21:
 3047 0110 636E745F 		.ascii	"cnt_t\000"
 3047      7400
 3048              	.LASF0:
 3049 0116 756E7369 		.ascii	"unsigned int\000"
 3049      676E6564 
 3049      20696E74 
 3049      00
 3050              	.LASF89:
 3051 0123 77616B65 		.ascii	"wakeup\000"
 3051      757000
 3052              	.LASF49:
 3053 012a 76745F6E 		.ascii	"vt_next\000"
 3053      65787400 
 3054              	.LASF9:
 3055 0132 6C6F6E67 		.ascii	"long unsigned int\000"
 3055      20756E73 
 3055      69676E65 
 3055      6420696E 
 3055      7400
 3056              	.LASF63:
 3057 0144 735F636E 		.ascii	"s_cnt\000"
 3057      7400
 3058              	.LASF46:
 3059 014a 636F6E74 		.ascii	"context\000"
 3059      65787400 
 3060              	.LASF4:
 3061 0152 73686F72 		.ascii	"short unsigned int\000"
 3061      7420756E 
 3061      7369676E 
ARM GAS  C:\Users\Rob\AppData\Local\Temp\ccsWif2A.s 			page 56


 3061      65642069 
 3061      6E7400
 3062              	.LASF78:
 3063 0165 63685363 		.ascii	"chSchWakeupS\000"
 3063      6857616B 
 3063      65757053 
 3063      00
 3064              	.LASF18:
 3065 0172 6D73675F 		.ascii	"msg_t\000"
 3065      7400
 3066              	.LASF13:
 3067 0178 746D6F64 		.ascii	"tmode_t\000"
 3067      655F7400 
 3068              	.LASF43:
 3069 0180 54687265 		.ascii	"ThreadsList\000"
 3069      6164734C 
 3069      69737400 
 3070              	.LASF19:
 3071 018c 6576656E 		.ascii	"eventmask_t\000"
 3071      746D6173 
 3071      6B5F7400 
 3072              	.LASF64:
 3073 0198 4D757465 		.ascii	"Mutex\000"
 3073      7800
 3074              	.LASF81:
 3075 019e 5F736368 		.ascii	"_scheduler_init\000"
 3075      6564756C 
 3075      65725F69 
 3075      6E697400 
 3076              	.LASF51:
 3077 01ae 76745F74 		.ascii	"vt_time\000"
 3077      696D6500 
 3078              	.LASF52:
 3079 01b6 76745F66 		.ascii	"vt_func\000"
 3079      756E6300 
 3080              	.LASF79:
 3081 01be 63685363 		.ascii	"chSchDoRescheduleBehind\000"
 3081      68446F52 
 3081      65736368 
 3081      6564756C 
 3081      65426568 
 3082              	.LASF28:
 3083 01d6 705F6F6C 		.ascii	"p_older\000"
 3083      64657200 
 3084              	.LASF56:
 3085 01de 725F6374 		.ascii	"r_ctx\000"
 3085      7800
 3086              	.LASF42:
 3087 01e4 54687265 		.ascii	"ThreadsQueue\000"
 3087      61647351 
 3087      75657565 
 3087      00
 3088              	.LASF73:
 3089 01f1 64657175 		.ascii	"dequeue\000"
 3089      65756500 
 3090              	.LASF59:
 3091 01f9 725F6375 		.ascii	"r_current\000"
ARM GAS  C:\Users\Rob\AppData\Local\Temp\ccsWif2A.s 			page 57


 3091      7272656E 
 3091      7400
 3092              	.LASF58:
 3093 0203 725F6F6C 		.ascii	"r_older\000"
 3093      64657200 
 3094              	.LASF15:
 3095 020b 74726566 		.ascii	"trefs_t\000"
 3095      735F7400 
 3096              	.LASF24:
 3097 0213 705F7072 		.ascii	"p_prev\000"
 3097      657600
 3098              	.LASF17:
 3099 021a 74707269 		.ascii	"tprio_t\000"
 3099      6F5F7400 
 3100              	.LASF12:
 3101 0222 5F426F6F 		.ascii	"_Bool\000"
 3101      6C00
 3102              	.LASF6:
 3103 0228 696E7433 		.ascii	"int32_t\000"
 3103      325F7400 
 3104              	.LASF2:
 3105 0230 756E7369 		.ascii	"unsigned char\000"
 3105      676E6564 
 3105      20636861 
 3105      7200
 3106              	.LASF75:
 3107 023e 6E657773 		.ascii	"newstate\000"
 3107      74617465 
 3107      00
 3108              	.LASF39:
 3109 0247 705F6D74 		.ascii	"p_mtxlist\000"
 3109      786C6973 
 3109      7400
 3110              	.LASF3:
 3111 0251 73686F72 		.ascii	"short int\000"
 3111      7420696E 
 3111      7400
 3112              	.LASF30:
 3113 025b 705F7374 		.ascii	"p_state\000"
 3113      61746500 
 3114              	.LASF33:
 3115 0263 705F7072 		.ascii	"p_preempt\000"
 3115      65656D70 
 3115      7400
 3116              	.LASF55:
 3117 026d 725F7072 		.ascii	"r_prio\000"
 3117      696F00
 3118              	.LASF71:
 3119 0274 65776D61 		.ascii	"ewmask\000"
 3119      736B00
 3120              	.LASF23:
 3121 027b 705F6E65 		.ascii	"p_next\000"
 3121      787400
 3122              	.LASF31:
 3123 0282 705F666C 		.ascii	"p_flags\000"
 3123      61677300 
 3124              	.LASF22:
ARM GAS  C:\Users\Rob\AppData\Local\Temp\ccsWif2A.s 			page 58


 3125 028a 54687265 		.ascii	"Thread\000"
 3125      616400
 3126              	.LASF77:
 3127 0291 63685363 		.ascii	"chSchGoSleepS\000"
 3127      68476F53 
 3127      6C656570 
 3127      5300
 3128              	.LASF38:
 3129 029f 705F6570 		.ascii	"p_epending\000"
 3129      656E6469 
 3129      6E6700
 3130              	.LASF8:
 3131 02aa 75696E74 		.ascii	"uint32_t\000"
 3131      33325F74 
 3131      00
 3132              	.LASF54:
 3133 02b3 725F7175 		.ascii	"r_queue\000"
 3133      65756500 
 3134              	.LASF48:
 3135 02bb 56697274 		.ascii	"VirtualTimer\000"
 3135      75616C54 
 3135      696D6572 
 3135      00
 3136              	.LASF85:
 3137 02c8 474E5520 		.ascii	"GNU C 4.6.2\000"
 3137      4320342E 
 3137      362E3200 
 3138              	.LASF72:
 3139 02d4 63686172 		.ascii	"char\000"
 3139      00
 3140              	.LASF74:
 3141 02d9 6669666F 		.ascii	"fifo_remove\000"
 3141      5F72656D 
 3141      6F766500 
 3142              	.LASF88:
 3143 02e5 63685363 		.ascii	"chSchReadyI\000"
 3143      68526561 
 3143      64794900 
 3144              	.LASF67:
 3145 02f1 6D5F6E65 		.ascii	"m_next\000"
 3145      787400
 3146              	.LASF20:
 3147 02f8 73797374 		.ascii	"systime_t\000"
 3147      696D655F 
 3147      7400
 3148              	.LASF40:
 3149 0302 705F7265 		.ascii	"p_realprio\000"
 3149      616C7072 
 3149      696F00
 3150              	.LASF47:
 3151 030d 76746675 		.ascii	"vtfunc_t\000"
 3151      6E635F74 
 3151      00
 3152              	.LASF34:
 3153 0316 705F7469 		.ascii	"p_time\000"
 3153      6D6500
 3154              	.LASF45:
ARM GAS  C:\Users\Rob\AppData\Local\Temp\ccsWif2A.s 			page 59


 3155 031d 696E7463 		.ascii	"intctx\000"
 3155      747800
 3156              	.LASF36:
 3157 0324 705F6D73 		.ascii	"p_msgqueue\000"
 3157      67717565 
 3157      756500
 3158              	.LASF76:
 3159 032f 74696D65 		.ascii	"time\000"
 3159      00
 3160              	.LASF53:
 3161 0334 76745F70 		.ascii	"vt_par\000"
 3161      617200
 3162              	.LASF61:
 3163 033b 53656D61 		.ascii	"Semaphore\000"
 3163      70686F72 
 3163      6500
 3164              	.LASF32:
 3165 0345 705F7265 		.ascii	"p_refs\000"
 3165      667300
 3166              	.LASF60:
 3167 034c 52656164 		.ascii	"ReadyList\000"
 3167      794C6973 
 3167      7400
 3168              	.LASF86:
 3169 0356 2E2E2F2E 		.ascii	"../../os/kernel/src/chschd.c\000"
 3169      2E2F6F73 
 3169      2F6B6572 
 3169      6E656C2F 
 3169      7372632F 
 3170              	.LASF84:
 3171 0373 726C6973 		.ascii	"rlist\000"
 3171      7400
 3172              	.LASF5:
 3173 0379 75696E74 		.ascii	"uint8_t\000"
 3173      385F7400 
 3174              	.LASF70:
 3175 0381 77746F62 		.ascii	"wtobjp\000"
 3175      6A7000
 3176              	.LASF29:
 3177 0388 705F6E61 		.ascii	"p_name\000"
 3177      6D6500
 3178              	.LASF90:
 3179 038f 63685363 		.ascii	"chSchGoSleepTimeoutS\000"
 3179      68476F53 
 3179      6C656570 
 3179      54696D65 
 3179      6F757453 
 3180              	.LASF66:
 3181 03a4 6D5F6F77 		.ascii	"m_owner\000"
 3181      6E657200 
 3182              	.LASF26:
 3183 03ac 705F6374 		.ascii	"p_ctx\000"
 3183      7800
 3184              	.LASF35:
 3185 03b2 705F7761 		.ascii	"p_waiting\000"
 3185      6974696E 
 3185      6700
ARM GAS  C:\Users\Rob\AppData\Local\Temp\ccsWif2A.s 			page 60


 3186              		.ident	"GCC: (GNU) 4.6.2"
ARM GAS  C:\Users\Rob\AppData\Local\Temp\ccsWif2A.s 			page 61


DEFINED SYMBOLS
                            *ABS*:00000000 chschd.c
C:\Users\Rob\AppData\Local\Temp\ccsWif2A.s:17     .text.wakeup:00000000 $t
C:\Users\Rob\AppData\Local\Temp\ccsWif2A.s:22     .text.wakeup:00000000 wakeup
C:\Users\Rob\AppData\Local\Temp\ccsWif2A.s:120    .text.wakeup:00000054 $d
C:\Users\Rob\AppData\Local\Temp\ccsWif2A.s:127    .text._scheduler_init:00000000 $t
C:\Users\Rob\AppData\Local\Temp\ccsWif2A.s:133    .text._scheduler_init:00000000 _scheduler_init
C:\Users\Rob\AppData\Local\Temp\ccsWif2A.s:155    .text._scheduler_init:00000010 $d
C:\Users\Rob\AppData\Local\Temp\ccsWif2A.s:160    .text.chSchReadyI:00000000 $t
C:\Users\Rob\AppData\Local\Temp\ccsWif2A.s:166    .text.chSchReadyI:00000000 chSchReadyI
C:\Users\Rob\AppData\Local\Temp\ccsWif2A.s:206    .text.chSchReadyI:00000020 $d
C:\Users\Rob\AppData\Local\Temp\ccsWif2A.s:211    .text.chSchGoSleepS:00000000 $t
C:\Users\Rob\AppData\Local\Temp\ccsWif2A.s:217    .text.chSchGoSleepS:00000000 chSchGoSleepS
C:\Users\Rob\AppData\Local\Temp\ccsWif2A.s:269    .text.chSchGoSleepS:00000020 $d
C:\Users\Rob\AppData\Local\Temp\ccsWif2A.s:274    .text.chSchGoSleepTimeoutS:00000000 $t
C:\Users\Rob\AppData\Local\Temp\ccsWif2A.s:280    .text.chSchGoSleepTimeoutS:00000000 chSchGoSleepTimeoutS
C:\Users\Rob\AppData\Local\Temp\ccsWif2A.s:339    .text.chSchGoSleepTimeoutS:00000038 $d
C:\Users\Rob\AppData\Local\Temp\ccsWif2A.s:345    .text.chSchWakeupS:00000000 $t
C:\Users\Rob\AppData\Local\Temp\ccsWif2A.s:351    .text.chSchWakeupS:00000000 chSchWakeupS
C:\Users\Rob\AppData\Local\Temp\ccsWif2A.s:463    .text.chSchWakeupS:0000004c $d
C:\Users\Rob\AppData\Local\Temp\ccsWif2A.s:469    .text.chSchDoRescheduleBehind:00000000 $t
C:\Users\Rob\AppData\Local\Temp\ccsWif2A.s:475    .text.chSchDoRescheduleBehind:00000000 chSchDoRescheduleBehind
C:\Users\Rob\AppData\Local\Temp\ccsWif2A.s:560    .text.chSchDoRescheduleBehind:0000003c $d
C:\Users\Rob\AppData\Local\Temp\ccsWif2A.s:565    .text.chSchDoRescheduleAhead:00000000 $t
C:\Users\Rob\AppData\Local\Temp\ccsWif2A.s:571    .text.chSchDoRescheduleAhead:00000000 chSchDoRescheduleAhead
C:\Users\Rob\AppData\Local\Temp\ccsWif2A.s:645    .text.chSchDoRescheduleAhead:00000038 $d
C:\Users\Rob\AppData\Local\Temp\ccsWif2A.s:650    .text.chSchRescheduleS:00000000 $t
C:\Users\Rob\AppData\Local\Temp\ccsWif2A.s:656    .text.chSchRescheduleS:00000000 chSchRescheduleS
C:\Users\Rob\AppData\Local\Temp\ccsWif2A.s:682    .text.chSchRescheduleS:00000018 $d
C:\Users\Rob\AppData\Local\Temp\ccsWif2A.s:687    .text.chSchDoReschedule:00000000 $t
C:\Users\Rob\AppData\Local\Temp\ccsWif2A.s:693    .text.chSchDoReschedule:00000000 chSchDoReschedule
C:\Users\Rob\AppData\Local\Temp\ccsWif2A.s:721    .text.chSchDoReschedule:00000018 $d
C:\Users\Rob\AppData\Local\Temp\ccsWif2A.s:731    .bss.rlist:00000000 rlist
C:\Users\Rob\AppData\Local\Temp\ccsWif2A.s:727    .bss.rlist:00000000 $d
                     .debug_frame:00000010 $d
C:\Users\Rob\AppData\Local\Temp\ccsWif2A.s:126    .text.wakeup:00000058 $t
C:\Users\Rob\AppData\Local\Temp\ccsWif2A.s:159    .text._scheduler_init:00000014 $t
C:\Users\Rob\AppData\Local\Temp\ccsWif2A.s:210    .text.chSchReadyI:00000024 $t
C:\Users\Rob\AppData\Local\Temp\ccsWif2A.s:273    .text.chSchGoSleepS:00000024 $t
C:\Users\Rob\AppData\Local\Temp\ccsWif2A.s:649    .text.chSchDoRescheduleAhead:0000003c $t
C:\Users\Rob\AppData\Local\Temp\ccsWif2A.s:686    .text.chSchRescheduleS:0000001c $t
C:\Users\Rob\AppData\Local\Temp\ccsWif2A.s:726    .text.chSchDoReschedule:0000001c $t

UNDEFINED SYMBOLS
_port_switch
chVTSetI
chVTResetI
