ARM GAS  C:\Users\Rob\AppData\Local\Temp\ccsWif2A.s 			page 1


   1              		.cpu cortex-m0
   2              		.fpu softvfp
   3              		.eabi_attribute 20, 1
   4              		.eabi_attribute 21, 1
   5              		.eabi_attribute 23, 3
   6              		.eabi_attribute 24, 1
   7              		.eabi_attribute 25, 1
   8              		.eabi_attribute 26, 1
   9              		.eabi_attribute 30, 2
  10              		.eabi_attribute 18, 4
  11              		.code	16
  12              		.file	"chschd.c"
  13              		.text
  14              	.Ltext0:
  15              		.cfi_sections	.debug_frame
  16              		.section	.text.wakeup,"ax",%progbits
  17              		.align	2
  18              		.p2align 4,,15
  19              		.code	16
  20              		.thumb_func
  21              		.type	wakeup, %function
  22              	wakeup:
  23              	.LFB10:
  24              		.file 1 "../../os/kernel/src/chschd.c"
  25              		.loc 1 129 0
  26              		.cfi_startproc
  27 0000 00B5     		push	{lr}
  28              	.LCFI0:
  29              		.cfi_def_cfa_offset 4
  30              		.cfi_offset 14, -4
  31              	.LVL0:
  32              		.loc 1 132 0
  33              	@ 132 "../../os/kernel/src/chschd.c" 1
  34 0002 72B6     		cpsid   i
  35              	@ 0 "" 2
  36              		.loc 1 133 0
  37              		.code	16
  38 0004 037F     		ldrb	r3, [r0, #28]
  39 0006 032B     		cmp	r3, #3
  40 0008 19D0     		beq	.L4
  41              	.LVL1:
  42 000a 15D9     		bls	.L12
  43 000c 052B     		cmp	r3, #5
  44 000e 1AD0     		beq	.L5
  45 0010 0D2B     		cmp	r3, #13
  46 0012 18D0     		beq	.L5
  47              	.LVL2:
  48              	.L2:
  49              		.loc 1 156 0
  50 0014 0123     		mov	r3, #1
  51 0016 5B42     		neg	r3, r3
  52 0018 4362     		str	r3, [r0, #36]
  53              	.LVL3:
  54              	.LBB19:
  55              	.LBB20:
  56              		.loc 1 85 0
  57 001a 0023     		mov	r3, #0
ARM GAS  C:\Users\Rob\AppData\Local\Temp\ccsWif2A.s 			page 2


  58 001c 0377     		strb	r3, [r0, #28]
  59              	.LVL4:
  60 001e 8168     		ldr	r1, [r0, #8]
  61              		.loc 1 86 0
  62 0020 0C4B     		ldr	r3, .L13
  63              	.LVL5:
  64              	.L8:
  65              		.loc 1 88 0
  66 0022 1B68     		ldr	r3, [r3]
  67              	.LVL6:
  68              		.loc 1 89 0
  69 0024 9A68     		ldr	r2, [r3, #8]
  70 0026 8A42     		cmp	r2, r1
  71 0028 FBD2     		bcs	.L8
  72              		.loc 1 92 0
  73 002a 5A68     		ldr	r2, [r3, #4]
  74              		.loc 1 91 0
  75 002c 0360     		str	r3, [r0]
  76              		.loc 1 92 0
  77 002e 4260     		str	r2, [r0, #4]
  78              		.loc 1 93 0
  79 0030 1060     		str	r0, [r2]
  80 0032 5860     		str	r0, [r3, #4]
  81              	.LVL7:
  82              	.L10:
  83              	.LBE20:
  84              	.LBE19:
  85              		.loc 1 158 0
  86              	@ 158 "../../os/kernel/src/chschd.c" 1
  87 0034 62B6     		cpsie   i
  88              	@ 0 "" 2
  89              		.loc 1 159 0
  90              		.code	16
  91              		@ sp needed for prologue
  92 0036 00BD     		pop	{pc}
  93              	.L12:
  94              		.loc 1 133 0
  95 0038 002B     		cmp	r3, #0
  96 003a FBD0     		beq	.L10
  97 003c EAE7     		b	.L2
  98              	.L4:
  99              		.loc 1 143 0
 100 003e 436A     		ldr	r3, [r0, #36]
 101 0040 9A68     		ldr	r2, [r3, #8]
 102 0042 0132     		add	r2, r2, #1
 103 0044 9A60     		str	r2, [r3, #8]
 104              	.L5:
 105              	.LVL8:
 106              	.LBB21:
 107              	.LBB22:
 108              		.file 2 "../../os/kernel/include/chinline.h"
 109              		.loc 2 68 0
 110 0046 4368     		ldr	r3, [r0, #4]
 111 0048 0268     		ldr	r2, [r0]
 112 004a 1A60     		str	r2, [r3]
 113              		.loc 2 69 0
 114 004c 0268     		ldr	r2, [r0]
ARM GAS  C:\Users\Rob\AppData\Local\Temp\ccsWif2A.s 			page 3


 115 004e 5360     		str	r3, [r2, #4]
 116 0050 E0E7     		b	.L2
 117              	.L14:
 118 0052 C046     		.align	2
 119              	.L13:
 120 0054 00000000 		.word	.LANCHOR0
 121              	.LBE22:
 122              	.LBE21:
 123              		.cfi_endproc
 124              	.LFE10:
 125              		.size	wakeup, .-wakeup
 126 0058 C046C046 		.section	.text._scheduler_init,"ax",%progbits
 126      C046C046 
 127              		.align	2
 128              		.p2align 4,,15
 129              		.global	_scheduler_init
 130              		.code	16
 131              		.thumb_func
 132              		.type	_scheduler_init, %function
 133              	_scheduler_init:
 134              	.LFB7:
 135              		.loc 1 48 0
 136              		.cfi_startproc
 137              		.loc 1 50 0
 138 0000 034B     		ldr	r3, .L16
 139              		.loc 1 51 0
 140 0002 0022     		mov	r2, #0
 141              		.loc 1 50 0
 142 0004 5B60     		str	r3, [r3, #4]
 143 0006 1B60     		str	r3, [r3]
 144              		.loc 1 51 0
 145 0008 9A60     		str	r2, [r3, #8]
 146              		.loc 1 53 0
 147 000a 5B61     		str	r3, [r3, #20]
 148 000c 1B61     		str	r3, [r3, #16]
 149              		.loc 1 55 0
 150              		@ sp needed for prologue
 151 000e 7047     		bx	lr
 152              	.L17:
 153              		.align	2
 154              	.L16:
 155 0010 00000000 		.word	.LANCHOR0
 156              		.cfi_endproc
 157              	.LFE7:
 158              		.size	_scheduler_init, .-_scheduler_init
 159 0014 C046C046 		.section	.text.chSchReadyI,"ax",%progbits
 159      C046C046 
 159      C046C046 
 160              		.align	2
 161              		.p2align 4,,15
 162              		.global	chSchReadyI
 163              		.code	16
 164              		.thumb_func
 165              		.type	chSchReadyI, %function
 166              	chSchReadyI:
 167              	.LFB8:
 168              		.loc 1 74 0
ARM GAS  C:\Users\Rob\AppData\Local\Temp\ccsWif2A.s 			page 4


 169              		.cfi_startproc
 170 0000 00B5     		push	{lr}
 171              	.LCFI1:
 172              		.cfi_def_cfa_offset 4
 173              		.cfi_offset 14, -4
 174              	.LVL9:
 175              		.loc 1 85 0
 176 0002 0023     		mov	r3, #0
 177 0004 0377     		strb	r3, [r0, #28]
 178              	.LVL10:
 179 0006 8168     		ldr	r1, [r0, #8]
 180              		.loc 1 86 0
 181 0008 054B     		ldr	r3, .L21
 182              	.LVL11:
 183              	.L19:
 184              		.loc 1 88 0 discriminator 1
 185 000a 1B68     		ldr	r3, [r3]
 186              	.LVL12:
 187              		.loc 1 89 0 discriminator 1
 188 000c 9A68     		ldr	r2, [r3, #8]
 189 000e 8A42     		cmp	r2, r1
 190 0010 FBD2     		bcs	.L19
 191              		.loc 1 92 0
 192 0012 5A68     		ldr	r2, [r3, #4]
 193              		.loc 1 91 0
 194 0014 0360     		str	r3, [r0]
 195              		.loc 1 92 0
 196 0016 4260     		str	r2, [r0, #4]
 197              		.loc 1 93 0
 198 0018 1060     		str	r0, [r2]
 199 001a 5860     		str	r0, [r3, #4]
 200              		.loc 1 95 0
 201              		@ sp needed for prologue
 202 001c 00BD     		pop	{pc}
 203              	.L22:
 204 001e C046     		.align	2
 205              	.L21:
 206 0020 00000000 		.word	.LANCHOR0
 207              		.cfi_endproc
 208              	.LFE8:
 209              		.size	chSchReadyI, .-chSchReadyI
 210 0024 C046C046 		.section	.text.chSchGoSleepS,"ax",%progbits
 210      C046C046 
 210      C046C046 
 211              		.align	2
 212              		.p2align 4,,15
 213              		.global	chSchGoSleepS
 214              		.code	16
 215              		.thumb_func
 216              		.type	chSchGoSleepS, %function
 217              	chSchGoSleepS:
 218              	.LFB9:
 219              		.loc 1 108 0
 220              		.cfi_startproc
 221 0000 08B5     		push	{r3, lr}
 222              	.LCFI2:
 223              		.cfi_def_cfa_offset 8
ARM GAS  C:\Users\Rob\AppData\Local\Temp\ccsWif2A.s 			page 5


 224              		.cfi_offset 3, -8
 225              		.cfi_offset 14, -4
 226              	.LVL13:
 227              		.loc 1 113 0
 228 0002 074B     		ldr	r3, .L24
 229              		.loc 1 117 0
 230 0004 1422     		mov	r2, #20
 231              		.loc 1 113 0
 232 0006 9969     		ldr	r1, [r3, #24]
 233              	.LVL14:
 234              		.loc 1 122 0
 235              		@ sp needed for prologue
 236              		.loc 1 113 0
 237 0008 0877     		strb	r0, [r1, #28]
 238              	.LBB23:
 239              	.LBB24:
 240              		.loc 2 53 0
 241 000a 1868     		ldr	r0, [r3]
 242              	.LVL15:
 243              	.LBE24:
 244              	.LBE23:
 245              		.loc 1 117 0
 246 000c CA77     		strb	r2, [r1, #31]
 247              	.LVL16:
 248              	.LBB26:
 249              	.LBB25:
 250              		.loc 2 55 0
 251 000e 0268     		ldr	r2, [r0]
 252 0010 5360     		str	r3, [r2, #4]
 253 0012 1A60     		str	r2, [r3]
 254              	.LBE25:
 255              	.LBE26:
 256              		.loc 1 119 0
 257 0014 9861     		str	r0, [r3, #24]
 258              		.loc 1 120 0
 259 0016 0123     		mov	r3, #1
 260 0018 0377     		strb	r3, [r0, #28]
 261              		.loc 1 121 0
 262 001a FFF7FEFF 		bl	_port_switch
 263              	.LVL17:
 264              		.loc 1 122 0
 265 001e 08BD     		pop	{r3, pc}
 266              	.L25:
 267              		.align	2
 268              	.L24:
 269 0020 00000000 		.word	.LANCHOR0
 270              		.cfi_endproc
 271              	.LFE9:
 272              		.size	chSchGoSleepS, .-chSchGoSleepS
 273 0024 C046C046 		.section	.text.chSchGoSleepTimeoutS,"ax",%progbits
 273      C046C046 
 273      C046C046 
 274              		.align	2
 275              		.p2align 4,,15
 276              		.global	chSchGoSleepTimeoutS
 277              		.code	16
 278              		.thumb_func
ARM GAS  C:\Users\Rob\AppData\Local\Temp\ccsWif2A.s 			page 6


 279              		.type	chSchGoSleepTimeoutS, %function
 280              	chSchGoSleepTimeoutS:
 281              	.LFB11:
 282              		.loc 1 182 0
 283              		.cfi_startproc
 284 0000 30B5     		push	{r4, r5, lr}
 285              	.LCFI3:
 286              		.cfi_def_cfa_offset 12
 287              		.cfi_offset 4, -12
 288              		.cfi_offset 5, -8
 289              		.cfi_offset 14, -4
 290              	.LVL18:
 291 0002 87B0     		sub	sp, sp, #28
 292              	.LCFI4:
 293              		.cfi_def_cfa_offset 40
 294              		.loc 1 182 0
 295 0004 051C     		mov	r5, r0
 296              		.loc 1 186 0
 297 0006 4B1C     		add	r3, r1, #1
 298 0008 12D0     		beq	.L27
 299              	.LBB27:
 300              		.loc 1 189 0
 301 000a 0B4C     		ldr	r4, .L29
 302 000c 01A8     		add	r0, sp, #4
 303              	.LVL19:
 304 000e A369     		ldr	r3, [r4, #24]
 305 0010 0A4A     		ldr	r2, .L29+4
 306 0012 FFF7FEFF 		bl	chVTSetI
 307              	.LVL20:
 308              		.loc 1 190 0
 309 0016 281C     		mov	r0, r5
 310 0018 FFF7FEFF 		bl	chSchGoSleepS
 311              		.loc 1 191 0
 312 001c 049B     		ldr	r3, [sp, #16]
 313 001e 002B     		cmp	r3, #0
 314 0020 02D0     		beq	.L28
 315              		.loc 1 192 0
 316 0022 01A8     		add	r0, sp, #4
 317 0024 FFF7FEFF 		bl	chVTResetI
 318              	.L28:
 319              	.LBE27:
 320              		.loc 1 196 0
 321 0028 A369     		ldr	r3, [r4, #24]
 322              		.loc 1 197 0
 323 002a 07B0     		add	sp, sp, #28
 324              		.loc 1 196 0
 325 002c 586A     		ldr	r0, [r3, #36]
 326              		.loc 1 197 0
 327              		@ sp needed for prologue
 328 002e 30BD     		pop	{r4, r5, pc}
 329              	.LVL21:
 330              	.L27:
 331              		.loc 1 195 0
 332 0030 FFF7FEFF 		bl	chSchGoSleepS
 333              	.LVL22:
 334 0034 004C     		ldr	r4, .L29
 335 0036 F7E7     		b	.L28
ARM GAS  C:\Users\Rob\AppData\Local\Temp\ccsWif2A.s 			page 7


 336              	.L30:
 337              		.align	2
 338              	.L29:
 339 0038 00000000 		.word	.LANCHOR0
 340 003c 00000000 		.word	wakeup
 341              		.cfi_endproc
 342              	.LFE11:
 343              		.size	chSchGoSleepTimeoutS, .-chSchGoSleepTimeoutS
 344              		.section	.text.chSchWakeupS,"ax",%progbits
 345              		.align	2
 346              		.p2align 4,,15
 347              		.global	chSchWakeupS
 348              		.code	16
 349              		.thumb_func
 350              		.type	chSchWakeupS, %function
 351              	chSchWakeupS:
 352              	.LFB12:
 353              		.loc 1 218 0
 354              		.cfi_startproc
 355 0000 70B5     		push	{r4, r5, r6, lr}
 356              	.LCFI5:
 357              		.cfi_def_cfa_offset 16
 358              		.cfi_offset 4, -16
 359              		.cfi_offset 5, -12
 360              		.cfi_offset 6, -8
 361              		.cfi_offset 14, -4
 362              	.LVL23:
 363              		.loc 1 227 0
 364 0002 124E     		ldr	r6, .L38
 365              		.loc 1 222 0
 366 0004 4162     		str	r1, [r0, #36]
 367              		.loc 1 227 0
 368 0006 B169     		ldr	r1, [r6, #24]
 369              	.LVL24:
 370 0008 8568     		ldr	r5, [r0, #8]
 371 000a 8C68     		ldr	r4, [r1, #8]
 372              	.LBB28:
 373              	.LBB29:
 374              		.loc 1 85 0
 375 000c 0023     		mov	r3, #0
 376              	.LBE29:
 377              	.LBE28:
 378              		.loc 1 227 0
 379 000e A542     		cmp	r5, r4
 380 0010 0BD8     		bhi	.L32
 381              	.LVL25:
 382              	.LBB31:
 383              	.LBB30:
 384              		.loc 1 85 0
 385 0012 0377     		strb	r3, [r0, #28]
 386              	.LVL26:
 387              		.loc 1 86 0
 388 0014 331C     		mov	r3, r6
 389              	.LVL27:
 390              	.L33:
 391              		.loc 1 88 0
 392 0016 1B68     		ldr	r3, [r3]
ARM GAS  C:\Users\Rob\AppData\Local\Temp\ccsWif2A.s 			page 8


 393              	.LVL28:
 394              		.loc 1 89 0
 395 0018 9A68     		ldr	r2, [r3, #8]
 396 001a 9542     		cmp	r5, r2
 397 001c FBD9     		bls	.L33
 398              		.loc 1 92 0
 399 001e 5A68     		ldr	r2, [r3, #4]
 400              		.loc 1 91 0
 401 0020 0360     		str	r3, [r0]
 402              		.loc 1 92 0
 403 0022 4260     		str	r2, [r0, #4]
 404              		.loc 1 93 0
 405 0024 1060     		str	r0, [r2]
 406 0026 5860     		str	r0, [r3, #4]
 407              	.LVL29:
 408              	.L31:
 409              	.LBE30:
 410              	.LBE31:
 411              		.loc 1 235 0
 412              		@ sp needed for prologue
 413 0028 70BD     		pop	{r4, r5, r6, pc}
 414              	.LVL30:
 415              	.L32:
 416              	.LBB32:
 417              	.LBB33:
 418              	.LBB34:
 419              		.loc 1 85 0
 420 002a 0B77     		strb	r3, [r1, #28]
 421              	.LVL31:
 422              		.loc 1 86 0
 423 002c 331C     		mov	r3, r6
 424              	.LVL32:
 425              	.L35:
 426              		.loc 1 88 0
 427 002e 1B68     		ldr	r3, [r3]
 428              	.LVL33:
 429              		.loc 1 89 0
 430 0030 9A68     		ldr	r2, [r3, #8]
 431 0032 9442     		cmp	r4, r2
 432 0034 FBD9     		bls	.L35
 433              		.loc 1 92 0
 434 0036 5A68     		ldr	r2, [r3, #4]
 435              		.loc 1 91 0
 436 0038 0B60     		str	r3, [r1]
 437              		.loc 1 92 0
 438 003a 4A60     		str	r2, [r1, #4]
 439              		.loc 1 93 0
 440 003c 5960     		str	r1, [r3, #4]
 441              	.LBE34:
 442              	.LBE33:
 443              		.loc 1 232 0
 444 003e 0123     		mov	r3, #1
 445              	.LVL34:
 446              	.LBB36:
 447              	.LBB35:
 448              		.loc 1 93 0
 449 0040 1160     		str	r1, [r2]
ARM GAS  C:\Users\Rob\AppData\Local\Temp\ccsWif2A.s 			page 9


 450              	.LBE35:
 451              	.LBE36:
 452              		.loc 1 232 0
 453 0042 0377     		strb	r3, [r0, #28]
 454              		.loc 1 231 0
 455 0044 B061     		str	r0, [r6, #24]
 456              		.loc 1 233 0
 457 0046 FFF7FEFF 		bl	_port_switch
 458              	.LVL35:
 459 004a EDE7     		b	.L31
 460              	.L39:
 461              		.align	2
 462              	.L38:
 463 004c 00000000 		.word	.LANCHOR0
 464              	.LBE32:
 465              		.cfi_endproc
 466              	.LFE12:
 467              		.size	chSchWakeupS, .-chSchWakeupS
 468              		.section	.text.chSchDoRescheduleBehind,"ax",%progbits
 469              		.align	2
 470              		.p2align 4,,15
 471              		.global	chSchDoRescheduleBehind
 472              		.code	16
 473              		.thumb_func
 474              		.type	chSchDoRescheduleBehind, %function
 475              	chSchDoRescheduleBehind:
 476              	.LFB14:
 477              		.loc 1 297 0
 478              		.cfi_startproc
 479 0000 10B5     		push	{r4, lr}
 480              	.LCFI6:
 481              		.cfi_def_cfa_offset 8
 482              		.cfi_offset 4, -8
 483              		.cfi_offset 14, -4
 484              		.loc 1 300 0
 485 0002 0E4B     		ldr	r3, .L44
 486              	.LBB37:
 487              	.LBB38:
 488              		.loc 2 53 0
 489 0004 1868     		ldr	r0, [r3]
 490              	.LBE38:
 491              	.LBE37:
 492              		.loc 1 300 0
 493 0006 9969     		ldr	r1, [r3, #24]
 494              	.LVL36:
 495              	.LBB41:
 496              	.LBB39:
 497              		.loc 2 55 0
 498 0008 0268     		ldr	r2, [r0]
 499              	.LBE39:
 500              	.LBE41:
 501              	.LBB42:
 502              	.LBB43:
 503              		.loc 1 85 0
 504 000a 8C68     		ldr	r4, [r1, #8]
 505              	.LBE43:
 506              	.LBE42:
ARM GAS  C:\Users\Rob\AppData\Local\Temp\ccsWif2A.s 			page 10


 507              	.LBB45:
 508              	.LBB40:
 509              		.loc 2 55 0
 510 000c 5360     		str	r3, [r2, #4]
 511 000e 1A60     		str	r2, [r3]
 512              	.LBE40:
 513              	.LBE45:
 514              		.loc 1 302 0
 515 0010 9861     		str	r0, [r3, #24]
 516              		.loc 1 303 0
 517 0012 0123     		mov	r3, #1
 518 0014 0377     		strb	r3, [r0, #28]
 519              		.loc 1 305 0
 520 0016 1423     		mov	r3, #20
 521 0018 CB77     		strb	r3, [r1, #31]
 522              	.LVL37:
 523              	.LBB46:
 524              	.LBB44:
 525              		.loc 1 85 0
 526 001a 0023     		mov	r3, #0
 527 001c 0B77     		strb	r3, [r1, #28]
 528              	.LVL38:
 529 001e 031C     		mov	r3, r0
 530 0020 00E0     		b	.L42
 531              	.LVL39:
 532              	.L43:
 533              		.loc 1 89 0
 534 0022 1B68     		ldr	r3, [r3]
 535              	.LVL40:
 536              	.L42:
 537 0024 9A68     		ldr	r2, [r3, #8]
 538 0026 A242     		cmp	r2, r4
 539 0028 FBD2     		bcs	.L43
 540              		.loc 1 92 0
 541 002a 5A68     		ldr	r2, [r3, #4]
 542              		.loc 1 91 0
 543 002c 0B60     		str	r3, [r1]
 544              		.loc 1 92 0
 545 002e 4A60     		str	r2, [r1, #4]
 546              		.loc 1 93 0
 547 0030 1160     		str	r1, [r2]
 548 0032 5960     		str	r1, [r3, #4]
 549              	.LBE44:
 550              	.LBE46:
 551              		.loc 1 308 0
 552 0034 FFF7FEFF 		bl	_port_switch
 553              	.LVL41:
 554              		.loc 1 309 0
 555              		@ sp needed for prologue
 556 0038 10BD     		pop	{r4, pc}
 557              	.L45:
 558 003a C046     		.align	2
 559              	.L44:
 560 003c 00000000 		.word	.LANCHOR0
 561              		.cfi_endproc
 562              	.LFE14:
 563              		.size	chSchDoRescheduleBehind, .-chSchDoRescheduleBehind
ARM GAS  C:\Users\Rob\AppData\Local\Temp\ccsWif2A.s 			page 11


 564              		.section	.text.chSchDoRescheduleAhead,"ax",%progbits
 565              		.align	2
 566              		.p2align 4,,15
 567              		.global	chSchDoRescheduleAhead
 568              		.code	16
 569              		.thumb_func
 570              		.type	chSchDoRescheduleAhead, %function
 571              	chSchDoRescheduleAhead:
 572              	.LFB15:
 573              		.loc 1 322 0
 574              		.cfi_startproc
 575 0000 10B5     		push	{r4, lr}
 576              	.LCFI7:
 577              		.cfi_def_cfa_offset 8
 578              		.cfi_offset 4, -8
 579              		.cfi_offset 14, -4
 580              		.loc 1 325 0
 581 0002 0D4B     		ldr	r3, .L50
 582              	.LBB47:
 583              	.LBB48:
 584              		.loc 2 53 0
 585 0004 1868     		ldr	r0, [r3]
 586              	.LBE48:
 587              	.LBE47:
 588              		.loc 1 325 0
 589 0006 9969     		ldr	r1, [r3, #24]
 590              	.LVL42:
 591              	.LBB51:
 592              	.LBB49:
 593              		.loc 2 55 0
 594 0008 0268     		ldr	r2, [r0]
 595              	.LBE49:
 596              	.LBE51:
 597              		.loc 1 330 0
 598 000a 8C68     		ldr	r4, [r1, #8]
 599              	.LBB52:
 600              	.LBB50:
 601              		.loc 2 55 0
 602 000c 5360     		str	r3, [r2, #4]
 603 000e 1A60     		str	r2, [r3]
 604              	.LBE50:
 605              	.LBE52:
 606              		.loc 1 327 0
 607 0010 9861     		str	r0, [r3, #24]
 608              		.loc 1 328 0
 609 0012 0123     		mov	r3, #1
 610 0014 0377     		strb	r3, [r0, #28]
 611              		.loc 1 330 0
 612 0016 0023     		mov	r3, #0
 613 0018 0B77     		strb	r3, [r1, #28]
 614              	.LVL43:
 615 001a 031C     		mov	r3, r0
 616 001c 00E0     		b	.L48
 617              	.LVL44:
 618              	.L49:
 619              		.loc 1 334 0
 620 001e 1B68     		ldr	r3, [r3]
ARM GAS  C:\Users\Rob\AppData\Local\Temp\ccsWif2A.s 			page 12


 621              	.LVL45:
 622              	.L48:
 623              		.loc 1 334 0 is_stmt 0 discriminator 1
 624 0020 9A68     		ldr	r2, [r3, #8]
 625 0022 A242     		cmp	r2, r4
 626 0024 FBD8     		bhi	.L49
 627              		.loc 1 337 0 is_stmt 1
 628 0026 5A68     		ldr	r2, [r3, #4]
 629              		.loc 1 336 0
 630 0028 0B60     		str	r3, [r1]
 631              		.loc 1 337 0
 632 002a 4A60     		str	r2, [r1, #4]
 633              		.loc 1 338 0
 634 002c 1160     		str	r1, [r2]
 635 002e 5960     		str	r1, [r3, #4]
 636              		.loc 1 340 0
 637 0030 FFF7FEFF 		bl	_port_switch
 638              	.LVL46:
 639              		.loc 1 341 0
 640              		@ sp needed for prologue
 641 0034 10BD     		pop	{r4, pc}
 642              	.L51:
 643 0036 C046     		.align	2
 644              	.L50:
 645 0038 00000000 		.word	.LANCHOR0
 646              		.cfi_endproc
 647              	.LFE15:
 648              		.size	chSchDoRescheduleAhead, .-chSchDoRescheduleAhead
 649 003c C046C046 		.section	.text.chSchRescheduleS,"ax",%progbits
 650              		.align	2
 651              		.p2align 4,,15
 652              		.global	chSchRescheduleS
 653              		.code	16
 654              		.thumb_func
 655              		.type	chSchRescheduleS, %function
 656              	chSchRescheduleS:
 657              	.LFB13:
 658              		.loc 1 246 0
 659              		.cfi_startproc
 660 0000 08B5     		push	{r3, lr}
 661              	.LCFI8:
 662              		.cfi_def_cfa_offset 8
 663              		.cfi_offset 3, -8
 664              		.cfi_offset 14, -4
 665              		.loc 1 250 0
 666 0002 054B     		ldr	r3, .L54
 667 0004 1A68     		ldr	r2, [r3]
 668 0006 9B69     		ldr	r3, [r3, #24]
 669 0008 9268     		ldr	r2, [r2, #8]
 670 000a 9B68     		ldr	r3, [r3, #8]
 671 000c 9A42     		cmp	r2, r3
 672 000e 01D9     		bls	.L52
 673              		.loc 1 251 0
 674 0010 FFF7FEFF 		bl	chSchDoRescheduleAhead
 675              	.L52:
 676              		.loc 1 252 0
 677              		@ sp needed for prologue
ARM GAS  C:\Users\Rob\AppData\Local\Temp\ccsWif2A.s 			page 13


 678 0014 08BD     		pop	{r3, pc}
 679              	.L55:
 680 0016 C046     		.align	2
 681              	.L54:
 682 0018 00000000 		.word	.LANCHOR0
 683              		.cfi_endproc
 684              	.LFE13:
 685              		.size	chSchRescheduleS, .-chSchRescheduleS
 686 001c C046C046 		.section	.text.chSchDoReschedule,"ax",%progbits
 687              		.align	2
 688              		.p2align 4,,15
 689              		.global	chSchDoReschedule
 690              		.code	16
 691              		.thumb_func
 692              		.type	chSchDoReschedule, %function
 693              	chSchDoReschedule:
 694              	.LFB16:
 695              		.loc 1 355 0
 696              		.cfi_startproc
 697 0000 08B5     		push	{r3, lr}
 698              	.LCFI9:
 699              		.cfi_def_cfa_offset 8
 700              		.cfi_offset 3, -8
 701              		.cfi_offset 14, -4
 702              		.loc 1 360 0
 703 0002 054B     		ldr	r3, .L60
 704 0004 9B69     		ldr	r3, [r3, #24]
 705 0006 DB7F     		ldrb	r3, [r3, #31]
 706 0008 002B     		cmp	r3, #0
 707 000a 02D0     		beq	.L59
 708              		.loc 1 368 0
 709 000c FFF7FEFF 		bl	chSchDoRescheduleAhead
 710              	.L56:
 711              		.loc 1 375 0
 712              		@ sp needed for prologue
 713 0010 08BD     		pop	{r3, pc}
 714              	.L59:
 715              		.loc 1 363 0
 716 0012 FFF7FEFF 		bl	chSchDoRescheduleBehind
 717 0016 FBE7     		b	.L56
 718              	.L61:
 719              		.align	2
 720              	.L60:
 721 0018 00000000 		.word	.LANCHOR0
 722              		.cfi_endproc
 723              	.LFE16:
 724              		.size	chSchDoReschedule, .-chSchDoReschedule
 725              		.global	rlist
 726 001c C046C046 		.section	.bss.rlist,"aw",%nobits
 727              		.align	2
 728              		.set	.LANCHOR0,. + 0
 729              		.type	rlist, %object
 730              		.size	rlist, 28
 731              	rlist:
 732 0000 00000000 		.space	28
 732      00000000 
 732      00000000 
ARM GAS  C:\Users\Rob\AppData\Local\Temp\ccsWif2A.s 			page 14


 732      00000000 
 732      00000000 
 733              		.text
 734              	.Letext0:
 735              		.file 3 "c:/yagarto/lib/gcc/../../arm-none-eabi/sys-include/stdint.h"
 736              		.file 4 "../../os/ports/GCC/ARMCMx/chtypes.h"
 737              		.file 5 "../../os/kernel/include/chlists.h"
 738              		.file 6 "../../os/kernel/include/chthreads.h"
 739              		.file 7 "../../os/ports/GCC/ARMCMx/chcore_v6m.h"
 740              		.file 8 "../../os/kernel/include/chvt.h"
 741              		.file 9 "../../os/kernel/include/chschd.h"
 742              		.file 10 "../../os/kernel/include/chsem.h"
 743              		.file 11 "../../os/kernel/include/chmtx.h"