ARM GAS  C:\Users\Rob\AppData\Local\Temp\ccHLKJQZ.s 			page 1


   1              		.cpu cortex-m0
   2              		.fpu softvfp
   3              		.eabi_attribute 20, 1
   4              		.eabi_attribute 21, 1
   5              		.eabi_attribute 23, 3
   6              		.eabi_attribute 24, 1
   7              		.eabi_attribute 25, 1
   8              		.eabi_attribute 26, 1
   9              		.eabi_attribute 30, 2
  10              		.eabi_attribute 18, 4
  11              		.code	16
  12              		.file	"chsem.c"
  13              		.text
  14              	.Ltext0:
  15              		.cfi_sections	.debug_frame
  16              		.section	.text.chSemInit,"ax",%progbits
  17              		.align	2
  18              		.p2align 4,,15
  19              		.global	chSemInit
  20              		.code	16
  21              		.thumb_func
  22              		.type	chSemInit, %function
  23              	chSemInit:
  24              	.LFB7:
  25              		.file 1 "../../os/kernel/src/chsem.c"
  26              		.loc 1 79 0
  27              		.cfi_startproc
  28              	.LVL0:
  29              		.loc 1 83 0
  30 0000 4060     		str	r0, [r0, #4]
  31 0002 0060     		str	r0, [r0]
  32              		.loc 1 84 0
  33 0004 8160     		str	r1, [r0, #8]
  34              		.loc 1 85 0
  35              		@ sp needed for prologue
  36 0006 7047     		bx	lr
  37              		.cfi_endproc
  38              	.LFE7:
  39              		.size	chSemInit, .-chSemInit
  40 0008 C046C046 		.section	.text.chSemResetI,"ax",%progbits
  40      C046C046 
  41              		.align	2
  42              		.p2align 4,,15
  43              		.global	chSemResetI
  44              		.code	16
  45              		.thumb_func
  46              		.type	chSemResetI, %function
  47              	chSemResetI:
  48              	.LFB9:
  49              		.loc 1 129 0
  50              		.cfi_startproc
  51 0000 70B5     		push	{r4, r5, r6, lr}
  52              	.LCFI0:
  53              		.cfi_def_cfa_offset 16
  54              		.cfi_offset 4, -16
  55              		.cfi_offset 5, -12
  56              		.cfi_offset 6, -8
ARM GAS  C:\Users\Rob\AppData\Local\Temp\ccHLKJQZ.s 			page 2


  57              		.cfi_offset 14, -4
  58              	.LVL1:
  59              		.loc 1 139 0
  60 0002 8568     		ldr	r5, [r0, #8]
  61              	.LVL2:
  62              		.loc 1 129 0
  63 0004 041C     		mov	r4, r0
  64              		.loc 1 141 0
  65 0006 0135     		add	r5, r5, #1
  66              		.loc 1 140 0
  67 0008 8160     		str	r1, [r0, #8]
  68              	.LVL3:
  69              		.loc 1 141 0
  70 000a 002D     		cmp	r5, #0
  71 000c 0BDC     		bgt	.L2
  72              		.loc 1 142 0
  73 000e 0226     		mov	r6, #2
  74 0010 7642     		neg	r6, r6
  75              	.LVL4:
  76              	.L5:
  77              	.LBB20:
  78              	.LBB21:
  79              		.file 2 "../../os/kernel/include/chinline.h"
  80              		.loc 2 60 0
  81 0012 6068     		ldr	r0, [r4, #4]
  82              	.LVL5:
  83              	.LBE21:
  84              	.LBE20:
  85              		.loc 1 141 0
  86 0014 0135     		add	r5, r5, #1
  87              	.LVL6:
  88              	.LBB23:
  89              	.LBB22:
  90              		.loc 2 62 0
  91 0016 4368     		ldr	r3, [r0, #4]
  92 0018 6360     		str	r3, [r4, #4]
  93 001a 1C60     		str	r4, [r3]
  94              	.LBE22:
  95              	.LBE23:
  96              		.loc 1 142 0
  97 001c FFF7FEFF 		bl	chSchReadyI
  98              	.LVL7:
  99 0020 4662     		str	r6, [r0, #36]
 100              	.LVL8:
 101              		.loc 1 141 0
 102 0022 012D     		cmp	r5, #1
 103 0024 F5D1     		bne	.L5
 104              	.LVL9:
 105              	.L2:
 106              		.loc 1 143 0
 107              		@ sp needed for prologue
 108              	.LVL10:
 109              	.LVL11:
 110 0026 70BD     		pop	{r4, r5, r6, pc}
 111              		.cfi_endproc
 112              	.LFE9:
 113              		.size	chSemResetI, .-chSemResetI
ARM GAS  C:\Users\Rob\AppData\Local\Temp\ccHLKJQZ.s 			page 3


 114 0028 C046C046 		.section	.text.chSemReset,"ax",%progbits
 114      C046C046 
 115              		.align	2
 116              		.p2align 4,,15
 117              		.global	chSemReset
 118              		.code	16
 119              		.thumb_func
 120              		.type	chSemReset, %function
 121              	chSemReset:
 122              	.LFB8:
 123              		.loc 1 102 0
 124              		.cfi_startproc
 125 0000 08B5     		push	{r3, lr}
 126              	.LCFI1:
 127              		.cfi_def_cfa_offset 8
 128              		.cfi_offset 3, -8
 129              		.cfi_offset 14, -4
 130              	.LVL12:
 131              		.loc 1 104 0
 132              	@ 104 "../../os/kernel/src/chsem.c" 1
 133 0002 72B6     		cpsid   i
 134              	@ 0 "" 2
 135              		.loc 1 105 0
 136              		.code	16
 137 0004 FFF7FEFF 		bl	chSemResetI
 138              	.LVL13:
 139              		.loc 1 106 0
 140 0008 FFF7FEFF 		bl	chSchRescheduleS
 141              		.loc 1 107 0
 142              	@ 107 "../../os/kernel/src/chsem.c" 1
 143 000c 62B6     		cpsie   i
 144              	@ 0 "" 2
 145              		.loc 1 108 0
 146              		.code	16
 147              		@ sp needed for prologue
 148 000e 08BD     		pop	{r3, pc}
 149              		.cfi_endproc
 150              	.LFE8:
 151              		.size	chSemReset, .-chSemReset
 152              		.section	.text.chSemWaitS,"ax",%progbits
 153              		.align	2
 154              		.p2align 4,,15
 155              		.global	chSemWaitS
 156              		.code	16
 157              		.thumb_func
 158              		.type	chSemWaitS, %function
 159              	chSemWaitS:
 160              	.LFB11:
 161              		.loc 1 178 0
 162              		.cfi_startproc
 163 0000 10B5     		push	{r4, lr}
 164              	.LCFI2:
 165              		.cfi_def_cfa_offset 8
 166              		.cfi_offset 4, -8
 167              		.cfi_offset 14, -4
 168              	.LVL14:
 169              		.loc 1 187 0
ARM GAS  C:\Users\Rob\AppData\Local\Temp\ccHLKJQZ.s 			page 4


 170 0002 8268     		ldr	r2, [r0, #8]
 171              		.loc 1 178 0
 172 0004 031C     		mov	r3, r0
 173              		.loc 1 187 0
 174 0006 013A     		sub	r2, r2, #1
 175 0008 8260     		str	r2, [r0, #8]
 176              		.loc 1 193 0
 177 000a 0020     		mov	r0, #0
 178              	.LVL15:
 179              		.loc 1 187 0
 180 000c 002A     		cmp	r2, #0
 181 000e 00DB     		blt	.L12
 182              	.LVL16:
 183              	.L10:
 184              		.loc 1 194 0
 185              		@ sp needed for prologue
 186 0010 10BD     		pop	{r4, pc}
 187              	.LVL17:
 188              	.L12:
 189              		.loc 1 188 0
 190 0012 074C     		ldr	r4, .L13
 191              		.loc 1 190 0
 192 0014 0320     		mov	r0, #3
 193              		.loc 1 188 0
 194 0016 A269     		ldr	r2, [r4, #24]
 195 0018 5362     		str	r3, [r2, #36]
 196              	.LVL18:
 197              	.LBB24:
 198              	.LBB25:
 199              		.loc 2 48 0
 200 001a 5968     		ldr	r1, [r3, #4]
 201              		.loc 2 47 0
 202 001c 1360     		str	r3, [r2]
 203              		.loc 2 48 0
 204 001e 5160     		str	r1, [r2, #4]
 205              		.loc 2 49 0
 206 0020 5A60     		str	r2, [r3, #4]
 207 0022 0A60     		str	r2, [r1]
 208              	.LBE25:
 209              	.LBE24:
 210              		.loc 1 190 0
 211 0024 FFF7FEFF 		bl	chSchGoSleepS
 212              	.LVL19:
 213              		.loc 1 191 0
 214 0028 A369     		ldr	r3, [r4, #24]
 215 002a 586A     		ldr	r0, [r3, #36]
 216 002c F0E7     		b	.L10
 217              	.L14:
 218 002e C046     		.align	2
 219              	.L13:
 220 0030 00000000 		.word	rlist
 221              		.cfi_endproc
 222              	.LFE11:
 223              		.size	chSemWaitS, .-chSemWaitS
 224 0034 C046C046 		.section	.text.chSemWait,"ax",%progbits
 224      C046C046 
 224      C046C046 
ARM GAS  C:\Users\Rob\AppData\Local\Temp\ccHLKJQZ.s 			page 5


 225              		.align	2
 226              		.p2align 4,,15
 227              		.global	chSemWait
 228              		.code	16
 229              		.thumb_func
 230              		.type	chSemWait, %function
 231              	chSemWait:
 232              	.LFB10:
 233              		.loc 1 157 0
 234              		.cfi_startproc
 235 0000 08B5     		push	{r3, lr}
 236              	.LCFI3:
 237              		.cfi_def_cfa_offset 8
 238              		.cfi_offset 3, -8
 239              		.cfi_offset 14, -4
 240              	.LVL20:
 241              		.loc 1 160 0
 242              	@ 160 "../../os/kernel/src/chsem.c" 1
 243 0002 72B6     		cpsid   i
 244              	@ 0 "" 2
 245              		.loc 1 161 0
 246              		.code	16
 247 0004 FFF7FEFF 		bl	chSemWaitS
 248              	.LVL21:
 249              		.loc 1 162 0
 250              	@ 162 "../../os/kernel/src/chsem.c" 1
 251 0008 62B6     		cpsie   i
 252              	@ 0 "" 2
 253              		.loc 1 164 0
 254              		.code	16
 255              		@ sp needed for prologue
 256 000a 08BD     		pop	{r3, pc}
 257              		.cfi_endproc
 258              	.LFE10:
 259              		.size	chSemWait, .-chSemWait
 260 000c C046C046 		.section	.text.chSemWaitTimeoutS,"ax",%progbits
 261              		.align	2
 262              		.p2align 4,,15
 263              		.global	chSemWaitTimeoutS
 264              		.code	16
 265              		.thumb_func
 266              		.type	chSemWaitTimeoutS, %function
 267              	chSemWaitTimeoutS:
 268              	.LFB13:
 269              		.loc 1 243 0
 270              		.cfi_startproc
 271 0000 10B5     		push	{r4, lr}
 272              	.LCFI4:
 273              		.cfi_def_cfa_offset 8
 274              		.cfi_offset 4, -8
 275              		.cfi_offset 14, -4
 276              	.LVL22:
 277              		.loc 1 252 0
 278 0002 8468     		ldr	r4, [r0, #8]
 279              		.loc 1 243 0
 280 0004 031C     		mov	r3, r0
 281              		.loc 1 252 0
ARM GAS  C:\Users\Rob\AppData\Local\Temp\ccHLKJQZ.s 			page 6


 282 0006 621E     		sub	r2, r4, #1
 283 0008 8260     		str	r2, [r0, #8]
 284              		.loc 1 261 0
 285 000a 0020     		mov	r0, #0
 286              	.LVL23:
 287              		.loc 1 252 0
 288 000c 002A     		cmp	r2, #0
 289 000e 00DB     		blt	.L20
 290              	.LVL24:
 291              	.L17:
 292              		.loc 1 262 0
 293              		@ sp needed for prologue
 294 0010 10BD     		pop	{r4, pc}
 295              	.LVL25:
 296              	.L20:
 297              		.loc 1 253 0
 298 0012 0029     		cmp	r1, #0
 299 0014 0BD0     		beq	.L21
 300              		.loc 1 257 0
 301 0016 084A     		ldr	r2, .L22
 302 0018 9269     		ldr	r2, [r2, #24]
 303 001a 5362     		str	r3, [r2, #36]
 304              	.LVL26:
 305              	.LBB26:
 306              	.LBB27:
 307              		.loc 2 48 0
 308 001c 5868     		ldr	r0, [r3, #4]
 309              		.loc 2 47 0
 310 001e 1360     		str	r3, [r2]
 311              		.loc 2 48 0
 312 0020 5060     		str	r0, [r2, #4]
 313              		.loc 2 49 0
 314 0022 5A60     		str	r2, [r3, #4]
 315 0024 0260     		str	r2, [r0]
 316              	.LBE27:
 317              	.LBE26:
 318              		.loc 1 259 0
 319 0026 0320     		mov	r0, #3
 320 0028 FFF7FEFF 		bl	chSchGoSleepTimeoutS
 321              	.LVL27:
 322 002c F0E7     		b	.L17
 323              	.LVL28:
 324              	.L21:
 325              		.loc 1 255 0
 326 002e 0120     		mov	r0, #1
 327              		.loc 1 254 0
 328 0030 9C60     		str	r4, [r3, #8]
 329              		.loc 1 255 0
 330 0032 4042     		neg	r0, r0
 331 0034 ECE7     		b	.L17
 332              	.L23:
 333 0036 C046     		.align	2
 334              	.L22:
 335 0038 00000000 		.word	rlist
 336              		.cfi_endproc
 337              	.LFE13:
 338              		.size	chSemWaitTimeoutS, .-chSemWaitTimeoutS
ARM GAS  C:\Users\Rob\AppData\Local\Temp\ccHLKJQZ.s 			page 7


 339 003c C046C046 		.section	.text.chSemWaitTimeout,"ax",%progbits
 340              		.align	2
 341              		.p2align 4,,15
 342              		.global	chSemWaitTimeout
 343              		.code	16
 344              		.thumb_func
 345              		.type	chSemWaitTimeout, %function
 346              	chSemWaitTimeout:
 347              	.LFB12:
 348              		.loc 1 215 0
 349              		.cfi_startproc
 350 0000 08B5     		push	{r3, lr}
 351              	.LCFI5:
 352              		.cfi_def_cfa_offset 8
 353              		.cfi_offset 3, -8
 354              		.cfi_offset 14, -4
 355              	.LVL29:
 356              		.loc 1 218 0
 357              	@ 218 "../../os/kernel/src/chsem.c" 1
 358 0002 72B6     		cpsid   i
 359              	@ 0 "" 2
 360              		.loc 1 219 0
 361              		.code	16
 362 0004 FFF7FEFF 		bl	chSemWaitTimeoutS
 363              	.LVL30:
 364              		.loc 1 220 0
 365              	@ 220 "../../os/kernel/src/chsem.c" 1
 366 0008 62B6     		cpsie   i
 367              	@ 0 "" 2
 368              		.loc 1 222 0
 369              		.code	16
 370              		@ sp needed for prologue
 371 000a 08BD     		pop	{r3, pc}
 372              		.cfi_endproc
 373              	.LFE12:
 374              		.size	chSemWaitTimeout, .-chSemWaitTimeout
 375 000c C046C046 		.section	.text.chSemSignal,"ax",%progbits
 376              		.align	2
 377              		.p2align 4,,15
 378              		.global	chSemSignal
 379              		.code	16
 380              		.thumb_func
 381              		.type	chSemSignal, %function
 382              	chSemSignal:
 383              	.LFB14:
 384              		.loc 1 271 0
 385              		.cfi_startproc
 386 0000 08B5     		push	{r3, lr}
 387              	.LCFI6:
 388              		.cfi_def_cfa_offset 8
 389              		.cfi_offset 3, -8
 390              		.cfi_offset 14, -4
 391              	.LVL31:
 392              		.loc 1 279 0
 393              	@ 279 "../../os/kernel/src/chsem.c" 1
 394 0002 72B6     		cpsid   i
 395              	@ 0 "" 2
ARM GAS  C:\Users\Rob\AppData\Local\Temp\ccHLKJQZ.s 			page 8


 396              		.loc 1 280 0
 397              		.code	16
 398 0004 8368     		ldr	r3, [r0, #8]
 399 0006 0133     		add	r3, r3, #1
 400 0008 8360     		str	r3, [r0, #8]
 401 000a 002B     		cmp	r3, #0
 402 000c 01DD     		ble	.L27
 403              	.LVL32:
 404              	.L26:
 405              		.loc 1 282 0
 406              	@ 282 "../../os/kernel/src/chsem.c" 1
 407 000e 62B6     		cpsie   i
 408              	@ 0 "" 2
 409              		.loc 1 283 0
 410              		.code	16
 411              		@ sp needed for prologue
 412 0010 08BD     		pop	{r3, pc}
 413              	.LVL33:
 414              	.L27:
 415              	.LBB28:
 416              	.LBB29:
 417              		.loc 2 53 0
 418 0012 0368     		ldr	r3, [r0]
 419              	.LVL34:
 420              	.LBE29:
 421              	.LBE28:
 422              		.loc 1 281 0
 423 0014 0021     		mov	r1, #0
 424              	.LBB31:
 425              	.LBB30:
 426              		.loc 2 55 0
 427 0016 1A68     		ldr	r2, [r3]
 428 0018 0260     		str	r2, [r0]
 429 001a 5060     		str	r0, [r2, #4]
 430              	.LBE30:
 431              	.LBE31:
 432              		.loc 1 281 0
 433 001c 181C     		mov	r0, r3
 434              	.LVL35:
 435 001e FFF7FEFF 		bl	chSchWakeupS
 436              	.LVL36:
 437 0022 F4E7     		b	.L26
 438              		.cfi_endproc
 439              	.LFE14:
 440              		.size	chSemSignal, .-chSemSignal
 441 0024 C046C046 		.section	.text.chSemSignalI,"ax",%progbits
 441      C046C046 
 441      C046C046 
 442              		.align	2
 443              		.p2align 4,,15
 444              		.global	chSemSignalI
 445              		.code	16
 446              		.thumb_func
 447              		.type	chSemSignalI, %function
 448              	chSemSignalI:
 449              	.LFB15:
 450              		.loc 1 296 0
ARM GAS  C:\Users\Rob\AppData\Local\Temp\ccHLKJQZ.s 			page 9


 451              		.cfi_startproc
 452 0000 08B5     		push	{r3, lr}
 453              	.LCFI7:
 454              		.cfi_def_cfa_offset 8
 455              		.cfi_offset 3, -8
 456              		.cfi_offset 14, -4
 457              	.LVL37:
 458              		.loc 1 305 0
 459 0002 8368     		ldr	r3, [r0, #8]
 460 0004 0133     		add	r3, r3, #1
 461 0006 8360     		str	r3, [r0, #8]
 462 0008 002B     		cmp	r3, #0
 463 000a 00DD     		ble	.L30
 464              	.LVL38:
 465              	.L28:
 466              		.loc 1 312 0
 467              		@ sp needed for prologue
 468 000c 08BD     		pop	{r3, pc}
 469              	.LVL39:
 470              	.L30:
 471              	.LBB32:
 472              	.LBB33:
 473              	.LBB34:
 474              		.loc 2 53 0
 475 000e 0368     		ldr	r3, [r0]
 476              	.LVL40:
 477              		.loc 2 55 0
 478 0010 1A68     		ldr	r2, [r3]
 479 0012 0260     		str	r2, [r0]
 480 0014 5060     		str	r0, [r2, #4]
 481              	.LBE34:
 482              	.LBE33:
 483              		.loc 1 309 0
 484 0016 0022     		mov	r2, #0
 485 0018 5A62     		str	r2, [r3, #36]
 486              		.loc 1 310 0
 487 001a 181C     		mov	r0, r3
 488              	.LVL41:
 489 001c FFF7FEFF 		bl	chSchReadyI
 490              	.LVL42:
 491 0020 F4E7     		b	.L28
 492              	.LBE32:
 493              		.cfi_endproc
 494              	.LFE15:
 495              		.size	chSemSignalI, .-chSemSignalI
 496 0022 C046C046 		.section	.text.chSemAddCounterI,"ax",%progbits
 496      C046C046 
 496      C046C046 
 496      C046
 497              		.align	2
 498              		.p2align 4,,15
 499              		.global	chSemAddCounterI
 500              		.code	16
 501              		.thumb_func
 502              		.type	chSemAddCounterI, %function
 503              	chSemAddCounterI:
 504              	.LFB16:
ARM GAS  C:\Users\Rob\AppData\Local\Temp\ccHLKJQZ.s 			page 10


 505              		.loc 1 327 0
 506              		.cfi_startproc
 507 0000 70B5     		push	{r4, r5, r6, lr}
 508              	.LCFI8:
 509              		.cfi_def_cfa_offset 16
 510              		.cfi_offset 4, -16
 511              		.cfi_offset 5, -12
 512              		.cfi_offset 6, -8
 513              		.cfi_offset 14, -4
 514              	.LVL43:
 515              		.loc 1 327 0
 516 0002 051C     		mov	r5, r0
 517              		.loc 1 336 0
 518 0004 0C1E     		sub	r4, r1, #0
 519 0006 13DD     		ble	.L31
 520              		.loc 1 338 0
 521 0008 0026     		mov	r6, #0
 522 000a 02E0     		b	.L35
 523              	.LVL44:
 524              	.L33:
 525              		.loc 1 339 0
 526 000c 013C     		sub	r4, r4, #1
 527              	.LVL45:
 528              		.loc 1 336 0
 529 000e 002C     		cmp	r4, #0
 530 0010 0ED0     		beq	.L31
 531              	.LVL46:
 532              	.L35:
 533              		.loc 1 337 0
 534 0012 AB68     		ldr	r3, [r5, #8]
 535 0014 0133     		add	r3, r3, #1
 536 0016 AB60     		str	r3, [r5, #8]
 537 0018 002B     		cmp	r3, #0
 538 001a F7DC     		bgt	.L33
 539              	.LVL47:
 540              	.LBB35:
 541              	.LBB36:
 542              		.loc 2 53 0
 543 001c 2868     		ldr	r0, [r5]
 544              	.LVL48:
 545              	.LBE36:
 546              	.LBE35:
 547              		.loc 1 339 0
 548 001e 013C     		sub	r4, r4, #1
 549              	.LBB38:
 550              	.LBB37:
 551              		.loc 2 55 0
 552 0020 0368     		ldr	r3, [r0]
 553 0022 2B60     		str	r3, [r5]
 554 0024 5D60     		str	r5, [r3, #4]
 555              	.LBE37:
 556              	.LBE38:
 557              		.loc 1 338 0
 558 0026 FFF7FEFF 		bl	chSchReadyI
 559              	.LVL49:
 560 002a 4662     		str	r6, [r0, #36]
 561              		.loc 1 336 0
ARM GAS  C:\Users\Rob\AppData\Local\Temp\ccHLKJQZ.s 			page 11


 562 002c 002C     		cmp	r4, #0
 563 002e F0D1     		bne	.L35
 564              	.LVL50:
 565              	.L31:
 566              		.loc 1 341 0
 567              		@ sp needed for prologue
 568              	.LVL51:
 569 0030 70BD     		pop	{r4, r5, r6, pc}
 570              		.cfi_endproc
 571              	.LFE16:
 572              		.size	chSemAddCounterI, .-chSemAddCounterI
 573 0032 C046C046 		.section	.text.chSemSignalWait,"ax",%progbits
 573      C046C046 
 573      C046C046 
 573      C046
 574              		.align	2
 575              		.p2align 4,,15
 576              		.global	chSemSignalWait
 577              		.code	16
 578              		.thumb_func
 579              		.type	chSemSignalWait, %function
 580              	chSemSignalWait:
 581              	.LFB17:
 582              		.loc 1 359 0
 583              		.cfi_startproc
 584 0000 38B5     		push	{r3, r4, r5, lr}
 585              	.LCFI9:
 586              		.cfi_def_cfa_offset 16
 587              		.cfi_offset 3, -16
 588              		.cfi_offset 4, -12
 589              		.cfi_offset 5, -8
 590              		.cfi_offset 14, -4
 591              	.LVL52:
 592              		.loc 1 359 0
 593 0002 0C1C     		mov	r4, r1
 594              		.loc 1 372 0
 595              	@ 372 "../../os/kernel/src/chsem.c" 1
 596 0004 72B6     		cpsid   i
 597              	@ 0 "" 2
 598              		.loc 1 373 0
 599              		.code	16
 600 0006 8368     		ldr	r3, [r0, #8]
 601 0008 0133     		add	r3, r3, #1
 602 000a 8360     		str	r3, [r0, #8]
 603 000c 002B     		cmp	r3, #0
 604 000e 16DD     		ble	.L41
 605              	.LVL53:
 606              	.L38:
 607              		.loc 1 375 0
 608 0010 A368     		ldr	r3, [r4, #8]
 609 0012 013B     		sub	r3, r3, #1
 610 0014 A360     		str	r3, [r4, #8]
 611 0016 002B     		cmp	r3, #0
 612 0018 04DB     		blt	.L42
 613              		.loc 1 383 0
 614 001a FFF7FEFF 		bl	chSchRescheduleS
 615              	.LVL54:
ARM GAS  C:\Users\Rob\AppData\Local\Temp\ccHLKJQZ.s 			page 12


 616              		.loc 1 384 0
 617 001e 0020     		mov	r0, #0
 618              	.LVL55:
 619              	.L40:
 620              		.loc 1 386 0
 621              	@ 386 "../../os/kernel/src/chsem.c" 1
 622 0020 62B6     		cpsie   i
 623              	@ 0 "" 2
 624              		.loc 1 388 0
 625              		.code	16
 626              		@ sp needed for prologue
 627              	.LVL56:
 628 0022 38BD     		pop	{r3, r4, r5, pc}
 629              	.LVL57:
 630              	.L42:
 631              	.LBB39:
 632              		.loc 1 376 0
 633 0024 0B4B     		ldr	r3, .L43
 634              		.loc 1 379 0
 635 0026 0320     		mov	r0, #3
 636              		.loc 1 376 0
 637 0028 9D69     		ldr	r5, [r3, #24]
 638              	.LVL58:
 639              	.LBB40:
 640              	.LBB41:
 641              		.loc 2 48 0
 642 002a 6368     		ldr	r3, [r4, #4]
 643              	.LVL59:
 644              		.loc 2 47 0
 645 002c 2C60     		str	r4, [r5]
 646              		.loc 2 48 0
 647 002e 6B60     		str	r3, [r5, #4]
 648              		.loc 2 49 0
 649 0030 6560     		str	r5, [r4, #4]
 650 0032 1D60     		str	r5, [r3]
 651              	.LBE41:
 652              	.LBE40:
 653              		.loc 1 378 0
 654 0034 6C62     		str	r4, [r5, #36]
 655              		.loc 1 379 0
 656 0036 FFF7FEFF 		bl	chSchGoSleepS
 657              	.LVL60:
 658              		.loc 1 380 0
 659 003a 686A     		ldr	r0, [r5, #36]
 660              	.LVL61:
 661 003c F0E7     		b	.L40
 662              	.LVL62:
 663              	.L41:
 664              	.LBE39:
 665              	.LBB42:
 666              	.LBB43:
 667              		.loc 2 53 0
 668 003e 0368     		ldr	r3, [r0]
 669              	.LVL63:
 670              		.loc 2 55 0
 671 0040 1A68     		ldr	r2, [r3]
 672 0042 0260     		str	r2, [r0]
ARM GAS  C:\Users\Rob\AppData\Local\Temp\ccHLKJQZ.s 			page 13


 673 0044 5060     		str	r0, [r2, #4]
 674              	.LBE43:
 675              	.LBE42:
 676              		.loc 1 374 0
 677 0046 181C     		mov	r0, r3
 678              	.LVL64:
 679 0048 FFF7FEFF 		bl	chSchReadyI
 680              	.LVL65:
 681 004c 0023     		mov	r3, #0
 682 004e 4362     		str	r3, [r0, #36]
 683 0050 DEE7     		b	.L38
 684              	.L44:
 685 0052 C046     		.align	2
 686              	.L43:
 687 0054 00000000 		.word	rlist
 688              		.cfi_endproc
 689              	.LFE17:
 690              		.size	chSemSignalWait, .-chSemSignalWait
 691 0058 C046C046 		.text
 691      C046C046 
 692              	.Letext0:
 693              		.file 3 "c:/yagarto/lib/gcc/../../arm-none-eabi/sys-include/stdint.h"
 694              		.file 4 "../../os/ports/GCC/ARMCMx/chtypes.h"
 695              		.file 5 "../../os/kernel/include/chlists.h"
 696              		.file 6 "../../os/kernel/include/chthreads.h"
 697              		.file 7 "../../os/ports/GCC/ARMCMx/chcore_v6m.h"
 698              		.file 8 "../../os/kernel/include/chschd.h"
 699              		.file 9 "../../os/kernel/include/chsem.h"
 700              		.file 10 "../../os/kernel/include/chmtx.h"