ARM GAS  C:\Users\Rob\AppData\Local\Temp\ccHLKJQZ.s 			page 1


   1              		.cpu cortex-m0
   2              		.fpu softvfp
   3              		.eabi_attribute 20, 1
   4              		.eabi_attribute 21, 1
   5              		.eabi_attribute 23, 3
   6              		.eabi_attribute 24, 1
   7              		.eabi_attribute 25, 1
   8              		.eabi_attribute 26, 1
   9              		.eabi_attribute 30, 2
  10              		.eabi_attribute 18, 4
  11              		.code	16
  12              		.file	"chsem.c"
  13              		.text
  14              	.Ltext0:
  15              		.cfi_sections	.debug_frame
  16              		.section	.text.chSemInit,"ax",%progbits
  17              		.align	2
  18              		.p2align 4,,15
  19              		.global	chSemInit
  20              		.code	16
  21              		.thumb_func
  22              		.type	chSemInit, %function
  23              	chSemInit:
  24              	.LFB7:
  25              		.file 1 "../../os/kernel/src/chsem.c"
  26              		.loc 1 79 0
  27              		.cfi_startproc
  28              	.LVL0:
  29              		.loc 1 83 0
  30 0000 4060     		str	r0, [r0, #4]
  31 0002 0060     		str	r0, [r0]
  32              		.loc 1 84 0
  33 0004 8160     		str	r1, [r0, #8]
  34              		.loc 1 85 0
  35              		@ sp needed for prologue
  36 0006 7047     		bx	lr
  37              		.cfi_endproc
  38              	.LFE7:
  39              		.size	chSemInit, .-chSemInit
  40 0008 C046C046 		.section	.text.chSemResetI,"ax",%progbits
  40      C046C046 
  41              		.align	2
  42              		.p2align 4,,15
  43              		.global	chSemResetI
  44              		.code	16
  45              		.thumb_func
  46              		.type	chSemResetI, %function
  47              	chSemResetI:
  48              	.LFB9:
  49              		.loc 1 129 0
  50              		.cfi_startproc
  51 0000 70B5     		push	{r4, r5, r6, lr}
  52              	.LCFI0:
  53              		.cfi_def_cfa_offset 16
  54              		.cfi_offset 4, -16
  55              		.cfi_offset 5, -12
  56              		.cfi_offset 6, -8
ARM GAS  C:\Users\Rob\AppData\Local\Temp\ccHLKJQZ.s 			page 2


  57              		.cfi_offset 14, -4
  58              	.LVL1:
  59              		.loc 1 139 0
  60 0002 8568     		ldr	r5, [r0, #8]
  61              	.LVL2:
  62              		.loc 1 129 0
  63 0004 041C     		mov	r4, r0
  64              		.loc 1 141 0
  65 0006 0135     		add	r5, r5, #1
  66              		.loc 1 140 0
  67 0008 8160     		str	r1, [r0, #8]
  68              	.LVL3:
  69              		.loc 1 141 0
  70 000a 002D     		cmp	r5, #0
  71 000c 0BDC     		bgt	.L2
  72              		.loc 1 142 0
  73 000e 0226     		mov	r6, #2
  74 0010 7642     		neg	r6, r6
  75              	.LVL4:
  76              	.L5:
  77              	.LBB20:
  78              	.LBB21:
  79              		.file 2 "../../os/kernel/include/chinline.h"
  80              		.loc 2 60 0
  81 0012 6068     		ldr	r0, [r4, #4]
  82              	.LVL5:
  83              	.LBE21:
  84              	.LBE20:
  85              		.loc 1 141 0
  86 0014 0135     		add	r5, r5, #1
  87              	.LVL6:
  88              	.LBB23:
  89              	.LBB22:
  90              		.loc 2 62 0
  91 0016 4368     		ldr	r3, [r0, #4]
  92 0018 6360     		str	r3, [r4, #4]
  93 001a 1C60     		str	r4, [r3]
  94              	.LBE22:
  95              	.LBE23:
  96              		.loc 1 142 0
  97 001c FFF7FEFF 		bl	chSchReadyI
  98              	.LVL7:
  99 0020 4662     		str	r6, [r0, #36]
 100              	.LVL8:
 101              		.loc 1 141 0
 102 0022 012D     		cmp	r5, #1
 103 0024 F5D1     		bne	.L5
 104              	.LVL9:
 105              	.L2:
 106              		.loc 1 143 0
 107              		@ sp needed for prologue
 108              	.LVL10:
 109              	.LVL11:
 110 0026 70BD     		pop	{r4, r5, r6, pc}
 111              		.cfi_endproc
 112              	.LFE9:
 113              		.size	chSemResetI, .-chSemResetI
ARM GAS  C:\Users\Rob\AppData\Local\Temp\ccHLKJQZ.s 			page 3


 114 0028 C046C046 		.section	.text.chSemReset,"ax",%progbits
 114      C046C046 
 115              		.align	2
 116              		.p2align 4,,15
 117              		.global	chSemReset
 118              		.code	16
 119              		.thumb_func
 120              		.type	chSemReset, %function
 121              	chSemReset:
 122              	.LFB8:
 123              		.loc 1 102 0
 124              		.cfi_startproc
 125 0000 08B5     		push	{r3, lr}
 126              	.LCFI1:
 127              		.cfi_def_cfa_offset 8
 128              		.cfi_offset 3, -8
 129              		.cfi_offset 14, -4
 130              	.LVL12:
 131              		.loc 1 104 0
 132              	@ 104 "../../os/kernel/src/chsem.c" 1
 133 0002 72B6     		cpsid   i
 134              	@ 0 "" 2
 135              		.loc 1 105 0
 136              		.code	16
 137 0004 FFF7FEFF 		bl	chSemResetI
 138              	.LVL13:
 139              		.loc 1 106 0
 140 0008 FFF7FEFF 		bl	chSchRescheduleS
 141              		.loc 1 107 0
 142              	@ 107 "../../os/kernel/src/chsem.c" 1
 143 000c 62B6     		cpsie   i
 144              	@ 0 "" 2
 145              		.loc 1 108 0
 146              		.code	16
 147              		@ sp needed for prologue
 148 000e 08BD     		pop	{r3, pc}
 149              		.cfi_endproc
 150              	.LFE8:
 151              		.size	chSemReset, .-chSemReset
 152              		.section	.text.chSemWaitS,"ax",%progbits
 153              		.align	2
 154              		.p2align 4,,15
 155              		.global	chSemWaitS
 156              		.code	16
 157              		.thumb_func
 158              		.type	chSemWaitS, %function
 159              	chSemWaitS:
 160              	.LFB11:
 161              		.loc 1 178 0
 162              		.cfi_startproc
 163 0000 10B5     		push	{r4, lr}
 164              	.LCFI2:
 165              		.cfi_def_cfa_offset 8
 166              		.cfi_offset 4, -8
 167              		.cfi_offset 14, -4
 168              	.LVL14:
 169              		.loc 1 187 0
ARM GAS  C:\Users\Rob\AppData\Local\Temp\ccHLKJQZ.s 			page 4


 170 0002 8268     		ldr	r2, [r0, #8]
 171              		.loc 1 178 0
 172 0004 031C     		mov	r3, r0
 173              		.loc 1 187 0
 174 0006 013A     		sub	r2, r2, #1
 175 0008 8260     		str	r2, [r0, #8]
 176              		.loc 1 193 0
 177 000a 0020     		mov	r0, #0
 178              	.LVL15:
 179              		.loc 1 187 0
 180 000c 002A     		cmp	r2, #0
 181 000e 00DB     		blt	.L12
 182              	.LVL16:
 183              	.L10:
 184              		.loc 1 194 0
 185              		@ sp needed for prologue
 186 0010 10BD     		pop	{r4, pc}
 187              	.LVL17:
 188              	.L12:
 189              		.loc 1 188 0
 190 0012 074C     		ldr	r4, .L13
 191              		.loc 1 190 0
 192 0014 0320     		mov	r0, #3
 193              		.loc 1 188 0
 194 0016 A269     		ldr	r2, [r4, #24]
 195 0018 5362     		str	r3, [r2, #36]
 196              	.LVL18:
 197              	.LBB24:
 198              	.LBB25:
 199              		.loc 2 48 0
 200 001a 5968     		ldr	r1, [r3, #4]
 201              		.loc 2 47 0
 202 001c 1360     		str	r3, [r2]
 203              		.loc 2 48 0
 204 001e 5160     		str	r1, [r2, #4]
 205              		.loc 2 49 0
 206 0020 5A60     		str	r2, [r3, #4]
 207 0022 0A60     		str	r2, [r1]
 208              	.LBE25:
 209              	.LBE24:
 210              		.loc 1 190 0
 211 0024 FFF7FEFF 		bl	chSchGoSleepS
 212              	.LVL19:
 213              		.loc 1 191 0
 214 0028 A369     		ldr	r3, [r4, #24]
 215 002a 586A     		ldr	r0, [r3, #36]
 216 002c F0E7     		b	.L10
 217              	.L14:
 218 002e C046     		.align	2
 219              	.L13:
 220 0030 00000000 		.word	rlist
 221              		.cfi_endproc
 222              	.LFE11:
 223              		.size	chSemWaitS, .-chSemWaitS
 224 0034 C046C046 		.section	.text.chSemWait,"ax",%progbits
 224      C046C046 
 224      C046C046 
ARM GAS  C:\Users\Rob\AppData\Local\Temp\ccHLKJQZ.s 			page 5


 225              		.align	2
 226              		.p2align 4,,15
 227              		.global	chSemWait
 228              		.code	16
 229              		.thumb_func
 230              		.type	chSemWait, %function
 231              	chSemWait:
 232              	.LFB10:
 233              		.loc 1 157 0
 234              		.cfi_startproc
 235 0000 08B5     		push	{r3, lr}
 236              	.LCFI3:
 237              		.cfi_def_cfa_offset 8
 238              		.cfi_offset 3, -8
 239              		.cfi_offset 14, -4
 240              	.LVL20:
 241              		.loc 1 160 0
 242              	@ 160 "../../os/kernel/src/chsem.c" 1
 243 0002 72B6     		cpsid   i
 244              	@ 0 "" 2
 245              		.loc 1 161 0
 246              		.code	16
 247 0004 FFF7FEFF 		bl	chSemWaitS
 248              	.LVL21:
 249              		.loc 1 162 0
 250              	@ 162 "../../os/kernel/src/chsem.c" 1
 251 0008 62B6     		cpsie   i
 252              	@ 0 "" 2
 253              		.loc 1 164 0
 254              		.code	16
 255              		@ sp needed for prologue
 256 000a 08BD     		pop	{r3, pc}
 257              		.cfi_endproc
 258              	.LFE10:
 259              		.size	chSemWait, .-chSemWait
 260 000c C046C046 		.section	.text.chSemWaitTimeoutS,"ax",%progbits
 261              		.align	2
 262              		.p2align 4,,15
 263              		.global	chSemWaitTimeoutS
 264              		.code	16
 265              		.thumb_func
 266              		.type	chSemWaitTimeoutS, %function
 267              	chSemWaitTimeoutS:
 268              	.LFB13:
 269              		.loc 1 243 0
 270              		.cfi_startproc
 271 0000 10B5     		push	{r4, lr}
 272              	.LCFI4:
 273              		.cfi_def_cfa_offset 8
 274              		.cfi_offset 4, -8
 275              		.cfi_offset 14, -4
 276              	.LVL22:
 277              		.loc 1 252 0
 278 0002 8468     		ldr	r4, [r0, #8]
 279              		.loc 1 243 0
 280 0004 031C     		mov	r3, r0
 281              		.loc 1 252 0
ARM GAS  C:\Users\Rob\AppData\Local\Temp\ccHLKJQZ.s 			page 6


 282 0006 621E     		sub	r2, r4, #1
 283 0008 8260     		str	r2, [r0, #8]
 284              		.loc 1 261 0
 285 000a 0020     		mov	r0, #0
 286              	.LVL23:
 287              		.loc 1 252 0
 288 000c 002A     		cmp	r2, #0
 289 000e 00DB     		blt	.L20
 290              	.LVL24:
 291              	.L17:
 292              		.loc 1 262 0
 293              		@ sp needed for prologue
 294 0010 10BD     		pop	{r4, pc}
 295              	.LVL25:
 296              	.L20:
 297              		.loc 1 253 0
 298 0012 0029     		cmp	r1, #0
 299 0014 0BD0     		beq	.L21
 300              		.loc 1 257 0
 301 0016 084A     		ldr	r2, .L22
 302 0018 9269     		ldr	r2, [r2, #24]
 303 001a 5362     		str	r3, [r2, #36]
 304              	.LVL26:
 305              	.LBB26:
 306              	.LBB27:
 307              		.loc 2 48 0
 308 001c 5868     		ldr	r0, [r3, #4]
 309              		.loc 2 47 0
 310 001e 1360     		str	r3, [r2]
 311              		.loc 2 48 0
 312 0020 5060     		str	r0, [r2, #4]
 313              		.loc 2 49 0
 314 0022 5A60     		str	r2, [r3, #4]
 315 0024 0260     		str	r2, [r0]
 316              	.LBE27:
 317              	.LBE26:
 318              		.loc 1 259 0
 319 0026 0320     		mov	r0, #3
 320 0028 FFF7FEFF 		bl	chSchGoSleepTimeoutS
 321              	.LVL27:
 322 002c F0E7     		b	.L17
 323              	.LVL28:
 324              	.L21:
 325              		.loc 1 255 0
 326 002e 0120     		mov	r0, #1
 327              		.loc 1 254 0
 328 0030 9C60     		str	r4, [r3, #8]
 329              		.loc 1 255 0
 330 0032 4042     		neg	r0, r0
 331 0034 ECE7     		b	.L17
 332              	.L23:
 333 0036 C046     		.align	2
 334              	.L22:
 335 0038 00000000 		.word	rlist
 336              		.cfi_endproc
 337              	.LFE13:
 338              		.size	chSemWaitTimeoutS, .-chSemWaitTimeoutS
ARM GAS  C:\Users\Rob\AppData\Local\Temp\ccHLKJQZ.s 			page 7


 339 003c C046C046 		.section	.text.chSemWaitTimeout,"ax",%progbits
 340              		.align	2
 341              		.p2align 4,,15
 342              		.global	chSemWaitTimeout
 343              		.code	16
 344              		.thumb_func
 345              		.type	chSemWaitTimeout, %function
 346              	chSemWaitTimeout:
 347              	.LFB12:
 348              		.loc 1 215 0
 349              		.cfi_startproc
 350 0000 08B5     		push	{r3, lr}
 351              	.LCFI5:
 352              		.cfi_def_cfa_offset 8
 353              		.cfi_offset 3, -8
 354              		.cfi_offset 14, -4
 355              	.LVL29:
 356              		.loc 1 218 0
 357              	@ 218 "../../os/kernel/src/chsem.c" 1
 358 0002 72B6     		cpsid   i
 359              	@ 0 "" 2
 360              		.loc 1 219 0
 361              		.code	16
 362 0004 FFF7FEFF 		bl	chSemWaitTimeoutS
 363              	.LVL30:
 364              		.loc 1 220 0
 365              	@ 220 "../../os/kernel/src/chsem.c" 1
 366 0008 62B6     		cpsie   i
 367              	@ 0 "" 2
 368              		.loc 1 222 0
 369              		.code	16
 370              		@ sp needed for prologue
 371 000a 08BD     		pop	{r3, pc}
 372              		.cfi_endproc
 373              	.LFE12:
 374              		.size	chSemWaitTimeout, .-chSemWaitTimeout
 375 000c C046C046 		.section	.text.chSemSignal,"ax",%progbits
 376              		.align	2
 377              		.p2align 4,,15
 378              		.global	chSemSignal
 379              		.code	16
 380              		.thumb_func
 381              		.type	chSemSignal, %function
 382              	chSemSignal:
 383              	.LFB14:
 384              		.loc 1 271 0
 385              		.cfi_startproc
 386 0000 08B5     		push	{r3, lr}
 387              	.LCFI6:
 388              		.cfi_def_cfa_offset 8
 389              		.cfi_offset 3, -8
 390              		.cfi_offset 14, -4
 391              	.LVL31:
 392              		.loc 1 279 0
 393              	@ 279 "../../os/kernel/src/chsem.c" 1
 394 0002 72B6     		cpsid   i
 395              	@ 0 "" 2
ARM GAS  C:\Users\Rob\AppData\Local\Temp\ccHLKJQZ.s 			page 8


 396              		.loc 1 280 0
 397              		.code	16
 398 0004 8368     		ldr	r3, [r0, #8]
 399 0006 0133     		add	r3, r3, #1
 400 0008 8360     		str	r3, [r0, #8]
 401 000a 002B     		cmp	r3, #0
 402 000c 01DD     		ble	.L27
 403              	.LVL32:
 404              	.L26:
 405              		.loc 1 282 0
 406              	@ 282 "../../os/kernel/src/chsem.c" 1
 407 000e 62B6     		cpsie   i
 408              	@ 0 "" 2
 409              		.loc 1 283 0
 410              		.code	16
 411              		@ sp needed for prologue
 412 0010 08BD     		pop	{r3, pc}
 413              	.LVL33:
 414              	.L27:
 415              	.LBB28:
 416              	.LBB29:
 417              		.loc 2 53 0
 418 0012 0368     		ldr	r3, [r0]
 419              	.LVL34:
 420              	.LBE29:
 421              	.LBE28:
 422              		.loc 1 281 0
 423 0014 0021     		mov	r1, #0
 424              	.LBB31:
 425              	.LBB30:
 426              		.loc 2 55 0
 427 0016 1A68     		ldr	r2, [r3]
 428 0018 0260     		str	r2, [r0]
 429 001a 5060     		str	r0, [r2, #4]
 430              	.LBE30:
 431              	.LBE31:
 432              		.loc 1 281 0
 433 001c 181C     		mov	r0, r3
 434              	.LVL35:
 435 001e FFF7FEFF 		bl	chSchWakeupS
 436              	.LVL36:
 437 0022 F4E7     		b	.L26
 438              		.cfi_endproc
 439              	.LFE14:
 440              		.size	chSemSignal, .-chSemSignal
 441 0024 C046C046 		.section	.text.chSemSignalI,"ax",%progbits
 441      C046C046 
 441      C046C046 
 442              		.align	2
 443              		.p2align 4,,15
 444              		.global	chSemSignalI
 445              		.code	16
 446              		.thumb_func
 447              		.type	chSemSignalI, %function
 448              	chSemSignalI:
 449              	.LFB15:
 450              		.loc 1 296 0
ARM GAS  C:\Users\Rob\AppData\Local\Temp\ccHLKJQZ.s 			page 9


 451              		.cfi_startproc
 452 0000 08B5     		push	{r3, lr}
 453              	.LCFI7:
 454              		.cfi_def_cfa_offset 8
 455              		.cfi_offset 3, -8
 456              		.cfi_offset 14, -4
 457              	.LVL37:
 458              		.loc 1 305 0
 459 0002 8368     		ldr	r3, [r0, #8]
 460 0004 0133     		add	r3, r3, #1
 461 0006 8360     		str	r3, [r0, #8]
 462 0008 002B     		cmp	r3, #0
 463 000a 00DD     		ble	.L30
 464              	.LVL38:
 465              	.L28:
 466              		.loc 1 312 0
 467              		@ sp needed for prologue
 468 000c 08BD     		pop	{r3, pc}
 469              	.LVL39:
 470              	.L30:
 471              	.LBB32:
 472              	.LBB33:
 473              	.LBB34:
 474              		.loc 2 53 0
 475 000e 0368     		ldr	r3, [r0]
 476              	.LVL40:
 477              		.loc 2 55 0
 478 0010 1A68     		ldr	r2, [r3]
 479 0012 0260     		str	r2, [r0]
 480 0014 5060     		str	r0, [r2, #4]
 481              	.LBE34:
 482              	.LBE33:
 483              		.loc 1 309 0
 484 0016 0022     		mov	r2, #0
 485 0018 5A62     		str	r2, [r3, #36]
 486              		.loc 1 310 0
 487 001a 181C     		mov	r0, r3
 488              	.LVL41:
 489 001c FFF7FEFF 		bl	chSchReadyI
 490              	.LVL42:
 491 0020 F4E7     		b	.L28
 492              	.LBE32:
 493              		.cfi_endproc
 494              	.LFE15:
 495              		.size	chSemSignalI, .-chSemSignalI
 496 0022 C046C046 		.section	.text.chSemAddCounterI,"ax",%progbits
 496      C046C046 
 496      C046C046 
 496      C046
 497              		.align	2
 498              		.p2align 4,,15
 499              		.global	chSemAddCounterI
 500              		.code	16
 501              		.thumb_func
 502              		.type	chSemAddCounterI, %function
 503              	chSemAddCounterI:
 504              	.LFB16:
ARM GAS  C:\Users\Rob\AppData\Local\Temp\ccHLKJQZ.s 			page 10


 505              		.loc 1 327 0
 506              		.cfi_startproc
 507 0000 70B5     		push	{r4, r5, r6, lr}
 508              	.LCFI8:
 509              		.cfi_def_cfa_offset 16
 510              		.cfi_offset 4, -16
 511              		.cfi_offset 5, -12
 512              		.cfi_offset 6, -8
 513              		.cfi_offset 14, -4
 514              	.LVL43:
 515              		.loc 1 327 0
 516 0002 051C     		mov	r5, r0
 517              		.loc 1 336 0
 518 0004 0C1E     		sub	r4, r1, #0
 519 0006 13DD     		ble	.L31
 520              		.loc 1 338 0
 521 0008 0026     		mov	r6, #0
 522 000a 02E0     		b	.L35
 523              	.LVL44:
 524              	.L33:
 525              		.loc 1 339 0
 526 000c 013C     		sub	r4, r4, #1
 527              	.LVL45:
 528              		.loc 1 336 0
 529 000e 002C     		cmp	r4, #0
 530 0010 0ED0     		beq	.L31
 531              	.LVL46:
 532              	.L35:
 533              		.loc 1 337 0
 534 0012 AB68     		ldr	r3, [r5, #8]
 535 0014 0133     		add	r3, r3, #1
 536 0016 AB60     		str	r3, [r5, #8]
 537 0018 002B     		cmp	r3, #0
 538 001a F7DC     		bgt	.L33
 539              	.LVL47:
 540              	.LBB35:
 541              	.LBB36:
 542              		.loc 2 53 0
 543 001c 2868     		ldr	r0, [r5]
 544              	.LVL48:
 545              	.LBE36:
 546              	.LBE35:
 547              		.loc 1 339 0
 548 001e 013C     		sub	r4, r4, #1
 549              	.LBB38:
 550              	.LBB37:
 551              		.loc 2 55 0
 552 0020 0368     		ldr	r3, [r0]
 553 0022 2B60     		str	r3, [r5]
 554 0024 5D60     		str	r5, [r3, #4]
 555              	.LBE37:
 556              	.LBE38:
 557              		.loc 1 338 0
 558 0026 FFF7FEFF 		bl	chSchReadyI
 559              	.LVL49:
 560 002a 4662     		str	r6, [r0, #36]
 561              		.loc 1 336 0
ARM GAS  C:\Users\Rob\AppData\Local\Temp\ccHLKJQZ.s 			page 11


 562 002c 002C     		cmp	r4, #0
 563 002e F0D1     		bne	.L35
 564              	.LVL50:
 565              	.L31:
 566              		.loc 1 341 0
 567              		@ sp needed for prologue
 568              	.LVL51:
 569 0030 70BD     		pop	{r4, r5, r6, pc}
 570              		.cfi_endproc
 571              	.LFE16:
 572              		.size	chSemAddCounterI, .-chSemAddCounterI
 573 0032 C046C046 		.section	.text.chSemSignalWait,"ax",%progbits
 573      C046C046 
 573      C046C046 
 573      C046
 574              		.align	2
 575              		.p2align 4,,15
 576              		.global	chSemSignalWait
 577              		.code	16
 578              		.thumb_func
 579              		.type	chSemSignalWait, %function
 580              	chSemSignalWait:
 581              	.LFB17:
 582              		.loc 1 359 0
 583              		.cfi_startproc
 584 0000 38B5     		push	{r3, r4, r5, lr}
 585              	.LCFI9:
 586              		.cfi_def_cfa_offset 16
 587              		.cfi_offset 3, -16
 588              		.cfi_offset 4, -12
 589              		.cfi_offset 5, -8
 590              		.cfi_offset 14, -4
 591              	.LVL52:
 592              		.loc 1 359 0
 593 0002 0C1C     		mov	r4, r1
 594              		.loc 1 372 0
 595              	@ 372 "../../os/kernel/src/chsem.c" 1
 596 0004 72B6     		cpsid   i
 597              	@ 0 "" 2
 598              		.loc 1 373 0
 599              		.code	16
 600 0006 8368     		ldr	r3, [r0, #8]
 601 0008 0133     		add	r3, r3, #1
 602 000a 8360     		str	r3, [r0, #8]
 603 000c 002B     		cmp	r3, #0
 604 000e 16DD     		ble	.L41
 605              	.LVL53:
 606              	.L38:
 607              		.loc 1 375 0
 608 0010 A368     		ldr	r3, [r4, #8]
 609 0012 013B     		sub	r3, r3, #1
 610 0014 A360     		str	r3, [r4, #8]
 611 0016 002B     		cmp	r3, #0
 612 0018 04DB     		blt	.L42
 613              		.loc 1 383 0
 614 001a FFF7FEFF 		bl	chSchRescheduleS
 615              	.LVL54:
ARM GAS  C:\Users\Rob\AppData\Local\Temp\ccHLKJQZ.s 			page 12


 616              		.loc 1 384 0
 617 001e 0020     		mov	r0, #0
 618              	.LVL55:
 619              	.L40:
 620              		.loc 1 386 0
 621              	@ 386 "../../os/kernel/src/chsem.c" 1
 622 0020 62B6     		cpsie   i
 623              	@ 0 "" 2
 624              		.loc 1 388 0
 625              		.code	16
 626              		@ sp needed for prologue
 627              	.LVL56:
 628 0022 38BD     		pop	{r3, r4, r5, pc}
 629              	.LVL57:
 630              	.L42:
 631              	.LBB39:
 632              		.loc 1 376 0
 633 0024 0B4B     		ldr	r3, .L43
 634              		.loc 1 379 0
 635 0026 0320     		mov	r0, #3
 636              		.loc 1 376 0
 637 0028 9D69     		ldr	r5, [r3, #24]
 638              	.LVL58:
 639              	.LBB40:
 640              	.LBB41:
 641              		.loc 2 48 0
 642 002a 6368     		ldr	r3, [r4, #4]
 643              	.LVL59:
 644              		.loc 2 47 0
 645 002c 2C60     		str	r4, [r5]
 646              		.loc 2 48 0
 647 002e 6B60     		str	r3, [r5, #4]
 648              		.loc 2 49 0
 649 0030 6560     		str	r5, [r4, #4]
 650 0032 1D60     		str	r5, [r3]
 651              	.LBE41:
 652              	.LBE40:
 653              		.loc 1 378 0
 654 0034 6C62     		str	r4, [r5, #36]
 655              		.loc 1 379 0
 656 0036 FFF7FEFF 		bl	chSchGoSleepS
 657              	.LVL60:
 658              		.loc 1 380 0
 659 003a 686A     		ldr	r0, [r5, #36]
 660              	.LVL61:
 661 003c F0E7     		b	.L40
 662              	.LVL62:
 663              	.L41:
 664              	.LBE39:
 665              	.LBB42:
 666              	.LBB43:
 667              		.loc 2 53 0
 668 003e 0368     		ldr	r3, [r0]
 669              	.LVL63:
 670              		.loc 2 55 0
 671 0040 1A68     		ldr	r2, [r3]
 672 0042 0260     		str	r2, [r0]
ARM GAS  C:\Users\Rob\AppData\Local\Temp\ccHLKJQZ.s 			page 13


 673 0044 5060     		str	r0, [r2, #4]
 674              	.LBE43:
 675              	.LBE42:
 676              		.loc 1 374 0
 677 0046 181C     		mov	r0, r3
 678              	.LVL64:
 679 0048 FFF7FEFF 		bl	chSchReadyI
 680              	.LVL65:
 681 004c 0023     		mov	r3, #0
 682 004e 4362     		str	r3, [r0, #36]
 683 0050 DEE7     		b	.L38
 684              	.L44:
 685 0052 C046     		.align	2
 686              	.L43:
 687 0054 00000000 		.word	rlist
 688              		.cfi_endproc
 689              	.LFE17:
 690              		.size	chSemSignalWait, .-chSemSignalWait
 691 0058 C046C046 		.text
 691      C046C046 
 692              	.Letext0:
 693              		.file 3 "c:/yagarto/lib/gcc/../../arm-none-eabi/sys-include/stdint.h"
 694              		.file 4 "../../os/ports/GCC/ARMCMx/chtypes.h"
 695              		.file 5 "../../os/kernel/include/chlists.h"
 696              		.file 6 "../../os/kernel/include/chthreads.h"
 697              		.file 7 "../../os/ports/GCC/ARMCMx/chcore_v6m.h"
 698              		.file 8 "../../os/kernel/include/chschd.h"
 699              		.file 9 "../../os/kernel/include/chsem.h"
 700              		.file 10 "../../os/kernel/include/chmtx.h"
 701              		.section	.debug_info,"",%progbits
 702              	.Ldebug_info0:
 703 0000 D7080000 		.4byte	0x8d7
 704 0004 0200     		.2byte	0x2
 705 0006 00000000 		.4byte	.Ldebug_abbrev0
 706 000a 04       		.byte	0x4
 707 000b 01       		.uleb128 0x1
 708 000c 95020000 		.4byte	.LASF81
 709 0010 01       		.byte	0x1
 710 0011 D6000000 		.4byte	.LASF82
 711 0015 5F000000 		.4byte	.LASF83
 712 0019 00000000 		.4byte	0
 713 001d 00000000 		.4byte	0
 714 0021 90000000 		.4byte	.Ldebug_ranges0+0x90
 715 0025 00000000 		.4byte	.Ldebug_line0
 716 0029 02       		.uleb128 0x2
 717 002a 04       		.byte	0x4
 718 002b 05       		.byte	0x5
 719 002c 696E7400 		.ascii	"int\000"
 720 0030 03       		.uleb128 0x3
 721 0031 04       		.byte	0x4
 722 0032 07       		.byte	0x7
 723 0033 37010000 		.4byte	.LASF0
 724 0037 03       		.uleb128 0x3
 725 0038 01       		.byte	0x1
 726 0039 06       		.byte	0x6
 727 003a A0000000 		.4byte	.LASF1
 728 003e 04       		.uleb128 0x4
ARM GAS  C:\Users\Rob\AppData\Local\Temp\ccHLKJQZ.s 			page 14


 729 003f 3C030000 		.4byte	.LASF5
 730 0043 03       		.byte	0x3
 731 0044 2A       		.byte	0x2a
 732 0045 49000000 		.4byte	0x49
 733 0049 03       		.uleb128 0x3
 734 004a 01       		.byte	0x1
 735 004b 08       		.byte	0x8
 736 004c 16020000 		.4byte	.LASF2
 737 0050 03       		.uleb128 0x3
 738 0051 02       		.byte	0x2
 739 0052 05       		.byte	0x5
 740 0053 2E020000 		.4byte	.LASF3
 741 0057 03       		.uleb128 0x3
 742 0058 02       		.byte	0x2
 743 0059 07       		.byte	0x7
 744 005a 75010000 		.4byte	.LASF4
 745 005e 04       		.uleb128 0x4
 746 005f 0E020000 		.4byte	.LASF6
 747 0063 03       		.byte	0x3
 748 0064 4F       		.byte	0x4f
 749 0065 69000000 		.4byte	0x69
 750 0069 03       		.uleb128 0x3
 751 006a 04       		.byte	0x4
 752 006b 05       		.byte	0x5
 753 006c F2000000 		.4byte	.LASF7
 754 0070 04       		.uleb128 0x4
 755 0071 84020000 		.4byte	.LASF8
 756 0075 03       		.byte	0x3
 757 0076 50       		.byte	0x50
 758 0077 7B000000 		.4byte	0x7b
 759 007b 03       		.uleb128 0x3
 760 007c 04       		.byte	0x4
 761 007d 07       		.byte	0x7
 762 007e 55010000 		.4byte	.LASF9
 763 0082 03       		.uleb128 0x3
 764 0083 08       		.byte	0x8
 765 0084 05       		.byte	0x5
 766 0085 92000000 		.4byte	.LASF10
 767 0089 03       		.uleb128 0x3
 768 008a 08       		.byte	0x8
 769 008b 07       		.byte	0x7
 770 008c 27000000 		.4byte	.LASF11
 771 0090 03       		.uleb128 0x3
 772 0091 01       		.byte	0x1
 773 0092 02       		.byte	0x2
 774 0093 08020000 		.4byte	.LASF12
 775 0097 04       		.uleb128 0x4
 776 0098 99010000 		.4byte	.LASF13
 777 009c 04       		.byte	0x4
 778 009d 25       		.byte	0x25
 779 009e 3E000000 		.4byte	0x3e
 780 00a2 04       		.uleb128 0x4
 781 00a3 FB000000 		.4byte	.LASF14
 782 00a7 04       		.byte	0x4
 783 00a8 26       		.byte	0x26
 784 00a9 3E000000 		.4byte	0x3e
 785 00ad 04       		.uleb128 0x4
ARM GAS  C:\Users\Rob\AppData\Local\Temp\ccHLKJQZ.s 			page 15


 786 00ae F1010000 		.4byte	.LASF15
 787 00b2 04       		.byte	0x4
 788 00b3 27       		.byte	0x27
 789 00b4 3E000000 		.4byte	0x3e
 790 00b8 04       		.uleb128 0x4
 791 00b9 CC000000 		.4byte	.LASF16
 792 00bd 04       		.byte	0x4
 793 00be 28       		.byte	0x28
 794 00bf 3E000000 		.4byte	0x3e
 795 00c3 04       		.uleb128 0x4
 796 00c4 00020000 		.4byte	.LASF17
 797 00c8 04       		.byte	0x4
 798 00c9 29       		.byte	0x29
 799 00ca 70000000 		.4byte	0x70
 800 00ce 04       		.uleb128 0x4
 801 00cf 93010000 		.4byte	.LASF18
 802 00d3 04       		.byte	0x4
 803 00d4 2A       		.byte	0x2a
 804 00d5 5E000000 		.4byte	0x5e
 805 00d9 04       		.uleb128 0x4
 806 00da AD010000 		.4byte	.LASF19
 807 00de 04       		.byte	0x4
 808 00df 2C       		.byte	0x2c
 809 00e0 70000000 		.4byte	0x70
 810 00e4 04       		.uleb128 0x4
 811 00e5 CB020000 		.4byte	.LASF20
 812 00e9 04       		.byte	0x4
 813 00ea 2E       		.byte	0x2e
 814 00eb 70000000 		.4byte	0x70
 815 00ef 04       		.uleb128 0x4
 816 00f0 31010000 		.4byte	.LASF21
 817 00f4 04       		.byte	0x4
 818 00f5 2F       		.byte	0x2f
 819 00f6 5E000000 		.4byte	0x5e
 820 00fa 04       		.uleb128 0x4
 821 00fb 72020000 		.4byte	.LASF22
 822 00ff 05       		.byte	0x5
 823 0100 23       		.byte	0x23
 824 0101 05010000 		.4byte	0x105
 825 0105 05       		.uleb128 0x5
 826 0106 72020000 		.4byte	.LASF22
 827 010a 48       		.byte	0x48
 828 010b 06       		.byte	0x6
 829 010c 57       		.byte	0x57
 830 010d 2A020000 		.4byte	0x22a
 831 0111 06       		.uleb128 0x6
 832 0112 58020000 		.4byte	.LASF23
 833 0116 06       		.byte	0x6
 834 0117 58       		.byte	0x58
 835 0118 4F020000 		.4byte	0x24f
 836 011c 02       		.byte	0x2
 837 011d 23       		.byte	0x23
 838 011e 00       		.uleb128 0
 839 011f 06       		.uleb128 0x6
 840 0120 F9010000 		.4byte	.LASF24
 841 0124 06       		.byte	0x6
 842 0125 5A       		.byte	0x5a
ARM GAS  C:\Users\Rob\AppData\Local\Temp\ccHLKJQZ.s 			page 16


 843 0126 4F020000 		.4byte	0x24f
 844 012a 02       		.byte	0x2
 845 012b 23       		.byte	0x23
 846 012c 04       		.uleb128 0x4
 847 012d 06       		.uleb128 0x6
 848 012e 58000000 		.4byte	.LASF25
 849 0132 06       		.byte	0x6
 850 0133 5C       		.byte	0x5c
 851 0134 C3000000 		.4byte	0xc3
 852 0138 02       		.byte	0x2
 853 0139 23       		.byte	0x23
 854 013a 08       		.uleb128 0x8
 855 013b 06       		.uleb128 0x6
 856 013c 5A030000 		.4byte	.LASF26
 857 0140 06       		.byte	0x6
 858 0141 5D       		.byte	0x5d
 859 0142 13030000 		.4byte	0x313
 860 0146 02       		.byte	0x2
 861 0147 23       		.byte	0x23
 862 0148 0C       		.uleb128 0xc
 863 0149 06       		.uleb128 0x6
 864 014a 10010000 		.4byte	.LASF27
 865 014e 06       		.byte	0x6
 866 014f 5F       		.byte	0x5f
 867 0150 4F020000 		.4byte	0x24f
 868 0154 02       		.byte	0x2
 869 0155 23       		.byte	0x23
 870 0156 10       		.uleb128 0x10
 871 0157 06       		.uleb128 0x6
 872 0158 BF010000 		.4byte	.LASF28
 873 015c 06       		.byte	0x6
 874 015d 60       		.byte	0x60
 875 015e 4F020000 		.4byte	0x24f
 876 0162 02       		.byte	0x2
 877 0163 23       		.byte	0x23
 878 0164 14       		.uleb128 0x14
 879 0165 06       		.uleb128 0x6
 880 0166 4B030000 		.4byte	.LASF29
 881 016a 06       		.byte	0x6
 882 016b 67       		.byte	0x67
 883 016c 52040000 		.4byte	0x452
 884 0170 02       		.byte	0x2
 885 0171 23       		.byte	0x23
 886 0172 18       		.uleb128 0x18
 887 0173 06       		.uleb128 0x6
 888 0174 38020000 		.4byte	.LASF30
 889 0178 06       		.byte	0x6
 890 0179 72       		.byte	0x72
 891 017a A2000000 		.4byte	0xa2
 892 017e 02       		.byte	0x2
 893 017f 23       		.byte	0x23
 894 0180 1C       		.uleb128 0x1c
 895 0181 06       		.uleb128 0x6
 896 0182 5F020000 		.4byte	.LASF31
 897 0186 06       		.byte	0x6
 898 0187 76       		.byte	0x76
 899 0188 97000000 		.4byte	0x97
ARM GAS  C:\Users\Rob\AppData\Local\Temp\ccHLKJQZ.s 			page 17


 900 018c 02       		.byte	0x2
 901 018d 23       		.byte	0x23
 902 018e 1D       		.uleb128 0x1d
 903 018f 06       		.uleb128 0x6
 904 0190 19030000 		.4byte	.LASF32
 905 0194 06       		.byte	0x6
 906 0195 7B       		.byte	0x7b
 907 0196 AD000000 		.4byte	0xad
 908 019a 02       		.byte	0x2
 909 019b 23       		.byte	0x23
 910 019c 1E       		.uleb128 0x1e
 911 019d 06       		.uleb128 0x6
 912 019e 40020000 		.4byte	.LASF33
 913 01a2 06       		.byte	0x6
 914 01a3 81       		.byte	0x81
 915 01a4 B8000000 		.4byte	0xb8
 916 01a8 02       		.byte	0x2
 917 01a9 23       		.byte	0x23
 918 01aa 1F       		.uleb128 0x1f
 919 01ab 06       		.uleb128 0x6
 920 01ac EA020000 		.4byte	.LASF34
 921 01b0 06       		.byte	0x6
 922 01b1 88       		.byte	0x88
 923 01b2 34030000 		.4byte	0x334
 924 01b6 02       		.byte	0x2
 925 01b7 23       		.byte	0x23
 926 01b8 20       		.uleb128 0x20
 927 01b9 07       		.uleb128 0x7
 928 01ba 705F7500 		.ascii	"p_u\000"
 929 01be 06       		.byte	0x6
 930 01bf AD       		.byte	0xad
 931 01c0 1D040000 		.4byte	0x41d
 932 01c4 02       		.byte	0x2
 933 01c5 23       		.byte	0x23
 934 01c6 24       		.uleb128 0x24
 935 01c7 06       		.uleb128 0x6
 936 01c8 60030000 		.4byte	.LASF35
 937 01cc 06       		.byte	0x6
 938 01cd B2       		.byte	0xb2
 939 01ce 77020000 		.4byte	0x277
 940 01d2 02       		.byte	0x2
 941 01d3 23       		.byte	0x23
 942 01d4 28       		.uleb128 0x28
 943 01d5 06       		.uleb128 0x6
 944 01d6 04030000 		.4byte	.LASF36
 945 01da 06       		.byte	0x6
 946 01db B8       		.byte	0xb8
 947 01dc 55020000 		.4byte	0x255
 948 01e0 02       		.byte	0x2
 949 01e1 23       		.byte	0x23
 950 01e2 2C       		.uleb128 0x2c
 951 01e3 06       		.uleb128 0x6
 952 01e4 00000000 		.4byte	.LASF37
 953 01e8 06       		.byte	0x6
 954 01e9 BC       		.byte	0xbc
 955 01ea CE000000 		.4byte	0xce
 956 01ee 02       		.byte	0x2
ARM GAS  C:\Users\Rob\AppData\Local\Temp\ccHLKJQZ.s 			page 18


 957 01ef 23       		.byte	0x23
 958 01f0 34       		.uleb128 0x34
 959 01f1 06       		.uleb128 0x6
 960 01f2 79020000 		.4byte	.LASF38
 961 01f6 06       		.byte	0x6
 962 01f7 C2       		.byte	0xc2
 963 01f8 D9000000 		.4byte	0xd9
 964 01fc 02       		.byte	0x2
 965 01fd 23       		.byte	0x23
 966 01fe 38       		.uleb128 0x38
 967 01ff 06       		.uleb128 0x6
 968 0200 24020000 		.4byte	.LASF39
 969 0204 06       		.byte	0x6
 970 0205 C9       		.byte	0xc9
 971 0206 64040000 		.4byte	0x464
 972 020a 02       		.byte	0x2
 973 020b 23       		.byte	0x23
 974 020c 3C       		.uleb128 0x3c
 975 020d 06       		.uleb128 0x6
 976 020e D5020000 		.4byte	.LASF40
 977 0212 06       		.byte	0x6
 978 0213 CD       		.byte	0xcd
 979 0214 C3000000 		.4byte	0xc3
 980 0218 02       		.byte	0x2
 981 0219 23       		.byte	0x23
 982 021a 40       		.uleb128 0x40
 983 021b 06       		.uleb128 0x6
 984 021c BC000000 		.4byte	.LASF41
 985 0220 06       		.byte	0x6
 986 0221 D3       		.byte	0xd3
 987 0222 8D020000 		.4byte	0x28d
 988 0226 02       		.byte	0x2
 989 0227 23       		.byte	0x23
 990 0228 44       		.uleb128 0x44
 991 0229 00       		.byte	0
 992 022a 08       		.uleb128 0x8
 993 022b 08       		.byte	0x8
 994 022c 05       		.byte	0x5
 995 022d 5A       		.byte	0x5a
 996 022e 4F020000 		.4byte	0x24f
 997 0232 06       		.uleb128 0x6
 998 0233 58020000 		.4byte	.LASF23
 999 0237 05       		.byte	0x5
 1000 0238 5B       		.byte	0x5b
 1001 0239 4F020000 		.4byte	0x24f
 1002 023d 02       		.byte	0x2
 1003 023e 23       		.byte	0x23
 1004 023f 00       		.uleb128 0
 1005 0240 06       		.uleb128 0x6
 1006 0241 F9010000 		.4byte	.LASF24
 1007 0245 05       		.byte	0x5
 1008 0246 5D       		.byte	0x5d
 1009 0247 4F020000 		.4byte	0x24f
 1010 024b 02       		.byte	0x2
 1011 024c 23       		.byte	0x23
 1012 024d 04       		.uleb128 0x4
 1013 024e 00       		.byte	0
ARM GAS  C:\Users\Rob\AppData\Local\Temp\ccHLKJQZ.s 			page 19


 1014 024f 09       		.uleb128 0x9
 1015 0250 04       		.byte	0x4
 1016 0251 FA000000 		.4byte	0xfa
 1017 0255 04       		.uleb128 0x4
 1018 0256 CD010000 		.4byte	.LASF42
 1019 025a 05       		.byte	0x5
 1020 025b 5F       		.byte	0x5f
 1021 025c 2A020000 		.4byte	0x22a
 1022 0260 08       		.uleb128 0x8
 1023 0261 04       		.byte	0x4
 1024 0262 05       		.byte	0x5
 1025 0263 64       		.byte	0x64
 1026 0264 77020000 		.4byte	0x277
 1027 0268 06       		.uleb128 0x6
 1028 0269 58020000 		.4byte	.LASF23
 1029 026d 05       		.byte	0x5
 1030 026e 66       		.byte	0x66
 1031 026f 4F020000 		.4byte	0x24f
 1032 0273 02       		.byte	0x2
 1033 0274 23       		.byte	0x23
 1034 0275 00       		.uleb128 0
 1035 0276 00       		.byte	0
 1036 0277 04       		.uleb128 0x4
 1037 0278 A1010000 		.4byte	.LASF43
 1038 027c 05       		.byte	0x5
 1039 027d 69       		.byte	0x69
 1040 027e 60020000 		.4byte	0x260
 1041 0282 04       		.uleb128 0x4
 1042 0283 28010000 		.4byte	.LASF44
 1043 0287 07       		.byte	0x7
 1044 0288 A0       		.byte	0xa0
 1045 0289 8D020000 		.4byte	0x28d
 1046 028d 0A       		.uleb128 0xa
 1047 028e 04       		.byte	0x4
 1048 028f 05       		.uleb128 0x5
 1049 0290 FD020000 		.4byte	.LASF45
 1050 0294 24       		.byte	0x24
 1051 0295 07       		.byte	0x7
 1052 0296 B3       		.byte	0xb3
 1053 0297 13030000 		.4byte	0x313
 1054 029b 07       		.uleb128 0x7
 1055 029c 723800   		.ascii	"r8\000"
 1056 029f 07       		.byte	0x7
 1057 02a0 B4       		.byte	0xb4
 1058 02a1 82020000 		.4byte	0x282
 1059 02a5 02       		.byte	0x2
 1060 02a6 23       		.byte	0x23
 1061 02a7 00       		.uleb128 0
 1062 02a8 07       		.uleb128 0x7
 1063 02a9 723900   		.ascii	"r9\000"
 1064 02ac 07       		.byte	0x7
 1065 02ad B5       		.byte	0xb5
 1066 02ae 82020000 		.4byte	0x282
 1067 02b2 02       		.byte	0x2
 1068 02b3 23       		.byte	0x23
 1069 02b4 04       		.uleb128 0x4
 1070 02b5 07       		.uleb128 0x7
ARM GAS  C:\Users\Rob\AppData\Local\Temp\ccHLKJQZ.s 			page 20


 1071 02b6 72313000 		.ascii	"r10\000"
 1072 02ba 07       		.byte	0x7
 1073 02bb B6       		.byte	0xb6
 1074 02bc 82020000 		.4byte	0x282
 1075 02c0 02       		.byte	0x2
 1076 02c1 23       		.byte	0x23
 1077 02c2 08       		.uleb128 0x8
 1078 02c3 07       		.uleb128 0x7
 1079 02c4 72313100 		.ascii	"r11\000"
 1080 02c8 07       		.byte	0x7
 1081 02c9 B7       		.byte	0xb7
 1082 02ca 82020000 		.4byte	0x282
 1083 02ce 02       		.byte	0x2
 1084 02cf 23       		.byte	0x23
 1085 02d0 0C       		.uleb128 0xc
 1086 02d1 07       		.uleb128 0x7
 1087 02d2 723400   		.ascii	"r4\000"
 1088 02d5 07       		.byte	0x7
 1089 02d6 B8       		.byte	0xb8
 1090 02d7 82020000 		.4byte	0x282
 1091 02db 02       		.byte	0x2
 1092 02dc 23       		.byte	0x23
 1093 02dd 10       		.uleb128 0x10
 1094 02de 07       		.uleb128 0x7
 1095 02df 723500   		.ascii	"r5\000"
 1096 02e2 07       		.byte	0x7
 1097 02e3 B9       		.byte	0xb9
 1098 02e4 82020000 		.4byte	0x282
 1099 02e8 02       		.byte	0x2
 1100 02e9 23       		.byte	0x23
 1101 02ea 14       		.uleb128 0x14
 1102 02eb 07       		.uleb128 0x7
 1103 02ec 723600   		.ascii	"r6\000"
 1104 02ef 07       		.byte	0x7
 1105 02f0 BA       		.byte	0xba
 1106 02f1 82020000 		.4byte	0x282
 1107 02f5 02       		.byte	0x2
 1108 02f6 23       		.byte	0x23
 1109 02f7 18       		.uleb128 0x18
 1110 02f8 07       		.uleb128 0x7
 1111 02f9 723700   		.ascii	"r7\000"
 1112 02fc 07       		.byte	0x7
 1113 02fd BB       		.byte	0xbb
 1114 02fe 82020000 		.4byte	0x282
 1115 0302 02       		.byte	0x2
 1116 0303 23       		.byte	0x23
 1117 0304 1C       		.uleb128 0x1c
 1118 0305 07       		.uleb128 0x7
 1119 0306 6C7200   		.ascii	"lr\000"
 1120 0309 07       		.byte	0x7
 1121 030a BC       		.byte	0xbc
 1122 030b 82020000 		.4byte	0x282
 1123 030f 02       		.byte	0x2
 1124 0310 23       		.byte	0x23
 1125 0311 20       		.uleb128 0x20
 1126 0312 00       		.byte	0
 1127 0313 05       		.uleb128 0x5
ARM GAS  C:\Users\Rob\AppData\Local\Temp\ccHLKJQZ.s 			page 21


 1128 0314 6D010000 		.4byte	.LASF46
 1129 0318 04       		.byte	0x4
 1130 0319 07       		.byte	0x7
 1131 031a C6       		.byte	0xc6
 1132 031b 2E030000 		.4byte	0x32e
 1133 031f 07       		.uleb128 0x7
 1134 0320 72313300 		.ascii	"r13\000"
 1135 0324 07       		.byte	0x7
 1136 0325 C7       		.byte	0xc7
 1137 0326 2E030000 		.4byte	0x32e
 1138 032a 02       		.byte	0x2
 1139 032b 23       		.byte	0x23
 1140 032c 00       		.uleb128 0
 1141 032d 00       		.byte	0
 1142 032e 09       		.uleb128 0x9
 1143 032f 04       		.byte	0x4
 1144 0330 8F020000 		.4byte	0x28f
 1145 0334 0B       		.uleb128 0xb
 1146 0335 E4000000 		.4byte	0xe4
 1147 0339 08       		.uleb128 0x8
 1148 033a 1C       		.byte	0x1c
 1149 033b 08       		.byte	0x8
 1150 033c 57       		.byte	0x57
 1151 033d 96030000 		.4byte	0x396
 1152 0341 06       		.uleb128 0x6
 1153 0342 8D020000 		.4byte	.LASF47
 1154 0346 08       		.byte	0x8
 1155 0347 58       		.byte	0x58
 1156 0348 55020000 		.4byte	0x255
 1157 034c 02       		.byte	0x2
 1158 034d 23       		.byte	0x23
 1159 034e 00       		.uleb128 0
 1160 034f 06       		.uleb128 0x6
 1161 0350 4A020000 		.4byte	.LASF48
 1162 0354 08       		.byte	0x8
 1163 0355 59       		.byte	0x59
 1164 0356 C3000000 		.4byte	0xc3
 1165 035a 02       		.byte	0x2
 1166 035b 23       		.byte	0x23
 1167 035c 08       		.uleb128 0x8
 1168 035d 06       		.uleb128 0x6
 1169 035e C7010000 		.4byte	.LASF49
 1170 0362 08       		.byte	0x8
 1171 0363 5B       		.byte	0x5b
 1172 0364 13030000 		.4byte	0x313
 1173 0368 02       		.byte	0x2
 1174 0369 23       		.byte	0x23
 1175 036a 0C       		.uleb128 0xc
 1176 036b 06       		.uleb128 0x6
 1177 036c 20010000 		.4byte	.LASF50
 1178 0370 08       		.byte	0x8
 1179 0371 5E       		.byte	0x5e
 1180 0372 4F020000 		.4byte	0x24f
 1181 0376 02       		.byte	0x2
 1182 0377 23       		.byte	0x23
 1183 0378 10       		.uleb128 0x10
 1184 0379 06       		.uleb128 0x6
ARM GAS  C:\Users\Rob\AppData\Local\Temp\ccHLKJQZ.s 			page 22


 1185 037a E9010000 		.4byte	.LASF51
 1186 037e 08       		.byte	0x8
 1187 037f 5F       		.byte	0x5f
 1188 0380 4F020000 		.4byte	0x24f
 1189 0384 02       		.byte	0x2
 1190 0385 23       		.byte	0x23
 1191 0386 14       		.uleb128 0x14
 1192 0387 06       		.uleb128 0x6
 1193 0388 DF010000 		.4byte	.LASF52
 1194 038c 08       		.byte	0x8
 1195 038d 62       		.byte	0x62
 1196 038e 4F020000 		.4byte	0x24f
 1197 0392 02       		.byte	0x2
 1198 0393 23       		.byte	0x23
 1199 0394 18       		.uleb128 0x18
 1200 0395 00       		.byte	0
 1201 0396 04       		.uleb128 0x4
 1202 0397 20030000 		.4byte	.LASF53
 1203 039b 08       		.byte	0x8
 1204 039c 64       		.byte	0x64
 1205 039d 39030000 		.4byte	0x339
 1206 03a1 05       		.uleb128 0x5
 1207 03a2 0F030000 		.4byte	.LASF54
 1208 03a6 0C       		.byte	0xc
 1209 03a7 09       		.byte	0x9
 1210 03a8 25       		.byte	0x25
 1211 03a9 CA030000 		.4byte	0x3ca
 1212 03ad 06       		.uleb128 0x6
 1213 03ae 18010000 		.4byte	.LASF55
 1214 03b2 09       		.byte	0x9
 1215 03b3 26       		.byte	0x26
 1216 03b4 55020000 		.4byte	0x255
 1217 03b8 02       		.byte	0x2
 1218 03b9 23       		.byte	0x23
 1219 03ba 00       		.uleb128 0
 1220 03bb 06       		.uleb128 0x6
 1221 03bc 67010000 		.4byte	.LASF56
 1222 03c0 09       		.byte	0x9
 1223 03c1 28       		.byte	0x28
 1224 03c2 EF000000 		.4byte	0xef
 1225 03c6 02       		.byte	0x2
 1226 03c7 23       		.byte	0x23
 1227 03c8 08       		.uleb128 0x8
 1228 03c9 00       		.byte	0
 1229 03ca 04       		.uleb128 0x4
 1230 03cb 0F030000 		.4byte	.LASF54
 1231 03cf 09       		.byte	0x9
 1232 03d0 29       		.byte	0x29
 1233 03d1 A1030000 		.4byte	0x3a1
 1234 03d5 05       		.uleb128 0x5
 1235 03d6 B9010000 		.4byte	.LASF57
 1236 03da 10       		.byte	0x10
 1237 03db 0A       		.byte	0xa
 1238 03dc 25       		.byte	0x25
 1239 03dd 0C040000 		.4byte	0x40c
 1240 03e1 06       		.uleb128 0x6
 1241 03e2 C4000000 		.4byte	.LASF58
ARM GAS  C:\Users\Rob\AppData\Local\Temp\ccHLKJQZ.s 			page 23


 1242 03e6 0A       		.byte	0xa
 1243 03e7 26       		.byte	0x26
 1244 03e8 55020000 		.4byte	0x255
 1245 03ec 02       		.byte	0x2
 1246 03ed 23       		.byte	0x23
 1247 03ee 00       		.uleb128 0
 1248 03ef 06       		.uleb128 0x6
 1249 03f0 52030000 		.4byte	.LASF59
 1250 03f4 0A       		.byte	0xa
 1251 03f5 28       		.byte	0x28
 1252 03f6 4F020000 		.4byte	0x24f
 1253 03fa 02       		.byte	0x2
 1254 03fb 23       		.byte	0x23
 1255 03fc 08       		.uleb128 0x8
 1256 03fd 06       		.uleb128 0x6
 1257 03fe C4020000 		.4byte	.LASF60
 1258 0402 0A       		.byte	0xa
 1259 0403 2A       		.byte	0x2a
 1260 0404 0C040000 		.4byte	0x40c
 1261 0408 02       		.byte	0x2
 1262 0409 23       		.byte	0x23
 1263 040a 0C       		.uleb128 0xc
 1264 040b 00       		.byte	0
 1265 040c 09       		.uleb128 0x9
 1266 040d 04       		.byte	0x4
 1267 040e D5030000 		.4byte	0x3d5
 1268 0412 04       		.uleb128 0x4
 1269 0413 B9010000 		.4byte	.LASF57
 1270 0417 0A       		.byte	0xa
 1271 0418 2C       		.byte	0x2c
 1272 0419 D5030000 		.4byte	0x3d5
 1273 041d 0C       		.uleb128 0xc
 1274 041e 04       		.byte	0x4
 1275 041f 06       		.byte	0x6
 1276 0420 8F       		.byte	0x8f
 1277 0421 52040000 		.4byte	0x452
 1278 0425 0D       		.uleb128 0xd
 1279 0426 20000000 		.4byte	.LASF61
 1280 042a 06       		.byte	0x6
 1281 042b 96       		.byte	0x96
 1282 042c CE000000 		.4byte	0xce
 1283 0430 0D       		.uleb128 0xd
 1284 0431 3E000000 		.4byte	.LASF62
 1285 0435 06       		.byte	0x6
 1286 0436 9D       		.byte	0x9d
 1287 0437 CE000000 		.4byte	0xce
 1288 043b 0D       		.uleb128 0xd
 1289 043c 44030000 		.4byte	.LASF63
 1290 0440 06       		.byte	0x6
 1291 0441 A4       		.byte	0xa4
 1292 0442 8D020000 		.4byte	0x28d
 1293 0446 0D       		.uleb128 0xd
 1294 0447 51020000 		.4byte	.LASF64
 1295 044b 06       		.byte	0x6
 1296 044c AB       		.byte	0xab
 1297 044d D9000000 		.4byte	0xd9
 1298 0451 00       		.byte	0
ARM GAS  C:\Users\Rob\AppData\Local\Temp\ccHLKJQZ.s 			page 24


 1299 0452 09       		.uleb128 0x9
 1300 0453 04       		.byte	0x4
 1301 0454 58040000 		.4byte	0x458
 1302 0458 0E       		.uleb128 0xe
 1303 0459 5D040000 		.4byte	0x45d
 1304 045d 03       		.uleb128 0x3
 1305 045e 01       		.byte	0x1
 1306 045f 08       		.byte	0x8
 1307 0460 A1020000 		.4byte	.LASF65
 1308 0464 09       		.uleb128 0x9
 1309 0465 04       		.byte	0x4
 1310 0466 12040000 		.4byte	0x412
 1311 046a 0F       		.uleb128 0xf
 1312 046b F1020000 		.4byte	.LASF66
 1313 046f 02       		.byte	0x2
 1314 0470 3B       		.byte	0x3b
 1315 0471 01       		.byte	0x1
 1316 0472 4F020000 		.4byte	0x24f
 1317 0476 03       		.byte	0x3
 1318 0477 91040000 		.4byte	0x491
 1319 047b 10       		.uleb128 0x10
 1320 047c 74717000 		.ascii	"tqp\000"
 1321 0480 02       		.byte	0x2
 1322 0481 3B       		.byte	0x3b
 1323 0482 91040000 		.4byte	0x491
 1324 0486 11       		.uleb128 0x11
 1325 0487 747000   		.ascii	"tp\000"
 1326 048a 02       		.byte	0x2
 1327 048b 3C       		.byte	0x3c
 1328 048c 4F020000 		.4byte	0x24f
 1329 0490 00       		.byte	0
 1330 0491 09       		.uleb128 0x9
 1331 0492 04       		.byte	0x4
 1332 0493 55020000 		.4byte	0x255
 1333 0497 12       		.uleb128 0x12
 1334 0498 06000000 		.4byte	.LASF84
 1335 049c 02       		.byte	0x2
 1336 049d 2D       		.byte	0x2d
 1337 049e 01       		.byte	0x1
 1338 049f 03       		.byte	0x3
 1339 04a0 BA040000 		.4byte	0x4ba
 1340 04a4 10       		.uleb128 0x10
 1341 04a5 747000   		.ascii	"tp\000"
 1342 04a8 02       		.byte	0x2
 1343 04a9 2D       		.byte	0x2d
 1344 04aa 4F020000 		.4byte	0x24f
 1345 04ae 10       		.uleb128 0x10
 1346 04af 74717000 		.ascii	"tqp\000"
 1347 04b3 02       		.byte	0x2
 1348 04b4 2D       		.byte	0x2d
 1349 04b5 91040000 		.4byte	0x491
 1350 04b9 00       		.byte	0
 1351 04ba 0F       		.uleb128 0xf
 1352 04bb A6020000 		.4byte	.LASF67
 1353 04bf 02       		.byte	0x2
 1354 04c0 34       		.byte	0x34
 1355 04c1 01       		.byte	0x1
ARM GAS  C:\Users\Rob\AppData\Local\Temp\ccHLKJQZ.s 			page 25


 1356 04c2 4F020000 		.4byte	0x24f
 1357 04c6 03       		.byte	0x3
 1358 04c7 E1040000 		.4byte	0x4e1
 1359 04cb 10       		.uleb128 0x10
 1360 04cc 74717000 		.ascii	"tqp\000"
 1361 04d0 02       		.byte	0x2
 1362 04d1 34       		.byte	0x34
 1363 04d2 91040000 		.4byte	0x491
 1364 04d6 11       		.uleb128 0x11
 1365 04d7 747000   		.ascii	"tp\000"
 1366 04da 02       		.byte	0x2
 1367 04db 35       		.byte	0x35
 1368 04dc 4F020000 		.4byte	0x24f
 1369 04e0 00       		.byte	0
 1370 04e1 13       		.uleb128 0x13
 1371 04e2 01       		.byte	0x1
 1372 04e3 6A030000 		.4byte	.LASF68
 1373 04e7 01       		.byte	0x1
 1374 04e8 4F       		.byte	0x4f
 1375 04e9 01       		.byte	0x1
 1376 04ea 00000000 		.4byte	.LFB7
 1377 04ee 08000000 		.4byte	.LFE7
 1378 04f2 02       		.byte	0x2
 1379 04f3 7D       		.byte	0x7d
 1380 04f4 00       		.sleb128 0
 1381 04f5 11050000 		.4byte	0x511
 1382 04f9 14       		.uleb128 0x14
 1383 04fa 737000   		.ascii	"sp\000"
 1384 04fd 01       		.byte	0x1
 1385 04fe 4F       		.byte	0x4f
 1386 04ff 11050000 		.4byte	0x511
 1387 0503 01       		.byte	0x1
 1388 0504 50       		.byte	0x50
 1389 0505 14       		.uleb128 0x14
 1390 0506 6E00     		.ascii	"n\000"
 1391 0508 01       		.byte	0x1
 1392 0509 4F       		.byte	0x4f
 1393 050a EF000000 		.4byte	0xef
 1394 050e 01       		.byte	0x1
 1395 050f 51       		.byte	0x51
 1396 0510 00       		.byte	0
 1397 0511 09       		.uleb128 0x9
 1398 0512 04       		.byte	0x4
 1399 0513 CA030000 		.4byte	0x3ca
 1400 0517 15       		.uleb128 0x15
 1401 0518 01       		.byte	0x1
 1402 0519 2A030000 		.4byte	.LASF69
 1403 051d 01       		.byte	0x1
 1404 051e 81       		.byte	0x81
 1405 051f 01       		.byte	0x1
 1406 0520 00000000 		.4byte	.LFB9
 1407 0524 28000000 		.4byte	.LFE9
 1408 0528 00000000 		.4byte	.LLST0
 1409 052c 83050000 		.4byte	0x583
 1410 0530 16       		.uleb128 0x16
 1411 0531 737000   		.ascii	"sp\000"
 1412 0534 01       		.byte	0x1
ARM GAS  C:\Users\Rob\AppData\Local\Temp\ccHLKJQZ.s 			page 26


 1413 0535 81       		.byte	0x81
 1414 0536 11050000 		.4byte	0x511
 1415 053a 20000000 		.4byte	.LLST1
 1416 053e 16       		.uleb128 0x16
 1417 053f 6E00     		.ascii	"n\000"
 1418 0541 01       		.byte	0x1
 1419 0542 81       		.byte	0x81
 1420 0543 EF000000 		.4byte	0xef
 1421 0547 3E000000 		.4byte	.LLST2
 1422 054b 17       		.uleb128 0x17
 1423 054c 636E7400 		.ascii	"cnt\000"
 1424 0550 01       		.byte	0x1
 1425 0551 82       		.byte	0x82
 1426 0552 EF000000 		.4byte	0xef
 1427 0556 51000000 		.4byte	.LLST3
 1428 055a 18       		.uleb128 0x18
 1429 055b 6A040000 		.4byte	0x46a
 1430 055f 12000000 		.4byte	.LBB20
 1431 0563 00000000 		.4byte	.Ldebug_ranges0+0
 1432 0567 01       		.byte	0x1
 1433 0568 8E       		.byte	0x8e
 1434 0569 19       		.uleb128 0x19
 1435 056a 7B040000 		.4byte	0x47b
 1436 056e 88000000 		.4byte	.LLST4
 1437 0572 1A       		.uleb128 0x1a
 1438 0573 18000000 		.4byte	.Ldebug_ranges0+0x18
 1439 0577 1B       		.uleb128 0x1b
 1440 0578 86040000 		.4byte	0x486
 1441 057c 9B000000 		.4byte	.LLST5
 1442 0580 00       		.byte	0
 1443 0581 00       		.byte	0
 1444 0582 00       		.byte	0
 1445 0583 15       		.uleb128 0x15
 1446 0584 01       		.byte	0x1
 1447 0585 88010000 		.4byte	.LASF70
 1448 0589 01       		.byte	0x1
 1449 058a 66       		.byte	0x66
 1450 058b 01       		.byte	0x1
 1451 058c 00000000 		.4byte	.LFB8
 1452 0590 10000000 		.4byte	.LFE8
 1453 0594 AF000000 		.4byte	.LLST6
 1454 0598 B8050000 		.4byte	0x5b8
 1455 059c 16       		.uleb128 0x16
 1456 059d 737000   		.ascii	"sp\000"
 1457 05a0 01       		.byte	0x1
 1458 05a1 66       		.byte	0x66
 1459 05a2 11050000 		.4byte	0x511
 1460 05a6 CF000000 		.4byte	.LLST7
 1461 05aa 16       		.uleb128 0x16
 1462 05ab 6E00     		.ascii	"n\000"
 1463 05ad 01       		.byte	0x1
 1464 05ae 66       		.byte	0x66
 1465 05af EF000000 		.4byte	0xef
 1466 05b3 E2000000 		.4byte	.LLST8
 1467 05b7 00       		.byte	0
 1468 05b8 1C       		.uleb128 0x1c
 1469 05b9 01       		.byte	0x1
ARM GAS  C:\Users\Rob\AppData\Local\Temp\ccHLKJQZ.s 			page 27


 1470 05ba 67020000 		.4byte	.LASF71
 1471 05be 01       		.byte	0x1
 1472 05bf B2       		.byte	0xb2
 1473 05c0 01       		.byte	0x1
 1474 05c1 CE000000 		.4byte	0xce
 1475 05c5 00000000 		.4byte	.LFB11
 1476 05c9 34000000 		.4byte	.LFE11
 1477 05cd F5000000 		.4byte	.LLST9
 1478 05d1 06060000 		.4byte	0x606
 1479 05d5 16       		.uleb128 0x16
 1480 05d6 737000   		.ascii	"sp\000"
 1481 05d9 01       		.byte	0x1
 1482 05da B2       		.byte	0xb2
 1483 05db 11050000 		.4byte	0x511
 1484 05df 15010000 		.4byte	.LLST10
 1485 05e3 1D       		.uleb128 0x1d
 1486 05e4 97040000 		.4byte	0x497
 1487 05e8 1A000000 		.4byte	.LBB24
 1488 05ec 24000000 		.4byte	.LBE24
 1489 05f0 01       		.byte	0x1
 1490 05f1 BD       		.byte	0xbd
 1491 05f2 19       		.uleb128 0x19
 1492 05f3 AE040000 		.4byte	0x4ae
 1493 05f7 3E010000 		.4byte	.LLST11
 1494 05fb 19       		.uleb128 0x19
 1495 05fc A4040000 		.4byte	0x4a4
 1496 0600 51010000 		.4byte	.LLST12
 1497 0604 00       		.byte	0
 1498 0605 00       		.byte	0
 1499 0606 1C       		.uleb128 0x1c
 1500 0607 01       		.byte	0x1
 1501 0608 E0020000 		.4byte	.LASF72
 1502 060c 01       		.byte	0x1
 1503 060d 9D       		.byte	0x9d
 1504 060e 01       		.byte	0x1
 1505 060f CE000000 		.4byte	0xce
 1506 0613 00000000 		.4byte	.LFB10
 1507 0617 0C000000 		.4byte	.LFE10
 1508 061b 65010000 		.4byte	.LLST13
 1509 061f 3F060000 		.4byte	0x63f
 1510 0623 16       		.uleb128 0x16
 1511 0624 737000   		.ascii	"sp\000"
 1512 0627 01       		.byte	0x1
 1513 0628 9D       		.byte	0x9d
 1514 0629 11050000 		.4byte	0x511
 1515 062d 85010000 		.4byte	.LLST14
 1516 0631 1E       		.uleb128 0x1e
 1517 0632 6D736700 		.ascii	"msg\000"
 1518 0636 01       		.byte	0x1
 1519 0637 9E       		.byte	0x9e
 1520 0638 CE000000 		.4byte	0xce
 1521 063c 01       		.byte	0x1
 1522 063d 50       		.byte	0x50
 1523 063e 00       		.byte	0
 1524 063f 1C       		.uleb128 0x1c
 1525 0640 01       		.byte	0x1
 1526 0641 B2020000 		.4byte	.LASF73
ARM GAS  C:\Users\Rob\AppData\Local\Temp\ccHLKJQZ.s 			page 28


 1527 0645 01       		.byte	0x1
 1528 0646 F3       		.byte	0xf3
 1529 0647 01       		.byte	0x1
 1530 0648 CE000000 		.4byte	0xce
 1531 064c 00000000 		.4byte	.LFB13
 1532 0650 3C000000 		.4byte	.LFE13
 1533 0654 98010000 		.4byte	.LLST15
 1534 0658 99060000 		.4byte	0x699
 1535 065c 16       		.uleb128 0x16
 1536 065d 737000   		.ascii	"sp\000"
 1537 0660 01       		.byte	0x1
 1538 0661 F3       		.byte	0xf3
 1539 0662 11050000 		.4byte	0x511
 1540 0666 B8010000 		.4byte	.LLST16
 1541 066a 1F       		.uleb128 0x1f
 1542 066b DA010000 		.4byte	.LASF74
 1543 066f 01       		.byte	0x1
 1544 0670 F3       		.byte	0xf3
 1545 0671 E4000000 		.4byte	0xe4
 1546 0675 EC010000 		.4byte	.LLST17
 1547 0679 20       		.uleb128 0x20
 1548 067a 97040000 		.4byte	0x497
 1549 067e 1C000000 		.4byte	.LBB26
 1550 0682 26000000 		.4byte	.LBE26
 1551 0686 01       		.byte	0x1
 1552 0687 0201     		.2byte	0x102
 1553 0689 19       		.uleb128 0x19
 1554 068a AE040000 		.4byte	0x4ae
 1555 068e 15020000 		.4byte	.LLST18
 1556 0692 21       		.uleb128 0x21
 1557 0693 A4040000 		.4byte	0x4a4
 1558 0697 00       		.byte	0
 1559 0698 00       		.byte	0
 1560 0699 1C       		.uleb128 0x1c
 1561 069a 01       		.byte	0x1
 1562 069b 44010000 		.4byte	.LASF75
 1563 069f 01       		.byte	0x1
 1564 06a0 D7       		.byte	0xd7
 1565 06a1 01       		.byte	0x1
 1566 06a2 CE000000 		.4byte	0xce
 1567 06a6 00000000 		.4byte	.LFB12
 1568 06aa 0C000000 		.4byte	.LFE12
 1569 06ae 28020000 		.4byte	.LLST19
 1570 06b2 E1060000 		.4byte	0x6e1
 1571 06b6 16       		.uleb128 0x16
 1572 06b7 737000   		.ascii	"sp\000"
 1573 06ba 01       		.byte	0x1
 1574 06bb D7       		.byte	0xd7
 1575 06bc 11050000 		.4byte	0x511
 1576 06c0 48020000 		.4byte	.LLST20
 1577 06c4 1F       		.uleb128 0x1f
 1578 06c5 DA010000 		.4byte	.LASF74
 1579 06c9 01       		.byte	0x1
 1580 06ca D7       		.byte	0xd7
 1581 06cb E4000000 		.4byte	0xe4
 1582 06cf 5B020000 		.4byte	.LLST21
 1583 06d3 1E       		.uleb128 0x1e
ARM GAS  C:\Users\Rob\AppData\Local\Temp\ccHLKJQZ.s 			page 29


 1584 06d4 6D736700 		.ascii	"msg\000"
 1585 06d8 01       		.byte	0x1
 1586 06d9 D8       		.byte	0xd8
 1587 06da CE000000 		.4byte	0xce
 1588 06de 01       		.byte	0x1
 1589 06df 50       		.byte	0x50
 1590 06e0 00       		.byte	0
 1591 06e1 22       		.uleb128 0x22
 1592 06e2 01       		.byte	0x1
 1593 06e3 04010000 		.4byte	.LASF76
 1594 06e7 01       		.byte	0x1
 1595 06e8 0F01     		.2byte	0x10f
 1596 06ea 01       		.byte	0x1
 1597 06eb 00000000 		.4byte	.LFB14
 1598 06ef 24000000 		.4byte	.LFE14
 1599 06f3 6E020000 		.4byte	.LLST22
 1600 06f7 34070000 		.4byte	0x734
 1601 06fb 23       		.uleb128 0x23
 1602 06fc 737000   		.ascii	"sp\000"
 1603 06ff 01       		.byte	0x1
 1604 0700 0F01     		.2byte	0x10f
 1605 0702 11050000 		.4byte	0x511
 1606 0706 8E020000 		.4byte	.LLST23
 1607 070a 24       		.uleb128 0x24
 1608 070b BA040000 		.4byte	0x4ba
 1609 070f 12000000 		.4byte	.LBB28
 1610 0713 30000000 		.4byte	.Ldebug_ranges0+0x30
 1611 0717 01       		.byte	0x1
 1612 0718 1901     		.2byte	0x119
 1613 071a 19       		.uleb128 0x19
 1614 071b CB040000 		.4byte	0x4cb
 1615 071f AC020000 		.4byte	.LLST24
 1616 0723 1A       		.uleb128 0x1a
 1617 0724 48000000 		.4byte	.Ldebug_ranges0+0x48
 1618 0728 1B       		.uleb128 0x1b
 1619 0729 D6040000 		.4byte	0x4d6
 1620 072d CE020000 		.4byte	.LLST25
 1621 0731 00       		.byte	0
 1622 0732 00       		.byte	0
 1623 0733 00       		.byte	0
 1624 0734 22       		.uleb128 0x22
 1625 0735 01       		.byte	0x1
 1626 0736 13000000 		.4byte	.LASF77
 1627 073a 01       		.byte	0x1
 1628 073b 2801     		.2byte	0x128
 1629 073d 01       		.byte	0x1
 1630 073e 00000000 		.4byte	.LFB15
 1631 0742 22000000 		.4byte	.LFE15
 1632 0746 ED020000 		.4byte	.LLST26
 1633 074a A2070000 		.4byte	0x7a2
 1634 074e 23       		.uleb128 0x23
 1635 074f 737000   		.ascii	"sp\000"
 1636 0752 01       		.byte	0x1
 1637 0753 2801     		.2byte	0x128
 1638 0755 11050000 		.4byte	0x511
 1639 0759 0D030000 		.4byte	.LLST27
 1640 075d 25       		.uleb128 0x25
ARM GAS  C:\Users\Rob\AppData\Local\Temp\ccHLKJQZ.s 			page 30


 1641 075e 0E000000 		.4byte	.LBB32
 1642 0762 22000000 		.4byte	.LBE32
 1643 0766 26       		.uleb128 0x26
 1644 0767 747000   		.ascii	"tp\000"
 1645 076a 01       		.byte	0x1
 1646 076b 3401     		.2byte	0x134
 1647 076d 4F020000 		.4byte	0x24f
 1648 0771 01       		.byte	0x1
 1649 0772 53       		.byte	0x53
 1650 0773 20       		.uleb128 0x20
 1651 0774 BA040000 		.4byte	0x4ba
 1652 0778 0E000000 		.4byte	.LBB33
 1653 077c 16000000 		.4byte	.LBE33
 1654 0780 01       		.byte	0x1
 1655 0781 3401     		.2byte	0x134
 1656 0783 19       		.uleb128 0x19
 1657 0784 CB040000 		.4byte	0x4cb
 1658 0788 2B030000 		.4byte	.LLST28
 1659 078c 25       		.uleb128 0x25
 1660 078d 0E000000 		.4byte	.LBB34
 1661 0791 16000000 		.4byte	.LBE34
 1662 0795 1B       		.uleb128 0x1b
 1663 0796 D6040000 		.4byte	0x4d6
 1664 079a 4D030000 		.4byte	.LLST29
 1665 079e 00       		.byte	0
 1666 079f 00       		.byte	0
 1667 07a0 00       		.byte	0
 1668 07a1 00       		.byte	0
 1669 07a2 22       		.uleb128 0x22
 1670 07a3 01       		.byte	0x1
 1671 07a4 47000000 		.4byte	.LASF78
 1672 07a8 01       		.byte	0x1
 1673 07a9 4701     		.2byte	0x147
 1674 07ab 01       		.byte	0x1
 1675 07ac 00000000 		.4byte	.LFB16
 1676 07b0 32000000 		.4byte	.LFE16
 1677 07b4 6C030000 		.4byte	.LLST30
 1678 07b8 03080000 		.4byte	0x803
 1679 07bc 23       		.uleb128 0x23
 1680 07bd 737000   		.ascii	"sp\000"
 1681 07c0 01       		.byte	0x1
 1682 07c1 4701     		.2byte	0x147
 1683 07c3 11050000 		.4byte	0x511
 1684 07c7 8C030000 		.4byte	.LLST31
 1685 07cb 23       		.uleb128 0x23
 1686 07cc 6E00     		.ascii	"n\000"
 1687 07ce 01       		.byte	0x1
 1688 07cf 4701     		.2byte	0x147
 1689 07d1 EF000000 		.4byte	0xef
 1690 07d5 AA030000 		.4byte	.LLST32
 1691 07d9 24       		.uleb128 0x24
 1692 07da BA040000 		.4byte	0x4ba
 1693 07de 1C000000 		.4byte	.LBB35
 1694 07e2 60000000 		.4byte	.Ldebug_ranges0+0x60
 1695 07e6 01       		.byte	0x1
 1696 07e7 5201     		.2byte	0x152
 1697 07e9 19       		.uleb128 0x19
ARM GAS  C:\Users\Rob\AppData\Local\Temp\ccHLKJQZ.s 			page 31


 1698 07ea CB040000 		.4byte	0x4cb
 1699 07ee D3030000 		.4byte	.LLST33
 1700 07f2 1A       		.uleb128 0x1a
 1701 07f3 78000000 		.4byte	.Ldebug_ranges0+0x78
 1702 07f7 1B       		.uleb128 0x1b
 1703 07f8 D6040000 		.4byte	0x4d6
 1704 07fc E6030000 		.4byte	.LLST34
 1705 0800 00       		.byte	0
 1706 0801 00       		.byte	0
 1707 0802 00       		.byte	0
 1708 0803 27       		.uleb128 0x27
 1709 0804 01       		.byte	0x1
 1710 0805 AC000000 		.4byte	.LASF79
 1711 0809 01       		.byte	0x1
 1712 080a 6701     		.2byte	0x167
 1713 080c 01       		.byte	0x1
 1714 080d CE000000 		.4byte	0xce
 1715 0811 00000000 		.4byte	.LFB17
 1716 0815 58000000 		.4byte	.LFE17
 1717 0819 FA030000 		.4byte	.LLST35
 1718 081d C0080000 		.4byte	0x8c0
 1719 0821 23       		.uleb128 0x23
 1720 0822 73707300 		.ascii	"sps\000"
 1721 0826 01       		.byte	0x1
 1722 0827 6701     		.2byte	0x167
 1723 0829 11050000 		.4byte	0x511
 1724 082d 1A040000 		.4byte	.LLST36
 1725 0831 23       		.uleb128 0x23
 1726 0832 73707700 		.ascii	"spw\000"
 1727 0836 01       		.byte	0x1
 1728 0837 6701     		.2byte	0x167
 1729 0839 11050000 		.4byte	0x511
 1730 083d 47040000 		.4byte	.LLST37
 1731 0841 28       		.uleb128 0x28
 1732 0842 6D736700 		.ascii	"msg\000"
 1733 0846 01       		.byte	0x1
 1734 0847 6801     		.2byte	0x168
 1735 0849 CE000000 		.4byte	0xce
 1736 084d 70040000 		.4byte	.LLST38
 1737 0851 29       		.uleb128 0x29
 1738 0852 24000000 		.4byte	.LBB39
 1739 0856 3E000000 		.4byte	.LBE39
 1740 085a 92080000 		.4byte	0x892
 1741 085e 28       		.uleb128 0x28
 1742 085f 63747000 		.ascii	"ctp\000"
 1743 0863 01       		.byte	0x1
 1744 0864 7801     		.2byte	0x178
 1745 0866 4F020000 		.4byte	0x24f
 1746 086a 9B040000 		.4byte	.LLST39
 1747 086e 20       		.uleb128 0x20
 1748 086f 97040000 		.4byte	0x497
 1749 0873 2A000000 		.4byte	.LBB40
 1750 0877 34000000 		.4byte	.LBE40
 1751 087b 01       		.byte	0x1
 1752 087c 7901     		.2byte	0x179
 1753 087e 19       		.uleb128 0x19
 1754 087f AE040000 		.4byte	0x4ae
ARM GAS  C:\Users\Rob\AppData\Local\Temp\ccHLKJQZ.s 			page 32


 1755 0883 BA040000 		.4byte	.LLST40
 1756 0887 19       		.uleb128 0x19
 1757 0888 A4040000 		.4byte	0x4a4
 1758 088c 9B040000 		.4byte	.LLST39
 1759 0890 00       		.byte	0
 1760 0891 00       		.byte	0
 1761 0892 20       		.uleb128 0x20
 1762 0893 BA040000 		.4byte	0x4ba
 1763 0897 3E000000 		.4byte	.LBB42
 1764 089b 46000000 		.4byte	.LBE42
 1765 089f 01       		.byte	0x1
 1766 08a0 7601     		.2byte	0x176
 1767 08a2 19       		.uleb128 0x19
 1768 08a3 CB040000 		.4byte	0x4cb
 1769 08a7 CD040000 		.4byte	.LLST42
 1770 08ab 25       		.uleb128 0x25
 1771 08ac 3E000000 		.4byte	.LBB43
 1772 08b0 46000000 		.4byte	.LBE43
 1773 08b4 1B       		.uleb128 0x1b
 1774 08b5 D6040000 		.4byte	0x4d6
 1775 08b9 EF040000 		.4byte	.LLST43
 1776 08bd 00       		.byte	0
 1777 08be 00       		.byte	0
 1778 08bf 00       		.byte	0
 1779 08c0 2A       		.uleb128 0x2a
 1780 08c1 36030000 		.4byte	.LASF80
 1781 08c5 08       		.byte	0x8
 1782 08c6 68       		.byte	0x68
 1783 08c7 96030000 		.4byte	0x396
 1784 08cb 01       		.byte	0x1
 1785 08cc 01       		.byte	0x1
 1786 08cd 2A       		.uleb128 0x2a
 1787 08ce 36030000 		.4byte	.LASF80
 1788 08d2 08       		.byte	0x8
 1789 08d3 68       		.byte	0x68
 1790 08d4 96030000 		.4byte	0x396
 1791 08d8 01       		.byte	0x1
 1792 08d9 01       		.byte	0x1
 1793 08da 00       		.byte	0
 1794              		.section	.debug_abbrev,"",%progbits
 1795              	.Ldebug_abbrev0:
 1796 0000 01       		.uleb128 0x1
 1797 0001 11       		.uleb128 0x11
 1798 0002 01       		.byte	0x1
 1799 0003 25       		.uleb128 0x25
 1800 0004 0E       		.uleb128 0xe
 1801 0005 13       		.uleb128 0x13
 1802 0006 0B       		.uleb128 0xb
 1803 0007 03       		.uleb128 0x3
 1804 0008 0E       		.uleb128 0xe
 1805 0009 1B       		.uleb128 0x1b
 1806 000a 0E       		.uleb128 0xe
 1807 000b 11       		.uleb128 0x11
 1808 000c 01       		.uleb128 0x1
 1809 000d 52       		.uleb128 0x52
 1810 000e 01       		.uleb128 0x1
 1811 000f 55       		.uleb128 0x55
ARM GAS  C:\Users\Rob\AppData\Local\Temp\ccHLKJQZ.s 			page 33


 1812 0010 06       		.uleb128 0x6
 1813 0011 10       		.uleb128 0x10
 1814 0012 06       		.uleb128 0x6
 1815 0013 00       		.byte	0
 1816 0014 00       		.byte	0
 1817 0015 02       		.uleb128 0x2
 1818 0016 24       		.uleb128 0x24
 1819 0017 00       		.byte	0
 1820 0018 0B       		.uleb128 0xb
 1821 0019 0B       		.uleb128 0xb
 1822 001a 3E       		.uleb128 0x3e
 1823 001b 0B       		.uleb128 0xb
 1824 001c 03       		.uleb128 0x3
 1825 001d 08       		.uleb128 0x8
 1826 001e 00       		.byte	0
 1827 001f 00       		.byte	0
 1828 0020 03       		.uleb128 0x3
 1829 0021 24       		.uleb128 0x24
 1830 0022 00       		.byte	0
 1831 0023 0B       		.uleb128 0xb
 1832 0024 0B       		.uleb128 0xb
 1833 0025 3E       		.uleb128 0x3e
 1834 0026 0B       		.uleb128 0xb
 1835 0027 03       		.uleb128 0x3
 1836 0028 0E       		.uleb128 0xe
 1837 0029 00       		.byte	0
 1838 002a 00       		.byte	0
 1839 002b 04       		.uleb128 0x4
 1840 002c 16       		.uleb128 0x16
 1841 002d 00       		.byte	0
 1842 002e 03       		.uleb128 0x3
 1843 002f 0E       		.uleb128 0xe
 1844 0030 3A       		.uleb128 0x3a
 1845 0031 0B       		.uleb128 0xb
 1846 0032 3B       		.uleb128 0x3b
 1847 0033 0B       		.uleb128 0xb
 1848 0034 49       		.uleb128 0x49
 1849 0035 13       		.uleb128 0x13
 1850 0036 00       		.byte	0
 1851 0037 00       		.byte	0
 1852 0038 05       		.uleb128 0x5
 1853 0039 13       		.uleb128 0x13
 1854 003a 01       		.byte	0x1
 1855 003b 03       		.uleb128 0x3
 1856 003c 0E       		.uleb128 0xe
 1857 003d 0B       		.uleb128 0xb
 1858 003e 0B       		.uleb128 0xb
 1859 003f 3A       		.uleb128 0x3a
 1860 0040 0B       		.uleb128 0xb
 1861 0041 3B       		.uleb128 0x3b
 1862 0042 0B       		.uleb128 0xb
 1863 0043 01       		.uleb128 0x1
 1864 0044 13       		.uleb128 0x13
 1865 0045 00       		.byte	0
 1866 0046 00       		.byte	0
 1867 0047 06       		.uleb128 0x6
 1868 0048 0D       		.uleb128 0xd
ARM GAS  C:\Users\Rob\AppData\Local\Temp\ccHLKJQZ.s 			page 34


 1869 0049 00       		.byte	0
 1870 004a 03       		.uleb128 0x3
 1871 004b 0E       		.uleb128 0xe
 1872 004c 3A       		.uleb128 0x3a
 1873 004d 0B       		.uleb128 0xb
 1874 004e 3B       		.uleb128 0x3b
 1875 004f 0B       		.uleb128 0xb
 1876 0050 49       		.uleb128 0x49
 1877 0051 13       		.uleb128 0x13
 1878 0052 38       		.uleb128 0x38
 1879 0053 0A       		.uleb128 0xa
 1880 0054 00       		.byte	0
 1881 0055 00       		.byte	0
 1882 0056 07       		.uleb128 0x7
 1883 0057 0D       		.uleb128 0xd
 1884 0058 00       		.byte	0
 1885 0059 03       		.uleb128 0x3
 1886 005a 08       		.uleb128 0x8
 1887 005b 3A       		.uleb128 0x3a
 1888 005c 0B       		.uleb128 0xb
 1889 005d 3B       		.uleb128 0x3b
 1890 005e 0B       		.uleb128 0xb
 1891 005f 49       		.uleb128 0x49
 1892 0060 13       		.uleb128 0x13
 1893 0061 38       		.uleb128 0x38
 1894 0062 0A       		.uleb128 0xa
 1895 0063 00       		.byte	0
 1896 0064 00       		.byte	0
 1897 0065 08       		.uleb128 0x8
 1898 0066 13       		.uleb128 0x13
 1899 0067 01       		.byte	0x1
 1900 0068 0B       		.uleb128 0xb
 1901 0069 0B       		.uleb128 0xb
 1902 006a 3A       		.uleb128 0x3a
 1903 006b 0B       		.uleb128 0xb
 1904 006c 3B       		.uleb128 0x3b
 1905 006d 0B       		.uleb128 0xb
 1906 006e 01       		.uleb128 0x1
 1907 006f 13       		.uleb128 0x13
 1908 0070 00       		.byte	0
 1909 0071 00       		.byte	0
 1910 0072 09       		.uleb128 0x9
 1911 0073 0F       		.uleb128 0xf
 1912 0074 00       		.byte	0
 1913 0075 0B       		.uleb128 0xb
 1914 0076 0B       		.uleb128 0xb
 1915 0077 49       		.uleb128 0x49
 1916 0078 13       		.uleb128 0x13
 1917 0079 00       		.byte	0
 1918 007a 00       		.byte	0
 1919 007b 0A       		.uleb128 0xa
 1920 007c 0F       		.uleb128 0xf
 1921 007d 00       		.byte	0
 1922 007e 0B       		.uleb128 0xb
 1923 007f 0B       		.uleb128 0xb
 1924 0080 00       		.byte	0
 1925 0081 00       		.byte	0
ARM GAS  C:\Users\Rob\AppData\Local\Temp\ccHLKJQZ.s 			page 35


 1926 0082 0B       		.uleb128 0xb
 1927 0083 35       		.uleb128 0x35
 1928 0084 00       		.byte	0
 1929 0085 49       		.uleb128 0x49
 1930 0086 13       		.uleb128 0x13
 1931 0087 00       		.byte	0
 1932 0088 00       		.byte	0
 1933 0089 0C       		.uleb128 0xc
 1934 008a 17       		.uleb128 0x17
 1935 008b 01       		.byte	0x1
 1936 008c 0B       		.uleb128 0xb
 1937 008d 0B       		.uleb128 0xb
 1938 008e 3A       		.uleb128 0x3a
 1939 008f 0B       		.uleb128 0xb
 1940 0090 3B       		.uleb128 0x3b
 1941 0091 0B       		.uleb128 0xb
 1942 0092 01       		.uleb128 0x1
 1943 0093 13       		.uleb128 0x13
 1944 0094 00       		.byte	0
 1945 0095 00       		.byte	0
 1946 0096 0D       		.uleb128 0xd
 1947 0097 0D       		.uleb128 0xd
 1948 0098 00       		.byte	0
 1949 0099 03       		.uleb128 0x3
 1950 009a 0E       		.uleb128 0xe
 1951 009b 3A       		.uleb128 0x3a
 1952 009c 0B       		.uleb128 0xb
 1953 009d 3B       		.uleb128 0x3b
 1954 009e 0B       		.uleb128 0xb
 1955 009f 49       		.uleb128 0x49
 1956 00a0 13       		.uleb128 0x13
 1957 00a1 00       		.byte	0
 1958 00a2 00       		.byte	0
 1959 00a3 0E       		.uleb128 0xe
 1960 00a4 26       		.uleb128 0x26
 1961 00a5 00       		.byte	0
 1962 00a6 49       		.uleb128 0x49
 1963 00a7 13       		.uleb128 0x13
 1964 00a8 00       		.byte	0
 1965 00a9 00       		.byte	0
 1966 00aa 0F       		.uleb128 0xf
 1967 00ab 2E       		.uleb128 0x2e
 1968 00ac 01       		.byte	0x1
 1969 00ad 03       		.uleb128 0x3
 1970 00ae 0E       		.uleb128 0xe
 1971 00af 3A       		.uleb128 0x3a
 1972 00b0 0B       		.uleb128 0xb
 1973 00b1 3B       		.uleb128 0x3b
 1974 00b2 0B       		.uleb128 0xb
 1975 00b3 27       		.uleb128 0x27
 1976 00b4 0C       		.uleb128 0xc
 1977 00b5 49       		.uleb128 0x49
 1978 00b6 13       		.uleb128 0x13
 1979 00b7 20       		.uleb128 0x20
 1980 00b8 0B       		.uleb128 0xb
 1981 00b9 01       		.uleb128 0x1
 1982 00ba 13       		.uleb128 0x13
ARM GAS  C:\Users\Rob\AppData\Local\Temp\ccHLKJQZ.s 			page 36


 1983 00bb 00       		.byte	0
 1984 00bc 00       		.byte	0
 1985 00bd 10       		.uleb128 0x10
 1986 00be 05       		.uleb128 0x5
 1987 00bf 00       		.byte	0
 1988 00c0 03       		.uleb128 0x3
 1989 00c1 08       		.uleb128 0x8
 1990 00c2 3A       		.uleb128 0x3a
 1991 00c3 0B       		.uleb128 0xb
 1992 00c4 3B       		.uleb128 0x3b
 1993 00c5 0B       		.uleb128 0xb
 1994 00c6 49       		.uleb128 0x49
 1995 00c7 13       		.uleb128 0x13
 1996 00c8 00       		.byte	0
 1997 00c9 00       		.byte	0
 1998 00ca 11       		.uleb128 0x11
 1999 00cb 34       		.uleb128 0x34
 2000 00cc 00       		.byte	0
 2001 00cd 03       		.uleb128 0x3
 2002 00ce 08       		.uleb128 0x8
 2003 00cf 3A       		.uleb128 0x3a
 2004 00d0 0B       		.uleb128 0xb
 2005 00d1 3B       		.uleb128 0x3b
 2006 00d2 0B       		.uleb128 0xb
 2007 00d3 49       		.uleb128 0x49
 2008 00d4 13       		.uleb128 0x13
 2009 00d5 00       		.byte	0
 2010 00d6 00       		.byte	0
 2011 00d7 12       		.uleb128 0x12
 2012 00d8 2E       		.uleb128 0x2e
 2013 00d9 01       		.byte	0x1
 2014 00da 03       		.uleb128 0x3
 2015 00db 0E       		.uleb128 0xe
 2016 00dc 3A       		.uleb128 0x3a
 2017 00dd 0B       		.uleb128 0xb
 2018 00de 3B       		.uleb128 0x3b
 2019 00df 0B       		.uleb128 0xb
 2020 00e0 27       		.uleb128 0x27
 2021 00e1 0C       		.uleb128 0xc
 2022 00e2 20       		.uleb128 0x20
 2023 00e3 0B       		.uleb128 0xb
 2024 00e4 01       		.uleb128 0x1
 2025 00e5 13       		.uleb128 0x13
 2026 00e6 00       		.byte	0
 2027 00e7 00       		.byte	0
 2028 00e8 13       		.uleb128 0x13
 2029 00e9 2E       		.uleb128 0x2e
 2030 00ea 01       		.byte	0x1
 2031 00eb 3F       		.uleb128 0x3f
 2032 00ec 0C       		.uleb128 0xc
 2033 00ed 03       		.uleb128 0x3
 2034 00ee 0E       		.uleb128 0xe
 2035 00ef 3A       		.uleb128 0x3a
 2036 00f0 0B       		.uleb128 0xb
 2037 00f1 3B       		.uleb128 0x3b
 2038 00f2 0B       		.uleb128 0xb
 2039 00f3 27       		.uleb128 0x27
ARM GAS  C:\Users\Rob\AppData\Local\Temp\ccHLKJQZ.s 			page 37


 2040 00f4 0C       		.uleb128 0xc
 2041 00f5 11       		.uleb128 0x11
 2042 00f6 01       		.uleb128 0x1
 2043 00f7 12       		.uleb128 0x12
 2044 00f8 01       		.uleb128 0x1
 2045 00f9 40       		.uleb128 0x40
 2046 00fa 0A       		.uleb128 0xa
 2047 00fb 01       		.uleb128 0x1
 2048 00fc 13       		.uleb128 0x13
 2049 00fd 00       		.byte	0
 2050 00fe 00       		.byte	0
 2051 00ff 14       		.uleb128 0x14
 2052 0100 05       		.uleb128 0x5
 2053 0101 00       		.byte	0
 2054 0102 03       		.uleb128 0x3
 2055 0103 08       		.uleb128 0x8
 2056 0104 3A       		.uleb128 0x3a
 2057 0105 0B       		.uleb128 0xb
 2058 0106 3B       		.uleb128 0x3b
 2059 0107 0B       		.uleb128 0xb
 2060 0108 49       		.uleb128 0x49
 2061 0109 13       		.uleb128 0x13
 2062 010a 02       		.uleb128 0x2
 2063 010b 0A       		.uleb128 0xa
 2064 010c 00       		.byte	0
 2065 010d 00       		.byte	0
 2066 010e 15       		.uleb128 0x15
 2067 010f 2E       		.uleb128 0x2e
 2068 0110 01       		.byte	0x1
 2069 0111 3F       		.uleb128 0x3f
 2070 0112 0C       		.uleb128 0xc
 2071 0113 03       		.uleb128 0x3
 2072 0114 0E       		.uleb128 0xe
 2073 0115 3A       		.uleb128 0x3a
 2074 0116 0B       		.uleb128 0xb
 2075 0117 3B       		.uleb128 0x3b
 2076 0118 0B       		.uleb128 0xb
 2077 0119 27       		.uleb128 0x27
 2078 011a 0C       		.uleb128 0xc
 2079 011b 11       		.uleb128 0x11
 2080 011c 01       		.uleb128 0x1
 2081 011d 12       		.uleb128 0x12
 2082 011e 01       		.uleb128 0x1
 2083 011f 40       		.uleb128 0x40
 2084 0120 06       		.uleb128 0x6
 2085 0121 01       		.uleb128 0x1
 2086 0122 13       		.uleb128 0x13
 2087 0123 00       		.byte	0
 2088 0124 00       		.byte	0
 2089 0125 16       		.uleb128 0x16
 2090 0126 05       		.uleb128 0x5
 2091 0127 00       		.byte	0
 2092 0128 03       		.uleb128 0x3
 2093 0129 08       		.uleb128 0x8
 2094 012a 3A       		.uleb128 0x3a
 2095 012b 0B       		.uleb128 0xb
 2096 012c 3B       		.uleb128 0x3b
ARM GAS  C:\Users\Rob\AppData\Local\Temp\ccHLKJQZ.s 			page 38


 2097 012d 0B       		.uleb128 0xb
 2098 012e 49       		.uleb128 0x49
 2099 012f 13       		.uleb128 0x13
 2100 0130 02       		.uleb128 0x2
 2101 0131 06       		.uleb128 0x6
 2102 0132 00       		.byte	0
 2103 0133 00       		.byte	0
 2104 0134 17       		.uleb128 0x17
 2105 0135 34       		.uleb128 0x34
 2106 0136 00       		.byte	0
 2107 0137 03       		.uleb128 0x3
 2108 0138 08       		.uleb128 0x8
 2109 0139 3A       		.uleb128 0x3a
 2110 013a 0B       		.uleb128 0xb
 2111 013b 3B       		.uleb128 0x3b
 2112 013c 0B       		.uleb128 0xb
 2113 013d 49       		.uleb128 0x49
 2114 013e 13       		.uleb128 0x13
 2115 013f 02       		.uleb128 0x2
 2116 0140 06       		.uleb128 0x6
 2117 0141 00       		.byte	0
 2118 0142 00       		.byte	0
 2119 0143 18       		.uleb128 0x18
 2120 0144 1D       		.uleb128 0x1d
 2121 0145 01       		.byte	0x1
 2122 0146 31       		.uleb128 0x31
 2123 0147 13       		.uleb128 0x13
 2124 0148 52       		.uleb128 0x52
 2125 0149 01       		.uleb128 0x1
 2126 014a 55       		.uleb128 0x55
 2127 014b 06       		.uleb128 0x6
 2128 014c 58       		.uleb128 0x58
 2129 014d 0B       		.uleb128 0xb
 2130 014e 59       		.uleb128 0x59
 2131 014f 0B       		.uleb128 0xb
 2132 0150 00       		.byte	0
 2133 0151 00       		.byte	0
 2134 0152 19       		.uleb128 0x19
 2135 0153 05       		.uleb128 0x5
 2136 0154 00       		.byte	0
 2137 0155 31       		.uleb128 0x31
 2138 0156 13       		.uleb128 0x13
 2139 0157 02       		.uleb128 0x2
 2140 0158 06       		.uleb128 0x6
 2141 0159 00       		.byte	0
 2142 015a 00       		.byte	0
 2143 015b 1A       		.uleb128 0x1a
 2144 015c 0B       		.uleb128 0xb
 2145 015d 01       		.byte	0x1
 2146 015e 55       		.uleb128 0x55
 2147 015f 06       		.uleb128 0x6
 2148 0160 00       		.byte	0
 2149 0161 00       		.byte	0
 2150 0162 1B       		.uleb128 0x1b
 2151 0163 34       		.uleb128 0x34
 2152 0164 00       		.byte	0
 2153 0165 31       		.uleb128 0x31
ARM GAS  C:\Users\Rob\AppData\Local\Temp\ccHLKJQZ.s 			page 39


 2154 0166 13       		.uleb128 0x13
 2155 0167 02       		.uleb128 0x2
 2156 0168 06       		.uleb128 0x6
 2157 0169 00       		.byte	0
 2158 016a 00       		.byte	0
 2159 016b 1C       		.uleb128 0x1c
 2160 016c 2E       		.uleb128 0x2e
 2161 016d 01       		.byte	0x1
 2162 016e 3F       		.uleb128 0x3f
 2163 016f 0C       		.uleb128 0xc
 2164 0170 03       		.uleb128 0x3
 2165 0171 0E       		.uleb128 0xe
 2166 0172 3A       		.uleb128 0x3a
 2167 0173 0B       		.uleb128 0xb
 2168 0174 3B       		.uleb128 0x3b
 2169 0175 0B       		.uleb128 0xb
 2170 0176 27       		.uleb128 0x27
 2171 0177 0C       		.uleb128 0xc
 2172 0178 49       		.uleb128 0x49
 2173 0179 13       		.uleb128 0x13
 2174 017a 11       		.uleb128 0x11
 2175 017b 01       		.uleb128 0x1
 2176 017c 12       		.uleb128 0x12
 2177 017d 01       		.uleb128 0x1
 2178 017e 40       		.uleb128 0x40
 2179 017f 06       		.uleb128 0x6
 2180 0180 01       		.uleb128 0x1
 2181 0181 13       		.uleb128 0x13
 2182 0182 00       		.byte	0
 2183 0183 00       		.byte	0
 2184 0184 1D       		.uleb128 0x1d
 2185 0185 1D       		.uleb128 0x1d
 2186 0186 01       		.byte	0x1
 2187 0187 31       		.uleb128 0x31
 2188 0188 13       		.uleb128 0x13
 2189 0189 11       		.uleb128 0x11
 2190 018a 01       		.uleb128 0x1
 2191 018b 12       		.uleb128 0x12
 2192 018c 01       		.uleb128 0x1
 2193 018d 58       		.uleb128 0x58
 2194 018e 0B       		.uleb128 0xb
 2195 018f 59       		.uleb128 0x59
 2196 0190 0B       		.uleb128 0xb
 2197 0191 00       		.byte	0
 2198 0192 00       		.byte	0
 2199 0193 1E       		.uleb128 0x1e
 2200 0194 34       		.uleb128 0x34
 2201 0195 00       		.byte	0
 2202 0196 03       		.uleb128 0x3
 2203 0197 08       		.uleb128 0x8
 2204 0198 3A       		.uleb128 0x3a
 2205 0199 0B       		.uleb128 0xb
 2206 019a 3B       		.uleb128 0x3b
 2207 019b 0B       		.uleb128 0xb
 2208 019c 49       		.uleb128 0x49
 2209 019d 13       		.uleb128 0x13
 2210 019e 02       		.uleb128 0x2
ARM GAS  C:\Users\Rob\AppData\Local\Temp\ccHLKJQZ.s 			page 40


 2211 019f 0A       		.uleb128 0xa
 2212 01a0 00       		.byte	0
 2213 01a1 00       		.byte	0
 2214 01a2 1F       		.uleb128 0x1f
 2215 01a3 05       		.uleb128 0x5
 2216 01a4 00       		.byte	0
 2217 01a5 03       		.uleb128 0x3
 2218 01a6 0E       		.uleb128 0xe
 2219 01a7 3A       		.uleb128 0x3a
 2220 01a8 0B       		.uleb128 0xb
 2221 01a9 3B       		.uleb128 0x3b
 2222 01aa 0B       		.uleb128 0xb
 2223 01ab 49       		.uleb128 0x49
 2224 01ac 13       		.uleb128 0x13
 2225 01ad 02       		.uleb128 0x2
 2226 01ae 06       		.uleb128 0x6
 2227 01af 00       		.byte	0
 2228 01b0 00       		.byte	0
 2229 01b1 20       		.uleb128 0x20
 2230 01b2 1D       		.uleb128 0x1d
 2231 01b3 01       		.byte	0x1
 2232 01b4 31       		.uleb128 0x31
 2233 01b5 13       		.uleb128 0x13
 2234 01b6 11       		.uleb128 0x11
 2235 01b7 01       		.uleb128 0x1
 2236 01b8 12       		.uleb128 0x12
 2237 01b9 01       		.uleb128 0x1
 2238 01ba 58       		.uleb128 0x58
 2239 01bb 0B       		.uleb128 0xb
 2240 01bc 59       		.uleb128 0x59
 2241 01bd 05       		.uleb128 0x5
 2242 01be 00       		.byte	0
 2243 01bf 00       		.byte	0
 2244 01c0 21       		.uleb128 0x21
 2245 01c1 05       		.uleb128 0x5
 2246 01c2 00       		.byte	0
 2247 01c3 31       		.uleb128 0x31
 2248 01c4 13       		.uleb128 0x13
 2249 01c5 00       		.byte	0
 2250 01c6 00       		.byte	0
 2251 01c7 22       		.uleb128 0x22
 2252 01c8 2E       		.uleb128 0x2e
 2253 01c9 01       		.byte	0x1
 2254 01ca 3F       		.uleb128 0x3f
 2255 01cb 0C       		.uleb128 0xc
 2256 01cc 03       		.uleb128 0x3
 2257 01cd 0E       		.uleb128 0xe
 2258 01ce 3A       		.uleb128 0x3a
 2259 01cf 0B       		.uleb128 0xb
 2260 01d0 3B       		.uleb128 0x3b
 2261 01d1 05       		.uleb128 0x5
 2262 01d2 27       		.uleb128 0x27
 2263 01d3 0C       		.uleb128 0xc
 2264 01d4 11       		.uleb128 0x11
 2265 01d5 01       		.uleb128 0x1
 2266 01d6 12       		.uleb128 0x12
 2267 01d7 01       		.uleb128 0x1
ARM GAS  C:\Users\Rob\AppData\Local\Temp\ccHLKJQZ.s 			page 41


 2268 01d8 40       		.uleb128 0x40
 2269 01d9 06       		.uleb128 0x6
 2270 01da 01       		.uleb128 0x1
 2271 01db 13       		.uleb128 0x13
 2272 01dc 00       		.byte	0
 2273 01dd 00       		.byte	0
 2274 01de 23       		.uleb128 0x23
 2275 01df 05       		.uleb128 0x5
 2276 01e0 00       		.byte	0
 2277 01e1 03       		.uleb128 0x3
 2278 01e2 08       		.uleb128 0x8
 2279 01e3 3A       		.uleb128 0x3a
 2280 01e4 0B       		.uleb128 0xb
 2281 01e5 3B       		.uleb128 0x3b
 2282 01e6 05       		.uleb128 0x5
 2283 01e7 49       		.uleb128 0x49
 2284 01e8 13       		.uleb128 0x13
 2285 01e9 02       		.uleb128 0x2
 2286 01ea 06       		.uleb128 0x6
 2287 01eb 00       		.byte	0
 2288 01ec 00       		.byte	0
 2289 01ed 24       		.uleb128 0x24
 2290 01ee 1D       		.uleb128 0x1d
 2291 01ef 01       		.byte	0x1
 2292 01f0 31       		.uleb128 0x31
 2293 01f1 13       		.uleb128 0x13
 2294 01f2 52       		.uleb128 0x52
 2295 01f3 01       		.uleb128 0x1
 2296 01f4 55       		.uleb128 0x55
 2297 01f5 06       		.uleb128 0x6
 2298 01f6 58       		.uleb128 0x58
 2299 01f7 0B       		.uleb128 0xb
 2300 01f8 59       		.uleb128 0x59
 2301 01f9 05       		.uleb128 0x5
 2302 01fa 00       		.byte	0
 2303 01fb 00       		.byte	0
 2304 01fc 25       		.uleb128 0x25
 2305 01fd 0B       		.uleb128 0xb
 2306 01fe 01       		.byte	0x1
 2307 01ff 11       		.uleb128 0x11
 2308 0200 01       		.uleb128 0x1
 2309 0201 12       		.uleb128 0x12
 2310 0202 01       		.uleb128 0x1
 2311 0203 00       		.byte	0
 2312 0204 00       		.byte	0
 2313 0205 26       		.uleb128 0x26
 2314 0206 34       		.uleb128 0x34
 2315 0207 00       		.byte	0
 2316 0208 03       		.uleb128 0x3
 2317 0209 08       		.uleb128 0x8
 2318 020a 3A       		.uleb128 0x3a
 2319 020b 0B       		.uleb128 0xb
 2320 020c 3B       		.uleb128 0x3b
 2321 020d 05       		.uleb128 0x5
 2322 020e 49       		.uleb128 0x49
 2323 020f 13       		.uleb128 0x13
 2324 0210 02       		.uleb128 0x2
ARM GAS  C:\Users\Rob\AppData\Local\Temp\ccHLKJQZ.s 			page 42


 2325 0211 0A       		.uleb128 0xa
 2326 0212 00       		.byte	0
 2327 0213 00       		.byte	0
 2328 0214 27       		.uleb128 0x27
 2329 0215 2E       		.uleb128 0x2e
 2330 0216 01       		.byte	0x1
 2331 0217 3F       		.uleb128 0x3f
 2332 0218 0C       		.uleb128 0xc
 2333 0219 03       		.uleb128 0x3
 2334 021a 0E       		.uleb128 0xe
 2335 021b 3A       		.uleb128 0x3a
 2336 021c 0B       		.uleb128 0xb
 2337 021d 3B       		.uleb128 0x3b
 2338 021e 05       		.uleb128 0x5
 2339 021f 27       		.uleb128 0x27
 2340 0220 0C       		.uleb128 0xc
 2341 0221 49       		.uleb128 0x49
 2342 0222 13       		.uleb128 0x13
 2343 0223 11       		.uleb128 0x11
 2344 0224 01       		.uleb128 0x1
 2345 0225 12       		.uleb128 0x12
 2346 0226 01       		.uleb128 0x1
 2347 0227 40       		.uleb128 0x40
 2348 0228 06       		.uleb128 0x6
 2349 0229 01       		.uleb128 0x1
 2350 022a 13       		.uleb128 0x13
 2351 022b 00       		.byte	0
 2352 022c 00       		.byte	0
 2353 022d 28       		.uleb128 0x28
 2354 022e 34       		.uleb128 0x34
 2355 022f 00       		.byte	0
 2356 0230 03       		.uleb128 0x3
 2357 0231 08       		.uleb128 0x8
 2358 0232 3A       		.uleb128 0x3a
 2359 0233 0B       		.uleb128 0xb
 2360 0234 3B       		.uleb128 0x3b
 2361 0235 05       		.uleb128 0x5
 2362 0236 49       		.uleb128 0x49
 2363 0237 13       		.uleb128 0x13
 2364 0238 02       		.uleb128 0x2
 2365 0239 06       		.uleb128 0x6
 2366 023a 00       		.byte	0
 2367 023b 00       		.byte	0
 2368 023c 29       		.uleb128 0x29
 2369 023d 0B       		.uleb128 0xb
 2370 023e 01       		.byte	0x1
 2371 023f 11       		.uleb128 0x11
 2372 0240 01       		.uleb128 0x1
 2373 0241 12       		.uleb128 0x12
 2374 0242 01       		.uleb128 0x1
 2375 0243 01       		.uleb128 0x1
 2376 0244 13       		.uleb128 0x13
 2377 0245 00       		.byte	0
 2378 0246 00       		.byte	0
 2379 0247 2A       		.uleb128 0x2a
 2380 0248 34       		.uleb128 0x34
 2381 0249 00       		.byte	0
ARM GAS  C:\Users\Rob\AppData\Local\Temp\ccHLKJQZ.s 			page 43


 2382 024a 03       		.uleb128 0x3
 2383 024b 0E       		.uleb128 0xe
 2384 024c 3A       		.uleb128 0x3a
 2385 024d 0B       		.uleb128 0xb
 2386 024e 3B       		.uleb128 0x3b
 2387 024f 0B       		.uleb128 0xb
 2388 0250 49       		.uleb128 0x49
 2389 0251 13       		.uleb128 0x13
 2390 0252 3F       		.uleb128 0x3f
 2391 0253 0C       		.uleb128 0xc
 2392 0254 3C       		.uleb128 0x3c
 2393 0255 0C       		.uleb128 0xc
 2394 0256 00       		.byte	0
 2395 0257 00       		.byte	0
 2396 0258 00       		.byte	0
 2397              		.section	.debug_loc,"",%progbits
 2398              	.Ldebug_loc0:
 2399              	.LLST0:
 2400 0000 00000000 		.4byte	.LFB9
 2401 0004 02000000 		.4byte	.LCFI0
 2402 0008 0200     		.2byte	0x2
 2403 000a 7D       		.byte	0x7d
 2404 000b 00       		.sleb128 0
 2405 000c 02000000 		.4byte	.LCFI0
 2406 0010 28000000 		.4byte	.LFE9
 2407 0014 0200     		.2byte	0x2
 2408 0016 7D       		.byte	0x7d
 2409 0017 10       		.sleb128 16
 2410 0018 00000000 		.4byte	0
 2411 001c 00000000 		.4byte	0
 2412              	.LLST1:
 2413 0020 02000000 		.4byte	.LVL1
 2414 0024 12000000 		.4byte	.LVL4
 2415 0028 0100     		.2byte	0x1
 2416 002a 50       		.byte	0x50
 2417 002b 12000000 		.4byte	.LVL4
 2418 002f 26000000 		.4byte	.LVL10
 2419 0033 0100     		.2byte	0x1
 2420 0035 54       		.byte	0x54
 2421 0036 00000000 		.4byte	0
 2422 003a 00000000 		.4byte	0
 2423              	.LLST2:
 2424 003e 02000000 		.4byte	.LVL1
 2425 0042 12000000 		.4byte	.LVL4
 2426 0046 0100     		.2byte	0x1
 2427 0048 51       		.byte	0x51
 2428 0049 00000000 		.4byte	0
 2429 004d 00000000 		.4byte	0
 2430              	.LLST3:
 2431 0051 04000000 		.4byte	.LVL2
 2432 0055 0A000000 		.4byte	.LVL3
 2433 0059 0200     		.2byte	0x2
 2434 005b 70       		.byte	0x70
 2435 005c 08       		.sleb128 8
 2436 005d 0A000000 		.4byte	.LVL3
 2437 0061 16000000 		.4byte	.LVL6
 2438 0065 0100     		.2byte	0x1
ARM GAS  C:\Users\Rob\AppData\Local\Temp\ccHLKJQZ.s 			page 44


 2439 0067 55       		.byte	0x55
 2440 0068 16000000 		.4byte	.LVL6
 2441 006c 22000000 		.4byte	.LVL8
 2442 0070 0300     		.2byte	0x3
 2443 0072 75       		.byte	0x75
 2444 0073 7F       		.sleb128 -1
 2445 0074 9F       		.byte	0x9f
 2446 0075 22000000 		.4byte	.LVL8
 2447 0079 26000000 		.4byte	.LVL11
 2448 007d 0100     		.2byte	0x1
 2449 007f 55       		.byte	0x55
 2450 0080 00000000 		.4byte	0
 2451 0084 00000000 		.4byte	0
 2452              	.LLST4:
 2453 0088 12000000 		.4byte	.LVL4
 2454 008c 26000000 		.4byte	.LVL9
 2455 0090 0100     		.2byte	0x1
 2456 0092 54       		.byte	0x54
 2457 0093 00000000 		.4byte	0
 2458 0097 00000000 		.4byte	0
 2459              	.LLST5:
 2460 009b 14000000 		.4byte	.LVL5
 2461 009f 1F000000 		.4byte	.LVL7-1
 2462 00a3 0200     		.2byte	0x2
 2463 00a5 74       		.byte	0x74
 2464 00a6 04       		.sleb128 4
 2465 00a7 00000000 		.4byte	0
 2466 00ab 00000000 		.4byte	0
 2467              	.LLST6:
 2468 00af 00000000 		.4byte	.LFB8
 2469 00b3 02000000 		.4byte	.LCFI1
 2470 00b7 0200     		.2byte	0x2
 2471 00b9 7D       		.byte	0x7d
 2472 00ba 00       		.sleb128 0
 2473 00bb 02000000 		.4byte	.LCFI1
 2474 00bf 10000000 		.4byte	.LFE8
 2475 00c3 0200     		.2byte	0x2
 2476 00c5 7D       		.byte	0x7d
 2477 00c6 08       		.sleb128 8
 2478 00c7 00000000 		.4byte	0
 2479 00cb 00000000 		.4byte	0
 2480              	.LLST7:
 2481 00cf 02000000 		.4byte	.LVL12
 2482 00d3 07000000 		.4byte	.LVL13-1
 2483 00d7 0100     		.2byte	0x1
 2484 00d9 50       		.byte	0x50
 2485 00da 00000000 		.4byte	0
 2486 00de 00000000 		.4byte	0
 2487              	.LLST8:
 2488 00e2 02000000 		.4byte	.LVL12
 2489 00e6 07000000 		.4byte	.LVL13-1
 2490 00ea 0100     		.2byte	0x1
 2491 00ec 51       		.byte	0x51
 2492 00ed 00000000 		.4byte	0
 2493 00f1 00000000 		.4byte	0
 2494              	.LLST9:
 2495 00f5 00000000 		.4byte	.LFB11
ARM GAS  C:\Users\Rob\AppData\Local\Temp\ccHLKJQZ.s 			page 45


 2496 00f9 02000000 		.4byte	.LCFI2
 2497 00fd 0200     		.2byte	0x2
 2498 00ff 7D       		.byte	0x7d
 2499 0100 00       		.sleb128 0
 2500 0101 02000000 		.4byte	.LCFI2
 2501 0105 34000000 		.4byte	.LFE11
 2502 0109 0200     		.2byte	0x2
 2503 010b 7D       		.byte	0x7d
 2504 010c 08       		.sleb128 8
 2505 010d 00000000 		.4byte	0
 2506 0111 00000000 		.4byte	0
 2507              	.LLST10:
 2508 0115 02000000 		.4byte	.LVL14
 2509 0119 0C000000 		.4byte	.LVL15
 2510 011d 0100     		.2byte	0x1
 2511 011f 50       		.byte	0x50
 2512 0120 0C000000 		.4byte	.LVL15
 2513 0124 10000000 		.4byte	.LVL16
 2514 0128 0100     		.2byte	0x1
 2515 012a 53       		.byte	0x53
 2516 012b 12000000 		.4byte	.LVL17
 2517 012f 27000000 		.4byte	.LVL19-1
 2518 0133 0100     		.2byte	0x1
 2519 0135 53       		.byte	0x53
 2520 0136 00000000 		.4byte	0
 2521 013a 00000000 		.4byte	0
 2522              	.LLST11:
 2523 013e 1A000000 		.4byte	.LVL18
 2524 0142 27000000 		.4byte	.LVL19-1
 2525 0146 0100     		.2byte	0x1
 2526 0148 53       		.byte	0x53
 2527 0149 00000000 		.4byte	0
 2528 014d 00000000 		.4byte	0
 2529              	.LLST12:
 2530 0151 1A000000 		.4byte	.LVL18
 2531 0155 27000000 		.4byte	.LVL19-1
 2532 0159 0200     		.2byte	0x2
 2533 015b 74       		.byte	0x74
 2534 015c 18       		.sleb128 24
 2535 015d 00000000 		.4byte	0
 2536 0161 00000000 		.4byte	0
 2537              	.LLST13:
 2538 0165 00000000 		.4byte	.LFB10
 2539 0169 02000000 		.4byte	.LCFI3
 2540 016d 0200     		.2byte	0x2
 2541 016f 7D       		.byte	0x7d
 2542 0170 00       		.sleb128 0
 2543 0171 02000000 		.4byte	.LCFI3
 2544 0175 0C000000 		.4byte	.LFE10
 2545 0179 0200     		.2byte	0x2
 2546 017b 7D       		.byte	0x7d
 2547 017c 08       		.sleb128 8
 2548 017d 00000000 		.4byte	0
 2549 0181 00000000 		.4byte	0
 2550              	.LLST14:
 2551 0185 02000000 		.4byte	.LVL20
 2552 0189 07000000 		.4byte	.LVL21-1
ARM GAS  C:\Users\Rob\AppData\Local\Temp\ccHLKJQZ.s 			page 46


 2553 018d 0100     		.2byte	0x1
 2554 018f 50       		.byte	0x50
 2555 0190 00000000 		.4byte	0
 2556 0194 00000000 		.4byte	0
 2557              	.LLST15:
 2558 0198 00000000 		.4byte	.LFB13
 2559 019c 02000000 		.4byte	.LCFI4
 2560 01a0 0200     		.2byte	0x2
 2561 01a2 7D       		.byte	0x7d
 2562 01a3 00       		.sleb128 0
 2563 01a4 02000000 		.4byte	.LCFI4
 2564 01a8 3C000000 		.4byte	.LFE13
 2565 01ac 0200     		.2byte	0x2
 2566 01ae 7D       		.byte	0x7d
 2567 01af 08       		.sleb128 8
 2568 01b0 00000000 		.4byte	0
 2569 01b4 00000000 		.4byte	0
 2570              	.LLST16:
 2571 01b8 02000000 		.4byte	.LVL22
 2572 01bc 0C000000 		.4byte	.LVL23
 2573 01c0 0100     		.2byte	0x1
 2574 01c2 50       		.byte	0x50
 2575 01c3 0C000000 		.4byte	.LVL23
 2576 01c7 10000000 		.4byte	.LVL24
 2577 01cb 0100     		.2byte	0x1
 2578 01cd 53       		.byte	0x53
 2579 01ce 12000000 		.4byte	.LVL25
 2580 01d2 2B000000 		.4byte	.LVL27-1
 2581 01d6 0100     		.2byte	0x1
 2582 01d8 53       		.byte	0x53
 2583 01d9 2E000000 		.4byte	.LVL28
 2584 01dd 3C000000 		.4byte	.LFE13
 2585 01e1 0100     		.2byte	0x1
 2586 01e3 53       		.byte	0x53
 2587 01e4 00000000 		.4byte	0
 2588 01e8 00000000 		.4byte	0
 2589              	.LLST17:
 2590 01ec 02000000 		.4byte	.LVL22
 2591 01f0 10000000 		.4byte	.LVL24
 2592 01f4 0100     		.2byte	0x1
 2593 01f6 51       		.byte	0x51
 2594 01f7 12000000 		.4byte	.LVL25
 2595 01fb 2B000000 		.4byte	.LVL27-1
 2596 01ff 0100     		.2byte	0x1
 2597 0201 51       		.byte	0x51
 2598 0202 2E000000 		.4byte	.LVL28
 2599 0206 3C000000 		.4byte	.LFE13
 2600 020a 0100     		.2byte	0x1
 2601 020c 51       		.byte	0x51
 2602 020d 00000000 		.4byte	0
 2603 0211 00000000 		.4byte	0
 2604              	.LLST18:
 2605 0215 1C000000 		.4byte	.LVL26
 2606 0219 2B000000 		.4byte	.LVL27-1
 2607 021d 0100     		.2byte	0x1
 2608 021f 53       		.byte	0x53
 2609 0220 00000000 		.4byte	0
ARM GAS  C:\Users\Rob\AppData\Local\Temp\ccHLKJQZ.s 			page 47


 2610 0224 00000000 		.4byte	0
 2611              	.LLST19:
 2612 0228 00000000 		.4byte	.LFB12
 2613 022c 02000000 		.4byte	.LCFI5
 2614 0230 0200     		.2byte	0x2
 2615 0232 7D       		.byte	0x7d
 2616 0233 00       		.sleb128 0
 2617 0234 02000000 		.4byte	.LCFI5
 2618 0238 0C000000 		.4byte	.LFE12
 2619 023c 0200     		.2byte	0x2
 2620 023e 7D       		.byte	0x7d
 2621 023f 08       		.sleb128 8
 2622 0240 00000000 		.4byte	0
 2623 0244 00000000 		.4byte	0
 2624              	.LLST20:
 2625 0248 02000000 		.4byte	.LVL29
 2626 024c 07000000 		.4byte	.LVL30-1
 2627 0250 0100     		.2byte	0x1
 2628 0252 50       		.byte	0x50
 2629 0253 00000000 		.4byte	0
 2630 0257 00000000 		.4byte	0
 2631              	.LLST21:
 2632 025b 02000000 		.4byte	.LVL29
 2633 025f 07000000 		.4byte	.LVL30-1
 2634 0263 0100     		.2byte	0x1
 2635 0265 51       		.byte	0x51
 2636 0266 00000000 		.4byte	0
 2637 026a 00000000 		.4byte	0
 2638              	.LLST22:
 2639 026e 00000000 		.4byte	.LFB14
 2640 0272 02000000 		.4byte	.LCFI6
 2641 0276 0200     		.2byte	0x2
 2642 0278 7D       		.byte	0x7d
 2643 0279 00       		.sleb128 0
 2644 027a 02000000 		.4byte	.LCFI6
 2645 027e 24000000 		.4byte	.LFE14
 2646 0282 0200     		.2byte	0x2
 2647 0284 7D       		.byte	0x7d
 2648 0285 08       		.sleb128 8
 2649 0286 00000000 		.4byte	0
 2650 028a 00000000 		.4byte	0
 2651              	.LLST23:
 2652 028e 02000000 		.4byte	.LVL31
 2653 0292 0E000000 		.4byte	.LVL32
 2654 0296 0100     		.2byte	0x1
 2655 0298 50       		.byte	0x50
 2656 0299 12000000 		.4byte	.LVL33
 2657 029d 1E000000 		.4byte	.LVL35
 2658 02a1 0100     		.2byte	0x1
 2659 02a3 50       		.byte	0x50
 2660 02a4 00000000 		.4byte	0
 2661 02a8 00000000 		.4byte	0
 2662              	.LLST24:
 2663 02ac 12000000 		.4byte	.LVL33
 2664 02b0 1E000000 		.4byte	.LVL35
 2665 02b4 0100     		.2byte	0x1
 2666 02b6 50       		.byte	0x50
ARM GAS  C:\Users\Rob\AppData\Local\Temp\ccHLKJQZ.s 			page 48


 2667 02b7 1E000000 		.4byte	.LVL35
 2668 02bb 21000000 		.4byte	.LVL36-1
 2669 02bf 0500     		.2byte	0x5
 2670 02c1 70       		.byte	0x70
 2671 02c2 00       		.sleb128 0
 2672 02c3 06       		.byte	0x6
 2673 02c4 23       		.byte	0x23
 2674 02c5 04       		.uleb128 0x4
 2675 02c6 00000000 		.4byte	0
 2676 02ca 00000000 		.4byte	0
 2677              	.LLST25:
 2678 02ce 14000000 		.4byte	.LVL34
 2679 02d2 1E000000 		.4byte	.LVL35
 2680 02d6 0200     		.2byte	0x2
 2681 02d8 70       		.byte	0x70
 2682 02d9 00       		.sleb128 0
 2683 02da 1E000000 		.4byte	.LVL35
 2684 02de 21000000 		.4byte	.LVL36-1
 2685 02e2 0100     		.2byte	0x1
 2686 02e4 50       		.byte	0x50
 2687 02e5 00000000 		.4byte	0
 2688 02e9 00000000 		.4byte	0
 2689              	.LLST26:
 2690 02ed 00000000 		.4byte	.LFB15
 2691 02f1 02000000 		.4byte	.LCFI7
 2692 02f5 0200     		.2byte	0x2
 2693 02f7 7D       		.byte	0x7d
 2694 02f8 00       		.sleb128 0
 2695 02f9 02000000 		.4byte	.LCFI7
 2696 02fd 22000000 		.4byte	.LFE15
 2697 0301 0200     		.2byte	0x2
 2698 0303 7D       		.byte	0x7d
 2699 0304 08       		.sleb128 8
 2700 0305 00000000 		.4byte	0
 2701 0309 00000000 		.4byte	0
 2702              	.LLST27:
 2703 030d 02000000 		.4byte	.LVL37
 2704 0311 0C000000 		.4byte	.LVL38
 2705 0315 0100     		.2byte	0x1
 2706 0317 50       		.byte	0x50
 2707 0318 0E000000 		.4byte	.LVL39
 2708 031c 1C000000 		.4byte	.LVL41
 2709 0320 0100     		.2byte	0x1
 2710 0322 50       		.byte	0x50
 2711 0323 00000000 		.4byte	0
 2712 0327 00000000 		.4byte	0
 2713              	.LLST28:
 2714 032b 0E000000 		.4byte	.LVL39
 2715 032f 1C000000 		.4byte	.LVL41
 2716 0333 0100     		.2byte	0x1
 2717 0335 50       		.byte	0x50
 2718 0336 1C000000 		.4byte	.LVL41
 2719 033a 1F000000 		.4byte	.LVL42-1
 2720 033e 0500     		.2byte	0x5
 2721 0340 70       		.byte	0x70
 2722 0341 00       		.sleb128 0
 2723 0342 06       		.byte	0x6
ARM GAS  C:\Users\Rob\AppData\Local\Temp\ccHLKJQZ.s 			page 49


 2724 0343 23       		.byte	0x23
 2725 0344 04       		.uleb128 0x4
 2726 0345 00000000 		.4byte	0
 2727 0349 00000000 		.4byte	0
 2728              	.LLST29:
 2729 034d 10000000 		.4byte	.LVL40
 2730 0351 1C000000 		.4byte	.LVL41
 2731 0355 0200     		.2byte	0x2
 2732 0357 70       		.byte	0x70
 2733 0358 00       		.sleb128 0
 2734 0359 1C000000 		.4byte	.LVL41
 2735 035d 1F000000 		.4byte	.LVL42-1
 2736 0361 0100     		.2byte	0x1
 2737 0363 50       		.byte	0x50
 2738 0364 00000000 		.4byte	0
 2739 0368 00000000 		.4byte	0
 2740              	.LLST30:
 2741 036c 00000000 		.4byte	.LFB16
 2742 0370 02000000 		.4byte	.LCFI8
 2743 0374 0200     		.2byte	0x2
 2744 0376 7D       		.byte	0x7d
 2745 0377 00       		.sleb128 0
 2746 0378 02000000 		.4byte	.LCFI8
 2747 037c 32000000 		.4byte	.LFE16
 2748 0380 0200     		.2byte	0x2
 2749 0382 7D       		.byte	0x7d
 2750 0383 10       		.sleb128 16
 2751 0384 00000000 		.4byte	0
 2752 0388 00000000 		.4byte	0
 2753              	.LLST31:
 2754 038c 02000000 		.4byte	.LVL43
 2755 0390 0C000000 		.4byte	.LVL44
 2756 0394 0100     		.2byte	0x1
 2757 0396 50       		.byte	0x50
 2758 0397 0C000000 		.4byte	.LVL44
 2759 039b 30000000 		.4byte	.LVL51
 2760 039f 0100     		.2byte	0x1
 2761 03a1 55       		.byte	0x55
 2762 03a2 00000000 		.4byte	0
 2763 03a6 00000000 		.4byte	0
 2764              	.LLST32:
 2765 03aa 02000000 		.4byte	.LVL43
 2766 03ae 0C000000 		.4byte	.LVL44
 2767 03b2 0100     		.2byte	0x1
 2768 03b4 51       		.byte	0x51
 2769 03b5 0E000000 		.4byte	.LVL45
 2770 03b9 12000000 		.4byte	.LVL46
 2771 03bd 0100     		.2byte	0x1
 2772 03bf 54       		.byte	0x54
 2773 03c0 2A000000 		.4byte	.LVL49
 2774 03c4 30000000 		.4byte	.LVL50
 2775 03c8 0100     		.2byte	0x1
 2776 03ca 54       		.byte	0x54
 2777 03cb 00000000 		.4byte	0
 2778 03cf 00000000 		.4byte	0
 2779              	.LLST33:
 2780 03d3 1C000000 		.4byte	.LVL47
ARM GAS  C:\Users\Rob\AppData\Local\Temp\ccHLKJQZ.s 			page 50


 2781 03d7 30000000 		.4byte	.LVL50
 2782 03db 0100     		.2byte	0x1
 2783 03dd 55       		.byte	0x55
 2784 03de 00000000 		.4byte	0
 2785 03e2 00000000 		.4byte	0
 2786              	.LLST34:
 2787 03e6 1E000000 		.4byte	.LVL48
 2788 03ea 29000000 		.4byte	.LVL49-1
 2789 03ee 0200     		.2byte	0x2
 2790 03f0 75       		.byte	0x75
 2791 03f1 00       		.sleb128 0
 2792 03f2 00000000 		.4byte	0
 2793 03f6 00000000 		.4byte	0
 2794              	.LLST35:
 2795 03fa 00000000 		.4byte	.LFB17
 2796 03fe 02000000 		.4byte	.LCFI9
 2797 0402 0200     		.2byte	0x2
 2798 0404 7D       		.byte	0x7d
 2799 0405 00       		.sleb128 0
 2800 0406 02000000 		.4byte	.LCFI9
 2801 040a 58000000 		.4byte	.LFE17
 2802 040e 0200     		.2byte	0x2
 2803 0410 7D       		.byte	0x7d
 2804 0411 10       		.sleb128 16
 2805 0412 00000000 		.4byte	0
 2806 0416 00000000 		.4byte	0
 2807              	.LLST36:
 2808 041a 02000000 		.4byte	.LVL52
 2809 041e 10000000 		.4byte	.LVL53
 2810 0422 0100     		.2byte	0x1
 2811 0424 50       		.byte	0x50
 2812 0425 3E000000 		.4byte	.LVL62
 2813 0429 48000000 		.4byte	.LVL64
 2814 042d 0100     		.2byte	0x1
 2815 042f 50       		.byte	0x50
 2816 0430 48000000 		.4byte	.LVL64
 2817 0434 4B000000 		.4byte	.LVL65-1
 2818 0438 0500     		.2byte	0x5
 2819 043a 70       		.byte	0x70
 2820 043b 00       		.sleb128 0
 2821 043c 06       		.byte	0x6
 2822 043d 23       		.byte	0x23
 2823 043e 04       		.uleb128 0x4
 2824 043f 00000000 		.4byte	0
 2825 0443 00000000 		.4byte	0
 2826              	.LLST37:
 2827 0447 02000000 		.4byte	.LVL52
 2828 044b 10000000 		.4byte	.LVL53
 2829 044f 0100     		.2byte	0x1
 2830 0451 51       		.byte	0x51
 2831 0452 10000000 		.4byte	.LVL53
 2832 0456 22000000 		.4byte	.LVL56
 2833 045a 0100     		.2byte	0x1
 2834 045c 54       		.byte	0x54
 2835 045d 24000000 		.4byte	.LVL57
 2836 0461 58000000 		.4byte	.LFE17
 2837 0465 0100     		.2byte	0x1
ARM GAS  C:\Users\Rob\AppData\Local\Temp\ccHLKJQZ.s 			page 51


 2838 0467 54       		.byte	0x54
 2839 0468 00000000 		.4byte	0
 2840 046c 00000000 		.4byte	0
 2841              	.LLST38:
 2842 0470 1E000000 		.4byte	.LVL54
 2843 0474 20000000 		.4byte	.LVL55
 2844 0478 0200     		.2byte	0x2
 2845 047a 30       		.byte	0x30
 2846 047b 9F       		.byte	0x9f
 2847 047c 20000000 		.4byte	.LVL55
 2848 0480 24000000 		.4byte	.LVL57
 2849 0484 0100     		.2byte	0x1
 2850 0486 50       		.byte	0x50
 2851 0487 3C000000 		.4byte	.LVL61
 2852 048b 3E000000 		.4byte	.LVL62
 2853 048f 0200     		.2byte	0x2
 2854 0491 75       		.byte	0x75
 2855 0492 24       		.sleb128 36
 2856 0493 00000000 		.4byte	0
 2857 0497 00000000 		.4byte	0
 2858              	.LLST39:
 2859 049b 2A000000 		.4byte	.LVL58
 2860 049f 2C000000 		.4byte	.LVL59
 2861 04a3 0200     		.2byte	0x2
 2862 04a5 73       		.byte	0x73
 2863 04a6 18       		.sleb128 24
 2864 04a7 39000000 		.4byte	.LVL60-1
 2865 04ab 3E000000 		.4byte	.LVL62
 2866 04af 0100     		.2byte	0x1
 2867 04b1 55       		.byte	0x55
 2868 04b2 00000000 		.4byte	0
 2869 04b6 00000000 		.4byte	0
 2870              	.LLST40:
 2871 04ba 2A000000 		.4byte	.LVL58
 2872 04be 3E000000 		.4byte	.LVL62
 2873 04c2 0100     		.2byte	0x1
 2874 04c4 54       		.byte	0x54
 2875 04c5 00000000 		.4byte	0
 2876 04c9 00000000 		.4byte	0
 2877              	.LLST42:
 2878 04cd 3E000000 		.4byte	.LVL62
 2879 04d1 48000000 		.4byte	.LVL64
 2880 04d5 0100     		.2byte	0x1
 2881 04d7 50       		.byte	0x50
 2882 04d8 48000000 		.4byte	.LVL64
 2883 04dc 4B000000 		.4byte	.LVL65-1
 2884 04e0 0500     		.2byte	0x5
 2885 04e2 70       		.byte	0x70
 2886 04e3 00       		.sleb128 0
 2887 04e4 06       		.byte	0x6
 2888 04e5 23       		.byte	0x23
 2889 04e6 04       		.uleb128 0x4
 2890 04e7 00000000 		.4byte	0
 2891 04eb 00000000 		.4byte	0
 2892              	.LLST43:
 2893 04ef 40000000 		.4byte	.LVL63
 2894 04f3 48000000 		.4byte	.LVL64
ARM GAS  C:\Users\Rob\AppData\Local\Temp\ccHLKJQZ.s 			page 52


 2895 04f7 0200     		.2byte	0x2
 2896 04f9 70       		.byte	0x70
 2897 04fa 00       		.sleb128 0
 2898 04fb 48000000 		.4byte	.LVL64
 2899 04ff 4B000000 		.4byte	.LVL65-1
 2900 0503 0100     		.2byte	0x1
 2901 0505 50       		.byte	0x50
 2902 0506 00000000 		.4byte	0
 2903 050a 00000000 		.4byte	0
 2904              		.section	.debug_aranges,"",%progbits
 2905 0000 6C000000 		.4byte	0x6c
 2906 0004 0200     		.2byte	0x2
 2907 0006 00000000 		.4byte	.Ldebug_info0
 2908 000a 04       		.byte	0x4
 2909 000b 00       		.byte	0
 2910 000c 0000     		.2byte	0
 2911 000e 0000     		.2byte	0
 2912 0010 00000000 		.4byte	.LFB7
 2913 0014 08000000 		.4byte	.LFE7-.LFB7
 2914 0018 00000000 		.4byte	.LFB9
 2915 001c 28000000 		.4byte	.LFE9-.LFB9
 2916 0020 00000000 		.4byte	.LFB8
 2917 0024 10000000 		.4byte	.LFE8-.LFB8
 2918 0028 00000000 		.4byte	.LFB11
 2919 002c 34000000 		.4byte	.LFE11-.LFB11
 2920 0030 00000000 		.4byte	.LFB10
 2921 0034 0C000000 		.4byte	.LFE10-.LFB10
 2922 0038 00000000 		.4byte	.LFB13
 2923 003c 3C000000 		.4byte	.LFE13-.LFB13
 2924 0040 00000000 		.4byte	.LFB12
 2925 0044 0C000000 		.4byte	.LFE12-.LFB12
 2926 0048 00000000 		.4byte	.LFB14
 2927 004c 24000000 		.4byte	.LFE14-.LFB14
 2928 0050 00000000 		.4byte	.LFB15
 2929 0054 22000000 		.4byte	.LFE15-.LFB15
 2930 0058 00000000 		.4byte	.LFB16
 2931 005c 32000000 		.4byte	.LFE16-.LFB16
 2932 0060 00000000 		.4byte	.LFB17
 2933 0064 58000000 		.4byte	.LFE17-.LFB17
 2934 0068 00000000 		.4byte	0
 2935 006c 00000000 		.4byte	0
 2936              		.section	.debug_ranges,"",%progbits
 2937              	.Ldebug_ranges0:
 2938 0000 12000000 		.4byte	.LBB20
 2939 0004 14000000 		.4byte	.LBE20
 2940 0008 16000000 		.4byte	.LBB23
 2941 000c 1C000000 		.4byte	.LBE23
 2942 0010 00000000 		.4byte	0
 2943 0014 00000000 		.4byte	0
 2944 0018 12000000 		.4byte	.LBB21
 2945 001c 14000000 		.4byte	.LBE21
 2946 0020 16000000 		.4byte	.LBB22
 2947 0024 1C000000 		.4byte	.LBE22
 2948 0028 00000000 		.4byte	0
 2949 002c 00000000 		.4byte	0
 2950 0030 12000000 		.4byte	.LBB28
 2951 0034 14000000 		.4byte	.LBE28
ARM GAS  C:\Users\Rob\AppData\Local\Temp\ccHLKJQZ.s 			page 53


 2952 0038 16000000 		.4byte	.LBB31
 2953 003c 1C000000 		.4byte	.LBE31
 2954 0040 00000000 		.4byte	0
 2955 0044 00000000 		.4byte	0
 2956 0048 12000000 		.4byte	.LBB29
 2957 004c 14000000 		.4byte	.LBE29
 2958 0050 16000000 		.4byte	.LBB30
 2959 0054 1C000000 		.4byte	.LBE30
 2960 0058 00000000 		.4byte	0
 2961 005c 00000000 		.4byte	0
 2962 0060 1C000000 		.4byte	.LBB35
 2963 0064 1E000000 		.4byte	.LBE35
 2964 0068 20000000 		.4byte	.LBB38
 2965 006c 26000000 		.4byte	.LBE38
 2966 0070 00000000 		.4byte	0
 2967 0074 00000000 		.4byte	0
 2968 0078 1C000000 		.4byte	.LBB36
 2969 007c 1E000000 		.4byte	.LBE36
 2970 0080 20000000 		.4byte	.LBB37
 2971 0084 26000000 		.4byte	.LBE37
 2972 0088 00000000 		.4byte	0
 2973 008c 00000000 		.4byte	0
 2974 0090 00000000 		.4byte	.LFB7
 2975 0094 08000000 		.4byte	.LFE7
 2976 0098 00000000 		.4byte	.LFB9
 2977 009c 28000000 		.4byte	.LFE9
 2978 00a0 00000000 		.4byte	.LFB8
 2979 00a4 10000000 		.4byte	.LFE8
 2980 00a8 00000000 		.4byte	.LFB11
 2981 00ac 34000000 		.4byte	.LFE11
 2982 00b0 00000000 		.4byte	.LFB10
 2983 00b4 0C000000 		.4byte	.LFE10
 2984 00b8 00000000 		.4byte	.LFB13
 2985 00bc 3C000000 		.4byte	.LFE13
 2986 00c0 00000000 		.4byte	.LFB12
 2987 00c4 0C000000 		.4byte	.LFE12
 2988 00c8 00000000 		.4byte	.LFB14
 2989 00cc 24000000 		.4byte	.LFE14
 2990 00d0 00000000 		.4byte	.LFB15
 2991 00d4 22000000 		.4byte	.LFE15
 2992 00d8 00000000 		.4byte	.LFB16
 2993 00dc 32000000 		.4byte	.LFE16
 2994 00e0 00000000 		.4byte	.LFB17
 2995 00e4 58000000 		.4byte	.LFE17
 2996 00e8 00000000 		.4byte	0
 2997 00ec 00000000 		.4byte	0
 2998              		.section	.debug_line,"",%progbits
 2999              	.Ldebug_line0:
 3000 0000 C0020000 		.section	.debug_str,"MS",%progbits,1
 3000      02000C01 
 3000      00000201 
 3000      FB0E0D00 
 3000      01010101 
 3001              	.LASF37:
 3002 0000 705F6D73 		.ascii	"p_msg\000"
 3002      6700
 3003              	.LASF84:
ARM GAS  C:\Users\Rob\AppData\Local\Temp\ccHLKJQZ.s 			page 54


 3004 0006 71756575 		.ascii	"queue_insert\000"
 3004      655F696E 
 3004      73657274 
 3004      00
 3005              	.LASF77:
 3006 0013 63685365 		.ascii	"chSemSignalI\000"
 3006      6D536967 
 3006      6E616C49 
 3006      00
 3007              	.LASF61:
 3008 0020 7264796D 		.ascii	"rdymsg\000"
 3008      736700
 3009              	.LASF11:
 3010 0027 6C6F6E67 		.ascii	"long long unsigned int\000"
 3010      206C6F6E 
 3010      6720756E 
 3010      7369676E 
 3010      65642069 
 3011              	.LASF62:
 3012 003e 65786974 		.ascii	"exitcode\000"
 3012      636F6465 
 3012      00
 3013              	.LASF78:
 3014 0047 63685365 		.ascii	"chSemAddCounterI\000"
 3014      6D416464 
 3014      436F756E 
 3014      74657249 
 3014      00
 3015              	.LASF25:
 3016 0058 705F7072 		.ascii	"p_prio\000"
 3016      696F00
 3017              	.LASF83:
 3018 005f 433A5C55 		.ascii	"C:\\Users\\Rob\\Projects\\ECE411Practicum\\src\\vir"
 3018      73657273 
 3018      5C526F62 
 3018      5C50726F 
 3018      6A656374 
 3019 008c 756C656E 		.ascii	"ulent\000"
 3019      7400
 3020              	.LASF10:
 3021 0092 6C6F6E67 		.ascii	"long long int\000"
 3021      206C6F6E 
 3021      6720696E 
 3021      7400
 3022              	.LASF1:
 3023 00a0 7369676E 		.ascii	"signed char\000"
 3023      65642063 
 3023      68617200 
 3024              	.LASF79:
 3025 00ac 63685365 		.ascii	"chSemSignalWait\000"
 3025      6D536967 
 3025      6E616C57 
 3025      61697400 
 3026              	.LASF41:
 3027 00bc 705F6D70 		.ascii	"p_mpool\000"
 3027      6F6F6C00 
 3028              	.LASF58:
ARM GAS  C:\Users\Rob\AppData\Local\Temp\ccHLKJQZ.s 			page 55


 3029 00c4 6D5F7175 		.ascii	"m_queue\000"
 3029      65756500 
 3030              	.LASF16:
 3031 00cc 74736C69 		.ascii	"tslices_t\000"
 3031      6365735F 
 3031      7400
 3032              	.LASF82:
 3033 00d6 2E2E2F2E 		.ascii	"../../os/kernel/src/chsem.c\000"
 3033      2E2F6F73 
 3033      2F6B6572 
 3033      6E656C2F 
 3033      7372632F 
 3034              	.LASF7:
 3035 00f2 6C6F6E67 		.ascii	"long int\000"
 3035      20696E74 
 3035      00
 3036              	.LASF14:
 3037 00fb 74737461 		.ascii	"tstate_t\000"
 3037      74655F74 
 3037      00
 3038              	.LASF76:
 3039 0104 63685365 		.ascii	"chSemSignal\000"
 3039      6D536967 
 3039      6E616C00 
 3040              	.LASF27:
 3041 0110 705F6E65 		.ascii	"p_newer\000"
 3041      77657200 
 3042              	.LASF55:
 3043 0118 735F7175 		.ascii	"s_queue\000"
 3043      65756500 
 3044              	.LASF50:
 3045 0120 725F6E65 		.ascii	"r_newer\000"
 3045      77657200 
 3046              	.LASF44:
 3047 0128 72656761 		.ascii	"regarm_t\000"
 3047      726D5F74 
 3047      00
 3048              	.LASF21:
 3049 0131 636E745F 		.ascii	"cnt_t\000"
 3049      7400
 3050              	.LASF0:
 3051 0137 756E7369 		.ascii	"unsigned int\000"
 3051      676E6564 
 3051      20696E74 
 3051      00
 3052              	.LASF75:
 3053 0144 63685365 		.ascii	"chSemWaitTimeout\000"
 3053      6D576169 
 3053      7454696D 
 3053      656F7574 
 3053      00
 3054              	.LASF9:
 3055 0155 6C6F6E67 		.ascii	"long unsigned int\000"
 3055      20756E73 
 3055      69676E65 
 3055      6420696E 
 3055      7400
ARM GAS  C:\Users\Rob\AppData\Local\Temp\ccHLKJQZ.s 			page 56


 3056              	.LASF56:
 3057 0167 735F636E 		.ascii	"s_cnt\000"
 3057      7400
 3058              	.LASF46:
 3059 016d 636F6E74 		.ascii	"context\000"
 3059      65787400 
 3060              	.LASF4:
 3061 0175 73686F72 		.ascii	"short unsigned int\000"
 3061      7420756E 
 3061      7369676E 
 3061      65642069 
 3061      6E7400
 3062              	.LASF70:
 3063 0188 63685365 		.ascii	"chSemReset\000"
 3063      6D526573 
 3063      657400
 3064              	.LASF18:
 3065 0193 6D73675F 		.ascii	"msg_t\000"
 3065      7400
 3066              	.LASF13:
 3067 0199 746D6F64 		.ascii	"tmode_t\000"
 3067      655F7400 
 3068              	.LASF43:
 3069 01a1 54687265 		.ascii	"ThreadsList\000"
 3069      6164734C 
 3069      69737400 
 3070              	.LASF19:
 3071 01ad 6576656E 		.ascii	"eventmask_t\000"
 3071      746D6173 
 3071      6B5F7400 
 3072              	.LASF57:
 3073 01b9 4D757465 		.ascii	"Mutex\000"
 3073      7800
 3074              	.LASF28:
 3075 01bf 705F6F6C 		.ascii	"p_older\000"
 3075      64657200 
 3076              	.LASF49:
 3077 01c7 725F6374 		.ascii	"r_ctx\000"
 3077      7800
 3078              	.LASF42:
 3079 01cd 54687265 		.ascii	"ThreadsQueue\000"
 3079      61647351 
 3079      75657565 
 3079      00
 3080              	.LASF74:
 3081 01da 74696D65 		.ascii	"time\000"
 3081      00
 3082              	.LASF52:
 3083 01df 725F6375 		.ascii	"r_current\000"
 3083      7272656E 
 3083      7400
 3084              	.LASF51:
 3085 01e9 725F6F6C 		.ascii	"r_older\000"
 3085      64657200 
 3086              	.LASF15:
 3087 01f1 74726566 		.ascii	"trefs_t\000"
 3087      735F7400 
ARM GAS  C:\Users\Rob\AppData\Local\Temp\ccHLKJQZ.s 			page 57


 3088              	.LASF24:
 3089 01f9 705F7072 		.ascii	"p_prev\000"
 3089      657600
 3090              	.LASF17:
 3091 0200 74707269 		.ascii	"tprio_t\000"
 3091      6F5F7400 
 3092              	.LASF12:
 3093 0208 5F426F6F 		.ascii	"_Bool\000"
 3093      6C00
 3094              	.LASF6:
 3095 020e 696E7433 		.ascii	"int32_t\000"
 3095      325F7400 
 3096              	.LASF2:
 3097 0216 756E7369 		.ascii	"unsigned char\000"
 3097      676E6564 
 3097      20636861 
 3097      7200
 3098              	.LASF39:
 3099 0224 705F6D74 		.ascii	"p_mtxlist\000"
 3099      786C6973 
 3099      7400
 3100              	.LASF3:
 3101 022e 73686F72 		.ascii	"short int\000"
 3101      7420696E 
 3101      7400
 3102              	.LASF30:
 3103 0238 705F7374 		.ascii	"p_state\000"
 3103      61746500 
 3104              	.LASF33:
 3105 0240 705F7072 		.ascii	"p_preempt\000"
 3105      65656D70 
 3105      7400
 3106              	.LASF48:
 3107 024a 725F7072 		.ascii	"r_prio\000"
 3107      696F00
 3108              	.LASF64:
 3109 0251 65776D61 		.ascii	"ewmask\000"
 3109      736B00
 3110              	.LASF23:
 3111 0258 705F6E65 		.ascii	"p_next\000"
 3111      787400
 3112              	.LASF31:
 3113 025f 705F666C 		.ascii	"p_flags\000"
 3113      61677300 
 3114              	.LASF71:
 3115 0267 63685365 		.ascii	"chSemWaitS\000"
 3115      6D576169 
 3115      745300
 3116              	.LASF22:
 3117 0272 54687265 		.ascii	"Thread\000"
 3117      616400
 3118              	.LASF38:
 3119 0279 705F6570 		.ascii	"p_epending\000"
 3119      656E6469 
 3119      6E6700
 3120              	.LASF8:
 3121 0284 75696E74 		.ascii	"uint32_t\000"
ARM GAS  C:\Users\Rob\AppData\Local\Temp\ccHLKJQZ.s 			page 58


 3121      33325F74 
 3121      00
 3122              	.LASF47:
 3123 028d 725F7175 		.ascii	"r_queue\000"
 3123      65756500 
 3124              	.LASF81:
 3125 0295 474E5520 		.ascii	"GNU C 4.6.2\000"
 3125      4320342E 
 3125      362E3200 
 3126              	.LASF65:
 3127 02a1 63686172 		.ascii	"char\000"
 3127      00
 3128              	.LASF67:
 3129 02a6 6669666F 		.ascii	"fifo_remove\000"
 3129      5F72656D 
 3129      6F766500 
 3130              	.LASF73:
 3131 02b2 63685365 		.ascii	"chSemWaitTimeoutS\000"
 3131      6D576169 
 3131      7454696D 
 3131      656F7574 
 3131      5300
 3132              	.LASF60:
 3133 02c4 6D5F6E65 		.ascii	"m_next\000"
 3133      787400
 3134              	.LASF20:
 3135 02cb 73797374 		.ascii	"systime_t\000"
 3135      696D655F 
 3135      7400
 3136              	.LASF40:
 3137 02d5 705F7265 		.ascii	"p_realprio\000"
 3137      616C7072 
 3137      696F00
 3138              	.LASF72:
 3139 02e0 63685365 		.ascii	"chSemWait\000"
 3139      6D576169 
 3139      7400
 3140              	.LASF34:
 3141 02ea 705F7469 		.ascii	"p_time\000"
 3141      6D6500
 3142              	.LASF66:
 3143 02f1 6C69666F 		.ascii	"lifo_remove\000"
 3143      5F72656D 
 3143      6F766500 
 3144              	.LASF45:
 3145 02fd 696E7463 		.ascii	"intctx\000"
 3145      747800
 3146              	.LASF36:
 3147 0304 705F6D73 		.ascii	"p_msgqueue\000"
 3147      67717565 
 3147      756500
 3148              	.LASF54:
 3149 030f 53656D61 		.ascii	"Semaphore\000"
 3149      70686F72 
 3149      6500
 3150              	.LASF32:
 3151 0319 705F7265 		.ascii	"p_refs\000"
ARM GAS  C:\Users\Rob\AppData\Local\Temp\ccHLKJQZ.s 			page 59


 3151      667300
 3152              	.LASF53:
 3153 0320 52656164 		.ascii	"ReadyList\000"
 3153      794C6973 
 3153      7400
 3154              	.LASF69:
 3155 032a 63685365 		.ascii	"chSemResetI\000"
 3155      6D526573 
 3155      65744900 
 3156              	.LASF80:
 3157 0336 726C6973 		.ascii	"rlist\000"
 3157      7400
 3158              	.LASF5:
 3159 033c 75696E74 		.ascii	"uint8_t\000"
 3159      385F7400 
 3160              	.LASF63:
 3161 0344 77746F62 		.ascii	"wtobjp\000"
 3161      6A7000
 3162              	.LASF29:
 3163 034b 705F6E61 		.ascii	"p_name\000"
 3163      6D6500
 3164              	.LASF59:
 3165 0352 6D5F6F77 		.ascii	"m_owner\000"
 3165      6E657200 
 3166              	.LASF26:
 3167 035a 705F6374 		.ascii	"p_ctx\000"
 3167      7800
 3168              	.LASF35:
 3169 0360 705F7761 		.ascii	"p_waiting\000"
 3169      6974696E 
 3169      6700
 3170              	.LASF68:
 3171 036a 63685365 		.ascii	"chSemInit\000"
 3171      6D496E69 
 3171      7400
 3172              		.ident	"GCC: (GNU) 4.6.2"
ARM GAS  C:\Users\Rob\AppData\Local\Temp\ccHLKJQZ.s 			page 60


DEFINED SYMBOLS
                            *ABS*:00000000 chsem.c
C:\Users\Rob\AppData\Local\Temp\ccHLKJQZ.s:17     .text.chSemInit:00000000 $t
C:\Users\Rob\AppData\Local\Temp\ccHLKJQZ.s:23     .text.chSemInit:00000000 chSemInit
C:\Users\Rob\AppData\Local\Temp\ccHLKJQZ.s:41     .text.chSemResetI:00000000 $t
C:\Users\Rob\AppData\Local\Temp\ccHLKJQZ.s:47     .text.chSemResetI:00000000 chSemResetI
C:\Users\Rob\AppData\Local\Temp\ccHLKJQZ.s:115    .text.chSemReset:00000000 $t
C:\Users\Rob\AppData\Local\Temp\ccHLKJQZ.s:121    .text.chSemReset:00000000 chSemReset
C:\Users\Rob\AppData\Local\Temp\ccHLKJQZ.s:153    .text.chSemWaitS:00000000 $t
C:\Users\Rob\AppData\Local\Temp\ccHLKJQZ.s:159    .text.chSemWaitS:00000000 chSemWaitS
C:\Users\Rob\AppData\Local\Temp\ccHLKJQZ.s:220    .text.chSemWaitS:00000030 $d
C:\Users\Rob\AppData\Local\Temp\ccHLKJQZ.s:225    .text.chSemWait:00000000 $t
C:\Users\Rob\AppData\Local\Temp\ccHLKJQZ.s:231    .text.chSemWait:00000000 chSemWait
C:\Users\Rob\AppData\Local\Temp\ccHLKJQZ.s:261    .text.chSemWaitTimeoutS:00000000 $t
C:\Users\Rob\AppData\Local\Temp\ccHLKJQZ.s:267    .text.chSemWaitTimeoutS:00000000 chSemWaitTimeoutS
C:\Users\Rob\AppData\Local\Temp\ccHLKJQZ.s:335    .text.chSemWaitTimeoutS:00000038 $d
C:\Users\Rob\AppData\Local\Temp\ccHLKJQZ.s:340    .text.chSemWaitTimeout:00000000 $t
C:\Users\Rob\AppData\Local\Temp\ccHLKJQZ.s:346    .text.chSemWaitTimeout:00000000 chSemWaitTimeout
C:\Users\Rob\AppData\Local\Temp\ccHLKJQZ.s:376    .text.chSemSignal:00000000 $t
C:\Users\Rob\AppData\Local\Temp\ccHLKJQZ.s:382    .text.chSemSignal:00000000 chSemSignal
C:\Users\Rob\AppData\Local\Temp\ccHLKJQZ.s:442    .text.chSemSignalI:00000000 $t
C:\Users\Rob\AppData\Local\Temp\ccHLKJQZ.s:448    .text.chSemSignalI:00000000 chSemSignalI
C:\Users\Rob\AppData\Local\Temp\ccHLKJQZ.s:497    .text.chSemAddCounterI:00000000 $t
C:\Users\Rob\AppData\Local\Temp\ccHLKJQZ.s:503    .text.chSemAddCounterI:00000000 chSemAddCounterI
C:\Users\Rob\AppData\Local\Temp\ccHLKJQZ.s:574    .text.chSemSignalWait:00000000 $t
C:\Users\Rob\AppData\Local\Temp\ccHLKJQZ.s:580    .text.chSemSignalWait:00000000 chSemSignalWait
C:\Users\Rob\AppData\Local\Temp\ccHLKJQZ.s:687    .text.chSemSignalWait:00000054 $d
                     .debug_frame:00000010 $d
C:\Users\Rob\AppData\Local\Temp\ccHLKJQZ.s:224    .text.chSemWaitS:00000034 $t
C:\Users\Rob\AppData\Local\Temp\ccHLKJQZ.s:339    .text.chSemWaitTimeoutS:0000003c $t
C:\Users\Rob\AppData\Local\Temp\ccHLKJQZ.s:691    .text.chSemSignalWait:00000058 $t

UNDEFINED SYMBOLS
chSchReadyI
chSchRescheduleS
chSchGoSleepS
rlist
chSchGoSleepTimeoutS
chSchWakeupS
