ARM GAS  C:\Users\Rob\AppData\Local\Temp\cc6sKpV4.s 			page 1


   1              		.cpu cortex-m0
   2              		.fpu softvfp
   3              		.eabi_attribute 20, 1
   4              		.eabi_attribute 21, 1
   5              		.eabi_attribute 23, 3
   6              		.eabi_attribute 24, 1
   7              		.eabi_attribute 25, 1
   8              		.eabi_attribute 26, 1
   9              		.eabi_attribute 30, 2
  10              		.eabi_attribute 18, 4
  11              		.code	16
  12              		.file	"chthreads.c"
  13              		.text
  14              	.Ltext0:
  15              		.cfi_sections	.debug_frame
  16              		.section	.text._thread_init,"ax",%progbits
  17              		.align	2
  18              		.p2align 4,,15
  19              		.global	_thread_init
  20              		.code	16
  21              		.thumb_func
  22              		.type	_thread_init, %function
  23              	_thread_init:
  24              	.LFB7:
  25              		.file 1 "../../os/kernel/src/chthreads.c"
  26              		.loc 1 69 0
  27              		.cfi_startproc
  28              	.LVL0:
  29              		.loc 1 72 0
  30 0000 0223     		mov	r3, #2
  31 0002 0377     		strb	r3, [r0, #28]
  32              		.loc 1 73 0
  33 0004 0023     		mov	r3, #0
  34 0006 4377     		strb	r3, [r0, #29]
  35              		.loc 1 75 0
  36 0008 1422     		mov	r2, #20
  37              		.loc 1 79 0
  38 000a C363     		str	r3, [r0, #60]
  39              		.loc 1 82 0
  40 000c 8363     		str	r3, [r0, #56]
  41              		.loc 1 85 0
  42 000e 0362     		str	r3, [r0, #32]
  43              		.loc 1 91 0
  44 0010 8361     		str	r3, [r0, #24]
  45              		.loc 1 92 0
  46 0012 094B     		ldr	r3, .L2
  47              		.loc 1 75 0
  48 0014 C277     		strb	r2, [r0, #31]
  49              		.loc 1 88 0
  50 0016 0122     		mov	r2, #1
  51 0018 8277     		strb	r2, [r0, #30]
  52              		.loc 1 92 0
  53 001a 5A69     		ldr	r2, [r3, #20]
  54 001c 0361     		str	r3, [r0, #16]
  55              		.loc 1 71 0
  56 001e 8160     		str	r1, [r0, #8]
  57              		.loc 1 92 0
ARM GAS  C:\Users\Rob\AppData\Local\Temp\cc6sKpV4.s 			page 2


  58 0020 4261     		str	r2, [r0, #20]
  59 0022 5861     		str	r0, [r3, #20]
  60              		.loc 1 95 0
  61 0024 031C     		mov	r3, r0
  62 0026 2833     		add	r3, r3, #40
  63 0028 8362     		str	r3, [r0, #40]
  64              		.loc 1 98 0
  65 002a 0433     		add	r3, r3, #4
  66              		.loc 1 78 0
  67 002c 0164     		str	r1, [r0, #64]
  68              		.loc 1 92 0
  69 002e 1061     		str	r0, [r2, #16]
  70              		.loc 1 98 0
  71 0030 0363     		str	r3, [r0, #48]
  72 0032 C362     		str	r3, [r0, #44]
  73              		.loc 1 107 0
  74              		@ sp needed for prologue
  75 0034 7047     		bx	lr
  76              	.L3:
  77 0036 C046     		.align	2
  78              	.L2:
  79 0038 00000000 		.word	rlist
  80              		.cfi_endproc
  81              	.LFE7:
  82              		.size	_thread_init, .-_thread_init
  83 003c C046C046 		.section	.text.chThdCreateI,"ax",%progbits
  84              		.align	2
  85              		.p2align 4,,15
  86              		.global	chThdCreateI
  87              		.code	16
  88              		.thumb_func
  89              		.type	chThdCreateI, %function
  90              	chThdCreateI:
  91              	.LFB8:
  92              		.loc 1 151 0
  93              		.cfi_startproc
  94              	.LVL1:
  95              		.loc 1 160 0
  96 0000 2439     		sub	r1, r1, #36
  97              	.LVL2:
  98 0002 4118     		add	r1, r0, r1
  99              	.LVL3:
 100 0004 C160     		str	r1, [r0, #12]
 101 0006 0B61     		str	r3, [r1, #16]
 102 0008 009B     		ldr	r3, [sp]
 103              	.LVL4:
 104              		.loc 1 162 0
 105              		@ sp needed for prologue
 106              		.loc 1 160 0
 107 000a 4B61     		str	r3, [r1, #20]
 108 000c 0E4B     		ldr	r3, .L5
 109 000e 0B62     		str	r3, [r1, #32]
 110              	.LVL5:
 111              	.LBB8:
 112              	.LBB9:
 113              		.loc 1 72 0
 114 0010 0223     		mov	r3, #2
ARM GAS  C:\Users\Rob\AppData\Local\Temp\cc6sKpV4.s 			page 3


 115 0012 0377     		strb	r3, [r0, #28]
 116              		.loc 1 73 0
 117 0014 0023     		mov	r3, #0
 118 0016 4377     		strb	r3, [r0, #29]
 119              		.loc 1 79 0
 120 0018 C363     		str	r3, [r0, #60]
 121              		.loc 1 82 0
 122 001a 8363     		str	r3, [r0, #56]
 123              		.loc 1 85 0
 124 001c 0362     		str	r3, [r0, #32]
 125              		.loc 1 91 0
 126 001e 8361     		str	r3, [r0, #24]
 127              		.loc 1 92 0
 128 0020 0A4B     		ldr	r3, .L5+4
 129              		.loc 1 71 0
 130 0022 8260     		str	r2, [r0, #8]
 131              		.loc 1 78 0
 132 0024 0264     		str	r2, [r0, #64]
 133              		.loc 1 88 0
 134 0026 0122     		mov	r2, #1
 135              	.LVL6:
 136 0028 8277     		strb	r2, [r0, #30]
 137              		.loc 1 92 0
 138 002a 5A69     		ldr	r2, [r3, #20]
 139 002c 0361     		str	r3, [r0, #16]
 140 002e 4261     		str	r2, [r0, #20]
 141 0030 5861     		str	r0, [r3, #20]
 142              		.loc 1 95 0
 143 0032 031C     		mov	r3, r0
 144 0034 2833     		add	r3, r3, #40
 145              		.loc 1 75 0
 146 0036 1421     		mov	r1, #20
 147              	.LVL7:
 148              		.loc 1 95 0
 149 0038 8362     		str	r3, [r0, #40]
 150              		.loc 1 98 0
 151 003a 0433     		add	r3, r3, #4
 152              		.loc 1 75 0
 153 003c C177     		strb	r1, [r0, #31]
 154              		.loc 1 92 0
 155 003e 1061     		str	r0, [r2, #16]
 156              		.loc 1 98 0
 157 0040 0363     		str	r3, [r0, #48]
 158 0042 C362     		str	r3, [r0, #44]
 159              	.LBE9:
 160              	.LBE8:
 161              		.loc 1 162 0
 162 0044 7047     		bx	lr
 163              	.L6:
 164 0046 C046     		.align	2
 165              	.L5:
 166 0048 00000000 		.word	_port_thread_start
 167 004c 00000000 		.word	rlist
 168              		.cfi_endproc
 169              	.LFE8:
 170              		.size	chThdCreateI, .-chThdCreateI
 171              		.section	.text.chThdCreateStatic,"ax",%progbits
ARM GAS  C:\Users\Rob\AppData\Local\Temp\cc6sKpV4.s 			page 4


 172              		.align	2
 173              		.p2align 4,,15
 174              		.global	chThdCreateStatic
 175              		.code	16
 176              		.thumb_func
 177              		.type	chThdCreateStatic, %function
 178              	chThdCreateStatic:
 179              	.LFB9:
 180              		.loc 1 181 0
 181              		.cfi_startproc
 182 0000 10B5     		push	{r4, lr}
 183              	.LCFI0:
 184              		.cfi_def_cfa_offset 8
 185              		.cfi_offset 4, -8
 186              		.cfi_offset 14, -4
 187              	.LVL8:
 188 0002 82B0     		sub	sp, sp, #8
 189              	.LCFI1:
 190              		.cfi_def_cfa_offset 16
 191              		.loc 1 192 0
 192              	@ 192 "../../os/kernel/src/chthreads.c" 1
 193 0004 72B6     		cpsid   i
 194              	@ 0 "" 2
 195              		.loc 1 193 0
 196              		.code	16
 197 0006 049C     		ldr	r4, [sp, #16]
 198 0008 0094     		str	r4, [sp]
 199 000a FFF7FEFF 		bl	chThdCreateI
 200              	.LVL9:
 201 000e 0021     		mov	r1, #0
 202 0010 041C     		mov	r4, r0
 203              	.LVL10:
 204 0012 FFF7FEFF 		bl	chSchWakeupS
 205              	.LVL11:
 206              		.loc 1 194 0
 207              	@ 194 "../../os/kernel/src/chthreads.c" 1
 208 0016 62B6     		cpsie   i
 209              	@ 0 "" 2
 210              		.loc 1 196 0
 211              		.code	16
 212 0018 02B0     		add	sp, sp, #8
 213 001a 201C     		mov	r0, r4
 214              		@ sp needed for prologue
 215              	.LVL12:
 216 001c 10BD     		pop	{r4, pc}
 217              		.cfi_endproc
 218              	.LFE9:
 219              		.size	chThdCreateStatic, .-chThdCreateStatic
 220 001e C046     		.section	.text.chThdSetPriority,"ax",%progbits
 221              		.align	2
 222              		.p2align 4,,15
 223              		.global	chThdSetPriority
 224              		.code	16
 225              		.thumb_func
 226              		.type	chThdSetPriority, %function
 227              	chThdSetPriority:
 228              	.LFB10:
ARM GAS  C:\Users\Rob\AppData\Local\Temp\cc6sKpV4.s 			page 5


 229              		.loc 1 210 0
 230              		.cfi_startproc
 231 0000 10B5     		push	{r4, lr}
 232              	.LCFI2:
 233              		.cfi_def_cfa_offset 8
 234              		.cfi_offset 4, -8
 235              		.cfi_offset 14, -4
 236              	.LVL13:
 237              		.loc 1 215 0
 238              	@ 215 "../../os/kernel/src/chthreads.c" 1
 239 0002 72B6     		cpsid   i
 240              	@ 0 "" 2
 241              		.loc 1 217 0
 242              		.code	16
 243 0004 074B     		ldr	r3, .L12
 244 0006 9B69     		ldr	r3, [r3, #24]
 245 0008 1C6C     		ldr	r4, [r3, #64]
 246              	.LVL14:
 247              		.loc 1 218 0
 248 000a 9A68     		ldr	r2, [r3, #8]
 249 000c 9442     		cmp	r4, r2
 250 000e 01D0     		beq	.L9
 251              		.loc 1 218 0 is_stmt 0 discriminator 1
 252 0010 8242     		cmp	r2, r0
 253 0012 00D2     		bcs	.L10
 254              	.L9:
 255              		.loc 1 219 0 is_stmt 1
 256 0014 9860     		str	r0, [r3, #8]
 257              	.L10:
 258              		.loc 1 220 0
 259 0016 1864     		str	r0, [r3, #64]
 260              		.loc 1 225 0
 261 0018 FFF7FEFF 		bl	chSchRescheduleS
 262              	.LVL15:
 263              		.loc 1 226 0
 264              	@ 226 "../../os/kernel/src/chthreads.c" 1
 265 001c 62B6     		cpsie   i
 266              	@ 0 "" 2
 267              		.loc 1 228 0
 268              		.code	16
 269 001e 201C     		mov	r0, r4
 270              		@ sp needed for prologue
 271              	.LVL16:
 272 0020 10BD     		pop	{r4, pc}
 273              	.L13:
 274 0022 C046     		.align	2
 275              	.L12:
 276 0024 00000000 		.word	rlist
 277              		.cfi_endproc
 278              	.LFE10:
 279              		.size	chThdSetPriority, .-chThdSetPriority
 280 0028 C046C046 		.section	.text.chThdResume,"ax",%progbits
 280      C046C046 
 281              		.align	2
 282              		.p2align 4,,15
 283              		.global	chThdResume
 284              		.code	16
ARM GAS  C:\Users\Rob\AppData\Local\Temp\cc6sKpV4.s 			page 6


 285              		.thumb_func
 286              		.type	chThdResume, %function
 287              	chThdResume:
 288              	.LFB11:
 289              		.loc 1 243 0
 290              		.cfi_startproc
 291 0000 10B5     		push	{r4, lr}
 292              	.LCFI3:
 293              		.cfi_def_cfa_offset 8
 294              		.cfi_offset 4, -8
 295              		.cfi_offset 14, -4
 296              	.LVL17:
 297              		.loc 1 243 0
 298 0002 041C     		mov	r4, r0
 299              		.loc 1 245 0
 300              	@ 245 "../../os/kernel/src/chthreads.c" 1
 301 0004 72B6     		cpsid   i
 302              	@ 0 "" 2
 303              		.loc 1 249 0
 304              		.code	16
 305 0006 0021     		mov	r1, #0
 306 0008 FFF7FEFF 		bl	chSchWakeupS
 307              	.LVL18:
 308              		.loc 1 250 0
 309              	@ 250 "../../os/kernel/src/chthreads.c" 1
 310 000c 62B6     		cpsie   i
 311              	@ 0 "" 2
 312              		.loc 1 252 0
 313              		.code	16
 314 000e 201C     		mov	r0, r4
 315              		@ sp needed for prologue
 316              	.LVL19:
 317 0010 10BD     		pop	{r4, pc}
 318              		.cfi_endproc
 319              	.LFE11:
 320              		.size	chThdResume, .-chThdResume
 321 0012 C046C046 		.section	.text.chThdTerminate,"ax",%progbits
 321      C046C046 
 321      C046C046 
 321      C046
 322              		.align	2
 323              		.p2align 4,,15
 324              		.global	chThdTerminate
 325              		.code	16
 326              		.thumb_func
 327              		.type	chThdTerminate, %function
 328              	chThdTerminate:
 329              	.LFB12:
 330              		.loc 1 266 0
 331              		.cfi_startproc
 332              	.LVL20:
 333              		.loc 1 268 0
 334              	@ 268 "../../os/kernel/src/chthreads.c" 1
 335 0000 72B6     		cpsid   i
 336              	@ 0 "" 2
 337              		.loc 1 269 0
 338              		.code	16
ARM GAS  C:\Users\Rob\AppData\Local\Temp\cc6sKpV4.s 			page 7


 339 0002 427F     		ldrb	r2, [r0, #29]
 340 0004 0423     		mov	r3, #4
 341 0006 1343     		orr	r3, r2
 342 0008 4377     		strb	r3, [r0, #29]
 343              		.loc 1 270 0
 344              	@ 270 "../../os/kernel/src/chthreads.c" 1
 345 000a 62B6     		cpsie   i
 346              	@ 0 "" 2
 347              		.loc 1 271 0
 348              		.code	16
 349              		@ sp needed for prologue
 350 000c 7047     		bx	lr
 351              		.cfi_endproc
 352              	.LFE12:
 353              		.size	chThdTerminate, .-chThdTerminate
 354 000e C046     		.section	.text.chThdSleep,"ax",%progbits
 355              		.align	2
 356              		.p2align 4,,15
 357              		.global	chThdSleep
 358              		.code	16
 359              		.thumb_func
 360              		.type	chThdSleep, %function
 361              	chThdSleep:
 362              	.LFB13:
 363              		.loc 1 285 0
 364              		.cfi_startproc
 365 0000 08B5     		push	{r3, lr}
 366              	.LCFI4:
 367              		.cfi_def_cfa_offset 8
 368              		.cfi_offset 3, -8
 369              		.cfi_offset 14, -4
 370              	.LVL21:
 371              		.loc 1 285 0
 372 0002 011C     		mov	r1, r0
 373              		.loc 1 289 0
 374              	@ 289 "../../os/kernel/src/chthreads.c" 1
 375 0004 72B6     		cpsid   i
 376              	@ 0 "" 2
 377              		.loc 1 290 0
 378              		.code	16
 379 0006 0620     		mov	r0, #6
 380              	.LVL22:
 381 0008 FFF7FEFF 		bl	chSchGoSleepTimeoutS
 382              	.LVL23:
 383              		.loc 1 291 0
 384              	@ 291 "../../os/kernel/src/chthreads.c" 1
 385 000c 62B6     		cpsie   i
 386              	@ 0 "" 2
 387              		.loc 1 292 0
 388              		.code	16
 389              		@ sp needed for prologue
 390 000e 08BD     		pop	{r3, pc}
 391              		.cfi_endproc
 392              	.LFE13:
 393              		.size	chThdSleep, .-chThdSleep
 394              		.section	.text.chThdSleepUntil,"ax",%progbits
 395              		.align	2
ARM GAS  C:\Users\Rob\AppData\Local\Temp\cc6sKpV4.s 			page 8


 396              		.p2align 4,,15
 397              		.global	chThdSleepUntil
 398              		.code	16
 399              		.thumb_func
 400              		.type	chThdSleepUntil, %function
 401              	chThdSleepUntil:
 402              	.LFB14:
 403              		.loc 1 302 0
 404              		.cfi_startproc
 405 0000 08B5     		push	{r3, lr}
 406              	.LCFI5:
 407              		.cfi_def_cfa_offset 8
 408              		.cfi_offset 3, -8
 409              		.cfi_offset 14, -4
 410              	.LVL24:
 411              		.loc 1 304 0
 412              	@ 304 "../../os/kernel/src/chthreads.c" 1
 413 0002 72B6     		cpsid   i
 414              	@ 0 "" 2
 415              		.loc 1 305 0
 416              		.code	16
 417 0004 044B     		ldr	r3, .L19
 418 0006 DB68     		ldr	r3, [r3, #12]
 419 0008 C11A     		sub	r1, r0, r3
 420              	.LVL25:
 421 000a 02D0     		beq	.L18
 422              		.loc 1 306 0
 423 000c 0620     		mov	r0, #6
 424 000e FFF7FEFF 		bl	chSchGoSleepTimeoutS
 425              	.LVL26:
 426              	.L18:
 427              		.loc 1 307 0
 428              	@ 307 "../../os/kernel/src/chthreads.c" 1
 429 0012 62B6     		cpsie   i
 430              	@ 0 "" 2
 431              		.loc 1 308 0
 432              		.code	16
 433              		@ sp needed for prologue
 434 0014 08BD     		pop	{r3, pc}
 435              	.L20:
 436 0016 C046     		.align	2
 437              	.L19:
 438 0018 00000000 		.word	vtlist
 439              		.cfi_endproc
 440              	.LFE14:
 441              		.size	chThdSleepUntil, .-chThdSleepUntil
 442 001c C046C046 		.section	.text.chThdYield,"ax",%progbits
 443              		.align	2
 444              		.p2align 4,,15
 445              		.global	chThdYield
 446              		.code	16
 447              		.thumb_func
 448              		.type	chThdYield, %function
 449              	chThdYield:
 450              	.LFB15:
 451              		.loc 1 317 0
 452              		.cfi_startproc
ARM GAS  C:\Users\Rob\AppData\Local\Temp\cc6sKpV4.s 			page 9


 453 0000 08B5     		push	{r3, lr}
 454              	.LCFI6:
 455              		.cfi_def_cfa_offset 8
 456              		.cfi_offset 3, -8
 457              		.cfi_offset 14, -4
 458              		.loc 1 319 0
 459              	@ 319 "../../os/kernel/src/chthreads.c" 1
 460 0002 72B6     		cpsid   i
 461              	@ 0 "" 2
 462              		.loc 1 320 0
 463              		.code	16
 464 0004 054B     		ldr	r3, .L23
 465 0006 1A68     		ldr	r2, [r3]
 466 0008 9B69     		ldr	r3, [r3, #24]
 467 000a 9268     		ldr	r2, [r2, #8]
 468 000c 9B68     		ldr	r3, [r3, #8]
 469 000e 9A42     		cmp	r2, r3
 470 0010 01D3     		bcc	.L22
 471              		.loc 1 320 0 is_stmt 0 discriminator 1
 472 0012 FFF7FEFF 		bl	chSchDoRescheduleBehind
 473              	.L22:
 474              		.loc 1 321 0 is_stmt 1
 475              	@ 321 "../../os/kernel/src/chthreads.c" 1
 476 0016 62B6     		cpsie   i
 477              	@ 0 "" 2
 478              		.loc 1 322 0
 479              		.code	16
 480              		@ sp needed for prologue
 481 0018 08BD     		pop	{r3, pc}
 482              	.L24:
 483 001a C046     		.align	2
 484              	.L23:
 485 001c 00000000 		.word	rlist
 486              		.cfi_endproc
 487              	.LFE15:
 488              		.size	chThdYield, .-chThdYield
 489              		.section	.text.chThdExitS,"ax",%progbits
 490              		.align	2
 491              		.p2align 4,,15
 492              		.global	chThdExitS
 493              		.code	16
 494              		.thumb_func
 495              		.type	chThdExitS, %function
 496              	chThdExitS:
 497              	.LFB17:
 498              		.loc 1 359 0
 499              		.cfi_startproc
 500 0000 38B5     		push	{r3, r4, r5, lr}
 501              	.LCFI7:
 502              		.cfi_def_cfa_offset 16
 503              		.cfi_offset 3, -16
 504              		.cfi_offset 4, -12
 505              		.cfi_offset 5, -8
 506              		.cfi_offset 14, -4
 507              	.LVL27:
 508              		.loc 1 360 0
 509 0002 0D4B     		ldr	r3, .L31
ARM GAS  C:\Users\Rob\AppData\Local\Temp\cc6sKpV4.s 			page 10


 510 0004 9C69     		ldr	r4, [r3, #24]
 511              	.LVL28:
 512              		.loc 1 362 0
 513 0006 6062     		str	r0, [r4, #36]
 514              		.loc 1 367 0
 515 0008 251C     		mov	r5, r4
 516 000a A06A     		ldr	r0, [r4, #40]
 517              	.LVL29:
 518 000c 2835     		add	r5, r5, #40
 519 000e A842     		cmp	r0, r5
 520 0010 06D0     		beq	.L26
 521              	.LVL30:
 522              	.L29:
 523              	.LBB10:
 524              	.LBB11:
 525              		.file 2 "../../os/kernel/include/chinline.h"
 526              		.loc 2 82 0
 527 0012 0368     		ldr	r3, [r0]
 528 0014 A362     		str	r3, [r4, #40]
 529              	.LBE11:
 530              	.LBE10:
 531              		.loc 1 368 0
 532 0016 FFF7FEFF 		bl	chSchReadyI
 533              	.LVL31:
 534              		.loc 1 367 0
 535 001a A06A     		ldr	r0, [r4, #40]
 536 001c A842     		cmp	r0, r5
 537 001e F8D1     		bne	.L29
 538              	.LVL32:
 539              	.L26:
 540              		.loc 1 373 0
 541 0020 637F     		ldrb	r3, [r4, #29]
 542 0022 9A07     		lsl	r2, r3, #30
 543 0024 04D1     		bne	.L28
 544              		.loc 1 374 0
 545 0026 6369     		ldr	r3, [r4, #20]
 546 0028 2269     		ldr	r2, [r4, #16]
 547 002a 1A61     		str	r2, [r3, #16]
 548 002c 2269     		ldr	r2, [r4, #16]
 549 002e 5361     		str	r3, [r2, #20]
 550              	.L28:
 551              		.loc 1 376 0
 552 0030 0E20     		mov	r0, #14
 553 0032 FFF7FEFF 		bl	chSchGoSleepS
 554              		.loc 1 379 0
 555              		@ sp needed for prologue
 556              	.LVL33:
 557              	.LVL34:
 558 0036 38BD     		pop	{r3, r4, r5, pc}
 559              	.L32:
 560              		.align	2
 561              	.L31:
 562 0038 00000000 		.word	rlist
 563              		.cfi_endproc
 564              	.LFE17:
 565              		.size	chThdExitS, .-chThdExitS
 566 003c C046C046 		.section	.text.chThdExit,"ax",%progbits
ARM GAS  C:\Users\Rob\AppData\Local\Temp\cc6sKpV4.s 			page 11


 567              		.align	2
 568              		.p2align 4,,15
 569              		.global	chThdExit
 570              		.code	16
 571              		.thumb_func
 572              		.type	chThdExit, %function
 573              	chThdExit:
 574              	.LFB16:
 575              		.loc 1 338 0
 576              		.cfi_startproc
 577 0000 08B5     		push	{r3, lr}
 578              	.LCFI8:
 579              		.cfi_def_cfa_offset 8
 580              		.cfi_offset 3, -8
 581              		.cfi_offset 14, -4
 582              	.LVL35:
 583              		.loc 1 340 0
 584              	@ 340 "../../os/kernel/src/chthreads.c" 1
 585 0002 72B6     		cpsid   i
 586              	@ 0 "" 2
 587              		.loc 1 341 0
 588              		.code	16
 589 0004 FFF7FEFF 		bl	chThdExitS
 590              	.LVL36:
 591              		.loc 1 343 0
 592              		@ sp needed for prologue
 593 0008 08BD     		pop	{r3, pc}
 594              		.cfi_endproc
 595              	.LFE16:
 596              		.size	chThdExit, .-chThdExit
 597 000a C046C046 		.section	.text.chThdWait,"ax",%progbits
 597      C046
 598              		.align	2
 599              		.p2align 4,,15
 600              		.global	chThdWait
 601              		.code	16
 602              		.thumb_func
 603              		.type	chThdWait, %function
 604              	chThdWait:
 605              	.LFB18:
 606              		.loc 1 413 0
 607              		.cfi_startproc
 608 0000 38B5     		push	{r3, r4, r5, lr}
 609              	.LCFI9:
 610              		.cfi_def_cfa_offset 16
 611              		.cfi_offset 3, -16
 612              		.cfi_offset 4, -12
 613              		.cfi_offset 5, -8
 614              		.cfi_offset 14, -4
 615              	.LVL37:
 616              		.loc 1 413 0
 617 0002 041C     		mov	r4, r0
 618              		.loc 1 418 0
 619              	@ 418 "../../os/kernel/src/chthreads.c" 1
 620 0004 72B6     		cpsid   i
 621              	@ 0 "" 2
 622              		.loc 1 423 0
ARM GAS  C:\Users\Rob\AppData\Local\Temp\cc6sKpV4.s 			page 12


 623              		.code	16
 624 0006 037F     		ldrb	r3, [r0, #28]
 625 0008 0E2B     		cmp	r3, #14
 626 000a 07D0     		beq	.L35
 627              		.loc 1 424 0
 628 000c 074B     		ldr	r3, .L36
 629              	.LBB12:
 630              	.LBB13:
 631              		.loc 2 75 0
 632 000e 826A     		ldr	r2, [r0, #40]
 633              	.LBE13:
 634              	.LBE12:
 635              		.loc 1 424 0
 636 0010 9B69     		ldr	r3, [r3, #24]
 637              	.LVL38:
 638              	.LBB15:
 639              	.LBB14:
 640              		.loc 2 75 0
 641 0012 1A60     		str	r2, [r3]
 642              		.loc 2 76 0
 643 0014 8362     		str	r3, [r0, #40]
 644              	.LBE14:
 645              	.LBE15:
 646              		.loc 1 425 0
 647 0016 0720     		mov	r0, #7
 648              	.LVL39:
 649 0018 FFF7FEFF 		bl	chSchGoSleepS
 650              	.LVL40:
 651              	.L35:
 652              		.loc 1 427 0
 653 001c 656A     		ldr	r5, [r4, #36]
 654              	.LVL41:
 655              		.loc 1 428 0
 656              	@ 428 "../../os/kernel/src/chthreads.c" 1
 657 001e 62B6     		cpsie   i
 658              	@ 0 "" 2
 659              		.loc 1 430 0
 660              		.code	16
 661 0020 201C     		mov	r0, r4
 662 0022 FFF7FEFF 		bl	chThdRelease
 663              	.LVL42:
 664              		.loc 1 433 0
 665              		@ sp needed for prologue
 666 0026 281C     		mov	r0, r5
 667              	.LVL43:
 668              	.LVL44:
 669 0028 38BD     		pop	{r3, r4, r5, pc}
 670              	.L37:
 671 002a C046     		.align	2
 672              	.L36:
 673 002c 00000000 		.word	rlist
 674              		.cfi_endproc
 675              	.LFE18:
 676              		.size	chThdWait, .-chThdWait
 677              		.text
 678              	.Letext0:
 679              		.file 3 "c:\\yagarto\\bin\\../lib/gcc/arm-none-eabi/4.6.2/include/stddef.h"
ARM GAS  C:\Users\Rob\AppData\Local\Temp\cc6sKpV4.s 			page 13


 680              		.file 4 "c:/yagarto/lib/gcc/../../arm-none-eabi/sys-include/stdint.h"
 681              		.file 5 "../../os/ports/GCC/ARMCMx/chtypes.h"
 682              		.file 6 "../../os/kernel/include/chlists.h"
 683              		.file 7 "../../os/kernel/include/chthreads.h"
 684              		.file 8 "../../os/ports/GCC/ARMCMx/chcore_v6m.h"
 685              		.file 9 "../../os/kernel/include/chvt.h"
 686              		.file 10 "../../os/kernel/include/chschd.h"
 687              		.file 11 "../../os/kernel/include/chmtx.h"