ARM GAS  C:\Users\Rob\AppData\Local\Temp\ccg06jtu.s 			page 1


   1              		.cpu cortex-m0
   2              		.fpu softvfp
   3              		.eabi_attribute 20, 1
   4              		.eabi_attribute 21, 1
   5              		.eabi_attribute 23, 3
   6              		.eabi_attribute 24, 1
   7              		.eabi_attribute 25, 1
   8              		.eabi_attribute 26, 1
   9              		.eabi_attribute 30, 2
  10              		.eabi_attribute 18, 4
  11              		.code	16
  12              		.file	"hal.c"
  13              		.text
  14              	.Ltext0:
  15              		.cfi_sections	.debug_frame
  16              		.section	.text.halInit,"ax",%progbits
  17              		.align	2
  18              		.p2align 4,,15
  19              		.global	halInit
  20              		.code	16
  21              		.thumb_func
  22              		.type	halInit, %function
  23              	halInit:
  24              	.LFB40:
  25              		.file 1 "../../os/hal/src/hal.c"
  26              		.loc 1 61 0
  27              		.cfi_startproc
  28 0000 08B5     		push	{r3, lr}
  29              	.LCFI0:
  30              		.cfi_def_cfa_offset 8
  31              		.cfi_offset 3, -8
  32              		.cfi_offset 14, -4
  33              		.loc 1 63 0
  34 0002 FFF7FEFF 		bl	hal_lld_init
  35              		.loc 1 69 0
  36 0006 0548     		ldr	r0, .L2
  37 0008 FFF7FEFF 		bl	_pal_lld_init
  38              		.loc 1 121 0
  39              		@ sp needed for prologue
  40              		.loc 1 93 0
  41 000c FFF7FEFF 		bl	pwmInit
  42              		.loc 1 96 0
  43 0010 FFF7FEFF 		bl	sdInit
  44              		.loc 1 120 0
  45 0014 FFF7FEFF 		bl	boardInit
  46              		.loc 1 121 0
  47 0018 08BD     		pop	{r3, pc}
  48              	.L3:
  49 001a C046     		.align	2
  50              	.L2:
  51 001c 00000000 		.word	pal_default_config
  52              		.cfi_endproc
  53              	.LFE40:
  54              		.size	halInit, .-halInit
  55              		.text
  56              	.Letext0:
  57              		.file 2 "../../os/hal/platforms/STM32/GPIOv2/pal_lld.h"
ARM GAS  C:\Users\Rob\AppData\Local\Temp\ccg06jtu.s 			page 2


  58              		.file 3 "c:/yagarto/lib/gcc/../../arm-none-eabi/sys-include/stdint.h"
  59              		.section	.debug_info,"",%progbits
  60              	.Ldebug_info0:
  61 0000 8B010000 		.4byte	0x18b
  62 0004 0200     		.2byte	0x2
  63 0006 00000000 		.4byte	.Ldebug_abbrev0
  64 000a 04       		.byte	0x4
  65 000b 01       		.uleb128 0x1
  66 000c AF000000 		.4byte	.LASF26
  67 0010 01       		.byte	0x1
  68 0011 09010000 		.4byte	.LASF27
  69 0015 16000000 		.4byte	.LASF28
  70 0019 00000000 		.4byte	0
  71 001d 00000000 		.4byte	0
  72 0021 00000000 		.4byte	.Ldebug_ranges0+0
  73 0025 00000000 		.4byte	.Ldebug_line0
  74 0029 02       		.uleb128 0x2
  75 002a 04       		.byte	0x4
  76 002b 05       		.byte	0x5
  77 002c 696E7400 		.ascii	"int\000"
  78 0030 03       		.uleb128 0x3
  79 0031 04       		.byte	0x4
  80 0032 07       		.byte	0x7
  81 0033 E5000000 		.4byte	.LASF0
  82 0037 03       		.uleb128 0x3
  83 0038 01       		.byte	0x1
  84 0039 06       		.byte	0x6
  85 003a 5C010000 		.4byte	.LASF1
  86 003e 03       		.uleb128 0x3
  87 003f 01       		.byte	0x1
  88 0040 08       		.byte	0x8
  89 0041 6B000000 		.4byte	.LASF2
  90 0045 03       		.uleb128 0x3
  91 0046 02       		.byte	0x2
  92 0047 05       		.byte	0x5
  93 0048 33010000 		.4byte	.LASF3
  94 004c 03       		.uleb128 0x3
  95 004d 02       		.byte	0x2
  96 004e 07       		.byte	0x7
  97 004f 49000000 		.4byte	.LASF4
  98 0053 03       		.uleb128 0x3
  99 0054 04       		.byte	0x4
 100 0055 05       		.byte	0x5
 101 0056 4D010000 		.4byte	.LASF5
 102 005a 04       		.uleb128 0x4
 103 005b 44010000 		.4byte	.LASF17
 104 005f 03       		.byte	0x3
 105 0060 50       		.byte	0x50
 106 0061 65000000 		.4byte	0x65
 107 0065 03       		.uleb128 0x3
 108 0066 04       		.byte	0x4
 109 0067 07       		.byte	0x7
 110 0068 93000000 		.4byte	.LASF6
 111 006c 03       		.uleb128 0x3
 112 006d 08       		.byte	0x8
 113 006e 05       		.byte	0x5
 114 006f 20010000 		.4byte	.LASF7
ARM GAS  C:\Users\Rob\AppData\Local\Temp\ccg06jtu.s 			page 3


 115 0073 03       		.uleb128 0x3
 116 0074 08       		.byte	0x8
 117 0075 07       		.byte	0x7
 118 0076 F2000000 		.4byte	.LASF8
 119 007a 03       		.uleb128 0x3
 120 007b 01       		.byte	0x1
 121 007c 02       		.byte	0x2
 122 007d 68010000 		.4byte	.LASF9
 123 0081 03       		.uleb128 0x3
 124 0082 01       		.byte	0x1
 125 0083 08       		.byte	0x8
 126 0084 2E010000 		.4byte	.LASF10
 127 0088 05       		.uleb128 0x5
 128 0089 1C       		.byte	0x1c
 129 008a 02       		.byte	0x2
 130 008b A3       		.byte	0xa3
 131 008c F3000000 		.4byte	0xf3
 132 0090 06       		.uleb128 0x6
 133 0091 56010000 		.4byte	.LASF11
 134 0095 02       		.byte	0x2
 135 0096 A5       		.byte	0xa5
 136 0097 5A000000 		.4byte	0x5a
 137 009b 02       		.byte	0x2
 138 009c 23       		.byte	0x23
 139 009d 00       		.uleb128 0
 140 009e 06       		.uleb128 0x6
 141 009f 5C000000 		.4byte	.LASF12
 142 00a3 02       		.byte	0x2
 143 00a4 A7       		.byte	0xa7
 144 00a5 5A000000 		.4byte	0x5a
 145 00a9 02       		.byte	0x2
 146 00aa 23       		.byte	0x23
 147 00ab 04       		.uleb128 0x4
 148 00ac 06       		.uleb128 0x6
 149 00ad 07000000 		.4byte	.LASF13
 150 00b1 02       		.byte	0x2
 151 00b2 A9       		.byte	0xa9
 152 00b3 5A000000 		.4byte	0x5a
 153 00b7 02       		.byte	0x2
 154 00b8 23       		.byte	0x23
 155 00b9 08       		.uleb128 0x8
 156 00ba 06       		.uleb128 0x6
 157 00bb D8000000 		.4byte	.LASF14
 158 00bf 02       		.byte	0x2
 159 00c0 AB       		.byte	0xab
 160 00c1 5A000000 		.4byte	0x5a
 161 00c5 02       		.byte	0x2
 162 00c6 23       		.byte	0x23
 163 00c7 0C       		.uleb128 0xc
 164 00c8 07       		.uleb128 0x7
 165 00c9 6F647200 		.ascii	"odr\000"
 166 00cd 02       		.byte	0x2
 167 00ce AD       		.byte	0xad
 168 00cf 5A000000 		.4byte	0x5a
 169 00d3 02       		.byte	0x2
 170 00d4 23       		.byte	0x23
 171 00d5 10       		.uleb128 0x10
ARM GAS  C:\Users\Rob\AppData\Local\Temp\ccg06jtu.s 			page 4


 172 00d6 06       		.uleb128 0x6
 173 00d7 AA000000 		.4byte	.LASF15
 174 00db 02       		.byte	0x2
 175 00dc AF       		.byte	0xaf
 176 00dd 5A000000 		.4byte	0x5a
 177 00e1 02       		.byte	0x2
 178 00e2 23       		.byte	0x23
 179 00e3 14       		.uleb128 0x14
 180 00e4 06       		.uleb128 0x6
 181 00e5 A5000000 		.4byte	.LASF16
 182 00e9 02       		.byte	0x2
 183 00ea B1       		.byte	0xb1
 184 00eb 5A000000 		.4byte	0x5a
 185 00ef 02       		.byte	0x2
 186 00f0 23       		.byte	0x23
 187 00f1 18       		.uleb128 0x18
 188 00f2 00       		.byte	0
 189 00f3 04       		.uleb128 0x4
 190 00f4 79000000 		.4byte	.LASF18
 191 00f8 02       		.byte	0x2
 192 00f9 B2       		.byte	0xb2
 193 00fa 88000000 		.4byte	0x88
 194 00fe 05       		.uleb128 0x5
 195 00ff 8C       		.byte	0x8c
 196 0100 02       		.byte	0x2
 197 0101 BB       		.byte	0xbb
 198 0102 4D010000 		.4byte	0x14d
 199 0106 06       		.uleb128 0x6
 200 0107 8C000000 		.4byte	.LASF19
 201 010b 02       		.byte	0x2
 202 010c BD       		.byte	0xbd
 203 010d F3000000 		.4byte	0xf3
 204 0111 02       		.byte	0x2
 205 0112 23       		.byte	0x23
 206 0113 00       		.uleb128 0
 207 0114 06       		.uleb128 0x6
 208 0115 0F000000 		.4byte	.LASF20
 209 0119 02       		.byte	0x2
 210 011a BF       		.byte	0xbf
 211 011b F3000000 		.4byte	0xf3
 212 011f 02       		.byte	0x2
 213 0120 23       		.byte	0x23
 214 0121 1C       		.uleb128 0x1c
 215 0122 06       		.uleb128 0x6
 216 0123 3D010000 		.4byte	.LASF21
 217 0127 02       		.byte	0x2
 218 0128 C1       		.byte	0xc1
 219 0129 F3000000 		.4byte	0xf3
 220 012d 02       		.byte	0x2
 221 012e 23       		.byte	0x23
 222 012f 38       		.uleb128 0x38
 223 0130 06       		.uleb128 0x6
 224 0131 00000000 		.4byte	.LASF22
 225 0135 02       		.byte	0x2
 226 0136 C3       		.byte	0xc3
 227 0137 F3000000 		.4byte	0xf3
 228 013b 02       		.byte	0x2
ARM GAS  C:\Users\Rob\AppData\Local\Temp\ccg06jtu.s 			page 5


 229 013c 23       		.byte	0x23
 230 013d 54       		.uleb128 0x54
 231 013e 06       		.uleb128 0x6
 232 013f DE000000 		.4byte	.LASF23
 233 0143 02       		.byte	0x2
 234 0144 CA       		.byte	0xca
 235 0145 F3000000 		.4byte	0xf3
 236 0149 02       		.byte	0x2
 237 014a 23       		.byte	0x23
 238 014b 70       		.uleb128 0x70
 239 014c 00       		.byte	0
 240 014d 04       		.uleb128 0x4
 241 014e BB000000 		.4byte	.LASF24
 242 0152 02       		.byte	0x2
 243 0153 D8       		.byte	0xd8
 244 0154 FE000000 		.4byte	0xfe
 245 0158 08       		.uleb128 0x8
 246 0159 01       		.byte	0x1
 247 015a 63000000 		.4byte	.LASF29
 248 015e 01       		.byte	0x1
 249 015f 3D       		.byte	0x3d
 250 0160 01       		.byte	0x1
 251 0161 00000000 		.4byte	.LFB40
 252 0165 20000000 		.4byte	.LFE40
 253 0169 00000000 		.4byte	.LLST0
 254 016d 09       		.uleb128 0x9
 255 016e C5000000 		.4byte	.LASF25
 256 0172 02       		.byte	0x2
 257 0173 B401     		.2byte	0x1b4
 258 0175 7B010000 		.4byte	0x17b
 259 0179 01       		.byte	0x1
 260 017a 01       		.byte	0x1
 261 017b 0A       		.uleb128 0xa
 262 017c 4D010000 		.4byte	0x14d
 263 0180 09       		.uleb128 0x9
 264 0181 C5000000 		.4byte	.LASF25
 265 0185 02       		.byte	0x2
 266 0186 B401     		.2byte	0x1b4
 267 0188 7B010000 		.4byte	0x17b
 268 018c 01       		.byte	0x1
 269 018d 01       		.byte	0x1
 270 018e 00       		.byte	0
 271              		.section	.debug_abbrev,"",%progbits
 272              	.Ldebug_abbrev0:
 273 0000 01       		.uleb128 0x1
 274 0001 11       		.uleb128 0x11
 275 0002 01       		.byte	0x1
 276 0003 25       		.uleb128 0x25
 277 0004 0E       		.uleb128 0xe
 278 0005 13       		.uleb128 0x13
 279 0006 0B       		.uleb128 0xb
 280 0007 03       		.uleb128 0x3
 281 0008 0E       		.uleb128 0xe
 282 0009 1B       		.uleb128 0x1b
 283 000a 0E       		.uleb128 0xe
 284 000b 11       		.uleb128 0x11
 285 000c 01       		.uleb128 0x1
ARM GAS  C:\Users\Rob\AppData\Local\Temp\ccg06jtu.s 			page 6


 286 000d 52       		.uleb128 0x52
 287 000e 01       		.uleb128 0x1
 288 000f 55       		.uleb128 0x55
 289 0010 06       		.uleb128 0x6
 290 0011 10       		.uleb128 0x10
 291 0012 06       		.uleb128 0x6
 292 0013 00       		.byte	0
 293 0014 00       		.byte	0
 294 0015 02       		.uleb128 0x2
 295 0016 24       		.uleb128 0x24
 296 0017 00       		.byte	0
 297 0018 0B       		.uleb128 0xb
 298 0019 0B       		.uleb128 0xb
 299 001a 3E       		.uleb128 0x3e
 300 001b 0B       		.uleb128 0xb
 301 001c 03       		.uleb128 0x3
 302 001d 08       		.uleb128 0x8
 303 001e 00       		.byte	0
 304 001f 00       		.byte	0
 305 0020 03       		.uleb128 0x3
 306 0021 24       		.uleb128 0x24
 307 0022 00       		.byte	0
 308 0023 0B       		.uleb128 0xb
 309 0024 0B       		.uleb128 0xb
 310 0025 3E       		.uleb128 0x3e
 311 0026 0B       		.uleb128 0xb
 312 0027 03       		.uleb128 0x3
 313 0028 0E       		.uleb128 0xe
 314 0029 00       		.byte	0
 315 002a 00       		.byte	0
 316 002b 04       		.uleb128 0x4
 317 002c 16       		.uleb128 0x16
 318 002d 00       		.byte	0
 319 002e 03       		.uleb128 0x3
 320 002f 0E       		.uleb128 0xe
 321 0030 3A       		.uleb128 0x3a
 322 0031 0B       		.uleb128 0xb
 323 0032 3B       		.uleb128 0x3b
 324 0033 0B       		.uleb128 0xb
 325 0034 49       		.uleb128 0x49
 326 0035 13       		.uleb128 0x13
 327 0036 00       		.byte	0
 328 0037 00       		.byte	0
 329 0038 05       		.uleb128 0x5
 330 0039 13       		.uleb128 0x13
 331 003a 01       		.byte	0x1
 332 003b 0B       		.uleb128 0xb
 333 003c 0B       		.uleb128 0xb
 334 003d 3A       		.uleb128 0x3a
 335 003e 0B       		.uleb128 0xb
 336 003f 3B       		.uleb128 0x3b
 337 0040 0B       		.uleb128 0xb
 338 0041 01       		.uleb128 0x1
 339 0042 13       		.uleb128 0x13
 340 0043 00       		.byte	0
 341 0044 00       		.byte	0
 342 0045 06       		.uleb128 0x6
ARM GAS  C:\Users\Rob\AppData\Local\Temp\ccg06jtu.s 			page 7


 343 0046 0D       		.uleb128 0xd
 344 0047 00       		.byte	0
 345 0048 03       		.uleb128 0x3
 346 0049 0E       		.uleb128 0xe
 347 004a 3A       		.uleb128 0x3a
 348 004b 0B       		.uleb128 0xb
 349 004c 3B       		.uleb128 0x3b
 350 004d 0B       		.uleb128 0xb
 351 004e 49       		.uleb128 0x49
 352 004f 13       		.uleb128 0x13
 353 0050 38       		.uleb128 0x38
 354 0051 0A       		.uleb128 0xa
 355 0052 00       		.byte	0
 356 0053 00       		.byte	0
 357 0054 07       		.uleb128 0x7
 358 0055 0D       		.uleb128 0xd
 359 0056 00       		.byte	0
 360 0057 03       		.uleb128 0x3
 361 0058 08       		.uleb128 0x8
 362 0059 3A       		.uleb128 0x3a
 363 005a 0B       		.uleb128 0xb
 364 005b 3B       		.uleb128 0x3b
 365 005c 0B       		.uleb128 0xb
 366 005d 49       		.uleb128 0x49
 367 005e 13       		.uleb128 0x13
 368 005f 38       		.uleb128 0x38
 369 0060 0A       		.uleb128 0xa
 370 0061 00       		.byte	0
 371 0062 00       		.byte	0
 372 0063 08       		.uleb128 0x8
 373 0064 2E       		.uleb128 0x2e
 374 0065 00       		.byte	0
 375 0066 3F       		.uleb128 0x3f
 376 0067 0C       		.uleb128 0xc
 377 0068 03       		.uleb128 0x3
 378 0069 0E       		.uleb128 0xe
 379 006a 3A       		.uleb128 0x3a
 380 006b 0B       		.uleb128 0xb
 381 006c 3B       		.uleb128 0x3b
 382 006d 0B       		.uleb128 0xb
 383 006e 27       		.uleb128 0x27
 384 006f 0C       		.uleb128 0xc
 385 0070 11       		.uleb128 0x11
 386 0071 01       		.uleb128 0x1
 387 0072 12       		.uleb128 0x12
 388 0073 01       		.uleb128 0x1
 389 0074 40       		.uleb128 0x40
 390 0075 06       		.uleb128 0x6
 391 0076 00       		.byte	0
 392 0077 00       		.byte	0
 393 0078 09       		.uleb128 0x9
 394 0079 34       		.uleb128 0x34
 395 007a 00       		.byte	0
 396 007b 03       		.uleb128 0x3
 397 007c 0E       		.uleb128 0xe
 398 007d 3A       		.uleb128 0x3a
 399 007e 0B       		.uleb128 0xb
ARM GAS  C:\Users\Rob\AppData\Local\Temp\ccg06jtu.s 			page 8


 400 007f 3B       		.uleb128 0x3b
 401 0080 05       		.uleb128 0x5
 402 0081 49       		.uleb128 0x49
 403 0082 13       		.uleb128 0x13
 404 0083 3F       		.uleb128 0x3f
 405 0084 0C       		.uleb128 0xc
 406 0085 3C       		.uleb128 0x3c
 407 0086 0C       		.uleb128 0xc
 408 0087 00       		.byte	0
 409 0088 00       		.byte	0
 410 0089 0A       		.uleb128 0xa
 411 008a 26       		.uleb128 0x26
 412 008b 00       		.byte	0
 413 008c 49       		.uleb128 0x49
 414 008d 13       		.uleb128 0x13
 415 008e 00       		.byte	0
 416 008f 00       		.byte	0
 417 0090 00       		.byte	0
 418              		.section	.debug_loc,"",%progbits
 419              	.Ldebug_loc0:
 420              	.LLST0:
 421 0000 00000000 		.4byte	.LFB40
 422 0004 02000000 		.4byte	.LCFI0
 423 0008 0200     		.2byte	0x2
 424 000a 7D       		.byte	0x7d
 425 000b 00       		.sleb128 0
 426 000c 02000000 		.4byte	.LCFI0
 427 0010 20000000 		.4byte	.LFE40
 428 0014 0200     		.2byte	0x2
 429 0016 7D       		.byte	0x7d
 430 0017 08       		.sleb128 8
 431 0018 00000000 		.4byte	0
 432 001c 00000000 		.4byte	0
 433              		.section	.debug_aranges,"",%progbits
 434 0000 1C000000 		.4byte	0x1c
 435 0004 0200     		.2byte	0x2
 436 0006 00000000 		.4byte	.Ldebug_info0
 437 000a 04       		.byte	0x4
 438 000b 00       		.byte	0
 439 000c 0000     		.2byte	0
 440 000e 0000     		.2byte	0
 441 0010 00000000 		.4byte	.LFB40
 442 0014 20000000 		.4byte	.LFE40-.LFB40
 443 0018 00000000 		.4byte	0
 444 001c 00000000 		.4byte	0
 445              		.section	.debug_ranges,"",%progbits
 446              	.Ldebug_ranges0:
 447 0000 00000000 		.4byte	.LFB40
 448 0004 20000000 		.4byte	.LFE40
 449 0008 00000000 		.4byte	0
 450 000c 00000000 		.4byte	0
 451              		.section	.debug_line,"",%progbits
 452              	.Ldebug_line0:
 453 0000 BF000000 		.section	.debug_str,"MS",%progbits,1
 453      02009D00 
 453      00000201 
 453      FB0E0D00 
ARM GAS  C:\Users\Rob\AppData\Local\Temp\ccg06jtu.s 			page 9


 453      01010101 
 454              	.LASF22:
 455 0000 50444461 		.ascii	"PDData\000"
 455      746100
 456              	.LASF13:
 457 0007 6F737065 		.ascii	"ospeedr\000"
 457      65647200 
 458              	.LASF20:
 459 000f 50424461 		.ascii	"PBData\000"
 459      746100
 460              	.LASF28:
 461 0016 433A5C55 		.ascii	"C:\\Users\\Rob\\Projects\\ECE411Practicum\\src\\vir"
 461      73657273 
 461      5C526F62 
 461      5C50726F 
 461      6A656374 
 462 0043 756C656E 		.ascii	"ulent\000"
 462      7400
 463              	.LASF4:
 464 0049 73686F72 		.ascii	"short unsigned int\000"
 464      7420756E 
 464      7369676E 
 464      65642069 
 464      6E7400
 465              	.LASF12:
 466 005c 6F747970 		.ascii	"otyper\000"
 466      657200
 467              	.LASF29:
 468 0063 68616C49 		.ascii	"halInit\000"
 468      6E697400 
 469              	.LASF2:
 470 006b 756E7369 		.ascii	"unsigned char\000"
 470      676E6564 
 470      20636861 
 470      7200
 471              	.LASF18:
 472 0079 73746D33 		.ascii	"stm32_gpio_setup_t\000"
 472      325F6770 
 472      696F5F73 
 472      65747570 
 472      5F7400
 473              	.LASF19:
 474 008c 50414461 		.ascii	"PAData\000"
 474      746100
 475              	.LASF6:
 476 0093 6C6F6E67 		.ascii	"long unsigned int\000"
 476      20756E73 
 476      69676E65 
 476      6420696E 
 476      7400
 477              	.LASF16:
 478 00a5 61667268 		.ascii	"afrh\000"
 478      00
 479              	.LASF15:
 480 00aa 6166726C 		.ascii	"afrl\000"
 480      00
 481              	.LASF26:
ARM GAS  C:\Users\Rob\AppData\Local\Temp\ccg06jtu.s 			page 10


 482 00af 474E5520 		.ascii	"GNU C 4.6.2\000"
 482      4320342E 
 482      362E3200 
 483              	.LASF24:
 484 00bb 50414C43 		.ascii	"PALConfig\000"
 484      6F6E6669 
 484      6700
 485              	.LASF25:
 486 00c5 70616C5F 		.ascii	"pal_default_config\000"
 486      64656661 
 486      756C745F 
 486      636F6E66 
 486      696700
 487              	.LASF14:
 488 00d8 70757064 		.ascii	"pupdr\000"
 488      7200
 489              	.LASF23:
 490 00de 50464461 		.ascii	"PFData\000"
 490      746100
 491              	.LASF0:
 492 00e5 756E7369 		.ascii	"unsigned int\000"
 492      676E6564 
 492      20696E74 
 492      00
 493              	.LASF8:
 494 00f2 6C6F6E67 		.ascii	"long long unsigned int\000"
 494      206C6F6E 
 494      6720756E 
 494      7369676E 
 494      65642069 
 495              	.LASF27:
 496 0109 2E2E2F2E 		.ascii	"../../os/hal/src/hal.c\000"
 496      2E2F6F73 
 496      2F68616C 
 496      2F737263 
 496      2F68616C 
 497              	.LASF7:
 498 0120 6C6F6E67 		.ascii	"long long int\000"
 498      206C6F6E 
 498      6720696E 
 498      7400
 499              	.LASF10:
 500 012e 63686172 		.ascii	"char\000"
 500      00
 501              	.LASF3:
 502 0133 73686F72 		.ascii	"short int\000"
 502      7420696E 
 502      7400
 503              	.LASF21:
 504 013d 50434461 		.ascii	"PCData\000"
 504      746100
 505              	.LASF17:
 506 0144 75696E74 		.ascii	"uint32_t\000"
 506      33325F74 
 506      00
 507              	.LASF5:
 508 014d 6C6F6E67 		.ascii	"long int\000"
ARM GAS  C:\Users\Rob\AppData\Local\Temp\ccg06jtu.s 			page 11


 508      20696E74 
 508      00
 509              	.LASF11:
 510 0156 6D6F6465 		.ascii	"moder\000"
 510      7200
 511              	.LASF1:
 512 015c 7369676E 		.ascii	"signed char\000"
 512      65642063 
 512      68617200 
 513              	.LASF9:
 514 0168 5F426F6F 		.ascii	"_Bool\000"
 514      6C00
 515              		.ident	"GCC: (GNU) 4.6.2"
ARM GAS  C:\Users\Rob\AppData\Local\Temp\ccg06jtu.s 			page 12


DEFINED SYMBOLS
                            *ABS*:00000000 hal.c
C:\Users\Rob\AppData\Local\Temp\ccg06jtu.s:17     .text.halInit:00000000 $t
C:\Users\Rob\AppData\Local\Temp\ccg06jtu.s:23     .text.halInit:00000000 halInit
C:\Users\Rob\AppData\Local\Temp\ccg06jtu.s:51     .text.halInit:0000001c $d
                     .debug_frame:00000010 $d

UNDEFINED SYMBOLS
hal_lld_init
_pal_lld_init
pwmInit
sdInit
boardInit
pal_default_config
