ARM GAS  C:\Users\Rob\AppData\Local\Temp\ccAWZZHW.s 			page 1


   1              		.cpu cortex-m0
   2              		.fpu softvfp
   3              		.eabi_attribute 20, 1
   4              		.eabi_attribute 21, 1
   5              		.eabi_attribute 23, 3
   6              		.eabi_attribute 24, 1
   7              		.eabi_attribute 25, 1
   8              		.eabi_attribute 26, 1
   9              		.eabi_attribute 30, 2
  10              		.eabi_attribute 18, 4
  11              		.code	16
  12              		.file	"main.c"
  13              		.text
  14              	.Ltext0:
  15              		.cfi_sections	.debug_frame
  16              		.section	.text.Thread2,"ax",%progbits
  17              		.align	2
  18              		.p2align 4,,15
  19              		.code	16
  20              		.thumb_func
  21              		.type	Thread2, %function
  22              	Thread2:
  23              	.LFB41:
  24              		.file 1 "main.c"
  25              		.loc 1 41 0
  26              		.cfi_startproc
  27 0000 38B5     		push	{r3, r4, r5, lr}
  28              	.LCFI0:
  29              		.cfi_def_cfa_offset 16
  30              		.cfi_offset 3, -16
  31              		.cfi_offset 4, -12
  32              		.cfi_offset 5, -8
  33              		.cfi_offset 14, -4
  34              	.LVL0:
  35              		.loc 1 44 0
  36 0002 084B     		ldr	r3, .L4
  37 0004 084A     		ldr	r2, .L4+4
  38 0006 9B69     		ldr	r3, [r3, #24]
  39              		.loc 1 46 0
  40 0008 084D     		ldr	r5, .L4+8
  41              		.loc 1 44 0
  42 000a 9A61     		str	r2, [r3, #24]
  43              	.LVL1:
  44              	.L2:
  45              		.loc 1 46 0 discriminator 1
  46 000c 8024     		mov	r4, #128
  47 000e A400     		lsl	r4, r4, #2
  48              		.loc 1 47 0 discriminator 1
  49 0010 FA20     		mov	r0, #250
  50              		.loc 1 46 0 discriminator 1
  51 0012 6C83     		strh	r4, [r5, #26]
  52              		.loc 1 47 0 discriminator 1
  53 0014 8000     		lsl	r0, r0, #2
  54 0016 FFF7FEFF 		bl	chThdSleep
  55              		.loc 1 48 0 discriminator 1
  56 001a 2C83     		strh	r4, [r5, #24]
  57              		.loc 1 49 0 discriminator 1
ARM GAS  C:\Users\Rob\AppData\Local\Temp\ccAWZZHW.s 			page 2


  58 001c 0448     		ldr	r0, .L4+12
  59 001e FFF7FEFF 		bl	chThdSleep
  60 0022 F3E7     		b	.L2
  61              	.L5:
  62              		.align	2
  63              	.L4:
  64 0024 00000000 		.word	rlist
  65 0028 00000000 		.word	.LC1
  66 002c 00080048 		.word	1207961600
  67 0030 B80B0000 		.word	3000
  68              		.cfi_endproc
  69              	.LFE41:
  70              		.size	Thread2, .-Thread2
  71 0034 C046C046 		.section	.text.Thread1,"ax",%progbits
  71      C046C046 
  71      C046C046 
  72              		.align	2
  73              		.p2align 4,,15
  74              		.code	16
  75              		.thumb_func
  76              		.type	Thread1, %function
  77              	Thread1:
  78              	.LFB40:
  79              		.loc 1 25 0
  80              		.cfi_startproc
  81 0000 38B5     		push	{r3, r4, r5, lr}
  82              	.LCFI1:
  83              		.cfi_def_cfa_offset 16
  84              		.cfi_offset 3, -16
  85              		.cfi_offset 4, -12
  86              		.cfi_offset 5, -8
  87              		.cfi_offset 14, -4
  88              	.LVL2:
  89              		.loc 1 28 0
  90 0002 084B     		ldr	r3, .L8
  91 0004 084A     		ldr	r2, .L8+4
  92 0006 9B69     		ldr	r3, [r3, #24]
  93              		.loc 1 30 0
  94 0008 8024     		mov	r4, #128
  95 000a 084D     		ldr	r5, .L8+8
  96              		.loc 1 28 0
  97 000c 9A61     		str	r2, [r3, #24]
  98              		.loc 1 30 0
  99 000e 6400     		lsl	r4, r4, #1
 100              	.LVL3:
 101              	.L7:
 102              		.loc 1 30 0 is_stmt 0 discriminator 1
 103 0010 6C83     		strh	r4, [r5, #26]
 104              		.loc 1 31 0 is_stmt 1 discriminator 1
 105 0012 0748     		ldr	r0, .L8+12
 106 0014 FFF7FEFF 		bl	chThdSleep
 107              		.loc 1 32 0 discriminator 1
 108 0018 2C83     		strh	r4, [r5, #24]
 109              		.loc 1 33 0 discriminator 1
 110 001a 0548     		ldr	r0, .L8+12
 111 001c FFF7FEFF 		bl	chThdSleep
 112 0020 F6E7     		b	.L7
ARM GAS  C:\Users\Rob\AppData\Local\Temp\ccAWZZHW.s 			page 3


 113              	.L9:
 114 0022 C046     		.align	2
 115              	.L8:
 116 0024 00000000 		.word	rlist
 117 0028 0C000000 		.word	.LC4
 118 002c 00080048 		.word	1207961600
 119 0030 30750000 		.word	30000
 120              		.cfi_endproc
 121              	.LFE40:
 122              		.size	Thread1, .-Thread1
 123 0034 C046C046 		.section	.text.startup.main,"ax",%progbits
 123      C046C046 
 123      C046C046 
 124              		.align	2
 125              		.p2align 4,,15
 126              		.global	main
 127              		.code	16
 128              		.thumb_func
 129              		.type	main, %function
 130              	main:
 131              	.LFB42:
 132              		.loc 1 56 0
 133              		.cfi_startproc
 134 0000 70B5     		push	{r4, r5, r6, lr}
 135              	.LCFI2:
 136              		.cfi_def_cfa_offset 16
 137              		.cfi_offset 4, -16
 138              		.cfi_offset 5, -12
 139              		.cfi_offset 6, -8
 140              		.cfi_offset 14, -4
 141 0002 82B0     		sub	sp, sp, #8
 142              	.LCFI3:
 143              		.cfi_def_cfa_offset 24
 144              		.loc 1 65 0
 145 0004 FFF7FEFF 		bl	halInit
 146              		.loc 1 66 0
 147 0008 FFF7FEFF 		bl	chSysInit
 148              		.loc 1 72 0
 149 000c 184E     		ldr	r6, .L13
 150 000e 0021     		mov	r1, #0
 151 0010 301C     		mov	r0, r6
 152 0012 FFF7FEFF 		bl	sdStart
 153              		.loc 1 73 0
 154 0016 9020     		mov	r0, #144
 155 0018 8021     		mov	r1, #128
 156 001a C005     		lsl	r0, r0, #23
 157 001c 8900     		lsl	r1, r1, #2
 158 001e 8222     		mov	r2, #130
 159 0020 FFF7FEFF 		bl	_pal_lld_setgroupmode
 160              		.loc 1 74 0
 161 0024 9020     		mov	r0, #144
 162 0026 8021     		mov	r1, #128
 163 0028 C005     		lsl	r0, r0, #23
 164 002a C900     		lsl	r1, r1, #3
 165 002c 8222     		mov	r2, #130
 166 002e FFF7FEFF 		bl	_pal_lld_setgroupmode
 167              		.loc 1 79 0
ARM GAS  C:\Users\Rob\AppData\Local\Temp\ccAWZZHW.s 			page 4


 168 0032 9821     		mov	r1, #152
 169 0034 0024     		mov	r4, #0
 170 0036 4900     		lsl	r1, r1, #1
 171 0038 4022     		mov	r2, #64
 172 003a 0E4B     		ldr	r3, .L13+4
 173 003c 0E48     		ldr	r0, .L13+8
 174 003e 0094     		str	r4, [sp]
 175 0040 FFF7FEFF 		bl	chThdCreateStatic
 176              		.loc 1 80 0
 177 0044 9821     		mov	r1, #152
 178 0046 0D48     		ldr	r0, .L13+12
 179 0048 4900     		lsl	r1, r1, #1
 180 004a 4022     		mov	r2, #64
 181 004c 0C4B     		ldr	r3, .L13+16
 182              		.loc 1 89 0
 183 004e 9025     		mov	r5, #144
 184              		.loc 1 80 0
 185 0050 0094     		str	r4, [sp]
 186              		.loc 1 89 0
 187 0052 ED05     		lsl	r5, r5, #23
 188              		.loc 1 80 0
 189 0054 FFF7FEFF 		bl	chThdCreateStatic
 190              		.loc 1 89 0
 191 0058 0124     		mov	r4, #1
 192 005a 02E0     		b	.L12
 193              	.L11:
 194              		.loc 1 91 0
 195 005c 0948     		ldr	r0, .L13+20
 196 005e FFF7FEFF 		bl	chThdSleep
 197              	.L12:
 198              		.loc 1 89 0
 199 0062 2B69     		ldr	r3, [r5, #16]
 200 0064 1C42     		tst	r4, r3
 201 0066 F9D0     		beq	.L11
 202              		.loc 1 90 0
 203 0068 301C     		mov	r0, r6
 204 006a FFF7FEFF 		bl	TestThread
 205 006e F5E7     		b	.L11
 206              	.L14:
 207              		.align	2
 208              	.L13:
 209 0070 00000000 		.word	SD1
 210 0074 00000000 		.word	Thread1
 211 0078 00000000 		.word	.LANCHOR0
 212 007c 00000000 		.word	.LANCHOR1
 213 0080 00000000 		.word	Thread2
 214 0084 50C30000 		.word	50000
 215              		.cfi_endproc
 216              	.LFE42:
 217              		.size	main, .-main
 218 0088 C046C046 		.section	.bss.waThread1,"aw",%nobits
 218      C046C046 
 219              		.align	3
 220              		.set	.LANCHOR0,. + 0
 221              		.type	waThread1, %object
 222              		.size	waThread1, 304
 223              	waThread1:
ARM GAS  C:\Users\Rob\AppData\Local\Temp\ccAWZZHW.s 			page 5


 224 0000 00000000 		.space	304
 224      00000000 
 224      00000000 
 224      00000000 
 224      00000000 
 225              		.section	.bss.waThread2,"aw",%nobits
 226              		.align	3
 227              		.set	.LANCHOR1,. + 0
 228              		.type	waThread2, %object
 229              		.size	waThread2, 304
 230              	waThread2:
 231 0000 00000000 		.space	304
 231      00000000 
 231      00000000 
 231      00000000 
 231      00000000 
 232              		.section	.rodata.str1.4,"aMS",%progbits,1
 233              		.align	2
 234              	.LC1:
 235 0000 626C696E 		.ascii	"blinker2\000"
 235      6B657232 
 235      00
 236 0009 000000   		.space	3
 237              	.LC4:
 238 000c 626C696E 		.ascii	"blinker1\000"
 238      6B657231 
 238      00
 239 0015 000000   		.text
 240              	.Letext0:
 241              		.file 2 "c:\\yagarto\\bin\\../lib/gcc/arm-none-eabi/4.6.2/include/stddef.h"
 242              		.file 3 "c:/yagarto/lib/gcc/../../arm-none-eabi/sys-include/stdint.h"
 243              		.file 4 "../../os/ports/GCC/ARMCMx/chtypes.h"
 244              		.file 5 "../../os/kernel/include/chlists.h"
 245              		.file 6 "../../os/kernel/include/chthreads.h"
 246              		.file 7 "../../os/ports/GCC/ARMCMx/chcore_v6m.h"
 247              		.file 8 "../../os/kernel/include/chschd.h"
 248              		.file 9 "../../os/kernel/include/chmtx.h"
 249              		.file 10 "../../os/kernel/include/chevents.h"
 250              		.file 11 "../../os/kernel/include/chqueues.h"
 251              		.file 12 "../../os/hal/platforms/STM32F0xx/stm32f0xx.h"
 252              		.file 13 "../../os/hal/platforms/STM32/GPIOv2/pal_lld.h"
 253              		.file 14 "../../os/hal/include/serial.h"
 254              		.file 15 "../../os/hal/platforms/STM32/USARTv2/serial_lld.h"
 255              		.section	.debug_info,"",%progbits
 256              	.Ldebug_info0:
 257 0000 D40A0000 		.4byte	0xad4
 258 0004 0200     		.2byte	0x2
 259 0006 00000000 		.4byte	.Ldebug_abbrev0
 260 000a 04       		.byte	0x4
 261 000b 01       		.uleb128 0x1
 262 000c D3030000 		.4byte	.LASF128
 263 0010 01       		.byte	0x1
 264 0011 23000000 		.4byte	.LASF129
 265 0015 F3030000 		.4byte	.LASF130
 266 0019 00000000 		.4byte	0
 267 001d 00000000 		.4byte	0
 268 0021 00000000 		.4byte	.Ldebug_ranges0+0
ARM GAS  C:\Users\Rob\AppData\Local\Temp\ccAWZZHW.s 			page 6


 269 0025 00000000 		.4byte	.Ldebug_line0
 270 0029 02       		.uleb128 0x2
 271 002a 04       		.byte	0x4
 272 002b 05       		.byte	0x5
 273 002c 696E7400 		.ascii	"int\000"
 274 0030 03       		.uleb128 0x3
 275 0031 36010000 		.4byte	.LASF2
 276 0035 02       		.byte	0x2
 277 0036 D4       		.byte	0xd4
 278 0037 3B000000 		.4byte	0x3b
 279 003b 04       		.uleb128 0x4
 280 003c 04       		.byte	0x4
 281 003d 07       		.byte	0x7
 282 003e 63000000 		.4byte	.LASF0
 283 0042 04       		.uleb128 0x4
 284 0043 01       		.byte	0x1
 285 0044 06       		.byte	0x6
 286 0045 66040000 		.4byte	.LASF1
 287 0049 03       		.uleb128 0x3
 288 004a DB010000 		.4byte	.LASF3
 289 004e 03       		.byte	0x3
 290 004f 2A       		.byte	0x2a
 291 0050 54000000 		.4byte	0x54
 292 0054 04       		.uleb128 0x4
 293 0055 01       		.byte	0x1
 294 0056 08       		.byte	0x8
 295 0057 C1020000 		.4byte	.LASF4
 296 005b 04       		.uleb128 0x4
 297 005c 02       		.byte	0x2
 298 005d 05       		.byte	0x5
 299 005e 0C030000 		.4byte	.LASF5
 300 0062 03       		.uleb128 0x3
 301 0063 98020000 		.4byte	.LASF6
 302 0067 03       		.byte	0x3
 303 0068 36       		.byte	0x36
 304 0069 6D000000 		.4byte	0x6d
 305 006d 04       		.uleb128 0x4
 306 006e 02       		.byte	0x2
 307 006f 07       		.byte	0x7
 308 0070 78040000 		.4byte	.LASF7
 309 0074 03       		.uleb128 0x3
 310 0075 CB030000 		.4byte	.LASF8
 311 0079 03       		.byte	0x3
 312 007a 4F       		.byte	0x4f
 313 007b 7F000000 		.4byte	0x7f
 314 007f 04       		.uleb128 0x4
 315 0080 04       		.byte	0x4
 316 0081 05       		.byte	0x5
 317 0082 33030000 		.4byte	.LASF9
 318 0086 03       		.uleb128 0x3
 319 0087 B2000000 		.4byte	.LASF10
 320 008b 03       		.byte	0x3
 321 008c 50       		.byte	0x50
 322 008d 91000000 		.4byte	0x91
 323 0091 04       		.uleb128 0x4
 324 0092 04       		.byte	0x4
 325 0093 07       		.byte	0x7
ARM GAS  C:\Users\Rob\AppData\Local\Temp\ccAWZZHW.s 			page 7


 326 0094 B9030000 		.4byte	.LASF11
 327 0098 04       		.uleb128 0x4
 328 0099 08       		.byte	0x8
 329 009a 05       		.byte	0x5
 330 009b 0C020000 		.4byte	.LASF12
 331 009f 03       		.uleb128 0x3
 332 00a0 4A030000 		.4byte	.LASF13
 333 00a4 03       		.byte	0x3
 334 00a5 78       		.byte	0x78
 335 00a6 AA000000 		.4byte	0xaa
 336 00aa 04       		.uleb128 0x4
 337 00ab 08       		.byte	0x8
 338 00ac 07       		.byte	0x7
 339 00ad E6000000 		.4byte	.LASF14
 340 00b1 04       		.uleb128 0x4
 341 00b2 01       		.byte	0x1
 342 00b3 02       		.byte	0x2
 343 00b4 44010000 		.4byte	.LASF15
 344 00b8 03       		.uleb128 0x3
 345 00b9 74020000 		.4byte	.LASF16
 346 00bd 04       		.byte	0x4
 347 00be 25       		.byte	0x25
 348 00bf 49000000 		.4byte	0x49
 349 00c3 03       		.uleb128 0x3
 350 00c4 C2010000 		.4byte	.LASF17
 351 00c8 04       		.byte	0x4
 352 00c9 26       		.byte	0x26
 353 00ca 49000000 		.4byte	0x49
 354 00ce 03       		.uleb128 0x3
 355 00cf A3030000 		.4byte	.LASF18
 356 00d3 04       		.byte	0x4
 357 00d4 27       		.byte	0x27
 358 00d5 49000000 		.4byte	0x49
 359 00d9 03       		.uleb128 0x3
 360 00da 54020000 		.4byte	.LASF19
 361 00de 04       		.byte	0x4
 362 00df 28       		.byte	0x28
 363 00e0 49000000 		.4byte	0x49
 364 00e4 03       		.uleb128 0x3
 365 00e5 DE000000 		.4byte	.LASF20
 366 00e9 04       		.byte	0x4
 367 00ea 29       		.byte	0x29
 368 00eb 86000000 		.4byte	0x86
 369 00ef 03       		.uleb128 0x3
 370 00f0 31020000 		.4byte	.LASF21
 371 00f4 04       		.byte	0x4
 372 00f5 2A       		.byte	0x2a
 373 00f6 74000000 		.4byte	0x74
 374 00fa 03       		.uleb128 0x3
 375 00fb BB000000 		.4byte	.LASF22
 376 00ff 04       		.byte	0x4
 377 0100 2C       		.byte	0x2c
 378 0101 86000000 		.4byte	0x86
 379 0105 03       		.uleb128 0x3
 380 0106 E3010000 		.4byte	.LASF23
 381 010a 04       		.byte	0x4
 382 010b 2D       		.byte	0x2d
ARM GAS  C:\Users\Rob\AppData\Local\Temp\ccAWZZHW.s 			page 8


 383 010c 86000000 		.4byte	0x86
 384 0110 03       		.uleb128 0x3
 385 0111 46000000 		.4byte	.LASF24
 386 0115 04       		.byte	0x4
 387 0116 2E       		.byte	0x2e
 388 0117 86000000 		.4byte	0x86
 389 011b 03       		.uleb128 0x3
 390 011c BB010000 		.4byte	.LASF25
 391 0120 05       		.byte	0x5
 392 0121 23       		.byte	0x23
 393 0122 26010000 		.4byte	0x126
 394 0126 05       		.uleb128 0x5
 395 0127 BB010000 		.4byte	.LASF25
 396 012b 48       		.byte	0x48
 397 012c 06       		.byte	0x6
 398 012d 57       		.byte	0x57
 399 012e 4B020000 		.4byte	0x24b
 400 0132 06       		.uleb128 0x6
 401 0133 43030000 		.4byte	.LASF26
 402 0137 06       		.byte	0x6
 403 0138 58       		.byte	0x58
 404 0139 70020000 		.4byte	0x270
 405 013d 02       		.byte	0x2
 406 013e 23       		.byte	0x23
 407 013f 00       		.uleb128 0
 408 0140 06       		.uleb128 0x6
 409 0141 9C030000 		.4byte	.LASF27
 410 0145 06       		.byte	0x6
 411 0146 5A       		.byte	0x5a
 412 0147 70020000 		.4byte	0x270
 413 014b 02       		.byte	0x2
 414 014c 23       		.byte	0x23
 415 014d 04       		.uleb128 0x4
 416 014e 06       		.uleb128 0x6
 417 014f 3F000000 		.4byte	.LASF28
 418 0153 06       		.byte	0x6
 419 0154 5C       		.byte	0x5c
 420 0155 E4000000 		.4byte	0xe4
 421 0159 02       		.byte	0x2
 422 015a 23       		.byte	0x23
 423 015b 08       		.uleb128 0x8
 424 015c 06       		.uleb128 0x6
 425 015d 53030000 		.4byte	.LASF29
 426 0161 06       		.byte	0x6
 427 0162 5D       		.byte	0x5d
 428 0163 3F030000 		.4byte	0x33f
 429 0167 02       		.byte	0x2
 430 0168 23       		.byte	0x23
 431 0169 0C       		.uleb128 0xc
 432 016a 06       		.uleb128 0x6
 433 016b 0D010000 		.4byte	.LASF30
 434 016f 06       		.byte	0x6
 435 0170 5F       		.byte	0x5f
 436 0171 70020000 		.4byte	0x270
 437 0175 02       		.byte	0x2
 438 0176 23       		.byte	0x23
 439 0177 10       		.uleb128 0x10
ARM GAS  C:\Users\Rob\AppData\Local\Temp\ccAWZZHW.s 			page 9


 440 0178 06       		.uleb128 0x6
 441 0179 CB010000 		.4byte	.LASF31
 442 017d 06       		.byte	0x6
 443 017e 60       		.byte	0x60
 444 017f 70020000 		.4byte	0x270
 445 0183 02       		.byte	0x2
 446 0184 23       		.byte	0x23
 447 0185 14       		.uleb128 0x14
 448 0186 06       		.uleb128 0x6
 449 0187 87010000 		.4byte	.LASF32
 450 018b 06       		.byte	0x6
 451 018c 67       		.byte	0x67
 452 018d CB040000 		.4byte	0x4cb
 453 0191 02       		.byte	0x2
 454 0192 23       		.byte	0x23
 455 0193 18       		.uleb128 0x18
 456 0194 06       		.uleb128 0x6
 457 0195 D3010000 		.4byte	.LASF33
 458 0199 06       		.byte	0x6
 459 019a 72       		.byte	0x72
 460 019b C3000000 		.4byte	0xc3
 461 019f 02       		.byte	0x2
 462 01a0 23       		.byte	0x23
 463 01a1 1C       		.uleb128 0x1c
 464 01a2 06       		.uleb128 0x6
 465 01a3 3F020000 		.4byte	.LASF34
 466 01a7 06       		.byte	0x6
 467 01a8 76       		.byte	0x76
 468 01a9 B8000000 		.4byte	0xb8
 469 01ad 02       		.byte	0x2
 470 01ae 23       		.byte	0x23
 471 01af 1D       		.uleb128 0x1d
 472 01b0 06       		.uleb128 0x6
 473 01b1 26040000 		.4byte	.LASF35
 474 01b5 06       		.byte	0x6
 475 01b6 7B       		.byte	0x7b
 476 01b7 CE000000 		.4byte	0xce
 477 01bb 02       		.byte	0x2
 478 01bc 23       		.byte	0x23
 479 01bd 1E       		.uleb128 0x1e
 480 01be 06       		.uleb128 0x6
 481 01bf 37040000 		.4byte	.LASF36
 482 01c3 06       		.byte	0x6
 483 01c4 81       		.byte	0x81
 484 01c5 D9000000 		.4byte	0xd9
 485 01c9 02       		.byte	0x2
 486 01ca 23       		.byte	0x23
 487 01cb 1F       		.uleb128 0x1f
 488 01cc 06       		.uleb128 0x6
 489 01cd 2A000000 		.4byte	.LASF37
 490 01d1 06       		.byte	0x6
 491 01d2 88       		.byte	0x88
 492 01d3 65030000 		.4byte	0x365
 493 01d7 02       		.byte	0x2
 494 01d8 23       		.byte	0x23
 495 01d9 20       		.uleb128 0x20
 496 01da 07       		.uleb128 0x7
ARM GAS  C:\Users\Rob\AppData\Local\Temp\ccAWZZHW.s 			page 10


 497 01db 705F7500 		.ascii	"p_u\000"
 498 01df 06       		.byte	0x6
 499 01e0 AD       		.byte	0xad
 500 01e1 96040000 		.4byte	0x496
 501 01e5 02       		.byte	0x2
 502 01e6 23       		.byte	0x23
 503 01e7 24       		.uleb128 0x24
 504 01e8 06       		.uleb128 0x6
 505 01e9 0C000000 		.4byte	.LASF38
 506 01ed 06       		.byte	0x6
 507 01ee B2       		.byte	0xb2
 508 01ef 98020000 		.4byte	0x298
 509 01f3 02       		.byte	0x2
 510 01f4 23       		.byte	0x23
 511 01f5 28       		.uleb128 0x28
 512 01f6 06       		.uleb128 0x6
 513 01f7 58000000 		.4byte	.LASF39
 514 01fb 06       		.byte	0x6
 515 01fc B8       		.byte	0xb8
 516 01fd 76020000 		.4byte	0x276
 517 0201 02       		.byte	0x2
 518 0202 23       		.byte	0x23
 519 0203 2C       		.uleb128 0x2c
 520 0204 06       		.uleb128 0x6
 521 0205 6E020000 		.4byte	.LASF40
 522 0209 06       		.byte	0x6
 523 020a BC       		.byte	0xbc
 524 020b EF000000 		.4byte	0xef
 525 020f 02       		.byte	0x2
 526 0210 23       		.byte	0x23
 527 0211 34       		.uleb128 0x34
 528 0212 06       		.uleb128 0x6
 529 0213 20030000 		.4byte	.LASF41
 530 0217 06       		.byte	0x6
 531 0218 C2       		.byte	0xc2
 532 0219 FA000000 		.4byte	0xfa
 533 021d 02       		.byte	0x2
 534 021e 23       		.byte	0x23
 535 021f 38       		.uleb128 0x38
 536 0220 06       		.uleb128 0x6
 537 0221 FC010000 		.4byte	.LASF42
 538 0225 06       		.byte	0x6
 539 0226 C9       		.byte	0xc9
 540 0227 DD040000 		.4byte	0x4dd
 541 022b 02       		.byte	0x2
 542 022c 23       		.byte	0x23
 543 022d 3C       		.uleb128 0x3c
 544 022e 06       		.uleb128 0x6
 545 022f CF020000 		.4byte	.LASF43
 546 0233 06       		.byte	0x6
 547 0234 CD       		.byte	0xcd
 548 0235 E4000000 		.4byte	0xe4
 549 0239 02       		.byte	0x2
 550 023a 23       		.byte	0x23
 551 023b 40       		.uleb128 0x40
 552 023c 06       		.uleb128 0x6
 553 023d F4010000 		.4byte	.LASF44
ARM GAS  C:\Users\Rob\AppData\Local\Temp\ccAWZZHW.s 			page 11


 554 0241 06       		.byte	0x6
 555 0242 D3       		.byte	0xd3
 556 0243 AE020000 		.4byte	0x2ae
 557 0247 02       		.byte	0x2
 558 0248 23       		.byte	0x23
 559 0249 44       		.uleb128 0x44
 560 024a 00       		.byte	0
 561 024b 08       		.uleb128 0x8
 562 024c 08       		.byte	0x8
 563 024d 05       		.byte	0x5
 564 024e 5A       		.byte	0x5a
 565 024f 70020000 		.4byte	0x270
 566 0253 06       		.uleb128 0x6
 567 0254 43030000 		.4byte	.LASF26
 568 0258 05       		.byte	0x5
 569 0259 5B       		.byte	0x5b
 570 025a 70020000 		.4byte	0x270
 571 025e 02       		.byte	0x2
 572 025f 23       		.byte	0x23
 573 0260 00       		.uleb128 0
 574 0261 06       		.uleb128 0x6
 575 0262 9C030000 		.4byte	.LASF27
 576 0266 05       		.byte	0x5
 577 0267 5D       		.byte	0x5d
 578 0268 70020000 		.4byte	0x270
 579 026c 02       		.byte	0x2
 580 026d 23       		.byte	0x23
 581 026e 04       		.uleb128 0x4
 582 026f 00       		.byte	0
 583 0270 09       		.uleb128 0x9
 584 0271 04       		.byte	0x4
 585 0272 1B010000 		.4byte	0x11b
 586 0276 03       		.uleb128 0x3
 587 0277 99010000 		.4byte	.LASF45
 588 027b 05       		.byte	0x5
 589 027c 5F       		.byte	0x5f
 590 027d 4B020000 		.4byte	0x24b
 591 0281 08       		.uleb128 0x8
 592 0282 04       		.byte	0x4
 593 0283 05       		.byte	0x5
 594 0284 64       		.byte	0x64
 595 0285 98020000 		.4byte	0x298
 596 0289 06       		.uleb128 0x6
 597 028a 43030000 		.4byte	.LASF26
 598 028e 05       		.byte	0x5
 599 028f 66       		.byte	0x66
 600 0290 70020000 		.4byte	0x270
 601 0294 02       		.byte	0x2
 602 0295 23       		.byte	0x23
 603 0296 00       		.uleb128 0
 604 0297 00       		.byte	0
 605 0298 03       		.uleb128 0x3
 606 0299 00000000 		.4byte	.LASF46
 607 029d 05       		.byte	0x5
 608 029e 69       		.byte	0x69
 609 029f 81020000 		.4byte	0x281
 610 02a3 03       		.uleb128 0x3
ARM GAS  C:\Users\Rob\AppData\Local\Temp\ccAWZZHW.s 			page 12


 611 02a4 36000000 		.4byte	.LASF47
 612 02a8 07       		.byte	0x7
 613 02a9 A0       		.byte	0xa0
 614 02aa AE020000 		.4byte	0x2ae
 615 02ae 0A       		.uleb128 0xa
 616 02af 04       		.byte	0x4
 617 02b0 03       		.uleb128 0x3
 618 02b1 91040000 		.4byte	.LASF48
 619 02b5 07       		.byte	0x7
 620 02b6 A6       		.byte	0xa6
 621 02b7 9F000000 		.4byte	0x9f
 622 02bb 05       		.uleb128 0x5
 623 02bc A1020000 		.4byte	.LASF49
 624 02c0 24       		.byte	0x24
 625 02c1 07       		.byte	0x7
 626 02c2 B3       		.byte	0xb3
 627 02c3 3F030000 		.4byte	0x33f
 628 02c7 07       		.uleb128 0x7
 629 02c8 723800   		.ascii	"r8\000"
 630 02cb 07       		.byte	0x7
 631 02cc B4       		.byte	0xb4
 632 02cd A3020000 		.4byte	0x2a3
 633 02d1 02       		.byte	0x2
 634 02d2 23       		.byte	0x23
 635 02d3 00       		.uleb128 0
 636 02d4 07       		.uleb128 0x7
 637 02d5 723900   		.ascii	"r9\000"
 638 02d8 07       		.byte	0x7
 639 02d9 B5       		.byte	0xb5
 640 02da A3020000 		.4byte	0x2a3
 641 02de 02       		.byte	0x2
 642 02df 23       		.byte	0x23
 643 02e0 04       		.uleb128 0x4
 644 02e1 07       		.uleb128 0x7
 645 02e2 72313000 		.ascii	"r10\000"
 646 02e6 07       		.byte	0x7
 647 02e7 B6       		.byte	0xb6
 648 02e8 A3020000 		.4byte	0x2a3
 649 02ec 02       		.byte	0x2
 650 02ed 23       		.byte	0x23
 651 02ee 08       		.uleb128 0x8
 652 02ef 07       		.uleb128 0x7
 653 02f0 72313100 		.ascii	"r11\000"
 654 02f4 07       		.byte	0x7
 655 02f5 B7       		.byte	0xb7
 656 02f6 A3020000 		.4byte	0x2a3
 657 02fa 02       		.byte	0x2
 658 02fb 23       		.byte	0x23
 659 02fc 0C       		.uleb128 0xc
 660 02fd 07       		.uleb128 0x7
 661 02fe 723400   		.ascii	"r4\000"
 662 0301 07       		.byte	0x7
 663 0302 B8       		.byte	0xb8
 664 0303 A3020000 		.4byte	0x2a3
 665 0307 02       		.byte	0x2
 666 0308 23       		.byte	0x23
 667 0309 10       		.uleb128 0x10
ARM GAS  C:\Users\Rob\AppData\Local\Temp\ccAWZZHW.s 			page 13


 668 030a 07       		.uleb128 0x7
 669 030b 723500   		.ascii	"r5\000"
 670 030e 07       		.byte	0x7
 671 030f B9       		.byte	0xb9
 672 0310 A3020000 		.4byte	0x2a3
 673 0314 02       		.byte	0x2
 674 0315 23       		.byte	0x23
 675 0316 14       		.uleb128 0x14
 676 0317 07       		.uleb128 0x7
 677 0318 723600   		.ascii	"r6\000"
 678 031b 07       		.byte	0x7
 679 031c BA       		.byte	0xba
 680 031d A3020000 		.4byte	0x2a3
 681 0321 02       		.byte	0x2
 682 0322 23       		.byte	0x23
 683 0323 18       		.uleb128 0x18
 684 0324 07       		.uleb128 0x7
 685 0325 723700   		.ascii	"r7\000"
 686 0328 07       		.byte	0x7
 687 0329 BB       		.byte	0xbb
 688 032a A3020000 		.4byte	0x2a3
 689 032e 02       		.byte	0x2
 690 032f 23       		.byte	0x23
 691 0330 1C       		.uleb128 0x1c
 692 0331 07       		.uleb128 0x7
 693 0332 6C7200   		.ascii	"lr\000"
 694 0335 07       		.byte	0x7
 695 0336 BC       		.byte	0xbc
 696 0337 A3020000 		.4byte	0x2a3
 697 033b 02       		.byte	0x2
 698 033c 23       		.byte	0x23
 699 033d 20       		.uleb128 0x20
 700 033e 00       		.byte	0
 701 033f 05       		.uleb128 0x5
 702 0340 37020000 		.4byte	.LASF50
 703 0344 04       		.byte	0x4
 704 0345 07       		.byte	0x7
 705 0346 C6       		.byte	0xc6
 706 0347 5A030000 		.4byte	0x35a
 707 034b 07       		.uleb128 0x7
 708 034c 72313300 		.ascii	"r13\000"
 709 0350 07       		.byte	0x7
 710 0351 C7       		.byte	0xc7
 711 0352 5A030000 		.4byte	0x35a
 712 0356 02       		.byte	0x2
 713 0357 23       		.byte	0x23
 714 0358 00       		.uleb128 0
 715 0359 00       		.byte	0
 716 035a 09       		.uleb128 0x9
 717 035b 04       		.byte	0x4
 718 035c BB020000 		.4byte	0x2bb
 719 0360 0B       		.uleb128 0xb
 720 0361 86000000 		.4byte	0x86
 721 0365 0B       		.uleb128 0xb
 722 0366 10010000 		.4byte	0x110
 723 036a 08       		.uleb128 0x8
 724 036b 1C       		.byte	0x1c
ARM GAS  C:\Users\Rob\AppData\Local\Temp\ccAWZZHW.s 			page 14


 725 036c 08       		.byte	0x8
 726 036d 57       		.byte	0x57
 727 036e C7030000 		.4byte	0x3c7
 728 0372 06       		.uleb128 0x6
 729 0373 29020000 		.4byte	.LASF51
 730 0377 08       		.byte	0x8
 731 0378 58       		.byte	0x58
 732 0379 76020000 		.4byte	0x276
 733 037d 02       		.byte	0x2
 734 037e 23       		.byte	0x23
 735 037f 00       		.uleb128 0
 736 0380 06       		.uleb128 0x6
 737 0381 C7000000 		.4byte	.LASF52
 738 0385 08       		.byte	0x8
 739 0386 59       		.byte	0x59
 740 0387 E4000000 		.4byte	0xe4
 741 038b 02       		.byte	0x2
 742 038c 23       		.byte	0x23
 743 038d 08       		.uleb128 0x8
 744 038e 06       		.uleb128 0x6
 745 038f 8B040000 		.4byte	.LASF53
 746 0393 08       		.byte	0x8
 747 0394 5B       		.byte	0x5b
 748 0395 3F030000 		.4byte	0x33f
 749 0399 02       		.byte	0x2
 750 039a 23       		.byte	0x23
 751 039b 0C       		.uleb128 0xc
 752 039c 06       		.uleb128 0x6
 753 039d AB010000 		.4byte	.LASF54
 754 03a1 08       		.byte	0x8
 755 03a2 5E       		.byte	0x5e
 756 03a3 70020000 		.4byte	0x270
 757 03a7 02       		.byte	0x2
 758 03a8 23       		.byte	0x23
 759 03a9 10       		.uleb128 0x10
 760 03aa 06       		.uleb128 0x6
 761 03ab 5E020000 		.4byte	.LASF55
 762 03af 08       		.byte	0x8
 763 03b0 5F       		.byte	0x5f
 764 03b1 70020000 		.4byte	0x270
 765 03b5 02       		.byte	0x2
 766 03b6 23       		.byte	0x23
 767 03b7 14       		.uleb128 0x14
 768 03b8 06       		.uleb128 0x6
 769 03b9 16030000 		.4byte	.LASF56
 770 03bd 08       		.byte	0x8
 771 03be 62       		.byte	0x62
 772 03bf 70020000 		.4byte	0x270
 773 03c3 02       		.byte	0x2
 774 03c4 23       		.byte	0x23
 775 03c5 18       		.uleb128 0x18
 776 03c6 00       		.byte	0
 777 03c7 03       		.uleb128 0x3
 778 03c8 2D040000 		.4byte	.LASF57
 779 03cc 08       		.byte	0x8
 780 03cd 64       		.byte	0x64
 781 03ce 6A030000 		.4byte	0x36a
ARM GAS  C:\Users\Rob\AppData\Local\Temp\ccAWZZHW.s 			page 15


 782 03d2 05       		.uleb128 0x5
 783 03d3 60010000 		.4byte	.LASF58
 784 03d7 10       		.byte	0x10
 785 03d8 09       		.byte	0x9
 786 03d9 25       		.byte	0x25
 787 03da 09040000 		.4byte	0x409
 788 03de 06       		.uleb128 0x6
 789 03df 2B030000 		.4byte	.LASF59
 790 03e3 09       		.byte	0x9
 791 03e4 26       		.byte	0x26
 792 03e5 76020000 		.4byte	0x276
 793 03e9 02       		.byte	0x2
 794 03ea 23       		.byte	0x23
 795 03eb 00       		.uleb128 0
 796 03ec 06       		.uleb128 0x6
 797 03ed 50000000 		.4byte	.LASF60
 798 03f1 09       		.byte	0x9
 799 03f2 28       		.byte	0x28
 800 03f3 70020000 		.4byte	0x270
 801 03f7 02       		.byte	0x2
 802 03f8 23       		.byte	0x23
 803 03f9 08       		.uleb128 0x8
 804 03fa 06       		.uleb128 0x6
 805 03fb 5F040000 		.4byte	.LASF61
 806 03ff 09       		.byte	0x9
 807 0400 2A       		.byte	0x2a
 808 0401 09040000 		.4byte	0x409
 809 0405 02       		.byte	0x2
 810 0406 23       		.byte	0x23
 811 0407 0C       		.uleb128 0xc
 812 0408 00       		.byte	0
 813 0409 09       		.uleb128 0x9
 814 040a 04       		.byte	0x4
 815 040b D2030000 		.4byte	0x3d2
 816 040f 03       		.uleb128 0x3
 817 0410 60010000 		.4byte	.LASF58
 818 0414 09       		.byte	0x9
 819 0415 2C       		.byte	0x2c
 820 0416 D2030000 		.4byte	0x3d2
 821 041a 03       		.uleb128 0x3
 822 041b AB030000 		.4byte	.LASF62
 823 041f 0A       		.byte	0xa
 824 0420 25       		.byte	0x25
 825 0421 25040000 		.4byte	0x425
 826 0425 05       		.uleb128 0x5
 827 0426 AB030000 		.4byte	.LASF62
 828 042a 10       		.byte	0x10
 829 042b 0A       		.byte	0xa
 830 042c 2A       		.byte	0x2a
 831 042d 6A040000 		.4byte	0x46a
 832 0431 06       		.uleb128 0x6
 833 0432 66020000 		.4byte	.LASF63
 834 0436 0A       		.byte	0xa
 835 0437 2B       		.byte	0x2b
 836 0438 6A040000 		.4byte	0x46a
 837 043c 02       		.byte	0x2
 838 043d 23       		.byte	0x23
ARM GAS  C:\Users\Rob\AppData\Local\Temp\ccAWZZHW.s 			page 16


 839 043e 00       		.uleb128 0
 840 043f 06       		.uleb128 0x6
 841 0440 64030000 		.4byte	.LASF64
 842 0444 0A       		.byte	0xa
 843 0445 2E       		.byte	0x2e
 844 0446 70020000 		.4byte	0x270
 845 044a 02       		.byte	0x2
 846 044b 23       		.byte	0x23
 847 044c 04       		.uleb128 0x4
 848 044d 06       		.uleb128 0x6
 849 044e 82000000 		.4byte	.LASF65
 850 0452 0A       		.byte	0xa
 851 0453 30       		.byte	0x30
 852 0454 FA000000 		.4byte	0xfa
 853 0458 02       		.byte	0x2
 854 0459 23       		.byte	0x23
 855 045a 08       		.uleb128 0x8
 856 045b 06       		.uleb128 0x6
 857 045c A1040000 		.4byte	.LASF66
 858 0460 0A       		.byte	0xa
 859 0461 33       		.byte	0x33
 860 0462 05010000 		.4byte	0x105
 861 0466 02       		.byte	0x2
 862 0467 23       		.byte	0x23
 863 0468 0C       		.uleb128 0xc
 864 0469 00       		.byte	0
 865 046a 09       		.uleb128 0x9
 866 046b 04       		.byte	0x4
 867 046c 1A040000 		.4byte	0x41a
 868 0470 05       		.uleb128 0x5
 869 0471 2A010000 		.4byte	.LASF67
 870 0475 04       		.byte	0x4
 871 0476 0A       		.byte	0xa
 872 0477 3A       		.byte	0x3a
 873 0478 8B040000 		.4byte	0x48b
 874 047c 06       		.uleb128 0x6
 875 047d 41040000 		.4byte	.LASF68
 876 0481 0A       		.byte	0xa
 877 0482 3B       		.byte	0x3b
 878 0483 6A040000 		.4byte	0x46a
 879 0487 02       		.byte	0x2
 880 0488 23       		.byte	0x23
 881 0489 00       		.uleb128 0
 882 048a 00       		.byte	0
 883 048b 03       		.uleb128 0x3
 884 048c 2A010000 		.4byte	.LASF67
 885 0490 0A       		.byte	0xa
 886 0491 3E       		.byte	0x3e
 887 0492 70040000 		.4byte	0x470
 888 0496 0C       		.uleb128 0xc
 889 0497 04       		.byte	0x4
 890 0498 06       		.byte	0x6
 891 0499 8F       		.byte	0x8f
 892 049a CB040000 		.4byte	0x4cb
 893 049e 0D       		.uleb128 0xd
 894 049f 3D010000 		.4byte	.LASF69
 895 04a3 06       		.byte	0x6
ARM GAS  C:\Users\Rob\AppData\Local\Temp\ccAWZZHW.s 			page 17


 896 04a4 96       		.byte	0x96
 897 04a5 EF000000 		.4byte	0xef
 898 04a9 0D       		.uleb128 0xd
 899 04aa AA040000 		.4byte	.LASF70
 900 04ae 06       		.byte	0x6
 901 04af 9D       		.byte	0x9d
 902 04b0 EF000000 		.4byte	0xef
 903 04b4 0D       		.uleb128 0xd
 904 04b5 8A000000 		.4byte	.LASF71
 905 04b9 06       		.byte	0x6
 906 04ba A4       		.byte	0xa4
 907 04bb AE020000 		.4byte	0x2ae
 908 04bf 0D       		.uleb128 0xd
 909 04c0 98000000 		.4byte	.LASF72
 910 04c4 06       		.byte	0x6
 911 04c5 AB       		.byte	0xab
 912 04c6 FA000000 		.4byte	0xfa
 913 04ca 00       		.byte	0
 914 04cb 09       		.uleb128 0x9
 915 04cc 04       		.byte	0x4
 916 04cd D1040000 		.4byte	0x4d1
 917 04d1 0E       		.uleb128 0xe
 918 04d2 D6040000 		.4byte	0x4d6
 919 04d6 04       		.uleb128 0x4
 920 04d7 01       		.byte	0x1
 921 04d8 08       		.byte	0x8
 922 04d9 A6010000 		.4byte	.LASF73
 923 04dd 09       		.uleb128 0x9
 924 04de 04       		.byte	0x4
 925 04df 0F040000 		.4byte	0x40f
 926 04e3 09       		.uleb128 0x9
 927 04e4 04       		.byte	0x4
 928 04e5 E9040000 		.4byte	0x4e9
 929 04e9 0F       		.uleb128 0xf
 930 04ea 01       		.byte	0x1
 931 04eb EF000000 		.4byte	0xef
 932 04ef F9040000 		.4byte	0x4f9
 933 04f3 10       		.uleb128 0x10
 934 04f4 AE020000 		.4byte	0x2ae
 935 04f8 00       		.byte	0
 936 04f9 03       		.uleb128 0x3
 937 04fa 84020000 		.4byte	.LASF74
 938 04fe 0B       		.byte	0xb
 939 04ff 30       		.byte	0x30
 940 0500 04050000 		.4byte	0x504
 941 0504 05       		.uleb128 0x5
 942 0505 84020000 		.4byte	.LASF74
 943 0509 24       		.byte	0x24
 944 050a 0B       		.byte	0xb
 945 050b 3E       		.byte	0x3e
 946 050c 81050000 		.4byte	0x581
 947 0510 06       		.uleb128 0x6
 948 0511 1B010000 		.4byte	.LASF75
 949 0515 0B       		.byte	0xb
 950 0516 3F       		.byte	0x3f
 951 0517 76020000 		.4byte	0x276
 952 051b 02       		.byte	0x2
ARM GAS  C:\Users\Rob\AppData\Local\Temp\ccAWZZHW.s 			page 18


 953 051c 23       		.byte	0x23
 954 051d 00       		.uleb128 0
 955 051e 06       		.uleb128 0x6
 956 051f 87030000 		.4byte	.LASF76
 957 0523 0B       		.byte	0xb
 958 0524 40       		.byte	0x40
 959 0525 30000000 		.4byte	0x30
 960 0529 02       		.byte	0x2
 961 052a 23       		.byte	0x23
 962 052b 08       		.uleb128 0x8
 963 052c 06       		.uleb128 0x6
 964 052d 20020000 		.4byte	.LASF77
 965 0531 0B       		.byte	0xb
 966 0532 41       		.byte	0x41
 967 0533 A4050000 		.4byte	0x5a4
 968 0537 02       		.byte	0x2
 969 0538 23       		.byte	0x23
 970 0539 0C       		.uleb128 0xc
 971 053a 06       		.uleb128 0x6
 972 053b 96030000 		.4byte	.LASF78
 973 053f 0B       		.byte	0xb
 974 0540 42       		.byte	0x42
 975 0541 A4050000 		.4byte	0x5a4
 976 0545 02       		.byte	0x2
 977 0546 23       		.byte	0x23
 978 0547 10       		.uleb128 0x10
 979 0548 06       		.uleb128 0x6
 980 0549 B3010000 		.4byte	.LASF79
 981 054d 0B       		.byte	0xb
 982 054e 44       		.byte	0x44
 983 054f A4050000 		.4byte	0x5a4
 984 0553 02       		.byte	0x2
 985 0554 23       		.byte	0x23
 986 0555 14       		.uleb128 0x14
 987 0556 06       		.uleb128 0x6
 988 0557 70000000 		.4byte	.LASF80
 989 055b 0B       		.byte	0xb
 990 055c 45       		.byte	0x45
 991 055d A4050000 		.4byte	0x5a4
 992 0561 02       		.byte	0x2
 993 0562 23       		.byte	0x23
 994 0563 18       		.uleb128 0x18
 995 0564 06       		.uleb128 0x6
 996 0565 72010000 		.4byte	.LASF81
 997 0569 0B       		.byte	0xb
 998 056a 46       		.byte	0x46
 999 056b 81050000 		.4byte	0x581
 1000 056f 02       		.byte	0x2
 1001 0570 23       		.byte	0x23
 1002 0571 1C       		.uleb128 0x1c
 1003 0572 06       		.uleb128 0x6
 1004 0573 91000000 		.4byte	.LASF82
 1005 0577 0B       		.byte	0xb
 1006 0578 47       		.byte	0x47
 1007 0579 AE020000 		.4byte	0x2ae
 1008 057d 02       		.byte	0x2
 1009 057e 23       		.byte	0x23
ARM GAS  C:\Users\Rob\AppData\Local\Temp\ccAWZZHW.s 			page 19


 1010 057f 20       		.uleb128 0x20
 1011 0580 00       		.byte	0
 1012 0581 03       		.uleb128 0x3
 1013 0582 78000000 		.4byte	.LASF83
 1014 0586 0B       		.byte	0xb
 1015 0587 33       		.byte	0x33
 1016 0588 8C050000 		.4byte	0x58c
 1017 058c 09       		.uleb128 0x9
 1018 058d 04       		.byte	0x4
 1019 058e 92050000 		.4byte	0x592
 1020 0592 11       		.uleb128 0x11
 1021 0593 01       		.byte	0x1
 1022 0594 9E050000 		.4byte	0x59e
 1023 0598 10       		.uleb128 0x10
 1024 0599 9E050000 		.4byte	0x59e
 1025 059d 00       		.byte	0
 1026 059e 09       		.uleb128 0x9
 1027 059f 04       		.byte	0x4
 1028 05a0 F9040000 		.4byte	0x4f9
 1029 05a4 09       		.uleb128 0x9
 1030 05a5 04       		.byte	0x4
 1031 05a6 49000000 		.4byte	0x49
 1032 05aa 03       		.uleb128 0x3
 1033 05ab 8E010000 		.4byte	.LASF84
 1034 05af 0B       		.byte	0xb
 1035 05b0 7B       		.byte	0x7b
 1036 05b1 F9040000 		.4byte	0x4f9
 1037 05b5 03       		.uleb128 0x3
 1038 05b6 66010000 		.4byte	.LASF85
 1039 05ba 0B       		.byte	0xb
 1040 05bb EE       		.byte	0xee
 1041 05bc F9040000 		.4byte	0x4f9
 1042 05c0 0F       		.uleb128 0xf
 1043 05c1 01       		.byte	0x1
 1044 05c2 30000000 		.4byte	0x30
 1045 05c6 DA050000 		.4byte	0x5da
 1046 05ca 10       		.uleb128 0x10
 1047 05cb AE020000 		.4byte	0x2ae
 1048 05cf 10       		.uleb128 0x10
 1049 05d0 DA050000 		.4byte	0x5da
 1050 05d4 10       		.uleb128 0x10
 1051 05d5 30000000 		.4byte	0x30
 1052 05d9 00       		.byte	0
 1053 05da 09       		.uleb128 0x9
 1054 05db 04       		.byte	0x4
 1055 05dc E0050000 		.4byte	0x5e0
 1056 05e0 0E       		.uleb128 0xe
 1057 05e1 49000000 		.4byte	0x49
 1058 05e5 09       		.uleb128 0x9
 1059 05e6 04       		.byte	0x4
 1060 05e7 C0050000 		.4byte	0x5c0
 1061 05eb 0F       		.uleb128 0xf
 1062 05ec 01       		.byte	0x1
 1063 05ed 30000000 		.4byte	0x30
 1064 05f1 05060000 		.4byte	0x605
 1065 05f5 10       		.uleb128 0x10
 1066 05f6 AE020000 		.4byte	0x2ae
ARM GAS  C:\Users\Rob\AppData\Local\Temp\ccAWZZHW.s 			page 20


 1067 05fa 10       		.uleb128 0x10
 1068 05fb A4050000 		.4byte	0x5a4
 1069 05ff 10       		.uleb128 0x10
 1070 0600 30000000 		.4byte	0x30
 1071 0604 00       		.byte	0
 1072 0605 09       		.uleb128 0x9
 1073 0606 04       		.byte	0x4
 1074 0607 EB050000 		.4byte	0x5eb
 1075 060b 0F       		.uleb128 0xf
 1076 060c 01       		.byte	0x1
 1077 060d EF000000 		.4byte	0xef
 1078 0611 20060000 		.4byte	0x620
 1079 0615 10       		.uleb128 0x10
 1080 0616 AE020000 		.4byte	0x2ae
 1081 061a 10       		.uleb128 0x10
 1082 061b 49000000 		.4byte	0x49
 1083 061f 00       		.byte	0
 1084 0620 09       		.uleb128 0x9
 1085 0621 04       		.byte	0x4
 1086 0622 0B060000 		.4byte	0x60b
 1087 0626 0B       		.uleb128 0xb
 1088 0627 62000000 		.4byte	0x62
 1089 062b 12       		.uleb128 0x12
 1090 062c 2C       		.byte	0x2c
 1091 062d 0C       		.byte	0xc
 1092 062e 6F02     		.2byte	0x26f
 1093 0630 25070000 		.4byte	0x725
 1094 0634 13       		.uleb128 0x13
 1095 0635 43523100 		.ascii	"CR1\000"
 1096 0639 0C       		.byte	0xc
 1097 063a 7102     		.2byte	0x271
 1098 063c 60030000 		.4byte	0x360
 1099 0640 02       		.byte	0x2
 1100 0641 23       		.byte	0x23
 1101 0642 00       		.uleb128 0
 1102 0643 13       		.uleb128 0x13
 1103 0644 43523200 		.ascii	"CR2\000"
 1104 0648 0C       		.byte	0xc
 1105 0649 7202     		.2byte	0x272
 1106 064b 60030000 		.4byte	0x360
 1107 064f 02       		.byte	0x2
 1108 0650 23       		.byte	0x23
 1109 0651 04       		.uleb128 0x4
 1110 0652 13       		.uleb128 0x13
 1111 0653 43523300 		.ascii	"CR3\000"
 1112 0657 0C       		.byte	0xc
 1113 0658 7302     		.2byte	0x273
 1114 065a 60030000 		.4byte	0x360
 1115 065e 02       		.byte	0x2
 1116 065f 23       		.byte	0x23
 1117 0660 08       		.uleb128 0x8
 1118 0661 13       		.uleb128 0x13
 1119 0662 42525200 		.ascii	"BRR\000"
 1120 0666 0C       		.byte	0xc
 1121 0667 7402     		.2byte	0x274
 1122 0669 26060000 		.4byte	0x626
 1123 066d 02       		.byte	0x2
ARM GAS  C:\Users\Rob\AppData\Local\Temp\ccAWZZHW.s 			page 21


 1124 066e 23       		.byte	0x23
 1125 066f 0C       		.uleb128 0xc
 1126 0670 14       		.uleb128 0x14
 1127 0671 DA020000 		.4byte	.LASF86
 1128 0675 0C       		.byte	0xc
 1129 0676 7502     		.2byte	0x275
 1130 0678 62000000 		.4byte	0x62
 1131 067c 02       		.byte	0x2
 1132 067d 23       		.byte	0x23
 1133 067e 0E       		.uleb128 0xe
 1134 067f 14       		.uleb128 0x14
 1135 0680 A6000000 		.4byte	.LASF87
 1136 0684 0C       		.byte	0xc
 1137 0685 7602     		.2byte	0x276
 1138 0687 26060000 		.4byte	0x626
 1139 068b 02       		.byte	0x2
 1140 068c 23       		.byte	0x23
 1141 068d 10       		.uleb128 0x10
 1142 068e 14       		.uleb128 0x14
 1143 068f E4020000 		.4byte	.LASF88
 1144 0693 0C       		.byte	0xc
 1145 0694 7702     		.2byte	0x277
 1146 0696 62000000 		.4byte	0x62
 1147 069a 02       		.byte	0x2
 1148 069b 23       		.byte	0x23
 1149 069c 12       		.uleb128 0x12
 1150 069d 14       		.uleb128 0x14
 1151 069e EF010000 		.4byte	.LASF89
 1152 06a2 0C       		.byte	0xc
 1153 06a3 7802     		.2byte	0x278
 1154 06a5 60030000 		.4byte	0x360
 1155 06a9 02       		.byte	0x2
 1156 06aa 23       		.byte	0x23
 1157 06ab 14       		.uleb128 0x14
 1158 06ac 13       		.uleb128 0x13
 1159 06ad 52515200 		.ascii	"RQR\000"
 1160 06b1 0C       		.byte	0xc
 1161 06b2 7902     		.2byte	0x279
 1162 06b4 26060000 		.4byte	0x626
 1163 06b8 02       		.byte	0x2
 1164 06b9 23       		.byte	0x23
 1165 06ba 18       		.uleb128 0x18
 1166 06bb 14       		.uleb128 0x14
 1167 06bc EE020000 		.4byte	.LASF90
 1168 06c0 0C       		.byte	0xc
 1169 06c1 7A02     		.2byte	0x27a
 1170 06c3 62000000 		.4byte	0x62
 1171 06c7 02       		.byte	0x2
 1172 06c8 23       		.byte	0x23
 1173 06c9 1A       		.uleb128 0x1a
 1174 06ca 13       		.uleb128 0x13
 1175 06cb 49535200 		.ascii	"ISR\000"
 1176 06cf 0C       		.byte	0xc
 1177 06d0 7B02     		.2byte	0x27b
 1178 06d2 60030000 		.4byte	0x360
 1179 06d6 02       		.byte	0x2
 1180 06d7 23       		.byte	0x23
ARM GAS  C:\Users\Rob\AppData\Local\Temp\ccAWZZHW.s 			page 22


 1181 06d8 1C       		.uleb128 0x1c
 1182 06d9 13       		.uleb128 0x13
 1183 06da 49435200 		.ascii	"ICR\000"
 1184 06de 0C       		.byte	0xc
 1185 06df 7C02     		.2byte	0x27c
 1186 06e1 60030000 		.4byte	0x360
 1187 06e5 02       		.byte	0x2
 1188 06e6 23       		.byte	0x23
 1189 06e7 20       		.uleb128 0x20
 1190 06e8 13       		.uleb128 0x13
 1191 06e9 52445200 		.ascii	"RDR\000"
 1192 06ed 0C       		.byte	0xc
 1193 06ee 7D02     		.2byte	0x27d
 1194 06f0 26060000 		.4byte	0x626
 1195 06f4 02       		.byte	0x2
 1196 06f5 23       		.byte	0x23
 1197 06f6 24       		.uleb128 0x24
 1198 06f7 14       		.uleb128 0x14
 1199 06f8 F8020000 		.4byte	.LASF91
 1200 06fc 0C       		.byte	0xc
 1201 06fd 7E02     		.2byte	0x27e
 1202 06ff 62000000 		.4byte	0x62
 1203 0703 02       		.byte	0x2
 1204 0704 23       		.byte	0x23
 1205 0705 26       		.uleb128 0x26
 1206 0706 13       		.uleb128 0x13
 1207 0707 54445200 		.ascii	"TDR\000"
 1208 070b 0C       		.byte	0xc
 1209 070c 7F02     		.2byte	0x27f
 1210 070e 26060000 		.4byte	0x626
 1211 0712 02       		.byte	0x2
 1212 0713 23       		.byte	0x23
 1213 0714 28       		.uleb128 0x28
 1214 0715 14       		.uleb128 0x14
 1215 0716 02030000 		.4byte	.LASF92
 1216 071a 0C       		.byte	0xc
 1217 071b 8002     		.2byte	0x280
 1218 071d 62000000 		.4byte	0x62
 1219 0721 02       		.byte	0x2
 1220 0722 23       		.byte	0x23
 1221 0723 2A       		.uleb128 0x2a
 1222 0724 00       		.byte	0
 1223 0725 15       		.uleb128 0x15
 1224 0726 52010000 		.4byte	.LASF93
 1225 072a 0C       		.byte	0xc
 1226 072b 8102     		.2byte	0x281
 1227 072d 2B060000 		.4byte	0x62b
 1228 0731 0F       		.uleb128 0xf
 1229 0732 01       		.byte	0x1
 1230 0733 EF000000 		.4byte	0xef
 1231 0737 4B070000 		.4byte	0x74b
 1232 073b 10       		.uleb128 0x10
 1233 073c AE020000 		.4byte	0x2ae
 1234 0740 10       		.uleb128 0x10
 1235 0741 49000000 		.4byte	0x49
 1236 0745 10       		.uleb128 0x10
 1237 0746 10010000 		.4byte	0x110
ARM GAS  C:\Users\Rob\AppData\Local\Temp\ccAWZZHW.s 			page 23


 1238 074a 00       		.byte	0
 1239 074b 09       		.uleb128 0x9
 1240 074c 04       		.byte	0x4
 1241 074d 31070000 		.4byte	0x731
 1242 0751 0F       		.uleb128 0xf
 1243 0752 01       		.byte	0x1
 1244 0753 EF000000 		.4byte	0xef
 1245 0757 66070000 		.4byte	0x766
 1246 075b 10       		.uleb128 0x10
 1247 075c AE020000 		.4byte	0x2ae
 1248 0760 10       		.uleb128 0x10
 1249 0761 10010000 		.4byte	0x110
 1250 0765 00       		.byte	0
 1251 0766 09       		.uleb128 0x9
 1252 0767 04       		.byte	0x4
 1253 0768 51070000 		.4byte	0x751
 1254 076c 0F       		.uleb128 0xf
 1255 076d 01       		.byte	0x1
 1256 076e 30000000 		.4byte	0x30
 1257 0772 8B070000 		.4byte	0x78b
 1258 0776 10       		.uleb128 0x10
 1259 0777 AE020000 		.4byte	0x2ae
 1260 077b 10       		.uleb128 0x10
 1261 077c DA050000 		.4byte	0x5da
 1262 0780 10       		.uleb128 0x10
 1263 0781 30000000 		.4byte	0x30
 1264 0785 10       		.uleb128 0x10
 1265 0786 10010000 		.4byte	0x110
 1266 078a 00       		.byte	0
 1267 078b 09       		.uleb128 0x9
 1268 078c 04       		.byte	0x4
 1269 078d 6C070000 		.4byte	0x76c
 1270 0791 0F       		.uleb128 0xf
 1271 0792 01       		.byte	0x1
 1272 0793 30000000 		.4byte	0x30
 1273 0797 B0070000 		.4byte	0x7b0
 1274 079b 10       		.uleb128 0x10
 1275 079c AE020000 		.4byte	0x2ae
 1276 07a0 10       		.uleb128 0x10
 1277 07a1 A4050000 		.4byte	0x5a4
 1278 07a5 10       		.uleb128 0x10
 1279 07a6 30000000 		.4byte	0x30
 1280 07aa 10       		.uleb128 0x10
 1281 07ab 10010000 		.4byte	0x110
 1282 07af 00       		.byte	0
 1283 07b0 09       		.uleb128 0x9
 1284 07b1 04       		.byte	0x4
 1285 07b2 91070000 		.4byte	0x791
 1286 07b6 08       		.uleb128 0x8
 1287 07b7 04       		.byte	0x4
 1288 07b8 0D       		.byte	0xd
 1289 07b9 96       		.byte	0x96
 1290 07ba DB070000 		.4byte	0x7db
 1291 07be 07       		.uleb128 0x7
 1292 07bf 73657400 		.ascii	"set\000"
 1293 07c3 0D       		.byte	0xd
 1294 07c4 97       		.byte	0x97
ARM GAS  C:\Users\Rob\AppData\Local\Temp\ccAWZZHW.s 			page 24


 1295 07c5 62000000 		.4byte	0x62
 1296 07c9 02       		.byte	0x2
 1297 07ca 23       		.byte	0x23
 1298 07cb 00       		.uleb128 0
 1299 07cc 06       		.uleb128 0x6
 1300 07cd 15010000 		.4byte	.LASF94
 1301 07d1 0D       		.byte	0xd
 1302 07d2 98       		.byte	0x98
 1303 07d3 62000000 		.4byte	0x62
 1304 07d7 02       		.byte	0x2
 1305 07d8 23       		.byte	0x23
 1306 07d9 02       		.uleb128 0x2
 1307 07da 00       		.byte	0
 1308 07db 0C       		.uleb128 0xc
 1309 07dc 04       		.byte	0x4
 1310 07dd 0D       		.byte	0xd
 1311 07de 94       		.byte	0x94
 1312 07df F6070000 		.4byte	0x7f6
 1313 07e3 16       		.uleb128 0x16
 1314 07e4 5700     		.ascii	"W\000"
 1315 07e6 0D       		.byte	0xd
 1316 07e7 95       		.byte	0x95
 1317 07e8 86000000 		.4byte	0x86
 1318 07ec 16       		.uleb128 0x16
 1319 07ed 4800     		.ascii	"H\000"
 1320 07ef 0D       		.byte	0xd
 1321 07f0 99       		.byte	0x99
 1322 07f1 B6070000 		.4byte	0x7b6
 1323 07f5 00       		.byte	0
 1324 07f6 08       		.uleb128 0x8
 1325 07f7 28       		.byte	0x28
 1326 07f8 0D       		.byte	0xd
 1327 07f9 8C       		.byte	0x8c
 1328 07fa 8B080000 		.4byte	0x88b
 1329 07fe 06       		.uleb128 0x6
 1330 07ff FD000000 		.4byte	.LASF95
 1331 0803 0D       		.byte	0xd
 1332 0804 8E       		.byte	0x8e
 1333 0805 60030000 		.4byte	0x360
 1334 0809 02       		.byte	0x2
 1335 080a 23       		.byte	0x23
 1336 080b 00       		.uleb128 0
 1337 080c 06       		.uleb128 0x6
 1338 080d 3C030000 		.4byte	.LASF96
 1339 0811 0D       		.byte	0xd
 1340 0812 8F       		.byte	0x8f
 1341 0813 60030000 		.4byte	0x360
 1342 0817 02       		.byte	0x2
 1343 0818 23       		.byte	0x23
 1344 0819 04       		.uleb128 0x4
 1345 081a 06       		.uleb128 0x6
 1346 081b 7C020000 		.4byte	.LASF97
 1347 081f 0D       		.byte	0xd
 1348 0820 90       		.byte	0x90
 1349 0821 60030000 		.4byte	0x360
 1350 0825 02       		.byte	0x2
 1351 0826 23       		.byte	0x23
ARM GAS  C:\Users\Rob\AppData\Local\Temp\ccAWZZHW.s 			page 25


 1352 0827 08       		.uleb128 0x8
 1353 0828 06       		.uleb128 0x6
 1354 0829 81010000 		.4byte	.LASF98
 1355 082d 0D       		.byte	0xd
 1356 082e 91       		.byte	0x91
 1357 082f 60030000 		.4byte	0x360
 1358 0833 02       		.byte	0x2
 1359 0834 23       		.byte	0x23
 1360 0835 0C       		.uleb128 0xc
 1361 0836 07       		.uleb128 0x7
 1362 0837 49445200 		.ascii	"IDR\000"
 1363 083b 0D       		.byte	0xd
 1364 083c 92       		.byte	0x92
 1365 083d 60030000 		.4byte	0x360
 1366 0841 02       		.byte	0x2
 1367 0842 23       		.byte	0x23
 1368 0843 10       		.uleb128 0x10
 1369 0844 07       		.uleb128 0x7
 1370 0845 4F445200 		.ascii	"ODR\000"
 1371 0849 0D       		.byte	0xd
 1372 084a 93       		.byte	0x93
 1373 084b 60030000 		.4byte	0x360
 1374 084f 02       		.byte	0x2
 1375 0850 23       		.byte	0x23
 1376 0851 14       		.uleb128 0x14
 1377 0852 06       		.uleb128 0x6
 1378 0853 31000000 		.4byte	.LASF99
 1379 0857 0D       		.byte	0xd
 1380 0858 9A       		.byte	0x9a
 1381 0859 8B080000 		.4byte	0x88b
 1382 085d 02       		.byte	0x2
 1383 085e 23       		.byte	0x23
 1384 085f 18       		.uleb128 0x18
 1385 0860 06       		.uleb128 0x6
 1386 0861 B3040000 		.4byte	.LASF100
 1387 0865 0D       		.byte	0xd
 1388 0866 9B       		.byte	0x9b
 1389 0867 60030000 		.4byte	0x360
 1390 086b 02       		.byte	0x2
 1391 086c 23       		.byte	0x23
 1392 086d 1C       		.uleb128 0x1c
 1393 086e 06       		.uleb128 0x6
 1394 086f 08010000 		.4byte	.LASF101
 1395 0873 0D       		.byte	0xd
 1396 0874 9C       		.byte	0x9c
 1397 0875 60030000 		.4byte	0x360
 1398 0879 02       		.byte	0x2
 1399 087a 23       		.byte	0x23
 1400 087b 20       		.uleb128 0x20
 1401 087c 06       		.uleb128 0x6
 1402 087d 03010000 		.4byte	.LASF102
 1403 0881 0D       		.byte	0xd
 1404 0882 9D       		.byte	0x9d
 1405 0883 60030000 		.4byte	0x360
 1406 0887 02       		.byte	0x2
 1407 0888 23       		.byte	0x23
 1408 0889 24       		.uleb128 0x24
ARM GAS  C:\Users\Rob\AppData\Local\Temp\ccAWZZHW.s 			page 26


 1409 088a 00       		.byte	0
 1410 088b 0B       		.uleb128 0xb
 1411 088c DB070000 		.4byte	0x7db
 1412 0890 03       		.uleb128 0x3
 1413 0891 7A030000 		.4byte	.LASF103
 1414 0895 0D       		.byte	0xd
 1415 0896 9E       		.byte	0x9e
 1416 0897 F6070000 		.4byte	0x7f6
 1417 089b 03       		.uleb128 0x3
 1418 089c 47020000 		.4byte	.LASF104
 1419 08a0 0D       		.byte	0xd
 1420 08a1 E8       		.byte	0xe8
 1421 08a2 86000000 		.4byte	0x86
 1422 08a6 17       		.uleb128 0x17
 1423 08a7 01       		.byte	0x1
 1424 08a8 0E       		.byte	0xe
 1425 08a9 5D       		.byte	0x5d
 1426 08aa C1080000 		.4byte	0x8c1
 1427 08ae 18       		.uleb128 0x18
 1428 08af 70030000 		.4byte	.LASF105
 1429 08b3 00       		.sleb128 0
 1430 08b4 18       		.uleb128 0x18
 1431 08b5 4A010000 		.4byte	.LASF106
 1432 08b9 01       		.sleb128 1
 1433 08ba 18       		.uleb128 0x18
 1434 08bb A8020000 		.4byte	.LASF107
 1435 08bf 02       		.sleb128 2
 1436 08c0 00       		.byte	0
 1437 08c1 03       		.uleb128 0x3
 1438 08c2 CE000000 		.4byte	.LASF108
 1439 08c6 0E       		.byte	0xe
 1440 08c7 61       		.byte	0x61
 1441 08c8 A6080000 		.4byte	0x8a6
 1442 08cc 03       		.uleb128 0x3
 1443 08cd 16000000 		.4byte	.LASF109
 1444 08d1 0E       		.byte	0xe
 1445 08d2 66       		.byte	0x66
 1446 08d3 D7080000 		.4byte	0x8d7
 1447 08d7 05       		.uleb128 0x5
 1448 08d8 16000000 		.4byte	.LASF109
 1449 08dc 7C       		.byte	0x7c
 1450 08dd 0E       		.byte	0xe
 1451 08de 80       		.byte	0x80
 1452 08df 60090000 		.4byte	0x960
 1453 08e3 07       		.uleb128 0x7
 1454 08e4 766D7400 		.ascii	"vmt\000"
 1455 08e8 0E       		.byte	0xe
 1456 08e9 82       		.byte	0x82
 1457 08ea DD090000 		.4byte	0x9dd
 1458 08ee 02       		.byte	0x2
 1459 08ef 23       		.byte	0x23
 1460 08f0 00       		.uleb128 0
 1461 08f1 06       		.uleb128 0x6
 1462 08f2 D8000000 		.4byte	.LASF110
 1463 08f6 0E       		.byte	0xe
 1464 08f7 83       		.byte	0x83
 1465 08f8 8B040000 		.4byte	0x48b
ARM GAS  C:\Users\Rob\AppData\Local\Temp\ccAWZZHW.s 			page 27


 1466 08fc 02       		.byte	0x2
 1467 08fd 23       		.byte	0x23
 1468 08fe 04       		.uleb128 0x4
 1469 08ff 06       		.uleb128 0x6
 1470 0900 49040000 		.4byte	.LASF111
 1471 0904 0E       		.byte	0xe
 1472 0905 83       		.byte	0x83
 1473 0906 C1080000 		.4byte	0x8c1
 1474 090a 02       		.byte	0x2
 1475 090b 23       		.byte	0x23
 1476 090c 08       		.uleb128 0x8
 1477 090d 06       		.uleb128 0x6
 1478 090e AB000000 		.4byte	.LASF112
 1479 0912 0E       		.byte	0xe
 1480 0913 83       		.byte	0x83
 1481 0914 AA050000 		.4byte	0x5aa
 1482 0918 02       		.byte	0x2
 1483 0919 23       		.byte	0x23
 1484 091a 0C       		.uleb128 0xc
 1485 091b 06       		.uleb128 0x6
 1486 091c 91020000 		.4byte	.LASF113
 1487 0920 0E       		.byte	0xe
 1488 0921 83       		.byte	0x83
 1489 0922 B5050000 		.4byte	0x5b5
 1490 0926 02       		.byte	0x2
 1491 0927 23       		.byte	0x23
 1492 0928 30       		.uleb128 0x30
 1493 0929 07       		.uleb128 0x7
 1494 092a 696200   		.ascii	"ib\000"
 1495 092d 0E       		.byte	0xe
 1496 092e 83       		.byte	0x83
 1497 092f E8090000 		.4byte	0x9e8
 1498 0933 02       		.byte	0x2
 1499 0934 23       		.byte	0x23
 1500 0935 54       		.uleb128 0x54
 1501 0936 07       		.uleb128 0x7
 1502 0937 6F6200   		.ascii	"ob\000"
 1503 093a 0E       		.byte	0xe
 1504 093b 83       		.byte	0x83
 1505 093c E8090000 		.4byte	0x9e8
 1506 0940 02       		.byte	0x2
 1507 0941 23       		.byte	0x23
 1508 0942 64       		.uleb128 0x64
 1509 0943 06       		.uleb128 0x6
 1510 0944 06020000 		.4byte	.LASF114
 1511 0948 0E       		.byte	0xe
 1512 0949 83       		.byte	0x83
 1513 094a F8090000 		.4byte	0x9f8
 1514 094e 02       		.byte	0x2
 1515 094f 23       		.byte	0x23
 1516 0950 74       		.uleb128 0x74
 1517 0951 06       		.uleb128 0x6
 1518 0952 7B010000 		.4byte	.LASF115
 1519 0956 0E       		.byte	0xe
 1520 0957 83       		.byte	0x83
 1521 0958 86000000 		.4byte	0x86
 1522 095c 02       		.byte	0x2
ARM GAS  C:\Users\Rob\AppData\Local\Temp\ccAWZZHW.s 			page 28


 1523 095d 23       		.byte	0x23
 1524 095e 78       		.uleb128 0x78
 1525 095f 00       		.byte	0
 1526 0960 05       		.uleb128 0x5
 1527 0961 B1020000 		.4byte	.LASF116
 1528 0965 20       		.byte	0x20
 1529 0966 0E       		.byte	0xe
 1530 0967 75       		.byte	0x75
 1531 0968 DD090000 		.4byte	0x9dd
 1532 096c 06       		.uleb128 0x6
 1533 096d 1A020000 		.4byte	.LASF117
 1534 0971 0E       		.byte	0xe
 1535 0972 76       		.byte	0x76
 1536 0973 E5050000 		.4byte	0x5e5
 1537 0977 02       		.byte	0x2
 1538 0978 23       		.byte	0x23
 1539 0979 00       		.uleb128 0
 1540 097a 06       		.uleb128 0x6
 1541 097b 5F030000 		.4byte	.LASF118
 1542 097f 0E       		.byte	0xe
 1543 0980 76       		.byte	0x76
 1544 0981 05060000 		.4byte	0x605
 1545 0985 02       		.byte	0x2
 1546 0986 23       		.byte	0x23
 1547 0987 04       		.uleb128 0x4
 1548 0988 07       		.uleb128 0x7
 1549 0989 70757400 		.ascii	"put\000"
 1550 098d 0E       		.byte	0xe
 1551 098e 76       		.byte	0x76
 1552 098f 20060000 		.4byte	0x620
 1553 0993 02       		.byte	0x2
 1554 0994 23       		.byte	0x23
 1555 0995 08       		.uleb128 0x8
 1556 0996 07       		.uleb128 0x7
 1557 0997 67657400 		.ascii	"get\000"
 1558 099b 0E       		.byte	0xe
 1559 099c 76       		.byte	0x76
 1560 099d E3040000 		.4byte	0x4e3
 1561 09a1 02       		.byte	0x2
 1562 09a2 23       		.byte	0x23
 1563 09a3 0C       		.uleb128 0xc
 1564 09a4 06       		.uleb128 0x6
 1565 09a5 25010000 		.4byte	.LASF119
 1566 09a9 0E       		.byte	0xe
 1567 09aa 76       		.byte	0x76
 1568 09ab 4B070000 		.4byte	0x74b
 1569 09af 02       		.byte	0x2
 1570 09b0 23       		.byte	0x23
 1571 09b1 10       		.uleb128 0x10
 1572 09b2 06       		.uleb128 0x6
 1573 09b3 91030000 		.4byte	.LASF120
 1574 09b7 0E       		.byte	0xe
 1575 09b8 76       		.byte	0x76
 1576 09b9 66070000 		.4byte	0x766
 1577 09bd 02       		.byte	0x2
 1578 09be 23       		.byte	0x23
 1579 09bf 14       		.uleb128 0x14
ARM GAS  C:\Users\Rob\AppData\Local\Temp\ccAWZZHW.s 			page 29


 1580 09c0 06       		.uleb128 0x6
 1581 09c1 9F000000 		.4byte	.LASF121
 1582 09c5 0E       		.byte	0xe
 1583 09c6 76       		.byte	0x76
 1584 09c7 8B070000 		.4byte	0x78b
 1585 09cb 02       		.byte	0x2
 1586 09cc 23       		.byte	0x23
 1587 09cd 18       		.uleb128 0x18
 1588 09ce 06       		.uleb128 0x6
 1589 09cf 72040000 		.4byte	.LASF122
 1590 09d3 0E       		.byte	0xe
 1591 09d4 76       		.byte	0x76
 1592 09d5 B0070000 		.4byte	0x7b0
 1593 09d9 02       		.byte	0x2
 1594 09da 23       		.byte	0x23
 1595 09db 1C       		.uleb128 0x1c
 1596 09dc 00       		.byte	0
 1597 09dd 09       		.uleb128 0x9
 1598 09de 04       		.byte	0x4
 1599 09df E3090000 		.4byte	0x9e3
 1600 09e3 0E       		.uleb128 0xe
 1601 09e4 60090000 		.4byte	0x960
 1602 09e8 19       		.uleb128 0x19
 1603 09e9 49000000 		.4byte	0x49
 1604 09ed F8090000 		.4byte	0x9f8
 1605 09f1 1A       		.uleb128 0x1a
 1606 09f2 3B000000 		.4byte	0x3b
 1607 09f6 0F       		.byte	0xf
 1608 09f7 00       		.byte	0
 1609 09f8 09       		.uleb128 0x9
 1610 09f9 04       		.byte	0x4
 1611 09fa 25070000 		.4byte	0x725
 1612 09fe 19       		.uleb128 0x19
 1613 09ff B0020000 		.4byte	0x2b0
 1614 0a03 0E0A0000 		.4byte	0xa0e
 1615 0a07 1A       		.uleb128 0x1a
 1616 0a08 3B000000 		.4byte	0x3b
 1617 0a0c 25       		.byte	0x25
 1618 0a0d 00       		.byte	0
 1619 0a0e 1B       		.uleb128 0x1b
 1620 0a0f 57040000 		.4byte	.LASF123
 1621 0a13 01       		.byte	0x1
 1622 0a14 29       		.byte	0x29
 1623 0a15 01       		.byte	0x1
 1624 0a16 EF000000 		.4byte	0xef
 1625 0a1a 00000000 		.4byte	.LFB41
 1626 0a1e 34000000 		.4byte	.LFE41
 1627 0a22 00000000 		.4byte	.LLST0
 1628 0a26 3A0A0000 		.4byte	0xa3a
 1629 0a2a 1C       		.uleb128 0x1c
 1630 0a2b 61726700 		.ascii	"arg\000"
 1631 0a2f 01       		.byte	0x1
 1632 0a30 29       		.byte	0x29
 1633 0a31 AE020000 		.4byte	0x2ae
 1634 0a35 20000000 		.4byte	.LLST1
 1635 0a39 00       		.byte	0
 1636 0a3a 1B       		.uleb128 0x1b
ARM GAS  C:\Users\Rob\AppData\Local\Temp\ccAWZZHW.s 			page 30


 1637 0a3b 4F040000 		.4byte	.LASF124
 1638 0a3f 01       		.byte	0x1
 1639 0a40 19       		.byte	0x19
 1640 0a41 01       		.byte	0x1
 1641 0a42 EF000000 		.4byte	0xef
 1642 0a46 00000000 		.4byte	.LFB40
 1643 0a4a 34000000 		.4byte	.LFE40
 1644 0a4e 33000000 		.4byte	.LLST2
 1645 0a52 660A0000 		.4byte	0xa66
 1646 0a56 1C       		.uleb128 0x1c
 1647 0a57 61726700 		.ascii	"arg\000"
 1648 0a5b 01       		.byte	0x1
 1649 0a5c 19       		.byte	0x19
 1650 0a5d AE020000 		.4byte	0x2ae
 1651 0a61 53000000 		.4byte	.LLST3
 1652 0a65 00       		.byte	0
 1653 0a66 1D       		.uleb128 0x1d
 1654 0a67 01       		.byte	0x1
 1655 0a68 9C040000 		.4byte	.LASF131
 1656 0a6c 01       		.byte	0x1
 1657 0a6d 38       		.byte	0x38
 1658 0a6e 01       		.byte	0x1
 1659 0a6f 29000000 		.4byte	0x29
 1660 0a73 00000000 		.4byte	.LFB42
 1661 0a77 88000000 		.4byte	.LFE42
 1662 0a7b 66000000 		.4byte	.LLST4
 1663 0a7f 1E       		.uleb128 0x1e
 1664 0a80 59030000 		.4byte	.LASF125
 1665 0a84 08       		.byte	0x8
 1666 0a85 68       		.byte	0x68
 1667 0a86 C7030000 		.4byte	0x3c7
 1668 0a8a 01       		.byte	0x1
 1669 0a8b 01       		.byte	0x1
 1670 0a8c 1F       		.uleb128 0x1f
 1671 0a8d 53443100 		.ascii	"SD1\000"
 1672 0a91 0F       		.byte	0xf
 1673 0a92 1101     		.2byte	0x111
 1674 0a94 CC080000 		.4byte	0x8cc
 1675 0a98 01       		.byte	0x1
 1676 0a99 01       		.byte	0x1
 1677 0a9a 20       		.uleb128 0x20
 1678 0a9b DF030000 		.4byte	.LASF126
 1679 0a9f 01       		.byte	0x1
 1680 0aa0 18       		.byte	0x18
 1681 0aa1 FE090000 		.4byte	0x9fe
 1682 0aa5 05       		.byte	0x5
 1683 0aa6 03       		.byte	0x3
 1684 0aa7 00000000 		.4byte	waThread1
 1685 0aab 20       		.uleb128 0x20
 1686 0aac E9030000 		.4byte	.LASF127
 1687 0ab0 01       		.byte	0x1
 1688 0ab1 28       		.byte	0x28
 1689 0ab2 FE090000 		.4byte	0x9fe
 1690 0ab6 05       		.byte	0x5
 1691 0ab7 03       		.byte	0x3
 1692 0ab8 00000000 		.4byte	waThread2
 1693 0abc 1E       		.uleb128 0x1e
ARM GAS  C:\Users\Rob\AppData\Local\Temp\ccAWZZHW.s 			page 31


 1694 0abd 59030000 		.4byte	.LASF125
 1695 0ac1 08       		.byte	0x8
 1696 0ac2 68       		.byte	0x68
 1697 0ac3 C7030000 		.4byte	0x3c7
 1698 0ac7 01       		.byte	0x1
 1699 0ac8 01       		.byte	0x1
 1700 0ac9 1F       		.uleb128 0x1f
 1701 0aca 53443100 		.ascii	"SD1\000"
 1702 0ace 0F       		.byte	0xf
 1703 0acf 1101     		.2byte	0x111
 1704 0ad1 CC080000 		.4byte	0x8cc
 1705 0ad5 01       		.byte	0x1
 1706 0ad6 01       		.byte	0x1
 1707 0ad7 00       		.byte	0
 1708              		.section	.debug_abbrev,"",%progbits
 1709              	.Ldebug_abbrev0:
 1710 0000 01       		.uleb128 0x1
 1711 0001 11       		.uleb128 0x11
 1712 0002 01       		.byte	0x1
 1713 0003 25       		.uleb128 0x25
 1714 0004 0E       		.uleb128 0xe
 1715 0005 13       		.uleb128 0x13
 1716 0006 0B       		.uleb128 0xb
 1717 0007 03       		.uleb128 0x3
 1718 0008 0E       		.uleb128 0xe
 1719 0009 1B       		.uleb128 0x1b
 1720 000a 0E       		.uleb128 0xe
 1721 000b 11       		.uleb128 0x11
 1722 000c 01       		.uleb128 0x1
 1723 000d 52       		.uleb128 0x52
 1724 000e 01       		.uleb128 0x1
 1725 000f 55       		.uleb128 0x55
 1726 0010 06       		.uleb128 0x6
 1727 0011 10       		.uleb128 0x10
 1728 0012 06       		.uleb128 0x6
 1729 0013 00       		.byte	0
 1730 0014 00       		.byte	0
 1731 0015 02       		.uleb128 0x2
 1732 0016 24       		.uleb128 0x24
 1733 0017 00       		.byte	0
 1734 0018 0B       		.uleb128 0xb
 1735 0019 0B       		.uleb128 0xb
 1736 001a 3E       		.uleb128 0x3e
 1737 001b 0B       		.uleb128 0xb
 1738 001c 03       		.uleb128 0x3
 1739 001d 08       		.uleb128 0x8
 1740 001e 00       		.byte	0
 1741 001f 00       		.byte	0
 1742 0020 03       		.uleb128 0x3
 1743 0021 16       		.uleb128 0x16
 1744 0022 00       		.byte	0
 1745 0023 03       		.uleb128 0x3
 1746 0024 0E       		.uleb128 0xe
 1747 0025 3A       		.uleb128 0x3a
 1748 0026 0B       		.uleb128 0xb
 1749 0027 3B       		.uleb128 0x3b
 1750 0028 0B       		.uleb128 0xb
ARM GAS  C:\Users\Rob\AppData\Local\Temp\ccAWZZHW.s 			page 32


 1751 0029 49       		.uleb128 0x49
 1752 002a 13       		.uleb128 0x13
 1753 002b 00       		.byte	0
 1754 002c 00       		.byte	0
 1755 002d 04       		.uleb128 0x4
 1756 002e 24       		.uleb128 0x24
 1757 002f 00       		.byte	0
 1758 0030 0B       		.uleb128 0xb
 1759 0031 0B       		.uleb128 0xb
 1760 0032 3E       		.uleb128 0x3e
 1761 0033 0B       		.uleb128 0xb
 1762 0034 03       		.uleb128 0x3
 1763 0035 0E       		.uleb128 0xe
 1764 0036 00       		.byte	0
 1765 0037 00       		.byte	0
 1766 0038 05       		.uleb128 0x5
 1767 0039 13       		.uleb128 0x13
 1768 003a 01       		.byte	0x1
 1769 003b 03       		.uleb128 0x3
 1770 003c 0E       		.uleb128 0xe
 1771 003d 0B       		.uleb128 0xb
 1772 003e 0B       		.uleb128 0xb
 1773 003f 3A       		.uleb128 0x3a
 1774 0040 0B       		.uleb128 0xb
 1775 0041 3B       		.uleb128 0x3b
 1776 0042 0B       		.uleb128 0xb
 1777 0043 01       		.uleb128 0x1
 1778 0044 13       		.uleb128 0x13
 1779 0045 00       		.byte	0
 1780 0046 00       		.byte	0
 1781 0047 06       		.uleb128 0x6
 1782 0048 0D       		.uleb128 0xd
 1783 0049 00       		.byte	0
 1784 004a 03       		.uleb128 0x3
 1785 004b 0E       		.uleb128 0xe
 1786 004c 3A       		.uleb128 0x3a
 1787 004d 0B       		.uleb128 0xb
 1788 004e 3B       		.uleb128 0x3b
 1789 004f 0B       		.uleb128 0xb
 1790 0050 49       		.uleb128 0x49
 1791 0051 13       		.uleb128 0x13
 1792 0052 38       		.uleb128 0x38
 1793 0053 0A       		.uleb128 0xa
 1794 0054 00       		.byte	0
 1795 0055 00       		.byte	0
 1796 0056 07       		.uleb128 0x7
 1797 0057 0D       		.uleb128 0xd
 1798 0058 00       		.byte	0
 1799 0059 03       		.uleb128 0x3
 1800 005a 08       		.uleb128 0x8
 1801 005b 3A       		.uleb128 0x3a
 1802 005c 0B       		.uleb128 0xb
 1803 005d 3B       		.uleb128 0x3b
 1804 005e 0B       		.uleb128 0xb
 1805 005f 49       		.uleb128 0x49
 1806 0060 13       		.uleb128 0x13
 1807 0061 38       		.uleb128 0x38
ARM GAS  C:\Users\Rob\AppData\Local\Temp\ccAWZZHW.s 			page 33


 1808 0062 0A       		.uleb128 0xa
 1809 0063 00       		.byte	0
 1810 0064 00       		.byte	0
 1811 0065 08       		.uleb128 0x8
 1812 0066 13       		.uleb128 0x13
 1813 0067 01       		.byte	0x1
 1814 0068 0B       		.uleb128 0xb
 1815 0069 0B       		.uleb128 0xb
 1816 006a 3A       		.uleb128 0x3a
 1817 006b 0B       		.uleb128 0xb
 1818 006c 3B       		.uleb128 0x3b
 1819 006d 0B       		.uleb128 0xb
 1820 006e 01       		.uleb128 0x1
 1821 006f 13       		.uleb128 0x13
 1822 0070 00       		.byte	0
 1823 0071 00       		.byte	0
 1824 0072 09       		.uleb128 0x9
 1825 0073 0F       		.uleb128 0xf
 1826 0074 00       		.byte	0
 1827 0075 0B       		.uleb128 0xb
 1828 0076 0B       		.uleb128 0xb
 1829 0077 49       		.uleb128 0x49
 1830 0078 13       		.uleb128 0x13
 1831 0079 00       		.byte	0
 1832 007a 00       		.byte	0
 1833 007b 0A       		.uleb128 0xa
 1834 007c 0F       		.uleb128 0xf
 1835 007d 00       		.byte	0
 1836 007e 0B       		.uleb128 0xb
 1837 007f 0B       		.uleb128 0xb
 1838 0080 00       		.byte	0
 1839 0081 00       		.byte	0
 1840 0082 0B       		.uleb128 0xb
 1841 0083 35       		.uleb128 0x35
 1842 0084 00       		.byte	0
 1843 0085 49       		.uleb128 0x49
 1844 0086 13       		.uleb128 0x13
 1845 0087 00       		.byte	0
 1846 0088 00       		.byte	0
 1847 0089 0C       		.uleb128 0xc
 1848 008a 17       		.uleb128 0x17
 1849 008b 01       		.byte	0x1
 1850 008c 0B       		.uleb128 0xb
 1851 008d 0B       		.uleb128 0xb
 1852 008e 3A       		.uleb128 0x3a
 1853 008f 0B       		.uleb128 0xb
 1854 0090 3B       		.uleb128 0x3b
 1855 0091 0B       		.uleb128 0xb
 1856 0092 01       		.uleb128 0x1
 1857 0093 13       		.uleb128 0x13
 1858 0094 00       		.byte	0
 1859 0095 00       		.byte	0
 1860 0096 0D       		.uleb128 0xd
 1861 0097 0D       		.uleb128 0xd
 1862 0098 00       		.byte	0
 1863 0099 03       		.uleb128 0x3
 1864 009a 0E       		.uleb128 0xe
ARM GAS  C:\Users\Rob\AppData\Local\Temp\ccAWZZHW.s 			page 34


 1865 009b 3A       		.uleb128 0x3a
 1866 009c 0B       		.uleb128 0xb
 1867 009d 3B       		.uleb128 0x3b
 1868 009e 0B       		.uleb128 0xb
 1869 009f 49       		.uleb128 0x49
 1870 00a0 13       		.uleb128 0x13
 1871 00a1 00       		.byte	0
 1872 00a2 00       		.byte	0
 1873 00a3 0E       		.uleb128 0xe
 1874 00a4 26       		.uleb128 0x26
 1875 00a5 00       		.byte	0
 1876 00a6 49       		.uleb128 0x49
 1877 00a7 13       		.uleb128 0x13
 1878 00a8 00       		.byte	0
 1879 00a9 00       		.byte	0
 1880 00aa 0F       		.uleb128 0xf
 1881 00ab 15       		.uleb128 0x15
 1882 00ac 01       		.byte	0x1
 1883 00ad 27       		.uleb128 0x27
 1884 00ae 0C       		.uleb128 0xc
 1885 00af 49       		.uleb128 0x49
 1886 00b0 13       		.uleb128 0x13
 1887 00b1 01       		.uleb128 0x1
 1888 00b2 13       		.uleb128 0x13
 1889 00b3 00       		.byte	0
 1890 00b4 00       		.byte	0
 1891 00b5 10       		.uleb128 0x10
 1892 00b6 05       		.uleb128 0x5
 1893 00b7 00       		.byte	0
 1894 00b8 49       		.uleb128 0x49
 1895 00b9 13       		.uleb128 0x13
 1896 00ba 00       		.byte	0
 1897 00bb 00       		.byte	0
 1898 00bc 11       		.uleb128 0x11
 1899 00bd 15       		.uleb128 0x15
 1900 00be 01       		.byte	0x1
 1901 00bf 27       		.uleb128 0x27
 1902 00c0 0C       		.uleb128 0xc
 1903 00c1 01       		.uleb128 0x1
 1904 00c2 13       		.uleb128 0x13
 1905 00c3 00       		.byte	0
 1906 00c4 00       		.byte	0
 1907 00c5 12       		.uleb128 0x12
 1908 00c6 13       		.uleb128 0x13
 1909 00c7 01       		.byte	0x1
 1910 00c8 0B       		.uleb128 0xb
 1911 00c9 0B       		.uleb128 0xb
 1912 00ca 3A       		.uleb128 0x3a
 1913 00cb 0B       		.uleb128 0xb
 1914 00cc 3B       		.uleb128 0x3b
 1915 00cd 05       		.uleb128 0x5
 1916 00ce 01       		.uleb128 0x1
 1917 00cf 13       		.uleb128 0x13
 1918 00d0 00       		.byte	0
 1919 00d1 00       		.byte	0
 1920 00d2 13       		.uleb128 0x13
 1921 00d3 0D       		.uleb128 0xd
ARM GAS  C:\Users\Rob\AppData\Local\Temp\ccAWZZHW.s 			page 35


 1922 00d4 00       		.byte	0
 1923 00d5 03       		.uleb128 0x3
 1924 00d6 08       		.uleb128 0x8
 1925 00d7 3A       		.uleb128 0x3a
 1926 00d8 0B       		.uleb128 0xb
 1927 00d9 3B       		.uleb128 0x3b
 1928 00da 05       		.uleb128 0x5
 1929 00db 49       		.uleb128 0x49
 1930 00dc 13       		.uleb128 0x13
 1931 00dd 38       		.uleb128 0x38
 1932 00de 0A       		.uleb128 0xa
 1933 00df 00       		.byte	0
 1934 00e0 00       		.byte	0
 1935 00e1 14       		.uleb128 0x14
 1936 00e2 0D       		.uleb128 0xd
 1937 00e3 00       		.byte	0
 1938 00e4 03       		.uleb128 0x3
 1939 00e5 0E       		.uleb128 0xe
 1940 00e6 3A       		.uleb128 0x3a
 1941 00e7 0B       		.uleb128 0xb
 1942 00e8 3B       		.uleb128 0x3b
 1943 00e9 05       		.uleb128 0x5
 1944 00ea 49       		.uleb128 0x49
 1945 00eb 13       		.uleb128 0x13
 1946 00ec 38       		.uleb128 0x38
 1947 00ed 0A       		.uleb128 0xa
 1948 00ee 00       		.byte	0
 1949 00ef 00       		.byte	0
 1950 00f0 15       		.uleb128 0x15
 1951 00f1 16       		.uleb128 0x16
 1952 00f2 00       		.byte	0
 1953 00f3 03       		.uleb128 0x3
 1954 00f4 0E       		.uleb128 0xe
 1955 00f5 3A       		.uleb128 0x3a
 1956 00f6 0B       		.uleb128 0xb
 1957 00f7 3B       		.uleb128 0x3b
 1958 00f8 05       		.uleb128 0x5
 1959 00f9 49       		.uleb128 0x49
 1960 00fa 13       		.uleb128 0x13
 1961 00fb 00       		.byte	0
 1962 00fc 00       		.byte	0
 1963 00fd 16       		.uleb128 0x16
 1964 00fe 0D       		.uleb128 0xd
 1965 00ff 00       		.byte	0
 1966 0100 03       		.uleb128 0x3
 1967 0101 08       		.uleb128 0x8
 1968 0102 3A       		.uleb128 0x3a
 1969 0103 0B       		.uleb128 0xb
 1970 0104 3B       		.uleb128 0x3b
 1971 0105 0B       		.uleb128 0xb
 1972 0106 49       		.uleb128 0x49
 1973 0107 13       		.uleb128 0x13
 1974 0108 00       		.byte	0
 1975 0109 00       		.byte	0
 1976 010a 17       		.uleb128 0x17
 1977 010b 04       		.uleb128 0x4
 1978 010c 01       		.byte	0x1
ARM GAS  C:\Users\Rob\AppData\Local\Temp\ccAWZZHW.s 			page 36


 1979 010d 0B       		.uleb128 0xb
 1980 010e 0B       		.uleb128 0xb
 1981 010f 3A       		.uleb128 0x3a
 1982 0110 0B       		.uleb128 0xb
 1983 0111 3B       		.uleb128 0x3b
 1984 0112 0B       		.uleb128 0xb
 1985 0113 01       		.uleb128 0x1
 1986 0114 13       		.uleb128 0x13
 1987 0115 00       		.byte	0
 1988 0116 00       		.byte	0
 1989 0117 18       		.uleb128 0x18
 1990 0118 28       		.uleb128 0x28
 1991 0119 00       		.byte	0
 1992 011a 03       		.uleb128 0x3
 1993 011b 0E       		.uleb128 0xe
 1994 011c 1C       		.uleb128 0x1c
 1995 011d 0D       		.uleb128 0xd
 1996 011e 00       		.byte	0
 1997 011f 00       		.byte	0
 1998 0120 19       		.uleb128 0x19
 1999 0121 01       		.uleb128 0x1
 2000 0122 01       		.byte	0x1
 2001 0123 49       		.uleb128 0x49
 2002 0124 13       		.uleb128 0x13
 2003 0125 01       		.uleb128 0x1
 2004 0126 13       		.uleb128 0x13
 2005 0127 00       		.byte	0
 2006 0128 00       		.byte	0
 2007 0129 1A       		.uleb128 0x1a
 2008 012a 21       		.uleb128 0x21
 2009 012b 00       		.byte	0
 2010 012c 49       		.uleb128 0x49
 2011 012d 13       		.uleb128 0x13
 2012 012e 2F       		.uleb128 0x2f
 2013 012f 0B       		.uleb128 0xb
 2014 0130 00       		.byte	0
 2015 0131 00       		.byte	0
 2016 0132 1B       		.uleb128 0x1b
 2017 0133 2E       		.uleb128 0x2e
 2018 0134 01       		.byte	0x1
 2019 0135 03       		.uleb128 0x3
 2020 0136 0E       		.uleb128 0xe
 2021 0137 3A       		.uleb128 0x3a
 2022 0138 0B       		.uleb128 0xb
 2023 0139 3B       		.uleb128 0x3b
 2024 013a 0B       		.uleb128 0xb
 2025 013b 27       		.uleb128 0x27
 2026 013c 0C       		.uleb128 0xc
 2027 013d 49       		.uleb128 0x49
 2028 013e 13       		.uleb128 0x13
 2029 013f 11       		.uleb128 0x11
 2030 0140 01       		.uleb128 0x1
 2031 0141 12       		.uleb128 0x12
 2032 0142 01       		.uleb128 0x1
 2033 0143 40       		.uleb128 0x40
 2034 0144 06       		.uleb128 0x6
 2035 0145 01       		.uleb128 0x1
ARM GAS  C:\Users\Rob\AppData\Local\Temp\ccAWZZHW.s 			page 37


 2036 0146 13       		.uleb128 0x13
 2037 0147 00       		.byte	0
 2038 0148 00       		.byte	0
 2039 0149 1C       		.uleb128 0x1c
 2040 014a 05       		.uleb128 0x5
 2041 014b 00       		.byte	0
 2042 014c 03       		.uleb128 0x3
 2043 014d 08       		.uleb128 0x8
 2044 014e 3A       		.uleb128 0x3a
 2045 014f 0B       		.uleb128 0xb
 2046 0150 3B       		.uleb128 0x3b
 2047 0151 0B       		.uleb128 0xb
 2048 0152 49       		.uleb128 0x49
 2049 0153 13       		.uleb128 0x13
 2050 0154 02       		.uleb128 0x2
 2051 0155 06       		.uleb128 0x6
 2052 0156 00       		.byte	0
 2053 0157 00       		.byte	0
 2054 0158 1D       		.uleb128 0x1d
 2055 0159 2E       		.uleb128 0x2e
 2056 015a 00       		.byte	0
 2057 015b 3F       		.uleb128 0x3f
 2058 015c 0C       		.uleb128 0xc
 2059 015d 03       		.uleb128 0x3
 2060 015e 0E       		.uleb128 0xe
 2061 015f 3A       		.uleb128 0x3a
 2062 0160 0B       		.uleb128 0xb
 2063 0161 3B       		.uleb128 0x3b
 2064 0162 0B       		.uleb128 0xb
 2065 0163 27       		.uleb128 0x27
 2066 0164 0C       		.uleb128 0xc
 2067 0165 49       		.uleb128 0x49
 2068 0166 13       		.uleb128 0x13
 2069 0167 11       		.uleb128 0x11
 2070 0168 01       		.uleb128 0x1
 2071 0169 12       		.uleb128 0x12
 2072 016a 01       		.uleb128 0x1
 2073 016b 40       		.uleb128 0x40
 2074 016c 06       		.uleb128 0x6
 2075 016d 00       		.byte	0
 2076 016e 00       		.byte	0
 2077 016f 1E       		.uleb128 0x1e
 2078 0170 34       		.uleb128 0x34
 2079 0171 00       		.byte	0
 2080 0172 03       		.uleb128 0x3
 2081 0173 0E       		.uleb128 0xe
 2082 0174 3A       		.uleb128 0x3a
 2083 0175 0B       		.uleb128 0xb
 2084 0176 3B       		.uleb128 0x3b
 2085 0177 0B       		.uleb128 0xb
 2086 0178 49       		.uleb128 0x49
 2087 0179 13       		.uleb128 0x13
 2088 017a 3F       		.uleb128 0x3f
 2089 017b 0C       		.uleb128 0xc
 2090 017c 3C       		.uleb128 0x3c
 2091 017d 0C       		.uleb128 0xc
 2092 017e 00       		.byte	0
ARM GAS  C:\Users\Rob\AppData\Local\Temp\ccAWZZHW.s 			page 38


 2093 017f 00       		.byte	0
 2094 0180 1F       		.uleb128 0x1f
 2095 0181 34       		.uleb128 0x34
 2096 0182 00       		.byte	0
 2097 0183 03       		.uleb128 0x3
 2098 0184 08       		.uleb128 0x8
 2099 0185 3A       		.uleb128 0x3a
 2100 0186 0B       		.uleb128 0xb
 2101 0187 3B       		.uleb128 0x3b
 2102 0188 05       		.uleb128 0x5
 2103 0189 49       		.uleb128 0x49
 2104 018a 13       		.uleb128 0x13
 2105 018b 3F       		.uleb128 0x3f
 2106 018c 0C       		.uleb128 0xc
 2107 018d 3C       		.uleb128 0x3c
 2108 018e 0C       		.uleb128 0xc
 2109 018f 00       		.byte	0
 2110 0190 00       		.byte	0
 2111 0191 20       		.uleb128 0x20
 2112 0192 34       		.uleb128 0x34
 2113 0193 00       		.byte	0
 2114 0194 03       		.uleb128 0x3
 2115 0195 0E       		.uleb128 0xe
 2116 0196 3A       		.uleb128 0x3a
 2117 0197 0B       		.uleb128 0xb
 2118 0198 3B       		.uleb128 0x3b
 2119 0199 0B       		.uleb128 0xb
 2120 019a 49       		.uleb128 0x49
 2121 019b 13       		.uleb128 0x13
 2122 019c 02       		.uleb128 0x2
 2123 019d 0A       		.uleb128 0xa
 2124 019e 00       		.byte	0
 2125 019f 00       		.byte	0
 2126 01a0 00       		.byte	0
 2127              		.section	.debug_loc,"",%progbits
 2128              	.Ldebug_loc0:
 2129              	.LLST0:
 2130 0000 00000000 		.4byte	.LFB41
 2131 0004 02000000 		.4byte	.LCFI0
 2132 0008 0200     		.2byte	0x2
 2133 000a 7D       		.byte	0x7d
 2134 000b 00       		.sleb128 0
 2135 000c 02000000 		.4byte	.LCFI0
 2136 0010 34000000 		.4byte	.LFE41
 2137 0014 0200     		.2byte	0x2
 2138 0016 7D       		.byte	0x7d
 2139 0017 10       		.sleb128 16
 2140 0018 00000000 		.4byte	0
 2141 001c 00000000 		.4byte	0
 2142              	.LLST1:
 2143 0020 02000000 		.4byte	.LVL0
 2144 0024 0C000000 		.4byte	.LVL1
 2145 0028 0100     		.2byte	0x1
 2146 002a 50       		.byte	0x50
 2147 002b 00000000 		.4byte	0
 2148 002f 00000000 		.4byte	0
 2149              	.LLST2:
ARM GAS  C:\Users\Rob\AppData\Local\Temp\ccAWZZHW.s 			page 39


 2150 0033 00000000 		.4byte	.LFB40
 2151 0037 02000000 		.4byte	.LCFI1
 2152 003b 0200     		.2byte	0x2
 2153 003d 7D       		.byte	0x7d
 2154 003e 00       		.sleb128 0
 2155 003f 02000000 		.4byte	.LCFI1
 2156 0043 34000000 		.4byte	.LFE40
 2157 0047 0200     		.2byte	0x2
 2158 0049 7D       		.byte	0x7d
 2159 004a 10       		.sleb128 16
 2160 004b 00000000 		.4byte	0
 2161 004f 00000000 		.4byte	0
 2162              	.LLST3:
 2163 0053 02000000 		.4byte	.LVL2
 2164 0057 10000000 		.4byte	.LVL3
 2165 005b 0100     		.2byte	0x1
 2166 005d 50       		.byte	0x50
 2167 005e 00000000 		.4byte	0
 2168 0062 00000000 		.4byte	0
 2169              	.LLST4:
 2170 0066 00000000 		.4byte	.LFB42
 2171 006a 02000000 		.4byte	.LCFI2
 2172 006e 0200     		.2byte	0x2
 2173 0070 7D       		.byte	0x7d
 2174 0071 00       		.sleb128 0
 2175 0072 02000000 		.4byte	.LCFI2
 2176 0076 04000000 		.4byte	.LCFI3
 2177 007a 0200     		.2byte	0x2
 2178 007c 7D       		.byte	0x7d
 2179 007d 10       		.sleb128 16
 2180 007e 04000000 		.4byte	.LCFI3
 2181 0082 88000000 		.4byte	.LFE42
 2182 0086 0200     		.2byte	0x2
 2183 0088 7D       		.byte	0x7d
 2184 0089 18       		.sleb128 24
 2185 008a 00000000 		.4byte	0
 2186 008e 00000000 		.4byte	0
 2187              		.section	.debug_aranges,"",%progbits
 2188 0000 2C000000 		.4byte	0x2c
 2189 0004 0200     		.2byte	0x2
 2190 0006 00000000 		.4byte	.Ldebug_info0
 2191 000a 04       		.byte	0x4
 2192 000b 00       		.byte	0
 2193 000c 0000     		.2byte	0
 2194 000e 0000     		.2byte	0
 2195 0010 00000000 		.4byte	.LFB41
 2196 0014 34000000 		.4byte	.LFE41-.LFB41
 2197 0018 00000000 		.4byte	.LFB40
 2198 001c 34000000 		.4byte	.LFE40-.LFB40
 2199 0020 00000000 		.4byte	.LFB42
 2200 0024 88000000 		.4byte	.LFE42-.LFB42
 2201 0028 00000000 		.4byte	0
 2202 002c 00000000 		.4byte	0
 2203              		.section	.debug_ranges,"",%progbits
 2204              	.Ldebug_ranges0:
 2205 0000 00000000 		.4byte	.LFB41
 2206 0004 34000000 		.4byte	.LFE41
ARM GAS  C:\Users\Rob\AppData\Local\Temp\ccAWZZHW.s 			page 40


 2207 0008 00000000 		.4byte	.LFB40
 2208 000c 34000000 		.4byte	.LFE40
 2209 0010 00000000 		.4byte	.LFB42
 2210 0014 88000000 		.4byte	.LFE42
 2211 0018 00000000 		.4byte	0
 2212 001c 00000000 		.4byte	0
 2213              		.section	.debug_line,"",%progbits
 2214              	.Ldebug_line0:
 2215 0000 7C020000 		.section	.debug_str,"MS",%progbits,1
 2215      0200F301 
 2215      00000201 
 2215      FB0E0D00 
 2215      01010101 
 2216              	.LASF46:
 2217 0000 54687265 		.ascii	"ThreadsList\000"
 2217      6164734C 
 2217      69737400 
 2218              	.LASF38:
 2219 000c 705F7761 		.ascii	"p_waiting\000"
 2219      6974696E 
 2219      6700
 2220              	.LASF109:
 2221 0016 53657269 		.ascii	"SerialDriver\000"
 2221      616C4472 
 2221      69766572 
 2221      00
 2222              	.LASF129:
 2223 0023 6D61696E 		.ascii	"main.c\000"
 2223      2E6300
 2224              	.LASF37:
 2225 002a 705F7469 		.ascii	"p_time\000"
 2225      6D6500
 2226              	.LASF99:
 2227 0031 42535252 		.ascii	"BSRR\000"
 2227      00
 2228              	.LASF47:
 2229 0036 72656761 		.ascii	"regarm_t\000"
 2229      726D5F74 
 2229      00
 2230              	.LASF28:
 2231 003f 705F7072 		.ascii	"p_prio\000"
 2231      696F00
 2232              	.LASF24:
 2233 0046 73797374 		.ascii	"systime_t\000"
 2233      696D655F 
 2233      7400
 2234              	.LASF60:
 2235 0050 6D5F6F77 		.ascii	"m_owner\000"
 2235      6E657200 
 2236              	.LASF39:
 2237 0058 705F6D73 		.ascii	"p_msgqueue\000"
 2237      67717565 
 2237      756500
 2238              	.LASF0:
 2239 0063 756E7369 		.ascii	"unsigned int\000"
 2239      676E6564 
 2239      20696E74 
ARM GAS  C:\Users\Rob\AppData\Local\Temp\ccAWZZHW.s 			page 41


 2239      00
 2240              	.LASF80:
 2241 0070 715F7264 		.ascii	"q_rdptr\000"
 2241      70747200 
 2242              	.LASF83:
 2243 0078 716E6F74 		.ascii	"qnotify_t\000"
 2243      6966795F 
 2243      7400
 2244              	.LASF65:
 2245 0082 656C5F6D 		.ascii	"el_mask\000"
 2245      61736B00 
 2246              	.LASF71:
 2247 008a 77746F62 		.ascii	"wtobjp\000"
 2247      6A7000
 2248              	.LASF82:
 2249 0091 715F6C69 		.ascii	"q_link\000"
 2249      6E6B00
 2250              	.LASF72:
 2251 0098 65776D61 		.ascii	"ewmask\000"
 2251      736B00
 2252              	.LASF121:
 2253 009f 77726974 		.ascii	"writet\000"
 2253      657400
 2254              	.LASF87:
 2255 00a6 47545052 		.ascii	"GTPR\000"
 2255      00
 2256              	.LASF112:
 2257 00ab 69717565 		.ascii	"iqueue\000"
 2257      756500
 2258              	.LASF10:
 2259 00b2 75696E74 		.ascii	"uint32_t\000"
 2259      33325F74 
 2259      00
 2260              	.LASF22:
 2261 00bb 6576656E 		.ascii	"eventmask_t\000"
 2261      746D6173 
 2261      6B5F7400 
 2262              	.LASF52:
 2263 00c7 725F7072 		.ascii	"r_prio\000"
 2263      696F00
 2264              	.LASF108:
 2265 00ce 73647374 		.ascii	"sdstate_t\000"
 2265      6174655F 
 2265      7400
 2266              	.LASF110:
 2267 00d8 6576656E 		.ascii	"event\000"
 2267      7400
 2268              	.LASF20:
 2269 00de 74707269 		.ascii	"tprio_t\000"
 2269      6F5F7400 
 2270              	.LASF14:
 2271 00e6 6C6F6E67 		.ascii	"long long unsigned int\000"
 2271      206C6F6E 
 2271      6720756E 
 2271      7369676E 
 2271      65642069 
 2272              	.LASF95:
ARM GAS  C:\Users\Rob\AppData\Local\Temp\ccAWZZHW.s 			page 42


 2273 00fd 4D4F4445 		.ascii	"MODER\000"
 2273      5200
 2274              	.LASF102:
 2275 0103 41465248 		.ascii	"AFRH\000"
 2275      00
 2276              	.LASF101:
 2277 0108 4146524C 		.ascii	"AFRL\000"
 2277      00
 2278              	.LASF30:
 2279 010d 705F6E65 		.ascii	"p_newer\000"
 2279      77657200 
 2280              	.LASF94:
 2281 0115 636C6561 		.ascii	"clear\000"
 2281      7200
 2282              	.LASF75:
 2283 011b 715F7761 		.ascii	"q_waiting\000"
 2283      6974696E 
 2283      6700
 2284              	.LASF119:
 2285 0125 70757474 		.ascii	"putt\000"
 2285      00
 2286              	.LASF67:
 2287 012a 4576656E 		.ascii	"EventSource\000"
 2287      74536F75 
 2287      72636500 
 2288              	.LASF2:
 2289 0136 73697A65 		.ascii	"size_t\000"
 2289      5F7400
 2290              	.LASF69:
 2291 013d 7264796D 		.ascii	"rdymsg\000"
 2291      736700
 2292              	.LASF15:
 2293 0144 5F426F6F 		.ascii	"_Bool\000"
 2293      6C00
 2294              	.LASF106:
 2295 014a 53445F53 		.ascii	"SD_STOP\000"
 2295      544F5000 
 2296              	.LASF93:
 2297 0152 55534152 		.ascii	"USART_TypeDef\000"
 2297      545F5479 
 2297      70654465 
 2297      6600
 2298              	.LASF58:
 2299 0160 4D757465 		.ascii	"Mutex\000"
 2299      7800
 2300              	.LASF85:
 2301 0166 4F757470 		.ascii	"OutputQueue\000"
 2301      75745175 
 2301      65756500 
 2302              	.LASF81:
 2303 0172 715F6E6F 		.ascii	"q_notify\000"
 2303      74696679 
 2303      00
 2304              	.LASF115:
 2305 017b 636C6F63 		.ascii	"clock\000"
 2305      6B00
 2306              	.LASF98:
ARM GAS  C:\Users\Rob\AppData\Local\Temp\ccAWZZHW.s 			page 43


 2307 0181 50555044 		.ascii	"PUPDR\000"
 2307      5200
 2308              	.LASF32:
 2309 0187 705F6E61 		.ascii	"p_name\000"
 2309      6D6500
 2310              	.LASF84:
 2311 018e 496E7075 		.ascii	"InputQueue\000"
 2311      74517565 
 2311      756500
 2312              	.LASF45:
 2313 0199 54687265 		.ascii	"ThreadsQueue\000"
 2313      61647351 
 2313      75657565 
 2313      00
 2314              	.LASF73:
 2315 01a6 63686172 		.ascii	"char\000"
 2315      00
 2316              	.LASF54:
 2317 01ab 725F6E65 		.ascii	"r_newer\000"
 2317      77657200 
 2318              	.LASF79:
 2319 01b3 715F7772 		.ascii	"q_wrptr\000"
 2319      70747200 
 2320              	.LASF25:
 2321 01bb 54687265 		.ascii	"Thread\000"
 2321      616400
 2322              	.LASF17:
 2323 01c2 74737461 		.ascii	"tstate_t\000"
 2323      74655F74 
 2323      00
 2324              	.LASF31:
 2325 01cb 705F6F6C 		.ascii	"p_older\000"
 2325      64657200 
 2326              	.LASF33:
 2327 01d3 705F7374 		.ascii	"p_state\000"
 2327      61746500 
 2328              	.LASF3:
 2329 01db 75696E74 		.ascii	"uint8_t\000"
 2329      385F7400 
 2330              	.LASF23:
 2331 01e3 666C6167 		.ascii	"flagsmask_t\000"
 2331      736D6173 
 2331      6B5F7400 
 2332              	.LASF89:
 2333 01ef 52544F52 		.ascii	"RTOR\000"
 2333      00
 2334              	.LASF44:
 2335 01f4 705F6D70 		.ascii	"p_mpool\000"
 2335      6F6F6C00 
 2336              	.LASF42:
 2337 01fc 705F6D74 		.ascii	"p_mtxlist\000"
 2337      786C6973 
 2337      7400
 2338              	.LASF114:
 2339 0206 75736172 		.ascii	"usart\000"
 2339      7400
 2340              	.LASF12:
ARM GAS  C:\Users\Rob\AppData\Local\Temp\ccAWZZHW.s 			page 44


 2341 020c 6C6F6E67 		.ascii	"long long int\000"
 2341      206C6F6E 
 2341      6720696E 
 2341      7400
 2342              	.LASF117:
 2343 021a 77726974 		.ascii	"write\000"
 2343      6500
 2344              	.LASF77:
 2345 0220 715F6275 		.ascii	"q_buffer\000"
 2345      66666572 
 2345      00
 2346              	.LASF51:
 2347 0229 725F7175 		.ascii	"r_queue\000"
 2347      65756500 
 2348              	.LASF21:
 2349 0231 6D73675F 		.ascii	"msg_t\000"
 2349      7400
 2350              	.LASF50:
 2351 0237 636F6E74 		.ascii	"context\000"
 2351      65787400 
 2352              	.LASF34:
 2353 023f 705F666C 		.ascii	"p_flags\000"
 2353      61677300 
 2354              	.LASF104:
 2355 0247 696F706F 		.ascii	"ioportmask_t\000"
 2355      72746D61 
 2355      736B5F74 
 2355      00
 2356              	.LASF19:
 2357 0254 74736C69 		.ascii	"tslices_t\000"
 2357      6365735F 
 2357      7400
 2358              	.LASF55:
 2359 025e 725F6F6C 		.ascii	"r_older\000"
 2359      64657200 
 2360              	.LASF63:
 2361 0266 656C5F6E 		.ascii	"el_next\000"
 2361      65787400 
 2362              	.LASF40:
 2363 026e 705F6D73 		.ascii	"p_msg\000"
 2363      6700
 2364              	.LASF16:
 2365 0274 746D6F64 		.ascii	"tmode_t\000"
 2365      655F7400 
 2366              	.LASF97:
 2367 027c 4F535045 		.ascii	"OSPEEDR\000"
 2367      45445200 
 2368              	.LASF74:
 2369 0284 47656E65 		.ascii	"GenericQueue\000"
 2369      72696351 
 2369      75657565 
 2369      00
 2370              	.LASF113:
 2371 0291 6F717565 		.ascii	"oqueue\000"
 2371      756500
 2372              	.LASF6:
 2373 0298 75696E74 		.ascii	"uint16_t\000"
ARM GAS  C:\Users\Rob\AppData\Local\Temp\ccAWZZHW.s 			page 45


 2373      31365F74 
 2373      00
 2374              	.LASF49:
 2375 02a1 696E7463 		.ascii	"intctx\000"
 2375      747800
 2376              	.LASF107:
 2377 02a8 53445F52 		.ascii	"SD_READY\000"
 2377      45414459 
 2377      00
 2378              	.LASF116:
 2379 02b1 53657269 		.ascii	"SerialDriverVMT\000"
 2379      616C4472 
 2379      69766572 
 2379      564D5400 
 2380              	.LASF4:
 2381 02c1 756E7369 		.ascii	"unsigned char\000"
 2381      676E6564 
 2381      20636861 
 2381      7200
 2382              	.LASF43:
 2383 02cf 705F7265 		.ascii	"p_realprio\000"
 2383      616C7072 
 2383      696F00
 2384              	.LASF86:
 2385 02da 52455345 		.ascii	"RESERVED1\000"
 2385      52564544 
 2385      3100
 2386              	.LASF88:
 2387 02e4 52455345 		.ascii	"RESERVED2\000"
 2387      52564544 
 2387      3200
 2388              	.LASF90:
 2389 02ee 52455345 		.ascii	"RESERVED3\000"
 2389      52564544 
 2389      3300
 2390              	.LASF91:
 2391 02f8 52455345 		.ascii	"RESERVED4\000"
 2391      52564544 
 2391      3400
 2392              	.LASF92:
 2393 0302 52455345 		.ascii	"RESERVED5\000"
 2393      52564544 
 2393      3500
 2394              	.LASF5:
 2395 030c 73686F72 		.ascii	"short int\000"
 2395      7420696E 
 2395      7400
 2396              	.LASF56:
 2397 0316 725F6375 		.ascii	"r_current\000"
 2397      7272656E 
 2397      7400
 2398              	.LASF41:
 2399 0320 705F6570 		.ascii	"p_epending\000"
 2399      656E6469 
 2399      6E6700
 2400              	.LASF59:
 2401 032b 6D5F7175 		.ascii	"m_queue\000"
ARM GAS  C:\Users\Rob\AppData\Local\Temp\ccAWZZHW.s 			page 46


 2401      65756500 
 2402              	.LASF9:
 2403 0333 6C6F6E67 		.ascii	"long int\000"
 2403      20696E74 
 2403      00
 2404              	.LASF96:
 2405 033c 4F545950 		.ascii	"OTYPER\000"
 2405      455200
 2406              	.LASF26:
 2407 0343 705F6E65 		.ascii	"p_next\000"
 2407      787400
 2408              	.LASF13:
 2409 034a 75696E74 		.ascii	"uint64_t\000"
 2409      36345F74 
 2409      00
 2410              	.LASF29:
 2411 0353 705F6374 		.ascii	"p_ctx\000"
 2411      7800
 2412              	.LASF125:
 2413 0359 726C6973 		.ascii	"rlist\000"
 2413      7400
 2414              	.LASF118:
 2415 035f 72656164 		.ascii	"read\000"
 2415      00
 2416              	.LASF64:
 2417 0364 656C5F6C 		.ascii	"el_listener\000"
 2417      69737465 
 2417      6E657200 
 2418              	.LASF105:
 2419 0370 53445F55 		.ascii	"SD_UNINIT\000"
 2419      4E494E49 
 2419      5400
 2420              	.LASF103:
 2421 037a 4750494F 		.ascii	"GPIO_TypeDef\000"
 2421      5F547970 
 2421      65446566 
 2421      00
 2422              	.LASF76:
 2423 0387 715F636F 		.ascii	"q_counter\000"
 2423      756E7465 
 2423      7200
 2424              	.LASF120:
 2425 0391 67657474 		.ascii	"gett\000"
 2425      00
 2426              	.LASF78:
 2427 0396 715F746F 		.ascii	"q_top\000"
 2427      7000
 2428              	.LASF27:
 2429 039c 705F7072 		.ascii	"p_prev\000"
 2429      657600
 2430              	.LASF18:
 2431 03a3 74726566 		.ascii	"trefs_t\000"
 2431      735F7400 
 2432              	.LASF62:
 2433 03ab 4576656E 		.ascii	"EventListener\000"
 2433      744C6973 
 2433      74656E65 
ARM GAS  C:\Users\Rob\AppData\Local\Temp\ccAWZZHW.s 			page 47


 2433      7200
 2434              	.LASF11:
 2435 03b9 6C6F6E67 		.ascii	"long unsigned int\000"
 2435      20756E73 
 2435      69676E65 
 2435      6420696E 
 2435      7400
 2436              	.LASF8:
 2437 03cb 696E7433 		.ascii	"int32_t\000"
 2437      325F7400 
 2438              	.LASF128:
 2439 03d3 474E5520 		.ascii	"GNU C 4.6.2\000"
 2439      4320342E 
 2439      362E3200 
 2440              	.LASF126:
 2441 03df 77615468 		.ascii	"waThread1\000"
 2441      72656164 
 2441      3100
 2442              	.LASF127:
 2443 03e9 77615468 		.ascii	"waThread2\000"
 2443      72656164 
 2443      3200
 2444              	.LASF130:
 2445 03f3 433A5C55 		.ascii	"C:\\Users\\Rob\\Projects\\ECE411Practicum\\src\\vir"
 2445      73657273 
 2445      5C526F62 
 2445      5C50726F 
 2445      6A656374 
 2446 0420 756C656E 		.ascii	"ulent\000"
 2446      7400
 2447              	.LASF35:
 2448 0426 705F7265 		.ascii	"p_refs\000"
 2448      667300
 2449              	.LASF57:
 2450 042d 52656164 		.ascii	"ReadyList\000"
 2450      794C6973 
 2450      7400
 2451              	.LASF36:
 2452 0437 705F7072 		.ascii	"p_preempt\000"
 2452      65656D70 
 2452      7400
 2453              	.LASF68:
 2454 0441 65735F6E 		.ascii	"es_next\000"
 2454      65787400 
 2455              	.LASF111:
 2456 0449 73746174 		.ascii	"state\000"
 2456      6500
 2457              	.LASF124:
 2458 044f 54687265 		.ascii	"Thread1\000"
 2458      61643100 
 2459              	.LASF123:
 2460 0457 54687265 		.ascii	"Thread2\000"
 2460      61643200 
 2461              	.LASF61:
 2462 045f 6D5F6E65 		.ascii	"m_next\000"
 2462      787400
 2463              	.LASF1:
ARM GAS  C:\Users\Rob\AppData\Local\Temp\ccAWZZHW.s 			page 48


 2464 0466 7369676E 		.ascii	"signed char\000"
 2464      65642063 
 2464      68617200 
 2465              	.LASF122:
 2466 0472 72656164 		.ascii	"readt\000"
 2466      7400
 2467              	.LASF7:
 2468 0478 73686F72 		.ascii	"short unsigned int\000"
 2468      7420756E 
 2468      7369676E 
 2468      65642069 
 2468      6E7400
 2469              	.LASF53:
 2470 048b 725F6374 		.ascii	"r_ctx\000"
 2470      7800
 2471              	.LASF48:
 2472 0491 73746B61 		.ascii	"stkalign_t\000"
 2472      6C69676E 
 2472      5F7400
 2473              	.LASF131:
 2474 049c 6D61696E 		.ascii	"main\000"
 2474      00
 2475              	.LASF66:
 2476 04a1 656C5F66 		.ascii	"el_flags\000"
 2476      6C616773 
 2476      00
 2477              	.LASF70:
 2478 04aa 65786974 		.ascii	"exitcode\000"
 2478      636F6465 
 2478      00
 2479              	.LASF100:
 2480 04b3 4C434B52 		.ascii	"LCKR\000"
 2480      00
 2481              		.ident	"GCC: (GNU) 4.6.2"
ARM GAS  C:\Users\Rob\AppData\Local\Temp\ccAWZZHW.s 			page 49


DEFINED SYMBOLS
                            *ABS*:00000000 main.c
C:\Users\Rob\AppData\Local\Temp\ccAWZZHW.s:17     .text.Thread2:00000000 $t
C:\Users\Rob\AppData\Local\Temp\ccAWZZHW.s:22     .text.Thread2:00000000 Thread2
C:\Users\Rob\AppData\Local\Temp\ccAWZZHW.s:64     .text.Thread2:00000024 $d
C:\Users\Rob\AppData\Local\Temp\ccAWZZHW.s:72     .text.Thread1:00000000 $t
C:\Users\Rob\AppData\Local\Temp\ccAWZZHW.s:77     .text.Thread1:00000000 Thread1
C:\Users\Rob\AppData\Local\Temp\ccAWZZHW.s:116    .text.Thread1:00000024 $d
C:\Users\Rob\AppData\Local\Temp\ccAWZZHW.s:124    .text.startup.main:00000000 $t
C:\Users\Rob\AppData\Local\Temp\ccAWZZHW.s:130    .text.startup.main:00000000 main
C:\Users\Rob\AppData\Local\Temp\ccAWZZHW.s:209    .text.startup.main:00000070 $d
C:\Users\Rob\AppData\Local\Temp\ccAWZZHW.s:219    .bss.waThread1:00000000 $d
C:\Users\Rob\AppData\Local\Temp\ccAWZZHW.s:223    .bss.waThread1:00000000 waThread1
C:\Users\Rob\AppData\Local\Temp\ccAWZZHW.s:226    .bss.waThread2:00000000 $d
C:\Users\Rob\AppData\Local\Temp\ccAWZZHW.s:230    .bss.waThread2:00000000 waThread2
C:\Users\Rob\AppData\Local\Temp\ccAWZZHW.s:233    .rodata.str1.4:00000000 $d
                     .debug_frame:00000010 $d
C:\Users\Rob\AppData\Local\Temp\ccAWZZHW.s:71     .text.Thread2:00000034 $t
C:\Users\Rob\AppData\Local\Temp\ccAWZZHW.s:123    .text.Thread1:00000034 $t
C:\Users\Rob\AppData\Local\Temp\ccAWZZHW.s:218    .text.startup.main:00000088 $t

UNDEFINED SYMBOLS
chThdSleep
rlist
halInit
chSysInit
sdStart
_pal_lld_setgroupmode
chThdCreateStatic
TestThread
SD1
