ARM GAS  C:\Users\Rob\AppData\Local\Temp\ccAWZZHW.s 			page 1


   1              		.cpu cortex-m0
   2              		.fpu softvfp
   3              		.eabi_attribute 20, 1
   4              		.eabi_attribute 21, 1
   5              		.eabi_attribute 23, 3
   6              		.eabi_attribute 24, 1
   7              		.eabi_attribute 25, 1
   8              		.eabi_attribute 26, 1
   9              		.eabi_attribute 30, 2
  10              		.eabi_attribute 18, 4
  11              		.code	16
  12              		.file	"main.c"
  13              		.text
  14              	.Ltext0:
  15              		.cfi_sections	.debug_frame
  16              		.section	.text.Thread2,"ax",%progbits
  17              		.align	2
  18              		.p2align 4,,15
  19              		.code	16
  20              		.thumb_func
  21              		.type	Thread2, %function
  22              	Thread2:
  23              	.LFB41:
  24              		.file 1 "main.c"
  25              		.loc 1 41 0
  26              		.cfi_startproc
  27 0000 38B5     		push	{r3, r4, r5, lr}
  28              	.LCFI0:
  29              		.cfi_def_cfa_offset 16
  30              		.cfi_offset 3, -16
  31              		.cfi_offset 4, -12
  32              		.cfi_offset 5, -8
  33              		.cfi_offset 14, -4
  34              	.LVL0:
  35              		.loc 1 44 0
  36 0002 084B     		ldr	r3, .L4
  37 0004 084A     		ldr	r2, .L4+4
  38 0006 9B69     		ldr	r3, [r3, #24]
  39              		.loc 1 46 0
  40 0008 084D     		ldr	r5, .L4+8
  41              		.loc 1 44 0
  42 000a 9A61     		str	r2, [r3, #24]
  43              	.LVL1:
  44              	.L2:
  45              		.loc 1 46 0 discriminator 1
  46 000c 8024     		mov	r4, #128
  47 000e A400     		lsl	r4, r4, #2
  48              		.loc 1 47 0 discriminator 1
  49 0010 FA20     		mov	r0, #250
  50              		.loc 1 46 0 discriminator 1
  51 0012 6C83     		strh	r4, [r5, #26]
  52              		.loc 1 47 0 discriminator 1
  53 0014 8000     		lsl	r0, r0, #2
  54 0016 FFF7FEFF 		bl	chThdSleep
  55              		.loc 1 48 0 discriminator 1
  56 001a 2C83     		strh	r4, [r5, #24]
  57              		.loc 1 49 0 discriminator 1
ARM GAS  C:\Users\Rob\AppData\Local\Temp\ccAWZZHW.s 			page 2


  58 001c 0448     		ldr	r0, .L4+12
  59 001e FFF7FEFF 		bl	chThdSleep
  60 0022 F3E7     		b	.L2
  61              	.L5:
  62              		.align	2
  63              	.L4:
  64 0024 00000000 		.word	rlist
  65 0028 00000000 		.word	.LC1
  66 002c 00080048 		.word	1207961600
  67 0030 B80B0000 		.word	3000
  68              		.cfi_endproc
  69              	.LFE41:
  70              		.size	Thread2, .-Thread2
  71 0034 C046C046 		.section	.text.Thread1,"ax",%progbits
  71      C046C046 
  71      C046C046 
  72              		.align	2
  73              		.p2align 4,,15
  74              		.code	16
  75              		.thumb_func
  76              		.type	Thread1, %function
  77              	Thread1:
  78              	.LFB40:
  79              		.loc 1 25 0
  80              		.cfi_startproc
  81 0000 38B5     		push	{r3, r4, r5, lr}
  82              	.LCFI1:
  83              		.cfi_def_cfa_offset 16
  84              		.cfi_offset 3, -16
  85              		.cfi_offset 4, -12
  86              		.cfi_offset 5, -8
  87              		.cfi_offset 14, -4
  88              	.LVL2:
  89              		.loc 1 28 0
  90 0002 084B     		ldr	r3, .L8
  91 0004 084A     		ldr	r2, .L8+4
  92 0006 9B69     		ldr	r3, [r3, #24]
  93              		.loc 1 30 0
  94 0008 8024     		mov	r4, #128
  95 000a 084D     		ldr	r5, .L8+8
  96              		.loc 1 28 0
  97 000c 9A61     		str	r2, [r3, #24]
  98              		.loc 1 30 0
  99 000e 6400     		lsl	r4, r4, #1
 100              	.LVL3:
 101              	.L7:
 102              		.loc 1 30 0 is_stmt 0 discriminator 1
 103 0010 6C83     		strh	r4, [r5, #26]
 104              		.loc 1 31 0 is_stmt 1 discriminator 1
 105 0012 0748     		ldr	r0, .L8+12
 106 0014 FFF7FEFF 		bl	chThdSleep
 107              		.loc 1 32 0 discriminator 1
 108 0018 2C83     		strh	r4, [r5, #24]
 109              		.loc 1 33 0 discriminator 1
 110 001a 0548     		ldr	r0, .L8+12
 111 001c FFF7FEFF 		bl	chThdSleep
 112 0020 F6E7     		b	.L7
ARM GAS  C:\Users\Rob\AppData\Local\Temp\ccAWZZHW.s 			page 3


 113              	.L9:
 114 0022 C046     		.align	2
 115              	.L8:
 116 0024 00000000 		.word	rlist
 117 0028 0C000000 		.word	.LC4
 118 002c 00080048 		.word	1207961600
 119 0030 30750000 		.word	30000
 120              		.cfi_endproc
 121              	.LFE40:
 122              		.size	Thread1, .-Thread1
 123 0034 C046C046 		.section	.text.startup.main,"ax",%progbits
 123      C046C046 
 123      C046C046 
 124              		.align	2
 125              		.p2align 4,,15
 126              		.global	main
 127              		.code	16
 128              		.thumb_func
 129              		.type	main, %function
 130              	main:
 131              	.LFB42:
 132              		.loc 1 56 0
 133              		.cfi_startproc
 134 0000 70B5     		push	{r4, r5, r6, lr}
 135              	.LCFI2:
 136              		.cfi_def_cfa_offset 16
 137              		.cfi_offset 4, -16
 138              		.cfi_offset 5, -12
 139              		.cfi_offset 6, -8
 140              		.cfi_offset 14, -4
 141 0002 82B0     		sub	sp, sp, #8
 142              	.LCFI3:
 143              		.cfi_def_cfa_offset 24
 144              		.loc 1 65 0
 145 0004 FFF7FEFF 		bl	halInit
 146              		.loc 1 66 0
 147 0008 FFF7FEFF 		bl	chSysInit
 148              		.loc 1 72 0
 149 000c 184E     		ldr	r6, .L13
 150 000e 0021     		mov	r1, #0
 151 0010 301C     		mov	r0, r6
 152 0012 FFF7FEFF 		bl	sdStart
 153              		.loc 1 73 0
 154 0016 9020     		mov	r0, #144
 155 0018 8021     		mov	r1, #128
 156 001a C005     		lsl	r0, r0, #23
 157 001c 8900     		lsl	r1, r1, #2
 158 001e 8222     		mov	r2, #130
 159 0020 FFF7FEFF 		bl	_pal_lld_setgroupmode
 160              		.loc 1 74 0
 161 0024 9020     		mov	r0, #144
 162 0026 8021     		mov	r1, #128
 163 0028 C005     		lsl	r0, r0, #23
 164 002a C900     		lsl	r1, r1, #3
 165 002c 8222     		mov	r2, #130
 166 002e FFF7FEFF 		bl	_pal_lld_setgroupmode
 167              		.loc 1 79 0
ARM GAS  C:\Users\Rob\AppData\Local\Temp\ccAWZZHW.s 			page 4


 168 0032 9821     		mov	r1, #152
 169 0034 0024     		mov	r4, #0
 170 0036 4900     		lsl	r1, r1, #1
 171 0038 4022     		mov	r2, #64
 172 003a 0E4B     		ldr	r3, .L13+4
 173 003c 0E48     		ldr	r0, .L13+8
 174 003e 0094     		str	r4, [sp]
 175 0040 FFF7FEFF 		bl	chThdCreateStatic
 176              		.loc 1 80 0
 177 0044 9821     		mov	r1, #152
 178 0046 0D48     		ldr	r0, .L13+12
 179 0048 4900     		lsl	r1, r1, #1
 180 004a 4022     		mov	r2, #64
 181 004c 0C4B     		ldr	r3, .L13+16
 182              		.loc 1 89 0
 183 004e 9025     		mov	r5, #144
 184              		.loc 1 80 0
 185 0050 0094     		str	r4, [sp]
 186              		.loc 1 89 0
 187 0052 ED05     		lsl	r5, r5, #23
 188              		.loc 1 80 0
 189 0054 FFF7FEFF 		bl	chThdCreateStatic
 190              		.loc 1 89 0
 191 0058 0124     		mov	r4, #1
 192 005a 02E0     		b	.L12
 193              	.L11:
 194              		.loc 1 91 0
 195 005c 0948     		ldr	r0, .L13+20
 196 005e FFF7FEFF 		bl	chThdSleep
 197              	.L12:
 198              		.loc 1 89 0
 199 0062 2B69     		ldr	r3, [r5, #16]
 200 0064 1C42     		tst	r4, r3
 201 0066 F9D0     		beq	.L11
 202              		.loc 1 90 0
 203 0068 301C     		mov	r0, r6
 204 006a FFF7FEFF 		bl	TestThread
 205 006e F5E7     		b	.L11
 206              	.L14:
 207              		.align	2
 208              	.L13:
 209 0070 00000000 		.word	SD1
 210 0074 00000000 		.word	Thread1
 211 0078 00000000 		.word	.LANCHOR0
 212 007c 00000000 		.word	.LANCHOR1
 213 0080 00000000 		.word	Thread2
 214 0084 50C30000 		.word	50000
 215              		.cfi_endproc
 216              	.LFE42:
 217              		.size	main, .-main
 218 0088 C046C046 		.section	.bss.waThread1,"aw",%nobits
 218      C046C046 
 219              		.align	3
 220              		.set	.LANCHOR0,. + 0
 221              		.type	waThread1, %object
 222              		.size	waThread1, 304
 223              	waThread1:
ARM GAS  C:\Users\Rob\AppData\Local\Temp\ccAWZZHW.s 			page 5


 224 0000 00000000 		.space	304
 224      00000000 
 224      00000000 
 224      00000000 
 224      00000000 
 225              		.section	.bss.waThread2,"aw",%nobits
 226              		.align	3
 227              		.set	.LANCHOR1,. + 0
 228              		.type	waThread2, %object
 229              		.size	waThread2, 304
 230              	waThread2:
 231 0000 00000000 		.space	304
 231      00000000 
 231      00000000 
 231      00000000 
 231      00000000 
 232              		.section	.rodata.str1.4,"aMS",%progbits,1
 233              		.align	2
 234              	.LC1:
 235 0000 626C696E 		.ascii	"blinker2\000"
 235      6B657232 
 235      00
 236 0009 000000   		.space	3
 237              	.LC4:
 238 000c 626C696E 		.ascii	"blinker1\000"
 238      6B657231 
 238      00
 239 0015 000000   		.text
 240              	.Letext0:
 241              		.file 2 "c:\\yagarto\\bin\\../lib/gcc/arm-none-eabi/4.6.2/include/stddef.h"
 242              		.file 3 "c:/yagarto/lib/gcc/../../arm-none-eabi/sys-include/stdint.h"
 243              		.file 4 "../../os/ports/GCC/ARMCMx/chtypes.h"
 244              		.file 5 "../../os/kernel/include/chlists.h"
 245              		.file 6 "../../os/kernel/include/chthreads.h"
 246              		.file 7 "../../os/ports/GCC/ARMCMx/chcore_v6m.h"
 247              		.file 8 "../../os/kernel/include/chschd.h"
 248              		.file 9 "../../os/kernel/include/chmtx.h"
 249              		.file 10 "../../os/kernel/include/chevents.h"
 250              		.file 11 "../../os/kernel/include/chqueues.h"
 251              		.file 12 "../../os/hal/platforms/STM32F0xx/stm32f0xx.h"
 252              		.file 13 "../../os/hal/platforms/STM32/GPIOv2/pal_lld.h"
 253              		.file 14 "../../os/hal/include/serial.h"
 254              		.file 15 "../../os/hal/platforms/STM32/USARTv2/serial_lld.h"