ARM GAS  C:\Users\Rob\AppData\Local\Temp\cczKwJXO.s 			page 1


   1              		.cpu cortex-m0
   2              		.fpu softvfp
   3              		.eabi_attribute 20, 1
   4              		.eabi_attribute 21, 1
   5              		.eabi_attribute 23, 3
   6              		.eabi_attribute 24, 1
   7              		.eabi_attribute 25, 1
   8              		.eabi_attribute 26, 1
   9              		.eabi_attribute 30, 2
  10              		.eabi_attribute 18, 4
  11              		.code	16
  12              		.file	"pal.c"
  13              		.text
  14              	.Ltext0:
  15              		.cfi_sections	.debug_frame
  16              		.section	.text.palReadBus,"ax",%progbits
  17              		.align	2
  18              		.p2align 4,,15
  19              		.global	palReadBus
  20              		.code	16
  21              		.thumb_func
  22              		.type	palReadBus, %function
  23              	palReadBus:
  24              	.LFB40:
  25              		.file 1 "../../os/hal/src/pal.c"
  26              		.loc 1 70 0
  27              		.cfi_startproc
  28              	.LVL0:
  29              		.loc 1 75 0
  30 0000 0368     		ldr	r3, [r0]
  31              		.loc 1 76 0
  32              		@ sp needed for prologue
  33              		.loc 1 75 0
  34 0002 1A69     		ldr	r2, [r3, #16]
  35 0004 8368     		ldr	r3, [r0, #8]
  36 0006 4068     		ldr	r0, [r0, #4]
  37              	.LVL1:
  38 0008 DA40     		lsr	r2, r2, r3
  39 000a 1040     		and	r0, r2
  40              		.loc 1 76 0
  41 000c 7047     		bx	lr
  42              		.cfi_endproc
  43              	.LFE40:
  44              		.size	palReadBus, .-palReadBus
  45 000e C046     		.section	.text.palWriteBus,"ax",%progbits
  46              		.align	2
  47              		.p2align 4,,15
  48              		.global	palWriteBus
  49              		.code	16
  50              		.thumb_func
  51              		.type	palWriteBus, %function
  52              	palWriteBus:
  53              	.LFB41:
  54              		.loc 1 96 0
  55              		.cfi_startproc
  56 0000 30B5     		push	{r4, r5, lr}
  57              	.LCFI0:
ARM GAS  C:\Users\Rob\AppData\Local\Temp\cczKwJXO.s 			page 2


  58              		.cfi_def_cfa_offset 12
  59              		.cfi_offset 4, -12
  60              		.cfi_offset 5, -8
  61              		.cfi_offset 14, -4
  62              	.LVL2:
  63              		.loc 1 101 0
  64 0002 4268     		ldr	r2, [r0, #4]
  65 0004 8368     		ldr	r3, [r0, #8]
  66 0006 151C     		mov	r5, r2
  67 0008 0468     		ldr	r4, [r0]
  68 000a 8D43     		bic	r5, r1
  69 000c 181C     		mov	r0, r3
  70              	.LVL3:
  71 000e 1140     		and	r1, r2
  72              	.LVL4:
  73 0010 1030     		add	r0, r0, #16
  74 0012 9940     		lsl	r1, r1, r3
  75 0014 8540     		lsl	r5, r5, r0
  76 0016 0B1C     		mov	r3, r1
  77 0018 2B43     		orr	r3, r5
  78 001a A361     		str	r3, [r4, #24]
  79              		.loc 1 102 0
  80              		@ sp needed for prologue
  81 001c 30BD     		pop	{r4, r5, pc}
  82              		.cfi_endproc
  83              	.LFE41:
  84              		.size	palWriteBus, .-palWriteBus
  85 001e C046     		.section	.text.palSetBusMode,"ax",%progbits
  86              		.align	2
  87              		.p2align 4,,15
  88              		.global	palSetBusMode
  89              		.code	16
  90              		.thumb_func
  91              		.type	palSetBusMode, %function
  92              	palSetBusMode:
  93              	.LFB42:
  94              		.loc 1 120 0
  95              		.cfi_startproc
  96 0000 08B5     		push	{r3, lr}
  97              	.LCFI1:
  98              		.cfi_def_cfa_offset 8
  99              		.cfi_offset 3, -8
 100              		.cfi_offset 14, -4
 101              	.LVL5:
 102              		.loc 1 120 0
 103 0002 031C     		mov	r3, r0
 104 0004 0A1C     		mov	r2, r1
 105              		.loc 1 125 0
 106 0006 5968     		ldr	r1, [r3, #4]
 107              	.LVL6:
 108 0008 9B68     		ldr	r3, [r3, #8]
 109 000a 0068     		ldr	r0, [r0]
 110              	.LVL7:
 111 000c 9940     		lsl	r1, r1, r3
 112 000e FFF7FEFF 		bl	_pal_lld_setgroupmode
 113              	.LVL8:
 114              		.loc 1 126 0
ARM GAS  C:\Users\Rob\AppData\Local\Temp\cczKwJXO.s 			page 3


 115              		@ sp needed for prologue
 116 0012 08BD     		pop	{r3, pc}
 117              		.cfi_endproc
 118              	.LFE42:
 119              		.size	palSetBusMode, .-palSetBusMode
 120 0014 C046C046 		.text
 120      C046C046 
 120      C046C046 
 121              	.Letext0:
 122              		.file 2 "c:/yagarto/lib/gcc/../../arm-none-eabi/sys-include/stdint.h"
 123              		.file 3 "../../os/hal/platforms/STM32/GPIOv2/pal_lld.h"
 124              		.file 4 "../../os/hal/include/pal.h"