ARM GAS  C:\Users\Rob\AppData\Local\Temp\ccDgzJdh.s 			page 1


   1              		.cpu cortex-m0
   2              		.fpu softvfp
   3              		.eabi_attribute 20, 1
   4              		.eabi_attribute 21, 1
   5              		.eabi_attribute 23, 3
   6              		.eabi_attribute 24, 1
   7              		.eabi_attribute 25, 1
   8              		.eabi_attribute 26, 1
   9              		.eabi_attribute 30, 2
  10              		.eabi_attribute 18, 4
  11              		.code	16
  12              		.file	"pwm.c"
  13              		.text
  14              	.Ltext0:
  15              		.cfi_sections	.debug_frame
  16              		.section	.text.pwmInit,"ax",%progbits
  17              		.align	2
  18              		.p2align 4,,15
  19              		.global	pwmInit
  20              		.code	16
  21              		.thumb_func
  22              		.type	pwmInit, %function
  23              	pwmInit:
  24              	.LFB40:
  25              		.file 1 "../../os/hal/src/pwm.c"
  26              		.loc 1 61 0
  27              		.cfi_startproc
  28 0000 08B5     		push	{r3, lr}
  29              	.LCFI0:
  30              		.cfi_def_cfa_offset 8
  31              		.cfi_offset 3, -8
  32              		.cfi_offset 14, -4
  33              		.loc 1 63 0
  34 0002 FFF7FEFF 		bl	pwm_lld_init
  35              		.loc 1 64 0
  36              		@ sp needed for prologue
  37 0006 08BD     		pop	{r3, pc}
  38              		.cfi_endproc
  39              	.LFE40:
  40              		.size	pwmInit, .-pwmInit
  41 0008 C046C046 		.section	.text.pwmObjectInit,"ax",%progbits
  41      C046C046 
  42              		.align	2
  43              		.p2align 4,,15
  44              		.global	pwmObjectInit
  45              		.code	16
  46              		.thumb_func
  47              		.type	pwmObjectInit, %function
  48              	pwmObjectInit:
  49              	.LFB41:
  50              		.loc 1 73 0
  51              		.cfi_startproc
  52              	.LVL0:
  53              		.loc 1 75 0
  54 0000 0123     		mov	r3, #1
  55 0002 0370     		strb	r3, [r0]
  56              		.loc 1 76 0
ARM GAS  C:\Users\Rob\AppData\Local\Temp\ccDgzJdh.s 			page 2


  57 0004 0023     		mov	r3, #0
  58 0006 4360     		str	r3, [r0, #4]
  59              		.loc 1 80 0
  60              		@ sp needed for prologue
  61 0008 7047     		bx	lr
  62              		.cfi_endproc
  63              	.LFE41:
  64              		.size	pwmObjectInit, .-pwmObjectInit
  65 000a C046C046 		.section	.text.pwmStart,"ax",%progbits
  65      C046
  66              		.align	2
  67              		.p2align 4,,15
  68              		.global	pwmStart
  69              		.code	16
  70              		.thumb_func
  71              		.type	pwmStart, %function
  72              	pwmStart:
  73              	.LFB42:
  74              		.loc 1 92 0
  75              		.cfi_startproc
  76 0000 10B5     		push	{r4, lr}
  77              	.LCFI1:
  78              		.cfi_def_cfa_offset 8
  79              		.cfi_offset 4, -8
  80              		.cfi_offset 14, -4
  81              	.LVL1:
  82              		.loc 1 92 0
  83 0002 041C     		mov	r4, r0
  84              		.loc 1 96 0
  85              	@ 96 "../../os/hal/src/pwm.c" 1
  86 0004 72B6     		cpsid   i
  87              	@ 0 "" 2
  88              		.loc 1 99 0
  89              		.code	16
  90 0006 4160     		str	r1, [r0, #4]
  91              		.loc 1 100 0
  92 0008 8B88     		ldrh	r3, [r1, #4]
  93 000a 0381     		strh	r3, [r0, #8]
  94              		.loc 1 101 0
  95 000c FFF7FEFF 		bl	pwm_lld_start
  96              	.LVL2:
  97              		.loc 1 102 0
  98 0010 0223     		mov	r3, #2
  99 0012 2370     		strb	r3, [r4]
 100              		.loc 1 103 0
 101              	@ 103 "../../os/hal/src/pwm.c" 1
 102 0014 62B6     		cpsie   i
 103              	@ 0 "" 2
 104              		.loc 1 104 0
 105              		.code	16
 106              		@ sp needed for prologue
 107              	.LVL3:
 108 0016 10BD     		pop	{r4, pc}
 109              		.cfi_endproc
 110              	.LFE42:
 111              		.size	pwmStart, .-pwmStart
 112 0018 C046C046 		.section	.text.pwmStop,"ax",%progbits
ARM GAS  C:\Users\Rob\AppData\Local\Temp\ccDgzJdh.s 			page 3


 112      C046C046 
 113              		.align	2
 114              		.p2align 4,,15
 115              		.global	pwmStop
 116              		.code	16
 117              		.thumb_func
 118              		.type	pwmStop, %function
 119              	pwmStop:
 120              	.LFB43:
 121              		.loc 1 113 0
 122              		.cfi_startproc
 123 0000 10B5     		push	{r4, lr}
 124              	.LCFI2:
 125              		.cfi_def_cfa_offset 8
 126              		.cfi_offset 4, -8
 127              		.cfi_offset 14, -4
 128              	.LVL4:
 129              		.loc 1 113 0
 130 0002 041C     		mov	r4, r0
 131              		.loc 1 117 0
 132              	@ 117 "../../os/hal/src/pwm.c" 1
 133 0004 72B6     		cpsid   i
 134              	@ 0 "" 2
 135              		.loc 1 120 0
 136              		.code	16
 137 0006 FFF7FEFF 		bl	pwm_lld_stop
 138              	.LVL5:
 139              		.loc 1 121 0
 140 000a 0123     		mov	r3, #1
 141 000c 2370     		strb	r3, [r4]
 142              		.loc 1 122 0
 143              	@ 122 "../../os/hal/src/pwm.c" 1
 144 000e 62B6     		cpsie   i
 145              	@ 0 "" 2
 146              		.loc 1 123 0
 147              		.code	16
 148              		@ sp needed for prologue
 149              	.LVL6:
 150 0010 10BD     		pop	{r4, pc}
 151              		.cfi_endproc
 152              	.LFE43:
 153              		.size	pwmStop, .-pwmStop
 154 0012 C046C046 		.section	.text.pwmChangePeriod,"ax",%progbits
 154      C046C046 
 154      C046C046 
 154      C046
 155              		.align	2
 156              		.p2align 4,,15
 157              		.global	pwmChangePeriod
 158              		.code	16
 159              		.thumb_func
 160              		.type	pwmChangePeriod, %function
 161              	pwmChangePeriod:
 162              	.LFB44:
 163              		.loc 1 140 0
 164              		.cfi_startproc
 165              	.LVL7:
ARM GAS  C:\Users\Rob\AppData\Local\Temp\ccDgzJdh.s 			page 4


 166              		.loc 1 144 0
 167              	@ 144 "../../os/hal/src/pwm.c" 1
 168 0000 72B6     		cpsid   i
 169              	@ 0 "" 2
 170              		.loc 1 147 0
 171              		.code	16
 172 0002 0181     		strh	r1, [r0, #8]
 173 0004 0369     		ldr	r3, [r0, #16]
 174 0006 0139     		sub	r1, r1, #1
 175              	.LVL8:
 176 0008 89B2     		uxth	r1, r1
 177 000a D962     		str	r1, [r3, #44]
 178              		.loc 1 148 0
 179              	@ 148 "../../os/hal/src/pwm.c" 1
 180 000c 62B6     		cpsie   i
 181              	@ 0 "" 2
 182              		.loc 1 149 0
 183              		.code	16
 184              		@ sp needed for prologue
 185 000e 7047     		bx	lr
 186              		.cfi_endproc
 187              	.LFE44:
 188              		.size	pwmChangePeriod, .-pwmChangePeriod
 189              		.section	.text.pwmEnableChannel,"ax",%progbits
 190              		.align	2
 191              		.p2align 4,,15
 192              		.global	pwmEnableChannel
 193              		.code	16
 194              		.thumb_func
 195              		.type	pwmEnableChannel, %function
 196              	pwmEnableChannel:
 197              	.LFB45:
 198              		.loc 1 167 0
 199              		.cfi_startproc
 200 0000 08B5     		push	{r3, lr}
 201              	.LCFI3:
 202              		.cfi_def_cfa_offset 8
 203              		.cfi_offset 3, -8
 204              		.cfi_offset 14, -4
 205              	.LVL9:
 206              		.loc 1 172 0
 207              	@ 172 "../../os/hal/src/pwm.c" 1
 208 0002 72B6     		cpsid   i
 209              	@ 0 "" 2
 210              		.loc 1 175 0
 211              		.code	16
 212 0004 FFF7FEFF 		bl	pwm_lld_enable_channel
 213              	.LVL10:
 214              		.loc 1 176 0
 215              	@ 176 "../../os/hal/src/pwm.c" 1
 216 0008 62B6     		cpsie   i
 217              	@ 0 "" 2
 218              		.loc 1 177 0
 219              		.code	16
 220              		@ sp needed for prologue
 221 000a 08BD     		pop	{r3, pc}
 222              		.cfi_endproc
ARM GAS  C:\Users\Rob\AppData\Local\Temp\ccDgzJdh.s 			page 5


 223              	.LFE45:
 224              		.size	pwmEnableChannel, .-pwmEnableChannel
 225 000c C046C046 		.section	.text.pwmDisableChannel,"ax",%progbits
 226              		.align	2
 227              		.p2align 4,,15
 228              		.global	pwmDisableChannel
 229              		.code	16
 230              		.thumb_func
 231              		.type	pwmDisableChannel, %function
 232              	pwmDisableChannel:
 233              	.LFB46:
 234              		.loc 1 193 0
 235              		.cfi_startproc
 236 0000 08B5     		push	{r3, lr}
 237              	.LCFI4:
 238              		.cfi_def_cfa_offset 8
 239              		.cfi_offset 3, -8
 240              		.cfi_offset 14, -4
 241              	.LVL11:
 242              		.loc 1 198 0
 243              	@ 198 "../../os/hal/src/pwm.c" 1
 244 0002 72B6     		cpsid   i
 245              	@ 0 "" 2
 246              		.loc 1 201 0
 247              		.code	16
 248 0004 FFF7FEFF 		bl	pwm_lld_disable_channel
 249              	.LVL12:
 250              		.loc 1 202 0
 251              	@ 202 "../../os/hal/src/pwm.c" 1
 252 0008 62B6     		cpsie   i
 253              	@ 0 "" 2
 254              		.loc 1 203 0
 255              		.code	16
 256              		@ sp needed for prologue
 257 000a 08BD     		pop	{r3, pc}
 258              		.cfi_endproc
 259              	.LFE46:
 260              		.size	pwmDisableChannel, .-pwmDisableChannel
 261 000c C046C046 		.text
 262              	.Letext0:
 263              		.file 2 "c:/yagarto/lib/gcc/../../arm-none-eabi/sys-include/stdint.h"
 264              		.file 3 "../../os/hal/include/pwm.h"
 265              		.file 4 "../../os/hal/platforms/STM32/TIMv1/pwm_lld.h"
 266              		.file 5 "../../os/hal/platforms/STM32/TIMv1/stm32_tim.h"