ARM GAS  C:\Users\Rob\AppData\Local\Temp\ccO4rU8D.s 			page 1


   1              		.cpu cortex-m0
   2              		.fpu softvfp
   3              		.eabi_attribute 20, 1
   4              		.eabi_attribute 21, 1
   5              		.eabi_attribute 23, 3
   6              		.eabi_attribute 24, 1
   7              		.eabi_attribute 25, 1
   8              		.eabi_attribute 26, 1
   9              		.eabi_attribute 30, 2
  10              		.eabi_attribute 18, 4
  11              		.code	16
  12              		.file	"pwm_lld.c"
  13              		.text
  14              	.Ltext0:
  15              		.cfi_sections	.debug_frame
  16              		.section	.text.Vector7C,"ax",%progbits
  17              		.align	2
  18              		.p2align 4,,15
  19              		.global	Vector7C
  20              		.code	16
  21              		.thumb_func
  22              		.type	Vector7C, %function
  23              	Vector7C:
  24              	.LFB41:
  25              		.file 1 "../../os/hal/platforms/STM32/TIMv1/pwm_lld.c"
  26              		.loc 1 197 0
  27              		.cfi_startproc
  28 0000 70B5     		push	{r4, r5, r6, lr}
  29              	.LCFI0:
  30              		.cfi_def_cfa_offset 16
  31              		.cfi_offset 4, -16
  32              		.cfi_offset 5, -12
  33              		.cfi_offset 6, -8
  34              		.cfi_offset 14, -4
  35              		.loc 1 199 0
  36              	@ 199 "../../os/hal/platforms/STM32/TIMv1/pwm_lld.c" 1
  37 0002 7646     		mov     r6, lr
  38              	@ 0 "" 2
  39              	.LVL0:
  40              		.code	16
  41              	.LBB4:
  42              	.LBB5:
  43              		.loc 1 115 0
  44 0004 174D     		ldr	r5, .L12
  45 0006 2B69     		ldr	r3, [r5, #16]
  46 0008 1A69     		ldr	r2, [r3, #16]
  47              	.LVL1:
  48              		.loc 1 116 0
  49 000a DC68     		ldr	r4, [r3, #12]
  50 000c 1440     		and	r4, r2
  51 000e FF22     		mov	r2, #255
  52              	.LVL2:
  53 0010 1440     		and	r4, r2
  54              		.loc 1 117 0
  55 0012 E243     		mvn	r2, r4
  56 0014 1A61     		str	r2, [r3, #16]
  57              		.loc 1 118 0
ARM GAS  C:\Users\Rob\AppData\Local\Temp\ccO4rU8D.s 			page 2


  58 0016 A307     		lsl	r3, r4, #30
  59 0018 1ED4     		bmi	.L8
  60              	.L2:
  61              		.loc 1 120 0
  62 001a 6307     		lsl	r3, r4, #29
  63 001c 17D4     		bmi	.L9
  64              	.L3:
  65              		.loc 1 122 0
  66 001e 2307     		lsl	r3, r4, #28
  67 0020 10D4     		bmi	.L10
  68              	.L4:
  69              		.loc 1 124 0
  70 0022 E306     		lsl	r3, r4, #27
  71 0024 09D4     		bmi	.L11
  72              	.L5:
  73              		.loc 1 126 0
  74 0026 E307     		lsl	r3, r4, #31
  75 0028 03D5     		bpl	.L6
  76              		.loc 1 127 0
  77 002a 6B68     		ldr	r3, [r5, #4]
  78 002c 281C     		mov	r0, r5
  79 002e 9B68     		ldr	r3, [r3, #8]
  80 0030 9847     		blx	r3
  81              	.L6:
  82              	.LBE5:
  83              	.LBE4:
  84              		.loc 1 203 0
  85 0032 301C     		mov	r0, r6
  86 0034 FFF7FEFF 		bl	_port_irq_epilogue
  87              		.loc 1 204 0
  88              		@ sp needed for prologue
  89              	.LVL3:
  90 0038 70BD     		pop	{r4, r5, r6, pc}
  91              	.LVL4:
  92              	.L11:
  93              	.LBB7:
  94              	.LBB6:
  95              		.loc 1 125 0
  96 003a 6B68     		ldr	r3, [r5, #4]
  97 003c 281C     		mov	r0, r5
  98 003e 9B6A     		ldr	r3, [r3, #40]
  99 0040 9847     		blx	r3
 100 0042 F0E7     		b	.L5
 101              	.L10:
 102              		.loc 1 123 0
 103 0044 6B68     		ldr	r3, [r5, #4]
 104 0046 281C     		mov	r0, r5
 105 0048 1B6A     		ldr	r3, [r3, #32]
 106 004a 9847     		blx	r3
 107 004c E9E7     		b	.L4
 108              	.L9:
 109              		.loc 1 121 0
 110 004e 6B68     		ldr	r3, [r5, #4]
 111 0050 281C     		mov	r0, r5
 112 0052 9B69     		ldr	r3, [r3, #24]
 113 0054 9847     		blx	r3
 114 0056 E2E7     		b	.L3
ARM GAS  C:\Users\Rob\AppData\Local\Temp\ccO4rU8D.s 			page 3


 115              	.L8:
 116              		.loc 1 119 0
 117 0058 6B68     		ldr	r3, [r5, #4]
 118 005a 281C     		mov	r0, r5
 119 005c 1B69     		ldr	r3, [r3, #16]
 120 005e 9847     		blx	r3
 121 0060 DBE7     		b	.L2
 122              	.L13:
 123 0062 C046     		.align	2
 124              	.L12:
 125 0064 00000000 		.word	.LANCHOR0
 126              	.LBE6:
 127              	.LBE7:
 128              		.cfi_endproc
 129              	.LFE41:
 130              		.size	Vector7C, .-Vector7C
 131 0068 C046C046 		.section	.text.pwm_lld_init,"ax",%progbits
 131      C046C046 
 132              		.align	2
 133              		.p2align 4,,15
 134              		.global	pwm_lld_init
 135              		.code	16
 136              		.thumb_func
 137              		.type	pwm_lld_init, %function
 138              	pwm_lld_init:
 139              	.LFB42:
 140              		.loc 1 345 0
 141              		.cfi_startproc
 142 0000 10B5     		push	{r4, lr}
 143              	.LCFI1:
 144              		.cfi_def_cfa_offset 8
 145              		.cfi_offset 4, -8
 146              		.cfi_offset 14, -4
 147              		.loc 1 355 0
 148 0002 044C     		ldr	r4, .L15
 149              		.loc 1 388 0
 150              		@ sp needed for prologue
 151              		.loc 1 355 0
 152 0004 201C     		mov	r0, r4
 153 0006 FFF7FEFF 		bl	pwmObjectInit
 154              		.loc 1 356 0
 155 000a 8023     		mov	r3, #128
 156 000c DB05     		lsl	r3, r3, #23
 157 000e 2361     		str	r3, [r4, #16]
 158              		.loc 1 388 0
 159 0010 10BD     		pop	{r4, pc}
 160              	.L16:
 161 0012 C046     		.align	2
 162              	.L15:
 163 0014 00000000 		.word	.LANCHOR0
 164              		.cfi_endproc
 165              	.LFE42:
 166              		.size	pwm_lld_init, .-pwm_lld_init
 167              		.global	__aeabi_uidiv
 168 0018 C046C046 		.section	.text.pwm_lld_start,"ax",%progbits
 168      C046C046 
 169              		.align	2
ARM GAS  C:\Users\Rob\AppData\Local\Temp\ccO4rU8D.s 			page 4


 170              		.p2align 4,,15
 171              		.global	pwm_lld_start
 172              		.code	16
 173              		.thumb_func
 174              		.type	pwm_lld_start, %function
 175              	pwm_lld_start:
 176              	.LFB43:
 177              		.loc 1 399 0
 178              		.cfi_startproc
 179 0000 70B5     		push	{r4, r5, r6, lr}
 180              	.LCFI2:
 181              		.cfi_def_cfa_offset 16
 182              		.cfi_offset 4, -16
 183              		.cfi_offset 5, -12
 184              		.cfi_offset 6, -8
 185              		.cfi_offset 14, -4
 186              	.LVL5:
 187              		.loc 1 403 0
 188 0002 0378     		ldrb	r3, [r0]
 189              		.loc 1 399 0
 190 0004 061C     		mov	r6, r0
 191              		.loc 1 403 0
 192 0006 012B     		cmp	r3, #1
 193 0008 00D1     		bne	.LCB139
 194 000a 6CE0     		b	.L35	@long jump
 195              	.LCB139:
 196              		.loc 1 484 0
 197 000c 4568     		ldr	r5, [r0, #4]
 198              		.loc 1 483 0
 199 000e 0469     		ldr	r4, [r0, #16]
 200              		.loc 1 484 0
 201 0010 2A6B     		ldr	r2, [r5, #48]
 202 0012 FF21     		mov	r1, #255
 203              		.loc 1 483 0
 204 0014 0023     		mov	r3, #0
 205              		.loc 1 484 0
 206 0016 8A43     		bic	r2, r1
 207              		.loc 1 483 0
 208 0018 2360     		str	r3, [r4]
 209              		.loc 1 484 0
 210 001a E260     		str	r2, [r4, #12]
 211              		.loc 1 486 0
 212 001c 2361     		str	r3, [r4, #16]
 213              		.loc 1 487 0
 214 001e 6363     		str	r3, [r4, #52]
 215              		.loc 1 488 0
 216 0020 A363     		str	r3, [r4, #56]
 217              		.loc 1 489 0
 218 0022 E363     		str	r3, [r4, #60]
 219              		.loc 1 490 0
 220 0024 2364     		str	r3, [r4, #64]
 221              		.loc 1 491 0
 222 0026 6362     		str	r3, [r4, #36]
 223              	.LVL6:
 224              	.L20:
 225              		.loc 1 495 0
 226 0028 F068     		ldr	r0, [r6, #12]
ARM GAS  C:\Users\Rob\AppData\Local\Temp\ccO4rU8D.s 			page 5


 227 002a 2968     		ldr	r1, [r5]
 228 002c FFF7FEFF 		bl	__aeabi_uidiv
 229              	.LVL7:
 230 0030 0138     		sub	r0, r0, #1
 231              		.loc 1 499 0
 232 0032 80B2     		uxth	r0, r0
 233 0034 A062     		str	r0, [r4, #40]
 234              		.loc 1 500 0
 235 0036 3389     		ldrh	r3, [r6, #8]
 236              		.loc 1 505 0
 237 0038 EA68     		ldr	r2, [r5, #12]
 238              		.loc 1 500 0
 239 003a 013B     		sub	r3, r3, #1
 240 003c 9BB2     		uxth	r3, r3
 241 003e E362     		str	r3, [r4, #44]
 242              		.loc 1 501 0
 243 0040 EB6A     		ldr	r3, [r5, #44]
 244 0042 6360     		str	r3, [r4, #4]
 245              	.LVL8:
 246              		.loc 1 505 0
 247 0044 0F23     		mov	r3, #15
 248 0046 1A40     		and	r2, r3
 249 0048 0123     		mov	r3, #1
 250 004a 012A     		cmp	r2, #1
 251 004c 05D0     		beq	.L21
 252              		.loc 1 504 0
 253 004e 023A     		sub	r2, r2, #2
 254 0050 5142     		neg	r1, r2
 255 0052 4A41     		adc	r2, r2, r1
 256              		.loc 1 505 0
 257 0054 0323     		mov	r3, #3
 258              		.loc 1 504 0
 259 0056 5242     		neg	r2, r2
 260 0058 1340     		and	r3, r2
 261              	.L21:
 262              	.LVL9:
 263              		.loc 1 513 0
 264 005a 6969     		ldr	r1, [r5, #20]
 265 005c 0F22     		mov	r2, #15
 266 005e 0A40     		and	r2, r1
 267 0060 012A     		cmp	r2, #1
 268 0062 1FD0     		beq	.L25
 269 0064 022A     		cmp	r2, #2
 270 0066 1BD0     		beq	.L36
 271              		.loc 1 521 0
 272 0068 E969     		ldr	r1, [r5, #28]
 273 006a 0F22     		mov	r2, #15
 274 006c 0A40     		and	r2, r1
 275 006e 012A     		cmp	r2, #1
 276 0070 1FD0     		beq	.L28
 277              	.LVL10:
 278              	.L39:
 279 0072 022A     		cmp	r2, #2
 280 0074 30D0     		beq	.L37
 281              	.LVL11:
 282              		.loc 1 529 0
 283 0076 696A     		ldr	r1, [r5, #36]
ARM GAS  C:\Users\Rob\AppData\Local\Temp\ccO4rU8D.s 			page 6


 284 0078 0F22     		mov	r2, #15
 285 007a 0A40     		and	r2, r1
 286 007c 012A     		cmp	r2, #1
 287 007e 20D0     		beq	.L31
 288              	.LVL12:
 289              	.L40:
 290 0080 022A     		cmp	r2, #2
 291 0082 22D0     		beq	.L38
 292              	.L30:
 293              	.LVL13:
 294              		.loc 1 574 0
 295 0084 2362     		str	r3, [r4, #32]
 296              		.loc 1 575 0
 297 0086 0123     		mov	r3, #1
 298              	.LVL14:
 299 0088 6361     		str	r3, [r4, #20]
 300              		.loc 1 576 0
 301 008a AB68     		ldr	r3, [r5, #8]
 302 008c E268     		ldr	r2, [r4, #12]
 303 008e 591E     		sub	r1, r3, #1
 304 0090 8B41     		sbc	r3, r3, r1
 305 0092 1343     		orr	r3, r2
 306 0094 E360     		str	r3, [r4, #12]
 307              		.loc 1 577 0
 308 0096 0023     		mov	r3, #0
 309 0098 2361     		str	r3, [r4, #16]
 310              		.loc 1 586 0
 311 009a 8523     		mov	r3, #133
 312 009c 2360     		str	r3, [r4]
 313              		.loc 1 588 0
 314              		@ sp needed for prologue
 315              	.LVL15:
 316              	.LVL16:
 317 009e 70BD     		pop	{r4, r5, r6, pc}
 318              	.LVL17:
 319              	.L36:
 320              		.loc 1 515 0
 321 00a0 2022     		mov	r2, #32
 322 00a2 1343     		orr	r3, r2
 323              	.LVL18:
 324              	.L25:
 325              		.loc 1 517 0
 326 00a4 1022     		mov	r2, #16
 327              		.loc 1 521 0
 328 00a6 E969     		ldr	r1, [r5, #28]
 329              		.loc 1 517 0
 330 00a8 1343     		orr	r3, r2
 331              	.LVL19:
 332              		.loc 1 521 0
 333 00aa 0F22     		mov	r2, #15
 334 00ac 0A40     		and	r2, r1
 335 00ae 012A     		cmp	r2, #1
 336 00b0 DFD1     		bne	.L39
 337              	.LVL20:
 338              	.L28:
 339              		.loc 1 525 0
 340 00b2 8022     		mov	r2, #128
ARM GAS  C:\Users\Rob\AppData\Local\Temp\ccO4rU8D.s 			page 7


 341 00b4 5200     		lsl	r2, r2, #1
 342 00b6 1343     		orr	r3, r2
 343              	.LVL21:
 344              	.L41:
 345              		.loc 1 529 0
 346 00b8 696A     		ldr	r1, [r5, #36]
 347 00ba 0F22     		mov	r2, #15
 348 00bc 0A40     		and	r2, r1
 349 00be 012A     		cmp	r2, #1
 350 00c0 DED1     		bne	.L40
 351              	.LVL22:
 352              	.L31:
 353              		.loc 1 533 0
 354 00c2 8022     		mov	r2, #128
 355 00c4 5201     		lsl	r2, r2, #5
 356 00c6 1343     		orr	r3, r2
 357              	.LVL23:
 358 00c8 DCE7     		b	.L30
 359              	.LVL24:
 360              	.L38:
 361              		.loc 1 531 0
 362 00ca 8022     		mov	r2, #128
 363 00cc 9201     		lsl	r2, r2, #6
 364 00ce 1343     		orr	r3, r2
 365              	.LVL25:
 366              		.loc 1 533 0
 367 00d0 8022     		mov	r2, #128
 368 00d2 5201     		lsl	r2, r2, #5
 369 00d4 1343     		orr	r3, r2
 370              	.LVL26:
 371 00d6 D5E7     		b	.L30
 372              	.LVL27:
 373              	.L37:
 374              		.loc 1 523 0
 375 00d8 8022     		mov	r2, #128
 376 00da 9200     		lsl	r2, r2, #2
 377 00dc 1343     		orr	r3, r2
 378              	.LVL28:
 379              		.loc 1 525 0
 380 00de 8022     		mov	r2, #128
 381 00e0 5200     		lsl	r2, r2, #1
 382 00e2 1343     		orr	r3, r2
 383              	.LVL29:
 384 00e4 E8E7     		b	.L41
 385              	.LVL30:
 386              	.L35:
 387              		.loc 1 417 0
 388 00e6 0C4A     		ldr	r2, .L43
 389 00e8 9042     		cmp	r0, r2
 390 00ea 05D0     		beq	.L42
 391              	.L19:
 392              		.loc 1 476 0
 393 00ec 3469     		ldr	r4, [r6, #16]
 394 00ee 0B4B     		ldr	r3, .L43+4
 395              		.loc 1 478 0
 396 00f0 7568     		ldr	r5, [r6, #4]
 397              		.loc 1 476 0
ARM GAS  C:\Users\Rob\AppData\Local\Temp\ccO4rU8D.s 			page 8


 398 00f2 A361     		str	r3, [r4, #24]
 399              		.loc 1 478 0
 400 00f4 E361     		str	r3, [r4, #28]
 401 00f6 97E7     		b	.L20
 402              	.L42:
 403              		.loc 1 418 0
 404 00f8 094A     		ldr	r2, .L43+8
 405              		.loc 1 420 0
 406 00fa 0F20     		mov	r0, #15
 407              		.loc 1 418 0
 408 00fc D169     		ldr	r1, [r2, #28]
 409 00fe 1943     		orr	r1, r3
 410 0100 D161     		str	r1, [r2, #28]
 411              		.loc 1 419 0
 412 0102 1169     		ldr	r1, [r2, #16]
 413 0104 0B43     		orr	r3, r1
 414 0106 1361     		str	r3, [r2, #16]
 415 0108 0023     		mov	r3, #0
 416 010a 1361     		str	r3, [r2, #16]
 417              		.loc 1 420 0
 418 010c C021     		mov	r1, #192
 419 010e FFF7FEFF 		bl	nvicEnableVector
 420              		.loc 1 422 0
 421 0112 044B     		ldr	r3, .L43+12
 422 0114 F360     		str	r3, [r6, #12]
 423 0116 E9E7     		b	.L19
 424              	.L44:
 425              		.align	2
 426              	.L43:
 427 0118 00000000 		.word	.LANCHOR0
 428 011c 68680101 		.word	16869480
 429 0120 00100240 		.word	1073876992
 430 0124 006CDC02 		.word	48000000
 431              		.cfi_endproc
 432              	.LFE43:
 433              		.size	pwm_lld_start, .-pwm_lld_start
 434 0128 C046C046 		.section	.text.pwm_lld_stop,"ax",%progbits
 434      C046C046 
 435              		.align	2
 436              		.p2align 4,,15
 437              		.global	pwm_lld_stop
 438              		.code	16
 439              		.thumb_func
 440              		.type	pwm_lld_stop, %function
 441              	pwm_lld_stop:
 442              	.LFB44:
 443              		.loc 1 597 0
 444              		.cfi_startproc
 445 0000 08B5     		push	{r3, lr}
 446              	.LCFI3:
 447              		.cfi_def_cfa_offset 8
 448              		.cfi_offset 3, -8
 449              		.cfi_offset 14, -4
 450              	.LVL31:
 451              		.loc 1 600 0
 452 0002 0378     		ldrb	r3, [r0]
 453 0004 022B     		cmp	r3, #2
ARM GAS  C:\Users\Rob\AppData\Local\Temp\ccO4rU8D.s 			page 9


 454 0006 00D0     		beq	.L47
 455              	.LVL32:
 456              	.L45:
 457              		.loc 1 653 0
 458              		@ sp needed for prologue
 459 0008 08BD     		pop	{r3, pc}
 460              	.LVL33:
 461              	.L47:
 462              		.loc 1 601 0
 463 000a 0369     		ldr	r3, [r0, #16]
 464 000c 0022     		mov	r2, #0
 465 000e 1A60     		str	r2, [r3]
 466              		.loc 1 602 0
 467 0010 DA60     		str	r2, [r3, #12]
 468              		.loc 1 603 0
 469 0012 1A61     		str	r2, [r3, #16]
 470              		.loc 1 616 0
 471 0014 054B     		ldr	r3, .L48
 472 0016 9842     		cmp	r0, r3
 473 0018 F6D1     		bne	.L45
 474              		.loc 1 617 0
 475 001a 0F20     		mov	r0, #15
 476              	.LVL34:
 477 001c FFF7FEFF 		bl	nvicDisableVector
 478              		.loc 1 618 0
 479 0020 034B     		ldr	r3, .L48+4
 480 0022 0121     		mov	r1, #1
 481 0024 DA69     		ldr	r2, [r3, #28]
 482 0026 8A43     		bic	r2, r1
 483 0028 DA61     		str	r2, [r3, #28]
 484 002a EDE7     		b	.L45
 485              	.L49:
 486              		.align	2
 487              	.L48:
 488 002c 00000000 		.word	.LANCHOR0
 489 0030 00100240 		.word	1073876992
 490              		.cfi_endproc
 491              	.LFE44:
 492              		.size	pwm_lld_stop, .-pwm_lld_stop
 493 0034 C046C046 		.section	.text.pwm_lld_enable_channel,"ax",%progbits
 493      C046C046 
 493      C046C046 
 494              		.align	2
 495              		.p2align 4,,15
 496              		.global	pwm_lld_enable_channel
 497              		.code	16
 498              		.thumb_func
 499              		.type	pwm_lld_enable_channel, %function
 500              	pwm_lld_enable_channel:
 501              	.LFB45:
 502              		.loc 1 669 0
 503              		.cfi_startproc
 504 0000 10B5     		push	{r4, lr}
 505              	.LCFI4:
 506              		.cfi_def_cfa_offset 8
 507              		.cfi_offset 4, -8
 508              		.cfi_offset 14, -4
ARM GAS  C:\Users\Rob\AppData\Local\Temp\ccO4rU8D.s 			page 10


 509              	.LVL35:
 510              		.loc 1 671 0
 511 0002 0C1C     		mov	r4, r1
 512 0004 0369     		ldr	r3, [r0, #16]
 513 0006 0C34     		add	r4, r4, #12
 514 0008 A400     		lsl	r4, r4, #2
 515 000a 1C19     		add	r4, r3, r4
 516 000c 6260     		str	r2, [r4, #4]
 517              		.loc 1 674 0
 518 000e 4068     		ldr	r0, [r0, #4]
 519              	.LVL36:
 520 0010 4A1C     		add	r2, r1, #1
 521              	.LVL37:
 522 0012 D200     		lsl	r2, r2, #3
 523 0014 8218     		add	r2, r0, r2
 524 0016 9268     		ldr	r2, [r2, #8]
 525 0018 002A     		cmp	r2, #0
 526 001a 08D0     		beq	.L50
 527              	.LBB8:
 528              		.loc 1 678 0
 529 001c 0220     		mov	r0, #2
 530              		.loc 1 675 0
 531 001e DA68     		ldr	r2, [r3, #12]
 532              	.LVL38:
 533              		.loc 1 678 0
 534 0020 8840     		lsl	r0, r0, r1
 535 0022 0242     		tst	r2, r0
 536 0024 03D1     		bne	.L50
 537              		.loc 1 679 0
 538 0026 0243     		orr	r2, r0
 539              	.LVL39:
 540              		.loc 1 680 0
 541 0028 C143     		mvn	r1, r0
 542              	.LVL40:
 543              		.loc 1 679 0
 544 002a DA60     		str	r2, [r3, #12]
 545              		.loc 1 680 0
 546 002c 1961     		str	r1, [r3, #16]
 547              	.L50:
 548              	.LBE8:
 549              		.loc 1 683 0
 550              		@ sp needed for prologue
 551 002e 10BD     		pop	{r4, pc}
 552              		.cfi_endproc
 553              	.LFE45:
 554              		.size	pwm_lld_enable_channel, .-pwm_lld_enable_channel
 555              		.section	.text.pwm_lld_disable_channel,"ax",%progbits
 556              		.align	2
 557              		.p2align 4,,15
 558              		.global	pwm_lld_disable_channel
 559              		.code	16
 560              		.thumb_func
 561              		.type	pwm_lld_disable_channel, %function
 562              	pwm_lld_disable_channel:
 563              	.LFB46:
 564              		.loc 1 697 0
 565              		.cfi_startproc
ARM GAS  C:\Users\Rob\AppData\Local\Temp\ccO4rU8D.s 			page 11


 566              	.LVL41:
 567              		.loc 1 699 0
 568 0000 0A1C     		mov	r2, r1
 569 0002 0369     		ldr	r3, [r0, #16]
 570 0004 0C32     		add	r2, r2, #12
 571 0006 9200     		lsl	r2, r2, #2
 572 0008 9A18     		add	r2, r3, r2
 573 000a 0020     		mov	r0, #0
 574              	.LVL42:
 575 000c 5060     		str	r0, [r2, #4]
 576              		.loc 1 700 0
 577 000e DA68     		ldr	r2, [r3, #12]
 578 0010 0220     		mov	r0, #2
 579 0012 8840     		lsl	r0, r0, r1
 580 0014 8243     		bic	r2, r0
 581 0016 DA60     		str	r2, [r3, #12]
 582              		.loc 1 701 0
 583              		@ sp needed for prologue
 584 0018 7047     		bx	lr
 585              		.cfi_endproc
 586              	.LFE46:
 587              		.size	pwm_lld_disable_channel, .-pwm_lld_disable_channel
 588              		.global	PWMD2
 589 001a C046C046 		.section	.bss.PWMD2,"aw",%nobits
 589      C046
 590              		.align	2
 591              		.set	.LANCHOR0,. + 0
 592              		.type	PWMD2, %object
 593              		.size	PWMD2, 20
 594              	PWMD2:
 595 0000 00000000 		.space	20
 595      00000000 
 595      00000000 
 595      00000000 
 595      00000000 
 596              		.text
 597              	.Letext0:
 598              		.file 2 "c:/yagarto/lib/gcc/../../arm-none-eabi/sys-include/stdint.h"
 599              		.file 3 "../../os/ports/GCC/ARMCMx/chcore_v6m.h"
 600              		.file 4 "../../os/hal/platforms/STM32F0xx/stm32f0xx.h"
 601              		.file 5 "../../os/hal/include/pwm.h"
 602              		.file 6 "../../os/hal/platforms/STM32/TIMv1/pwm_lld.h"
 603              		.file 7 "../../os/hal/platforms/STM32/TIMv1/stm32_tim.h"