ARM GAS  C:\Users\Rob\AppData\Local\Temp\ccO4rU8D.s 			page 1


   1              		.cpu cortex-m0
   2              		.fpu softvfp
   3              		.eabi_attribute 20, 1
   4              		.eabi_attribute 21, 1
   5              		.eabi_attribute 23, 3
   6              		.eabi_attribute 24, 1
   7              		.eabi_attribute 25, 1
   8              		.eabi_attribute 26, 1
   9              		.eabi_attribute 30, 2
  10              		.eabi_attribute 18, 4
  11              		.code	16
  12              		.file	"pwm_lld.c"
  13              		.text
  14              	.Ltext0:
  15              		.cfi_sections	.debug_frame
  16              		.section	.text.Vector7C,"ax",%progbits
  17              		.align	2
  18              		.p2align 4,,15
  19              		.global	Vector7C
  20              		.code	16
  21              		.thumb_func
  22              		.type	Vector7C, %function
  23              	Vector7C:
  24              	.LFB41:
  25              		.file 1 "../../os/hal/platforms/STM32/TIMv1/pwm_lld.c"
  26              		.loc 1 197 0
  27              		.cfi_startproc
  28 0000 70B5     		push	{r4, r5, r6, lr}
  29              	.LCFI0:
  30              		.cfi_def_cfa_offset 16
  31              		.cfi_offset 4, -16
  32              		.cfi_offset 5, -12
  33              		.cfi_offset 6, -8
  34              		.cfi_offset 14, -4
  35              		.loc 1 199 0
  36              	@ 199 "../../os/hal/platforms/STM32/TIMv1/pwm_lld.c" 1
  37 0002 7646     		mov     r6, lr
  38              	@ 0 "" 2
  39              	.LVL0:
  40              		.code	16
  41              	.LBB4:
  42              	.LBB5:
  43              		.loc 1 115 0
  44 0004 174D     		ldr	r5, .L12
  45 0006 2B69     		ldr	r3, [r5, #16]
  46 0008 1A69     		ldr	r2, [r3, #16]
  47              	.LVL1:
  48              		.loc 1 116 0
  49 000a DC68     		ldr	r4, [r3, #12]
  50 000c 1440     		and	r4, r2
  51 000e FF22     		mov	r2, #255
  52              	.LVL2:
  53 0010 1440     		and	r4, r2
  54              		.loc 1 117 0
  55 0012 E243     		mvn	r2, r4
  56 0014 1A61     		str	r2, [r3, #16]
  57              		.loc 1 118 0
ARM GAS  C:\Users\Rob\AppData\Local\Temp\ccO4rU8D.s 			page 2


  58 0016 A307     		lsl	r3, r4, #30
  59 0018 1ED4     		bmi	.L8
  60              	.L2:
  61              		.loc 1 120 0
  62 001a 6307     		lsl	r3, r4, #29
  63 001c 17D4     		bmi	.L9
  64              	.L3:
  65              		.loc 1 122 0
  66 001e 2307     		lsl	r3, r4, #28
  67 0020 10D4     		bmi	.L10
  68              	.L4:
  69              		.loc 1 124 0
  70 0022 E306     		lsl	r3, r4, #27
  71 0024 09D4     		bmi	.L11
  72              	.L5:
  73              		.loc 1 126 0
  74 0026 E307     		lsl	r3, r4, #31
  75 0028 03D5     		bpl	.L6
  76              		.loc 1 127 0
  77 002a 6B68     		ldr	r3, [r5, #4]
  78 002c 281C     		mov	r0, r5
  79 002e 9B68     		ldr	r3, [r3, #8]
  80 0030 9847     		blx	r3
  81              	.L6:
  82              	.LBE5:
  83              	.LBE4:
  84              		.loc 1 203 0
  85 0032 301C     		mov	r0, r6
  86 0034 FFF7FEFF 		bl	_port_irq_epilogue
  87              		.loc 1 204 0
  88              		@ sp needed for prologue
  89              	.LVL3:
  90 0038 70BD     		pop	{r4, r5, r6, pc}
  91              	.LVL4:
  92              	.L11:
  93              	.LBB7:
  94              	.LBB6:
  95              		.loc 1 125 0
  96 003a 6B68     		ldr	r3, [r5, #4]
  97 003c 281C     		mov	r0, r5
  98 003e 9B6A     		ldr	r3, [r3, #40]
  99 0040 9847     		blx	r3
 100 0042 F0E7     		b	.L5
 101              	.L10:
 102              		.loc 1 123 0
 103 0044 6B68     		ldr	r3, [r5, #4]
 104 0046 281C     		mov	r0, r5
 105 0048 1B6A     		ldr	r3, [r3, #32]
 106 004a 9847     		blx	r3
 107 004c E9E7     		b	.L4
 108              	.L9:
 109              		.loc 1 121 0
 110 004e 6B68     		ldr	r3, [r5, #4]
 111 0050 281C     		mov	r0, r5
 112 0052 9B69     		ldr	r3, [r3, #24]
 113 0054 9847     		blx	r3
 114 0056 E2E7     		b	.L3
ARM GAS  C:\Users\Rob\AppData\Local\Temp\ccO4rU8D.s 			page 3


 115              	.L8:
 116              		.loc 1 119 0
 117 0058 6B68     		ldr	r3, [r5, #4]
 118 005a 281C     		mov	r0, r5
 119 005c 1B69     		ldr	r3, [r3, #16]
 120 005e 9847     		blx	r3
 121 0060 DBE7     		b	.L2
 122              	.L13:
 123 0062 C046     		.align	2
 124              	.L12:
 125 0064 00000000 		.word	.LANCHOR0
 126              	.LBE6:
 127              	.LBE7:
 128              		.cfi_endproc
 129              	.LFE41:
 130              		.size	Vector7C, .-Vector7C
 131 0068 C046C046 		.section	.text.pwm_lld_init,"ax",%progbits
 131      C046C046 
 132              		.align	2
 133              		.p2align 4,,15
 134              		.global	pwm_lld_init
 135              		.code	16
 136              		.thumb_func
 137              		.type	pwm_lld_init, %function
 138              	pwm_lld_init:
 139              	.LFB42:
 140              		.loc 1 345 0
 141              		.cfi_startproc
 142 0000 10B5     		push	{r4, lr}
 143              	.LCFI1:
 144              		.cfi_def_cfa_offset 8
 145              		.cfi_offset 4, -8
 146              		.cfi_offset 14, -4
 147              		.loc 1 355 0
 148 0002 044C     		ldr	r4, .L15
 149              		.loc 1 388 0
 150              		@ sp needed for prologue
 151              		.loc 1 355 0
 152 0004 201C     		mov	r0, r4
 153 0006 FFF7FEFF 		bl	pwmObjectInit
 154              		.loc 1 356 0
 155 000a 8023     		mov	r3, #128
 156 000c DB05     		lsl	r3, r3, #23
 157 000e 2361     		str	r3, [r4, #16]
 158              		.loc 1 388 0
 159 0010 10BD     		pop	{r4, pc}
 160              	.L16:
 161 0012 C046     		.align	2
 162              	.L15:
 163 0014 00000000 		.word	.LANCHOR0
 164              		.cfi_endproc
 165              	.LFE42:
 166              		.size	pwm_lld_init, .-pwm_lld_init
 167              		.global	__aeabi_uidiv
 168 0018 C046C046 		.section	.text.pwm_lld_start,"ax",%progbits
 168      C046C046 
 169              		.align	2
ARM GAS  C:\Users\Rob\AppData\Local\Temp\ccO4rU8D.s 			page 4


 170              		.p2align 4,,15
 171              		.global	pwm_lld_start
 172              		.code	16
 173              		.thumb_func
 174              		.type	pwm_lld_start, %function
 175              	pwm_lld_start:
 176              	.LFB43:
 177              		.loc 1 399 0
 178              		.cfi_startproc
 179 0000 70B5     		push	{r4, r5, r6, lr}
 180              	.LCFI2:
 181              		.cfi_def_cfa_offset 16
 182              		.cfi_offset 4, -16
 183              		.cfi_offset 5, -12
 184              		.cfi_offset 6, -8
 185              		.cfi_offset 14, -4
 186              	.LVL5:
 187              		.loc 1 403 0
 188 0002 0378     		ldrb	r3, [r0]
 189              		.loc 1 399 0
 190 0004 061C     		mov	r6, r0
 191              		.loc 1 403 0
 192 0006 012B     		cmp	r3, #1
 193 0008 00D1     		bne	.LCB139
 194 000a 6CE0     		b	.L35	@long jump
 195              	.LCB139:
 196              		.loc 1 484 0
 197 000c 4568     		ldr	r5, [r0, #4]
 198              		.loc 1 483 0
 199 000e 0469     		ldr	r4, [r0, #16]
 200              		.loc 1 484 0
 201 0010 2A6B     		ldr	r2, [r5, #48]
 202 0012 FF21     		mov	r1, #255
 203              		.loc 1 483 0
 204 0014 0023     		mov	r3, #0
 205              		.loc 1 484 0
 206 0016 8A43     		bic	r2, r1
 207              		.loc 1 483 0
 208 0018 2360     		str	r3, [r4]
 209              		.loc 1 484 0
 210 001a E260     		str	r2, [r4, #12]
 211              		.loc 1 486 0
 212 001c 2361     		str	r3, [r4, #16]
 213              		.loc 1 487 0
 214 001e 6363     		str	r3, [r4, #52]
 215              		.loc 1 488 0
 216 0020 A363     		str	r3, [r4, #56]
 217              		.loc 1 489 0
 218 0022 E363     		str	r3, [r4, #60]
 219              		.loc 1 490 0
 220 0024 2364     		str	r3, [r4, #64]
 221              		.loc 1 491 0
 222 0026 6362     		str	r3, [r4, #36]
 223              	.LVL6:
 224              	.L20:
 225              		.loc 1 495 0
 226 0028 F068     		ldr	r0, [r6, #12]
ARM GAS  C:\Users\Rob\AppData\Local\Temp\ccO4rU8D.s 			page 5


 227 002a 2968     		ldr	r1, [r5]
 228 002c FFF7FEFF 		bl	__aeabi_uidiv
 229              	.LVL7:
 230 0030 0138     		sub	r0, r0, #1
 231              		.loc 1 499 0
 232 0032 80B2     		uxth	r0, r0
 233 0034 A062     		str	r0, [r4, #40]
 234              		.loc 1 500 0
 235 0036 3389     		ldrh	r3, [r6, #8]
 236              		.loc 1 505 0
 237 0038 EA68     		ldr	r2, [r5, #12]
 238              		.loc 1 500 0
 239 003a 013B     		sub	r3, r3, #1
 240 003c 9BB2     		uxth	r3, r3
 241 003e E362     		str	r3, [r4, #44]
 242              		.loc 1 501 0
 243 0040 EB6A     		ldr	r3, [r5, #44]
 244 0042 6360     		str	r3, [r4, #4]
 245              	.LVL8:
 246              		.loc 1 505 0
 247 0044 0F23     		mov	r3, #15
 248 0046 1A40     		and	r2, r3
 249 0048 0123     		mov	r3, #1
 250 004a 012A     		cmp	r2, #1
 251 004c 05D0     		beq	.L21
 252              		.loc 1 504 0
 253 004e 023A     		sub	r2, r2, #2
 254 0050 5142     		neg	r1, r2
 255 0052 4A41     		adc	r2, r2, r1
 256              		.loc 1 505 0
 257 0054 0323     		mov	r3, #3
 258              		.loc 1 504 0
 259 0056 5242     		neg	r2, r2
 260 0058 1340     		and	r3, r2
 261              	.L21:
 262              	.LVL9:
 263              		.loc 1 513 0
 264 005a 6969     		ldr	r1, [r5, #20]
 265 005c 0F22     		mov	r2, #15
 266 005e 0A40     		and	r2, r1
 267 0060 012A     		cmp	r2, #1
 268 0062 1FD0     		beq	.L25
 269 0064 022A     		cmp	r2, #2
 270 0066 1BD0     		beq	.L36
 271              		.loc 1 521 0
 272 0068 E969     		ldr	r1, [r5, #28]
 273 006a 0F22     		mov	r2, #15
 274 006c 0A40     		and	r2, r1
 275 006e 012A     		cmp	r2, #1
 276 0070 1FD0     		beq	.L28
 277              	.LVL10:
 278              	.L39:
 279 0072 022A     		cmp	r2, #2
 280 0074 30D0     		beq	.L37
 281              	.LVL11:
 282              		.loc 1 529 0
 283 0076 696A     		ldr	r1, [r5, #36]
ARM GAS  C:\Users\Rob\AppData\Local\Temp\ccO4rU8D.s 			page 6


 284 0078 0F22     		mov	r2, #15
 285 007a 0A40     		and	r2, r1
 286 007c 012A     		cmp	r2, #1
 287 007e 20D0     		beq	.L31
 288              	.LVL12:
 289              	.L40:
 290 0080 022A     		cmp	r2, #2
 291 0082 22D0     		beq	.L38
 292              	.L30:
 293              	.LVL13:
 294              		.loc 1 574 0
 295 0084 2362     		str	r3, [r4, #32]
 296              		.loc 1 575 0
 297 0086 0123     		mov	r3, #1
 298              	.LVL14:
 299 0088 6361     		str	r3, [r4, #20]
 300              		.loc 1 576 0
 301 008a AB68     		ldr	r3, [r5, #8]
 302 008c E268     		ldr	r2, [r4, #12]
 303 008e 591E     		sub	r1, r3, #1
 304 0090 8B41     		sbc	r3, r3, r1
 305 0092 1343     		orr	r3, r2
 306 0094 E360     		str	r3, [r4, #12]
 307              		.loc 1 577 0
 308 0096 0023     		mov	r3, #0
 309 0098 2361     		str	r3, [r4, #16]
 310              		.loc 1 586 0
 311 009a 8523     		mov	r3, #133
 312 009c 2360     		str	r3, [r4]
 313              		.loc 1 588 0
 314              		@ sp needed for prologue
 315              	.LVL15:
 316              	.LVL16:
 317 009e 70BD     		pop	{r4, r5, r6, pc}
 318              	.LVL17:
 319              	.L36:
 320              		.loc 1 515 0
 321 00a0 2022     		mov	r2, #32
 322 00a2 1343     		orr	r3, r2
 323              	.LVL18:
 324              	.L25:
 325              		.loc 1 517 0
 326 00a4 1022     		mov	r2, #16
 327              		.loc 1 521 0
 328 00a6 E969     		ldr	r1, [r5, #28]
 329              		.loc 1 517 0
 330 00a8 1343     		orr	r3, r2
 331              	.LVL19:
 332              		.loc 1 521 0
 333 00aa 0F22     		mov	r2, #15
 334 00ac 0A40     		and	r2, r1
 335 00ae 012A     		cmp	r2, #1
 336 00b0 DFD1     		bne	.L39
 337              	.LVL20:
 338              	.L28:
 339              		.loc 1 525 0
 340 00b2 8022     		mov	r2, #128
ARM GAS  C:\Users\Rob\AppData\Local\Temp\ccO4rU8D.s 			page 7


 341 00b4 5200     		lsl	r2, r2, #1
 342 00b6 1343     		orr	r3, r2
 343              	.LVL21:
 344              	.L41:
 345              		.loc 1 529 0
 346 00b8 696A     		ldr	r1, [r5, #36]
 347 00ba 0F22     		mov	r2, #15
 348 00bc 0A40     		and	r2, r1
 349 00be 012A     		cmp	r2, #1
 350 00c0 DED1     		bne	.L40
 351              	.LVL22:
 352              	.L31:
 353              		.loc 1 533 0
 354 00c2 8022     		mov	r2, #128
 355 00c4 5201     		lsl	r2, r2, #5
 356 00c6 1343     		orr	r3, r2
 357              	.LVL23:
 358 00c8 DCE7     		b	.L30
 359              	.LVL24:
 360              	.L38:
 361              		.loc 1 531 0
 362 00ca 8022     		mov	r2, #128
 363 00cc 9201     		lsl	r2, r2, #6
 364 00ce 1343     		orr	r3, r2
 365              	.LVL25:
 366              		.loc 1 533 0
 367 00d0 8022     		mov	r2, #128
 368 00d2 5201     		lsl	r2, r2, #5
 369 00d4 1343     		orr	r3, r2
 370              	.LVL26:
 371 00d6 D5E7     		b	.L30
 372              	.LVL27:
 373              	.L37:
 374              		.loc 1 523 0
 375 00d8 8022     		mov	r2, #128
 376 00da 9200     		lsl	r2, r2, #2
 377 00dc 1343     		orr	r3, r2
 378              	.LVL28:
 379              		.loc 1 525 0
 380 00de 8022     		mov	r2, #128
 381 00e0 5200     		lsl	r2, r2, #1
 382 00e2 1343     		orr	r3, r2
 383              	.LVL29:
 384 00e4 E8E7     		b	.L41
 385              	.LVL30:
 386              	.L35:
 387              		.loc 1 417 0
 388 00e6 0C4A     		ldr	r2, .L43
 389 00e8 9042     		cmp	r0, r2
 390 00ea 05D0     		beq	.L42
 391              	.L19:
 392              		.loc 1 476 0
 393 00ec 3469     		ldr	r4, [r6, #16]
 394 00ee 0B4B     		ldr	r3, .L43+4
 395              		.loc 1 478 0
 396 00f0 7568     		ldr	r5, [r6, #4]
 397              		.loc 1 476 0
ARM GAS  C:\Users\Rob\AppData\Local\Temp\ccO4rU8D.s 			page 8


 398 00f2 A361     		str	r3, [r4, #24]
 399              		.loc 1 478 0
 400 00f4 E361     		str	r3, [r4, #28]
 401 00f6 97E7     		b	.L20
 402              	.L42:
 403              		.loc 1 418 0
 404 00f8 094A     		ldr	r2, .L43+8
 405              		.loc 1 420 0
 406 00fa 0F20     		mov	r0, #15
 407              		.loc 1 418 0
 408 00fc D169     		ldr	r1, [r2, #28]
 409 00fe 1943     		orr	r1, r3
 410 0100 D161     		str	r1, [r2, #28]
 411              		.loc 1 419 0
 412 0102 1169     		ldr	r1, [r2, #16]
 413 0104 0B43     		orr	r3, r1
 414 0106 1361     		str	r3, [r2, #16]
 415 0108 0023     		mov	r3, #0
 416 010a 1361     		str	r3, [r2, #16]
 417              		.loc 1 420 0
 418 010c C021     		mov	r1, #192
 419 010e FFF7FEFF 		bl	nvicEnableVector
 420              		.loc 1 422 0
 421 0112 044B     		ldr	r3, .L43+12
 422 0114 F360     		str	r3, [r6, #12]
 423 0116 E9E7     		b	.L19
 424              	.L44:
 425              		.align	2
 426              	.L43:
 427 0118 00000000 		.word	.LANCHOR0
 428 011c 68680101 		.word	16869480
 429 0120 00100240 		.word	1073876992
 430 0124 006CDC02 		.word	48000000
 431              		.cfi_endproc
 432              	.LFE43:
 433              		.size	pwm_lld_start, .-pwm_lld_start
 434 0128 C046C046 		.section	.text.pwm_lld_stop,"ax",%progbits
 434      C046C046 
 435              		.align	2
 436              		.p2align 4,,15
 437              		.global	pwm_lld_stop
 438              		.code	16
 439              		.thumb_func
 440              		.type	pwm_lld_stop, %function
 441              	pwm_lld_stop:
 442              	.LFB44:
 443              		.loc 1 597 0
 444              		.cfi_startproc
 445 0000 08B5     		push	{r3, lr}
 446              	.LCFI3:
 447              		.cfi_def_cfa_offset 8
 448              		.cfi_offset 3, -8
 449              		.cfi_offset 14, -4
 450              	.LVL31:
 451              		.loc 1 600 0
 452 0002 0378     		ldrb	r3, [r0]
 453 0004 022B     		cmp	r3, #2
ARM GAS  C:\Users\Rob\AppData\Local\Temp\ccO4rU8D.s 			page 9


 454 0006 00D0     		beq	.L47
 455              	.LVL32:
 456              	.L45:
 457              		.loc 1 653 0
 458              		@ sp needed for prologue
 459 0008 08BD     		pop	{r3, pc}
 460              	.LVL33:
 461              	.L47:
 462              		.loc 1 601 0
 463 000a 0369     		ldr	r3, [r0, #16]
 464 000c 0022     		mov	r2, #0
 465 000e 1A60     		str	r2, [r3]
 466              		.loc 1 602 0
 467 0010 DA60     		str	r2, [r3, #12]
 468              		.loc 1 603 0
 469 0012 1A61     		str	r2, [r3, #16]
 470              		.loc 1 616 0
 471 0014 054B     		ldr	r3, .L48
 472 0016 9842     		cmp	r0, r3
 473 0018 F6D1     		bne	.L45
 474              		.loc 1 617 0
 475 001a 0F20     		mov	r0, #15
 476              	.LVL34:
 477 001c FFF7FEFF 		bl	nvicDisableVector
 478              		.loc 1 618 0
 479 0020 034B     		ldr	r3, .L48+4
 480 0022 0121     		mov	r1, #1
 481 0024 DA69     		ldr	r2, [r3, #28]
 482 0026 8A43     		bic	r2, r1
 483 0028 DA61     		str	r2, [r3, #28]
 484 002a EDE7     		b	.L45
 485              	.L49:
 486              		.align	2
 487              	.L48:
 488 002c 00000000 		.word	.LANCHOR0
 489 0030 00100240 		.word	1073876992
 490              		.cfi_endproc
 491              	.LFE44:
 492              		.size	pwm_lld_stop, .-pwm_lld_stop
 493 0034 C046C046 		.section	.text.pwm_lld_enable_channel,"ax",%progbits
 493      C046C046 
 493      C046C046 
 494              		.align	2
 495              		.p2align 4,,15
 496              		.global	pwm_lld_enable_channel
 497              		.code	16
 498              		.thumb_func
 499              		.type	pwm_lld_enable_channel, %function
 500              	pwm_lld_enable_channel:
 501              	.LFB45:
 502              		.loc 1 669 0
 503              		.cfi_startproc
 504 0000 10B5     		push	{r4, lr}
 505              	.LCFI4:
 506              		.cfi_def_cfa_offset 8
 507              		.cfi_offset 4, -8
 508              		.cfi_offset 14, -4
ARM GAS  C:\Users\Rob\AppData\Local\Temp\ccO4rU8D.s 			page 10


 509              	.LVL35:
 510              		.loc 1 671 0
 511 0002 0C1C     		mov	r4, r1
 512 0004 0369     		ldr	r3, [r0, #16]
 513 0006 0C34     		add	r4, r4, #12
 514 0008 A400     		lsl	r4, r4, #2
 515 000a 1C19     		add	r4, r3, r4
 516 000c 6260     		str	r2, [r4, #4]
 517              		.loc 1 674 0
 518 000e 4068     		ldr	r0, [r0, #4]
 519              	.LVL36:
 520 0010 4A1C     		add	r2, r1, #1
 521              	.LVL37:
 522 0012 D200     		lsl	r2, r2, #3
 523 0014 8218     		add	r2, r0, r2
 524 0016 9268     		ldr	r2, [r2, #8]
 525 0018 002A     		cmp	r2, #0
 526 001a 08D0     		beq	.L50
 527              	.LBB8:
 528              		.loc 1 678 0
 529 001c 0220     		mov	r0, #2
 530              		.loc 1 675 0
 531 001e DA68     		ldr	r2, [r3, #12]
 532              	.LVL38:
 533              		.loc 1 678 0
 534 0020 8840     		lsl	r0, r0, r1
 535 0022 0242     		tst	r2, r0
 536 0024 03D1     		bne	.L50
 537              		.loc 1 679 0
 538 0026 0243     		orr	r2, r0
 539              	.LVL39:
 540              		.loc 1 680 0
 541 0028 C143     		mvn	r1, r0
 542              	.LVL40:
 543              		.loc 1 679 0
 544 002a DA60     		str	r2, [r3, #12]
 545              		.loc 1 680 0
 546 002c 1961     		str	r1, [r3, #16]
 547              	.L50:
 548              	.LBE8:
 549              		.loc 1 683 0
 550              		@ sp needed for prologue
 551 002e 10BD     		pop	{r4, pc}
 552              		.cfi_endproc
 553              	.LFE45:
 554              		.size	pwm_lld_enable_channel, .-pwm_lld_enable_channel
 555              		.section	.text.pwm_lld_disable_channel,"ax",%progbits
 556              		.align	2
 557              		.p2align 4,,15
 558              		.global	pwm_lld_disable_channel
 559              		.code	16
 560              		.thumb_func
 561              		.type	pwm_lld_disable_channel, %function
 562              	pwm_lld_disable_channel:
 563              	.LFB46:
 564              		.loc 1 697 0
 565              		.cfi_startproc
ARM GAS  C:\Users\Rob\AppData\Local\Temp\ccO4rU8D.s 			page 11


 566              	.LVL41:
 567              		.loc 1 699 0
 568 0000 0A1C     		mov	r2, r1
 569 0002 0369     		ldr	r3, [r0, #16]
 570 0004 0C32     		add	r2, r2, #12
 571 0006 9200     		lsl	r2, r2, #2
 572 0008 9A18     		add	r2, r3, r2
 573 000a 0020     		mov	r0, #0
 574              	.LVL42:
 575 000c 5060     		str	r0, [r2, #4]
 576              		.loc 1 700 0
 577 000e DA68     		ldr	r2, [r3, #12]
 578 0010 0220     		mov	r0, #2
 579 0012 8840     		lsl	r0, r0, r1
 580 0014 8243     		bic	r2, r0
 581 0016 DA60     		str	r2, [r3, #12]
 582              		.loc 1 701 0
 583              		@ sp needed for prologue
 584 0018 7047     		bx	lr
 585              		.cfi_endproc
 586              	.LFE46:
 587              		.size	pwm_lld_disable_channel, .-pwm_lld_disable_channel
 588              		.global	PWMD2
 589 001a C046C046 		.section	.bss.PWMD2,"aw",%nobits
 589      C046
 590              		.align	2
 591              		.set	.LANCHOR0,. + 0
 592              		.type	PWMD2, %object
 593              		.size	PWMD2, 20
 594              	PWMD2:
 595 0000 00000000 		.space	20
 595      00000000 
 595      00000000 
 595      00000000 
 595      00000000 
 596              		.text
 597              	.Letext0:
 598              		.file 2 "c:/yagarto/lib/gcc/../../arm-none-eabi/sys-include/stdint.h"
 599              		.file 3 "../../os/ports/GCC/ARMCMx/chcore_v6m.h"
 600              		.file 4 "../../os/hal/platforms/STM32F0xx/stm32f0xx.h"
 601              		.file 5 "../../os/hal/include/pwm.h"
 602              		.file 6 "../../os/hal/platforms/STM32/TIMv1/pwm_lld.h"
 603              		.file 7 "../../os/hal/platforms/STM32/TIMv1/stm32_tim.h"
 604              		.section	.debug_info,"",%progbits
 605              	.Ldebug_info0:
 606 0000 4A060000 		.4byte	0x64a
 607 0004 0200     		.2byte	0x2
 608 0006 00000000 		.4byte	.Ldebug_abbrev0
 609 000a 04       		.byte	0x4
 610 000b 01       		.uleb128 0x1
 611 000c 3F020000 		.4byte	.LASF68
 612 0010 01       		.byte	0x1
 613 0011 64000000 		.4byte	.LASF69
 614 0015 02020000 		.4byte	.LASF70
 615 0019 00000000 		.4byte	0
 616 001d 00000000 		.4byte	0
 617 0021 30000000 		.4byte	.Ldebug_ranges0+0x30
ARM GAS  C:\Users\Rob\AppData\Local\Temp\ccO4rU8D.s 			page 12


 618 0025 00000000 		.4byte	.Ldebug_line0
 619 0029 02       		.uleb128 0x2
 620 002a 04       		.byte	0x4
 621 002b 05       		.byte	0x5
 622 002c 696E7400 		.ascii	"int\000"
 623 0030 03       		.uleb128 0x3
 624 0031 04       		.byte	0x4
 625 0032 07       		.byte	0x7
 626 0033 8F010000 		.4byte	.LASF0
 627 0037 03       		.uleb128 0x3
 628 0038 01       		.byte	0x1
 629 0039 06       		.byte	0x6
 630 003a 6C010000 		.4byte	.LASF1
 631 003e 04       		.uleb128 0x4
 632 003f A6000000 		.4byte	.LASF4
 633 0043 02       		.byte	0x2
 634 0044 2A       		.byte	0x2a
 635 0045 49000000 		.4byte	0x49
 636 0049 03       		.uleb128 0x3
 637 004a 01       		.byte	0x1
 638 004b 08       		.byte	0x8
 639 004c 51010000 		.4byte	.LASF2
 640 0050 03       		.uleb128 0x3
 641 0051 02       		.byte	0x2
 642 0052 05       		.byte	0x5
 643 0053 31000000 		.4byte	.LASF3
 644 0057 04       		.uleb128 0x4
 645 0058 ED010000 		.4byte	.LASF5
 646 005c 02       		.byte	0x2
 647 005d 36       		.byte	0x36
 648 005e 62000000 		.4byte	0x62
 649 0062 03       		.uleb128 0x3
 650 0063 02       		.byte	0x2
 651 0064 07       		.byte	0x7
 652 0065 CD010000 		.4byte	.LASF6
 653 0069 03       		.uleb128 0x3
 654 006a 04       		.byte	0x4
 655 006b 05       		.byte	0x5
 656 006c CF020000 		.4byte	.LASF7
 657 0070 04       		.uleb128 0x4
 658 0071 B6000000 		.4byte	.LASF8
 659 0075 02       		.byte	0x2
 660 0076 50       		.byte	0x50
 661 0077 7B000000 		.4byte	0x7b
 662 007b 03       		.uleb128 0x3
 663 007c 04       		.byte	0x4
 664 007d 07       		.byte	0x7
 665 007e 65020000 		.4byte	.LASF9
 666 0082 03       		.uleb128 0x3
 667 0083 08       		.byte	0x8
 668 0084 05       		.byte	0x5
 669 0085 DC000000 		.4byte	.LASF10
 670 0089 03       		.uleb128 0x3
 671 008a 08       		.byte	0x8
 672 008b 07       		.byte	0x7
 673 008c 78010000 		.4byte	.LASF11
 674 0090 03       		.uleb128 0x3
ARM GAS  C:\Users\Rob\AppData\Local\Temp\ccO4rU8D.s 			page 13


 675 0091 01       		.byte	0x1
 676 0092 02       		.byte	0x2
 677 0093 4B020000 		.4byte	.LASF12
 678 0097 04       		.uleb128 0x4
 679 0098 9D000000 		.4byte	.LASF13
 680 009c 03       		.byte	0x3
 681 009d A0       		.byte	0xa0
 682 009e A2000000 		.4byte	0xa2
 683 00a2 05       		.uleb128 0x5
 684 00a3 04       		.byte	0x4
 685 00a4 06       		.uleb128 0x6
 686 00a5 70000000 		.4byte	0x70
 687 00a9 03       		.uleb128 0x3
 688 00aa 01       		.byte	0x1
 689 00ab 08       		.byte	0x8
 690 00ac EA000000 		.4byte	.LASF14
 691 00b0 07       		.uleb128 0x7
 692 00b1 70000000 		.4byte	0x70
 693 00b5 C0000000 		.4byte	0xc0
 694 00b9 08       		.uleb128 0x8
 695 00ba 30000000 		.4byte	0x30
 696 00be 03       		.byte	0x3
 697 00bf 00       		.byte	0
 698 00c0 09       		.uleb128 0x9
 699 00c1 38       		.byte	0x38
 700 00c2 04       		.byte	0x4
 701 00c3 DC01     		.2byte	0x1dc
 702 00c5 9B010000 		.4byte	0x19b
 703 00c9 0A       		.uleb128 0xa
 704 00ca 435200   		.ascii	"CR\000"
 705 00cd 04       		.byte	0x4
 706 00ce DE01     		.2byte	0x1de
 707 00d0 A4000000 		.4byte	0xa4
 708 00d4 02       		.byte	0x2
 709 00d5 23       		.byte	0x23
 710 00d6 00       		.uleb128 0
 711 00d7 0B       		.uleb128 0xb
 712 00d8 98000000 		.4byte	.LASF15
 713 00dc 04       		.byte	0x4
 714 00dd DF01     		.2byte	0x1df
 715 00df A4000000 		.4byte	0xa4
 716 00e3 02       		.byte	0x2
 717 00e4 23       		.byte	0x23
 718 00e5 04       		.uleb128 0x4
 719 00e6 0A       		.uleb128 0xa
 720 00e7 43495200 		.ascii	"CIR\000"
 721 00eb 04       		.byte	0x4
 722 00ec E001     		.2byte	0x1e0
 723 00ee A4000000 		.4byte	0xa4
 724 00f2 02       		.byte	0x2
 725 00f3 23       		.byte	0x23
 726 00f4 08       		.uleb128 0x8
 727 00f5 0B       		.uleb128 0xb
 728 00f6 15010000 		.4byte	.LASF16
 729 00fa 04       		.byte	0x4
 730 00fb E101     		.2byte	0x1e1
 731 00fd A4000000 		.4byte	0xa4
ARM GAS  C:\Users\Rob\AppData\Local\Temp\ccO4rU8D.s 			page 14


 732 0101 02       		.byte	0x2
 733 0102 23       		.byte	0x23
 734 0103 0C       		.uleb128 0xc
 735 0104 0B       		.uleb128 0xb
 736 0105 05000000 		.4byte	.LASF17
 737 0109 04       		.byte	0x4
 738 010a E201     		.2byte	0x1e2
 739 010c A4000000 		.4byte	0xa4
 740 0110 02       		.byte	0x2
 741 0111 23       		.byte	0x23
 742 0112 10       		.uleb128 0x10
 743 0113 0B       		.uleb128 0xb
 744 0114 0E010000 		.4byte	.LASF18
 745 0118 04       		.byte	0x4
 746 0119 E301     		.2byte	0x1e3
 747 011b A4000000 		.4byte	0xa4
 748 011f 02       		.byte	0x2
 749 0120 23       		.byte	0x23
 750 0121 14       		.uleb128 0x14
 751 0122 0B       		.uleb128 0xb
 752 0123 5F010000 		.4byte	.LASF19
 753 0127 04       		.byte	0x4
 754 0128 E401     		.2byte	0x1e4
 755 012a A4000000 		.4byte	0xa4
 756 012e 02       		.byte	0x2
 757 012f 23       		.byte	0x23
 758 0130 18       		.uleb128 0x18
 759 0131 0B       		.uleb128 0xb
 760 0132 AE000000 		.4byte	.LASF20
 761 0136 04       		.byte	0x4
 762 0137 E501     		.2byte	0x1e5
 763 0139 A4000000 		.4byte	0xa4
 764 013d 02       		.byte	0x2
 765 013e 23       		.byte	0x23
 766 013f 1C       		.uleb128 0x1c
 767 0140 0B       		.uleb128 0xb
 768 0141 44000000 		.4byte	.LASF21
 769 0145 04       		.byte	0x4
 770 0146 E601     		.2byte	0x1e6
 771 0148 A4000000 		.4byte	0xa4
 772 014c 02       		.byte	0x2
 773 014d 23       		.byte	0x23
 774 014e 20       		.uleb128 0x20
 775 014f 0A       		.uleb128 0xa
 776 0150 43535200 		.ascii	"CSR\000"
 777 0154 04       		.byte	0x4
 778 0155 E701     		.2byte	0x1e7
 779 0157 A4000000 		.4byte	0xa4
 780 015b 02       		.byte	0x2
 781 015c 23       		.byte	0x23
 782 015d 24       		.uleb128 0x24
 783 015e 0B       		.uleb128 0xb
 784 015f D4000000 		.4byte	.LASF22
 785 0163 04       		.byte	0x4
 786 0164 E801     		.2byte	0x1e8
 787 0166 A4000000 		.4byte	0xa4
 788 016a 02       		.byte	0x2
ARM GAS  C:\Users\Rob\AppData\Local\Temp\ccO4rU8D.s 			page 15


 789 016b 23       		.byte	0x23
 790 016c 28       		.uleb128 0x28
 791 016d 0B       		.uleb128 0xb
 792 016e 9C010000 		.4byte	.LASF23
 793 0172 04       		.byte	0x4
 794 0173 E901     		.2byte	0x1e9
 795 0175 A4000000 		.4byte	0xa4
 796 0179 02       		.byte	0x2
 797 017a 23       		.byte	0x23
 798 017b 2C       		.uleb128 0x2c
 799 017c 0B       		.uleb128 0xb
 800 017d A2010000 		.4byte	.LASF24
 801 0181 04       		.byte	0x4
 802 0182 EA01     		.2byte	0x1ea
 803 0184 A4000000 		.4byte	0xa4
 804 0188 02       		.byte	0x2
 805 0189 23       		.byte	0x23
 806 018a 30       		.uleb128 0x30
 807 018b 0A       		.uleb128 0xa
 808 018c 43523200 		.ascii	"CR2\000"
 809 0190 04       		.byte	0x4
 810 0191 EB01     		.2byte	0x1eb
 811 0193 A4000000 		.4byte	0xa4
 812 0197 02       		.byte	0x2
 813 0198 23       		.byte	0x23
 814 0199 34       		.uleb128 0x34
 815 019a 00       		.byte	0
 816 019b 0C       		.uleb128 0xc
 817 019c 02010000 		.4byte	.LASF25
 818 01a0 04       		.byte	0x4
 819 01a1 EC01     		.2byte	0x1ec
 820 01a3 C0000000 		.4byte	0xc0
 821 01a7 0D       		.uleb128 0xd
 822 01a8 01       		.byte	0x1
 823 01a9 05       		.byte	0x5
 824 01aa 4E       		.byte	0x4e
 825 01ab C2010000 		.4byte	0x1c2
 826 01af 0E       		.uleb128 0xe
 827 01b0 46010000 		.4byte	.LASF26
 828 01b4 00       		.sleb128 0
 829 01b5 0E       		.uleb128 0xe
 830 01b6 96020000 		.4byte	.LASF27
 831 01ba 01       		.sleb128 1
 832 01bb 0E       		.uleb128 0xe
 833 01bc 8C020000 		.4byte	.LASF28
 834 01c0 02       		.sleb128 2
 835 01c1 00       		.byte	0
 836 01c2 04       		.uleb128 0x4
 837 01c3 D8020000 		.4byte	.LASF29
 838 01c7 05       		.byte	0x5
 839 01c8 52       		.byte	0x52
 840 01c9 A7010000 		.4byte	0x1a7
 841 01cd 04       		.uleb128 0x4
 842 01ce 35020000 		.4byte	.LASF30
 843 01d2 05       		.byte	0x5
 844 01d3 57       		.byte	0x57
 845 01d4 D8010000 		.4byte	0x1d8
ARM GAS  C:\Users\Rob\AppData\Local\Temp\ccO4rU8D.s 			page 16


 846 01d8 0F       		.uleb128 0xf
 847 01d9 35020000 		.4byte	.LASF30
 848 01dd 14       		.byte	0x14
 849 01de 06       		.byte	0x6
 850 01df 6F01     		.2byte	0x16f
 851 01e1 31020000 		.4byte	0x231
 852 01e5 0B       		.uleb128 0xb
 853 01e6 86020000 		.4byte	.LASF31
 854 01ea 06       		.byte	0x6
 855 01eb 7301     		.2byte	0x173
 856 01ed C2010000 		.4byte	0x1c2
 857 01f1 02       		.byte	0x2
 858 01f2 23       		.byte	0x23
 859 01f3 00       		.uleb128 0
 860 01f4 0B       		.uleb128 0xb
 861 01f5 91000000 		.4byte	.LASF32
 862 01f9 06       		.byte	0x6
 863 01fa 7701     		.2byte	0x177
 864 01fc 80040000 		.4byte	0x480
 865 0200 02       		.byte	0x2
 866 0201 23       		.byte	0x23
 867 0202 04       		.uleb128 0x4
 868 0203 0B       		.uleb128 0xb
 869 0204 5E020000 		.4byte	.LASF33
 870 0208 06       		.byte	0x6
 871 0209 7B01     		.2byte	0x17b
 872 020b C0030000 		.4byte	0x3c0
 873 020f 02       		.byte	0x2
 874 0210 23       		.byte	0x23
 875 0211 08       		.uleb128 0x8
 876 0212 0B       		.uleb128 0xb
 877 0213 77020000 		.4byte	.LASF34
 878 0217 06       		.byte	0x6
 879 0218 8301     		.2byte	0x183
 880 021a 70000000 		.4byte	0x70
 881 021e 02       		.byte	0x2
 882 021f 23       		.byte	0x23
 883 0220 0C       		.uleb128 0xc
 884 0221 0A       		.uleb128 0xa
 885 0222 74696D00 		.ascii	"tim\000"
 886 0226 06       		.byte	0x6
 887 0227 8701     		.2byte	0x187
 888 0229 8B040000 		.4byte	0x48b
 889 022d 02       		.byte	0x2
 890 022e 23       		.byte	0x23
 891 022f 10       		.uleb128 0x10
 892 0230 00       		.byte	0
 893 0231 04       		.uleb128 0x4
 894 0232 BF010000 		.4byte	.LASF35
 895 0236 05       		.byte	0x5
 896 0237 5E       		.byte	0x5e
 897 0238 3C020000 		.4byte	0x23c
 898 023c 10       		.uleb128 0x10
 899 023d 04       		.byte	0x4
 900 023e 42020000 		.4byte	0x242
 901 0242 11       		.uleb128 0x11
 902 0243 01       		.byte	0x1
ARM GAS  C:\Users\Rob\AppData\Local\Temp\ccO4rU8D.s 			page 17


 903 0244 4E020000 		.4byte	0x24e
 904 0248 12       		.uleb128 0x12
 905 0249 4E020000 		.4byte	0x24e
 906 024d 00       		.byte	0
 907 024e 10       		.uleb128 0x10
 908 024f 04       		.byte	0x4
 909 0250 CD010000 		.4byte	0x1cd
 910 0254 09       		.uleb128 0x9
 911 0255 60       		.byte	0x60
 912 0256 07       		.byte	0x7
 913 0257 9E01     		.2byte	0x19e
 914 0259 97030000 		.4byte	0x397
 915 025d 0A       		.uleb128 0xa
 916 025e 43523100 		.ascii	"CR1\000"
 917 0262 07       		.byte	0x7
 918 0263 9F01     		.2byte	0x19f
 919 0265 A4000000 		.4byte	0xa4
 920 0269 02       		.byte	0x2
 921 026a 23       		.byte	0x23
 922 026b 00       		.uleb128 0
 923 026c 0A       		.uleb128 0xa
 924 026d 43523200 		.ascii	"CR2\000"
 925 0271 07       		.byte	0x7
 926 0272 A001     		.2byte	0x1a0
 927 0274 A4000000 		.4byte	0xa4
 928 0278 02       		.byte	0x2
 929 0279 23       		.byte	0x23
 930 027a 04       		.uleb128 0x4
 931 027b 0B       		.uleb128 0xb
 932 027c 41010000 		.4byte	.LASF36
 933 0280 07       		.byte	0x7
 934 0281 A101     		.2byte	0x1a1
 935 0283 A4000000 		.4byte	0xa4
 936 0287 02       		.byte	0x2
 937 0288 23       		.byte	0x23
 938 0289 08       		.uleb128 0x8
 939 028a 0B       		.uleb128 0xb
 940 028b BA010000 		.4byte	.LASF37
 941 028f 07       		.byte	0x7
 942 0290 A201     		.2byte	0x1a2
 943 0292 A4000000 		.4byte	0xa4
 944 0296 02       		.byte	0x2
 945 0297 23       		.byte	0x23
 946 0298 0C       		.uleb128 0xc
 947 0299 0A       		.uleb128 0xa
 948 029a 535200   		.ascii	"SR\000"
 949 029d 07       		.byte	0x7
 950 029e A301     		.2byte	0x1a3
 951 02a0 A4000000 		.4byte	0xa4
 952 02a4 02       		.byte	0x2
 953 02a5 23       		.byte	0x23
 954 02a6 10       		.uleb128 0x10
 955 02a7 0A       		.uleb128 0xa
 956 02a8 45475200 		.ascii	"EGR\000"
 957 02ac 07       		.byte	0x7
 958 02ad A401     		.2byte	0x1a4
 959 02af A4000000 		.4byte	0xa4
ARM GAS  C:\Users\Rob\AppData\Local\Temp\ccO4rU8D.s 			page 18


 960 02b3 02       		.byte	0x2
 961 02b4 23       		.byte	0x23
 962 02b5 14       		.uleb128 0x14
 963 02b6 0B       		.uleb128 0xb
 964 02b7 25000000 		.4byte	.LASF38
 965 02bb 07       		.byte	0x7
 966 02bc A501     		.2byte	0x1a5
 967 02be A4000000 		.4byte	0xa4
 968 02c2 02       		.byte	0x2
 969 02c3 23       		.byte	0x23
 970 02c4 18       		.uleb128 0x18
 971 02c5 0B       		.uleb128 0xb
 972 02c6 2B000000 		.4byte	.LASF39
 973 02ca 07       		.byte	0x7
 974 02cb A601     		.2byte	0x1a6
 975 02cd A4000000 		.4byte	0xa4
 976 02d1 02       		.byte	0x2
 977 02d2 23       		.byte	0x23
 978 02d3 1C       		.uleb128 0x1c
 979 02d4 0B       		.uleb128 0xb
 980 02d5 00000000 		.4byte	.LASF40
 981 02d9 07       		.byte	0x7
 982 02da A701     		.2byte	0x1a7
 983 02dc A4000000 		.4byte	0xa4
 984 02e0 02       		.byte	0x2
 985 02e1 23       		.byte	0x23
 986 02e2 20       		.uleb128 0x20
 987 02e3 0A       		.uleb128 0xa
 988 02e4 434E5400 		.ascii	"CNT\000"
 989 02e8 07       		.byte	0x7
 990 02e9 A801     		.2byte	0x1a8
 991 02eb A4000000 		.4byte	0xa4
 992 02ef 02       		.byte	0x2
 993 02f0 23       		.byte	0x23
 994 02f1 24       		.uleb128 0x24
 995 02f2 0A       		.uleb128 0xa
 996 02f3 50534300 		.ascii	"PSC\000"
 997 02f7 07       		.byte	0x7
 998 02f8 A901     		.2byte	0x1a9
 999 02fa A4000000 		.4byte	0xa4
 1000 02fe 02       		.byte	0x2
 1001 02ff 23       		.byte	0x23
 1002 0300 28       		.uleb128 0x28
 1003 0301 0A       		.uleb128 0xa
 1004 0302 41525200 		.ascii	"ARR\000"
 1005 0306 07       		.byte	0x7
 1006 0307 AA01     		.2byte	0x1aa
 1007 0309 A4000000 		.4byte	0xa4
 1008 030d 02       		.byte	0x2
 1009 030e 23       		.byte	0x23
 1010 030f 2C       		.uleb128 0x2c
 1011 0310 0A       		.uleb128 0xa
 1012 0311 52435200 		.ascii	"RCR\000"
 1013 0315 07       		.byte	0x7
 1014 0316 AB01     		.2byte	0x1ab
 1015 0318 A4000000 		.4byte	0xa4
 1016 031c 02       		.byte	0x2
ARM GAS  C:\Users\Rob\AppData\Local\Temp\ccO4rU8D.s 			page 19


 1017 031d 23       		.byte	0x23
 1018 031e 30       		.uleb128 0x30
 1019 031f 0A       		.uleb128 0xa
 1020 0320 43435200 		.ascii	"CCR\000"
 1021 0324 07       		.byte	0x7
 1022 0325 AC01     		.2byte	0x1ac
 1023 0327 97030000 		.4byte	0x397
 1024 032b 02       		.byte	0x2
 1025 032c 23       		.byte	0x23
 1026 032d 34       		.uleb128 0x34
 1027 032e 0B       		.uleb128 0xb
 1028 032f B5010000 		.4byte	.LASF41
 1029 0333 07       		.byte	0x7
 1030 0334 AD01     		.2byte	0x1ad
 1031 0336 A4000000 		.4byte	0xa4
 1032 033a 02       		.byte	0x2
 1033 033b 23       		.byte	0x23
 1034 033c 44       		.uleb128 0x44
 1035 033d 0A       		.uleb128 0xa
 1036 033e 44435200 		.ascii	"DCR\000"
 1037 0342 07       		.byte	0x7
 1038 0343 AE01     		.2byte	0x1ae
 1039 0345 A4000000 		.4byte	0xa4
 1040 0349 02       		.byte	0x2
 1041 034a 23       		.byte	0x23
 1042 034b 48       		.uleb128 0x48
 1043 034c 0B       		.uleb128 0xb
 1044 034d 59020000 		.4byte	.LASF42
 1045 0351 07       		.byte	0x7
 1046 0352 AF01     		.2byte	0x1af
 1047 0354 A4000000 		.4byte	0xa4
 1048 0358 02       		.byte	0x2
 1049 0359 23       		.byte	0x23
 1050 035a 4C       		.uleb128 0x4c
 1051 035b 0A       		.uleb128 0xa
 1052 035c 4F5200   		.ascii	"OR\000"
 1053 035f 07       		.byte	0x7
 1054 0360 B001     		.2byte	0x1b0
 1055 0362 A4000000 		.4byte	0xa4
 1056 0366 02       		.byte	0x2
 1057 0367 23       		.byte	0x23
 1058 0368 50       		.uleb128 0x50
 1059 0369 0B       		.uleb128 0xb
 1060 036a 36010000 		.4byte	.LASF43
 1061 036e 07       		.byte	0x7
 1062 036f B101     		.2byte	0x1b1
 1063 0371 A4000000 		.4byte	0xa4
 1064 0375 02       		.byte	0x2
 1065 0376 23       		.byte	0x23
 1066 0377 54       		.uleb128 0x54
 1067 0378 0B       		.uleb128 0xb
 1068 0379 FD000000 		.4byte	.LASF44
 1069 037d 07       		.byte	0x7
 1070 037e B201     		.2byte	0x1b2
 1071 0380 A4000000 		.4byte	0xa4
 1072 0384 02       		.byte	0x2
 1073 0385 23       		.byte	0x23
ARM GAS  C:\Users\Rob\AppData\Local\Temp\ccO4rU8D.s 			page 20


 1074 0386 58       		.uleb128 0x58
 1075 0387 0B       		.uleb128 0xb
 1076 0388 67010000 		.4byte	.LASF45
 1077 038c 07       		.byte	0x7
 1078 038d B301     		.2byte	0x1b3
 1079 038f A4000000 		.4byte	0xa4
 1080 0393 02       		.byte	0x2
 1081 0394 23       		.byte	0x23
 1082 0395 5C       		.uleb128 0x5c
 1083 0396 00       		.byte	0
 1084 0397 06       		.uleb128 0x6
 1085 0398 B0000000 		.4byte	0xb0
 1086 039c 0C       		.uleb128 0xc
 1087 039d F6010000 		.4byte	.LASF46
 1088 03a1 07       		.byte	0x7
 1089 03a2 B401     		.2byte	0x1b4
 1090 03a4 54020000 		.4byte	0x254
 1091 03a8 0C       		.uleb128 0xc
 1092 03a9 C5020000 		.4byte	.LASF47
 1093 03ad 06       		.byte	0x6
 1094 03ae 2001     		.2byte	0x120
 1095 03b0 70000000 		.4byte	0x70
 1096 03b4 0C       		.uleb128 0xc
 1097 03b5 49000000 		.4byte	.LASF48
 1098 03b9 06       		.byte	0x6
 1099 03ba 2501     		.2byte	0x125
 1100 03bc 3E000000 		.4byte	0x3e
 1101 03c0 0C       		.uleb128 0xc
 1102 03c1 3B000000 		.4byte	.LASF49
 1103 03c5 06       		.byte	0x6
 1104 03c6 2A01     		.2byte	0x12a
 1105 03c8 57000000 		.4byte	0x57
 1106 03cc 09       		.uleb128 0x9
 1107 03cd 08       		.byte	0x8
 1108 03ce 06       		.byte	0x6
 1109 03cf 2F01     		.2byte	0x12f
 1110 03d1 F4030000 		.4byte	0x3f4
 1111 03d5 0B       		.uleb128 0xb
 1112 03d6 56000000 		.4byte	.LASF50
 1113 03da 06       		.byte	0x6
 1114 03db 3301     		.2byte	0x133
 1115 03dd A8030000 		.4byte	0x3a8
 1116 03e1 02       		.byte	0x2
 1117 03e2 23       		.byte	0x23
 1118 03e3 00       		.uleb128 0
 1119 03e4 0B       		.uleb128 0xb
 1120 03e5 FB020000 		.4byte	.LASF51
 1121 03e9 06       		.byte	0x6
 1122 03ea 3901     		.2byte	0x139
 1123 03ec 31020000 		.4byte	0x231
 1124 03f0 02       		.byte	0x2
 1125 03f1 23       		.byte	0x23
 1126 03f2 04       		.uleb128 0x4
 1127 03f3 00       		.byte	0
 1128 03f4 0C       		.uleb128 0xc
 1129 03f5 B4020000 		.4byte	.LASF52
 1130 03f9 06       		.byte	0x6
ARM GAS  C:\Users\Rob\AppData\Local\Temp\ccO4rU8D.s 			page 21


 1131 03fa 3B01     		.2byte	0x13b
 1132 03fc CC030000 		.4byte	0x3cc
 1133 0400 09       		.uleb128 0x9
 1134 0401 34       		.byte	0x34
 1135 0402 06       		.byte	0x6
 1136 0403 4001     		.2byte	0x140
 1137 0405 64040000 		.4byte	0x464
 1138 0409 0B       		.uleb128 0xb
 1139 040a A4020000 		.4byte	.LASF53
 1140 040e 06       		.byte	0x6
 1141 040f 4601     		.2byte	0x146
 1142 0411 70000000 		.4byte	0x70
 1143 0415 02       		.byte	0x2
 1144 0416 23       		.byte	0x23
 1145 0417 00       		.uleb128 0
 1146 0418 0B       		.uleb128 0xb
 1147 0419 5E020000 		.4byte	.LASF33
 1148 041d 06       		.byte	0x6
 1149 041e 4C01     		.2byte	0x14c
 1150 0420 C0030000 		.4byte	0x3c0
 1151 0424 02       		.byte	0x2
 1152 0425 23       		.byte	0x23
 1153 0426 04       		.uleb128 0x4
 1154 0427 0B       		.uleb128 0xb
 1155 0428 FB020000 		.4byte	.LASF51
 1156 042c 06       		.byte	0x6
 1157 042d 5201     		.2byte	0x152
 1158 042f 31020000 		.4byte	0x231
 1159 0433 02       		.byte	0x2
 1160 0434 23       		.byte	0x23
 1161 0435 08       		.uleb128 0x8
 1162 0436 0B       		.uleb128 0xb
 1163 0437 5B000000 		.4byte	.LASF54
 1164 043b 06       		.byte	0x6
 1165 043c 5601     		.2byte	0x156
 1166 043e 64040000 		.4byte	0x464
 1167 0442 02       		.byte	0x2
 1168 0443 23       		.byte	0x23
 1169 0444 0C       		.uleb128 0xc
 1170 0445 0A       		.uleb128 0xa
 1171 0446 63723200 		.ascii	"cr2\000"
 1172 044a 06       		.byte	0x6
 1173 044b 5C01     		.2byte	0x15c
 1174 044d 70000000 		.4byte	0x70
 1175 0451 02       		.byte	0x2
 1176 0452 23       		.byte	0x23
 1177 0453 2C       		.uleb128 0x2c
 1178 0454 0B       		.uleb128 0xb
 1179 0455 9F020000 		.4byte	.LASF55
 1180 0459 06       		.byte	0x6
 1181 045a 6901     		.2byte	0x169
 1182 045c 70000000 		.4byte	0x70
 1183 0460 02       		.byte	0x2
 1184 0461 23       		.byte	0x23
 1185 0462 30       		.uleb128 0x30
 1186 0463 00       		.byte	0
 1187 0464 07       		.uleb128 0x7
ARM GAS  C:\Users\Rob\AppData\Local\Temp\ccO4rU8D.s 			page 22


 1188 0465 F4030000 		.4byte	0x3f4
 1189 0469 74040000 		.4byte	0x474
 1190 046d 08       		.uleb128 0x8
 1191 046e 30000000 		.4byte	0x30
 1192 0472 03       		.byte	0x3
 1193 0473 00       		.byte	0
 1194 0474 0C       		.uleb128 0xc
 1195 0475 BF000000 		.4byte	.LASF56
 1196 0479 06       		.byte	0x6
 1197 047a 6A01     		.2byte	0x16a
 1198 047c 00040000 		.4byte	0x400
 1199 0480 10       		.uleb128 0x10
 1200 0481 04       		.byte	0x4
 1201 0482 86040000 		.4byte	0x486
 1202 0486 13       		.uleb128 0x13
 1203 0487 74040000 		.4byte	0x474
 1204 048b 10       		.uleb128 0x10
 1205 048c 04       		.byte	0x4
 1206 048d 9C030000 		.4byte	0x39c
 1207 0491 14       		.uleb128 0x14
 1208 0492 E3020000 		.4byte	.LASF71
 1209 0496 01       		.byte	0x1
 1210 0497 70       		.byte	0x70
 1211 0498 01       		.byte	0x1
 1212 0499 01       		.byte	0x1
 1213 049a B4040000 		.4byte	0x4b4
 1214 049e 15       		.uleb128 0x15
 1215 049f 3C010000 		.4byte	.LASF62
 1216 04a3 01       		.byte	0x1
 1217 04a4 70       		.byte	0x70
 1218 04a5 4E020000 		.4byte	0x24e
 1219 04a9 16       		.uleb128 0x16
 1220 04aa 737200   		.ascii	"sr\000"
 1221 04ad 01       		.byte	0x1
 1222 04ae 71       		.byte	0x71
 1223 04af 57000000 		.4byte	0x57
 1224 04b3 00       		.byte	0
 1225 04b4 17       		.uleb128 0x17
 1226 04b5 01       		.byte	0x1
 1227 04b6 7D020000 		.4byte	.LASF57
 1228 04ba 01       		.byte	0x1
 1229 04bb C5       		.byte	0xc5
 1230 04bc 01       		.byte	0x1
 1231 04bd 00000000 		.4byte	.LFB41
 1232 04c1 68000000 		.4byte	.LFE41
 1233 04c5 00000000 		.4byte	.LLST0
 1234 04c9 08050000 		.4byte	0x508
 1235 04cd 18       		.uleb128 0x18
 1236 04ce 04030000 		.4byte	.LASF59
 1237 04d2 01       		.byte	0x1
 1238 04d3 C7       		.byte	0xc7
 1239 04d4 97000000 		.4byte	0x97
 1240 04d8 20000000 		.4byte	.LLST1
 1241 04dc 19       		.uleb128 0x19
 1242 04dd 91040000 		.4byte	0x491
 1243 04e1 04000000 		.4byte	.LBB4
 1244 04e5 00000000 		.4byte	.Ldebug_ranges0+0
ARM GAS  C:\Users\Rob\AppData\Local\Temp\ccO4rU8D.s 			page 23


 1245 04e9 01       		.byte	0x1
 1246 04ea C9       		.byte	0xc9
 1247 04eb 1A       		.uleb128 0x1a
 1248 04ec 18000000 		.4byte	.Ldebug_ranges0+0x18
 1249 04f0 1B       		.uleb128 0x1b
 1250 04f1 A9040000 		.4byte	0x4a9
 1251 04f5 3E000000 		.4byte	.LLST2
 1252 04f9 1C       		.uleb128 0x1c
 1253 04fa 9E040000 		.4byte	0x49e
 1254 04fe 06       		.byte	0x6
 1255 04ff 03       		.byte	0x3
 1256 0500 00000000 		.4byte	PWMD2
 1257 0504 9F       		.byte	0x9f
 1258 0505 00       		.byte	0
 1259 0506 00       		.byte	0
 1260 0507 00       		.byte	0
 1261 0508 1D       		.uleb128 0x1d
 1262 0509 01       		.byte	0x1
 1263 050a E0010000 		.4byte	.LASF72
 1264 050e 01       		.byte	0x1
 1265 050f 5901     		.2byte	0x159
 1266 0511 01       		.byte	0x1
 1267 0512 00000000 		.4byte	.LFB42
 1268 0516 18000000 		.4byte	.LFE42
 1269 051a 51000000 		.4byte	.LLST3
 1270 051e 1E       		.uleb128 0x1e
 1271 051f 01       		.byte	0x1
 1272 0520 EF000000 		.4byte	.LASF58
 1273 0524 01       		.byte	0x1
 1274 0525 8F01     		.2byte	0x18f
 1275 0527 01       		.byte	0x1
 1276 0528 00000000 		.4byte	.LFB43
 1277 052c 28010000 		.4byte	.LFE43
 1278 0530 71000000 		.4byte	.LLST4
 1279 0534 65050000 		.4byte	0x565
 1280 0538 1F       		.uleb128 0x1f
 1281 0539 3C010000 		.4byte	.LASF62
 1282 053d 01       		.byte	0x1
 1283 053e 8F01     		.2byte	0x18f
 1284 0540 4E020000 		.4byte	0x24e
 1285 0544 91000000 		.4byte	.LLST5
 1286 0548 20       		.uleb128 0x20
 1287 0549 70736300 		.ascii	"psc\000"
 1288 054d 01       		.byte	0x1
 1289 054e 9001     		.2byte	0x190
 1290 0550 70000000 		.4byte	0x70
 1291 0554 21       		.uleb128 0x21
 1292 0555 C9000000 		.4byte	.LASF60
 1293 0559 01       		.byte	0x1
 1294 055a 9101     		.2byte	0x191
 1295 055c 57000000 		.4byte	0x57
 1296 0560 BA000000 		.4byte	.LLST6
 1297 0564 00       		.byte	0
 1298 0565 1E       		.uleb128 0x1e
 1299 0566 01       		.byte	0x1
 1300 0567 A8010000 		.4byte	.LASF61
 1301 056b 01       		.byte	0x1
ARM GAS  C:\Users\Rob\AppData\Local\Temp\ccO4rU8D.s 			page 24


 1302 056c 5502     		.2byte	0x255
 1303 056e 01       		.byte	0x1
 1304 056f 00000000 		.4byte	.LFB44
 1305 0573 34000000 		.4byte	.LFE44
 1306 0577 1C010000 		.4byte	.LLST7
 1307 057b 90050000 		.4byte	0x590
 1308 057f 1F       		.uleb128 0x1f
 1309 0580 3C010000 		.4byte	.LASF62
 1310 0584 01       		.byte	0x1
 1311 0585 5502     		.2byte	0x255
 1312 0587 4E020000 		.4byte	0x24e
 1313 058b 3C010000 		.4byte	.LLST8
 1314 058f 00       		.byte	0
 1315 0590 1E       		.uleb128 0x1e
 1316 0591 01       		.byte	0x1
 1317 0592 0E000000 		.4byte	.LASF63
 1318 0596 01       		.byte	0x1
 1319 0597 9B02     		.2byte	0x29b
 1320 0599 01       		.byte	0x1
 1321 059a 00000000 		.4byte	.LFB45
 1322 059e 30000000 		.4byte	.LFE45
 1323 05a2 5A010000 		.4byte	.LLST9
 1324 05a6 F5050000 		.4byte	0x5f5
 1325 05aa 1F       		.uleb128 0x1f
 1326 05ab 3C010000 		.4byte	.LASF62
 1327 05af 01       		.byte	0x1
 1328 05b0 9B02     		.2byte	0x29b
 1329 05b2 4E020000 		.4byte	0x24e
 1330 05b6 7A010000 		.4byte	.LLST10
 1331 05ba 1F       		.uleb128 0x1f
 1332 05bb 51020000 		.4byte	.LASF64
 1333 05bf 01       		.byte	0x1
 1334 05c0 9C02     		.2byte	0x29c
 1335 05c2 B4030000 		.4byte	0x3b4
 1336 05c6 8D010000 		.4byte	.LLST11
 1337 05ca 1F       		.uleb128 0x1f
 1338 05cb CE000000 		.4byte	.LASF65
 1339 05cf 01       		.byte	0x1
 1340 05d0 9D02     		.2byte	0x29d
 1341 05d2 C0030000 		.4byte	0x3c0
 1342 05d6 A0010000 		.4byte	.LLST12
 1343 05da 22       		.uleb128 0x22
 1344 05db 1C000000 		.4byte	.LBB8
 1345 05df 2E000000 		.4byte	.LBE8
 1346 05e3 21       		.uleb128 0x21
 1347 05e4 9F020000 		.4byte	.LASF55
 1348 05e8 01       		.byte	0x1
 1349 05e9 A302     		.2byte	0x2a3
 1350 05eb 70000000 		.4byte	0x70
 1351 05ef B3010000 		.4byte	.LLST13
 1352 05f3 00       		.byte	0
 1353 05f4 00       		.byte	0
 1354 05f5 23       		.uleb128 0x23
 1355 05f6 01       		.byte	0x1
 1356 05f7 1E010000 		.4byte	.LASF66
 1357 05fb 01       		.byte	0x1
 1358 05fc B902     		.2byte	0x2b9
ARM GAS  C:\Users\Rob\AppData\Local\Temp\ccO4rU8D.s 			page 25


 1359 05fe 01       		.byte	0x1
 1360 05ff 00000000 		.4byte	.LFB46
 1361 0603 1A000000 		.4byte	.LFE46
 1362 0607 02       		.byte	0x2
 1363 0608 7D       		.byte	0x7d
 1364 0609 00       		.sleb128 0
 1365 060a 2D060000 		.4byte	0x62d
 1366 060e 1F       		.uleb128 0x1f
 1367 060f 3C010000 		.4byte	.LASF62
 1368 0613 01       		.byte	0x1
 1369 0614 B902     		.2byte	0x2b9
 1370 0616 4E020000 		.4byte	0x24e
 1371 061a C6010000 		.4byte	.LLST14
 1372 061e 24       		.uleb128 0x24
 1373 061f 51020000 		.4byte	.LASF64
 1374 0623 01       		.byte	0x1
 1375 0624 B902     		.2byte	0x2b9
 1376 0626 B4030000 		.4byte	0x3b4
 1377 062a 01       		.byte	0x1
 1378 062b 51       		.byte	0x51
 1379 062c 00       		.byte	0
 1380 062d 25       		.uleb128 0x25
 1381 062e AE020000 		.4byte	.LASF67
 1382 0632 06       		.byte	0x6
 1383 0633 B701     		.2byte	0x1b7
 1384 0635 CD010000 		.4byte	0x1cd
 1385 0639 01       		.byte	0x1
 1386 063a 01       		.byte	0x1
 1387 063b 26       		.uleb128 0x26
 1388 063c AE020000 		.4byte	.LASF67
 1389 0640 01       		.byte	0x1
 1390 0641 33       		.byte	0x33
 1391 0642 CD010000 		.4byte	0x1cd
 1392 0646 01       		.byte	0x1
 1393 0647 05       		.byte	0x5
 1394 0648 03       		.byte	0x3
 1395 0649 00000000 		.4byte	PWMD2
 1396 064d 00       		.byte	0
 1397              		.section	.debug_abbrev,"",%progbits
 1398              	.Ldebug_abbrev0:
 1399 0000 01       		.uleb128 0x1
 1400 0001 11       		.uleb128 0x11
 1401 0002 01       		.byte	0x1
 1402 0003 25       		.uleb128 0x25
 1403 0004 0E       		.uleb128 0xe
 1404 0005 13       		.uleb128 0x13
 1405 0006 0B       		.uleb128 0xb
 1406 0007 03       		.uleb128 0x3
 1407 0008 0E       		.uleb128 0xe
 1408 0009 1B       		.uleb128 0x1b
 1409 000a 0E       		.uleb128 0xe
 1410 000b 11       		.uleb128 0x11
 1411 000c 01       		.uleb128 0x1
 1412 000d 52       		.uleb128 0x52
 1413 000e 01       		.uleb128 0x1
 1414 000f 55       		.uleb128 0x55
 1415 0010 06       		.uleb128 0x6
ARM GAS  C:\Users\Rob\AppData\Local\Temp\ccO4rU8D.s 			page 26


 1416 0011 10       		.uleb128 0x10
 1417 0012 06       		.uleb128 0x6
 1418 0013 00       		.byte	0
 1419 0014 00       		.byte	0
 1420 0015 02       		.uleb128 0x2
 1421 0016 24       		.uleb128 0x24
 1422 0017 00       		.byte	0
 1423 0018 0B       		.uleb128 0xb
 1424 0019 0B       		.uleb128 0xb
 1425 001a 3E       		.uleb128 0x3e
 1426 001b 0B       		.uleb128 0xb
 1427 001c 03       		.uleb128 0x3
 1428 001d 08       		.uleb128 0x8
 1429 001e 00       		.byte	0
 1430 001f 00       		.byte	0
 1431 0020 03       		.uleb128 0x3
 1432 0021 24       		.uleb128 0x24
 1433 0022 00       		.byte	0
 1434 0023 0B       		.uleb128 0xb
 1435 0024 0B       		.uleb128 0xb
 1436 0025 3E       		.uleb128 0x3e
 1437 0026 0B       		.uleb128 0xb
 1438 0027 03       		.uleb128 0x3
 1439 0028 0E       		.uleb128 0xe
 1440 0029 00       		.byte	0
 1441 002a 00       		.byte	0
 1442 002b 04       		.uleb128 0x4
 1443 002c 16       		.uleb128 0x16
 1444 002d 00       		.byte	0
 1445 002e 03       		.uleb128 0x3
 1446 002f 0E       		.uleb128 0xe
 1447 0030 3A       		.uleb128 0x3a
 1448 0031 0B       		.uleb128 0xb
 1449 0032 3B       		.uleb128 0x3b
 1450 0033 0B       		.uleb128 0xb
 1451 0034 49       		.uleb128 0x49
 1452 0035 13       		.uleb128 0x13
 1453 0036 00       		.byte	0
 1454 0037 00       		.byte	0
 1455 0038 05       		.uleb128 0x5
 1456 0039 0F       		.uleb128 0xf
 1457 003a 00       		.byte	0
 1458 003b 0B       		.uleb128 0xb
 1459 003c 0B       		.uleb128 0xb
 1460 003d 00       		.byte	0
 1461 003e 00       		.byte	0
 1462 003f 06       		.uleb128 0x6
 1463 0040 35       		.uleb128 0x35
 1464 0041 00       		.byte	0
 1465 0042 49       		.uleb128 0x49
 1466 0043 13       		.uleb128 0x13
 1467 0044 00       		.byte	0
 1468 0045 00       		.byte	0
 1469 0046 07       		.uleb128 0x7
 1470 0047 01       		.uleb128 0x1
 1471 0048 01       		.byte	0x1
 1472 0049 49       		.uleb128 0x49
ARM GAS  C:\Users\Rob\AppData\Local\Temp\ccO4rU8D.s 			page 27


 1473 004a 13       		.uleb128 0x13
 1474 004b 01       		.uleb128 0x1
 1475 004c 13       		.uleb128 0x13
 1476 004d 00       		.byte	0
 1477 004e 00       		.byte	0
 1478 004f 08       		.uleb128 0x8
 1479 0050 21       		.uleb128 0x21
 1480 0051 00       		.byte	0
 1481 0052 49       		.uleb128 0x49
 1482 0053 13       		.uleb128 0x13
 1483 0054 2F       		.uleb128 0x2f
 1484 0055 0B       		.uleb128 0xb
 1485 0056 00       		.byte	0
 1486 0057 00       		.byte	0
 1487 0058 09       		.uleb128 0x9
 1488 0059 13       		.uleb128 0x13
 1489 005a 01       		.byte	0x1
 1490 005b 0B       		.uleb128 0xb
 1491 005c 0B       		.uleb128 0xb
 1492 005d 3A       		.uleb128 0x3a
 1493 005e 0B       		.uleb128 0xb
 1494 005f 3B       		.uleb128 0x3b
 1495 0060 05       		.uleb128 0x5
 1496 0061 01       		.uleb128 0x1
 1497 0062 13       		.uleb128 0x13
 1498 0063 00       		.byte	0
 1499 0064 00       		.byte	0
 1500 0065 0A       		.uleb128 0xa
 1501 0066 0D       		.uleb128 0xd
 1502 0067 00       		.byte	0
 1503 0068 03       		.uleb128 0x3
 1504 0069 08       		.uleb128 0x8
 1505 006a 3A       		.uleb128 0x3a
 1506 006b 0B       		.uleb128 0xb
 1507 006c 3B       		.uleb128 0x3b
 1508 006d 05       		.uleb128 0x5
 1509 006e 49       		.uleb128 0x49
 1510 006f 13       		.uleb128 0x13
 1511 0070 38       		.uleb128 0x38
 1512 0071 0A       		.uleb128 0xa
 1513 0072 00       		.byte	0
 1514 0073 00       		.byte	0
 1515 0074 0B       		.uleb128 0xb
 1516 0075 0D       		.uleb128 0xd
 1517 0076 00       		.byte	0
 1518 0077 03       		.uleb128 0x3
 1519 0078 0E       		.uleb128 0xe
 1520 0079 3A       		.uleb128 0x3a
 1521 007a 0B       		.uleb128 0xb
 1522 007b 3B       		.uleb128 0x3b
 1523 007c 05       		.uleb128 0x5
 1524 007d 49       		.uleb128 0x49
 1525 007e 13       		.uleb128 0x13
 1526 007f 38       		.uleb128 0x38
 1527 0080 0A       		.uleb128 0xa
 1528 0081 00       		.byte	0
 1529 0082 00       		.byte	0
ARM GAS  C:\Users\Rob\AppData\Local\Temp\ccO4rU8D.s 			page 28


 1530 0083 0C       		.uleb128 0xc
 1531 0084 16       		.uleb128 0x16
 1532 0085 00       		.byte	0
 1533 0086 03       		.uleb128 0x3
 1534 0087 0E       		.uleb128 0xe
 1535 0088 3A       		.uleb128 0x3a
 1536 0089 0B       		.uleb128 0xb
 1537 008a 3B       		.uleb128 0x3b
 1538 008b 05       		.uleb128 0x5
 1539 008c 49       		.uleb128 0x49
 1540 008d 13       		.uleb128 0x13
 1541 008e 00       		.byte	0
 1542 008f 00       		.byte	0
 1543 0090 0D       		.uleb128 0xd
 1544 0091 04       		.uleb128 0x4
 1545 0092 01       		.byte	0x1
 1546 0093 0B       		.uleb128 0xb
 1547 0094 0B       		.uleb128 0xb
 1548 0095 3A       		.uleb128 0x3a
 1549 0096 0B       		.uleb128 0xb
 1550 0097 3B       		.uleb128 0x3b
 1551 0098 0B       		.uleb128 0xb
 1552 0099 01       		.uleb128 0x1
 1553 009a 13       		.uleb128 0x13
 1554 009b 00       		.byte	0
 1555 009c 00       		.byte	0
 1556 009d 0E       		.uleb128 0xe
 1557 009e 28       		.uleb128 0x28
 1558 009f 00       		.byte	0
 1559 00a0 03       		.uleb128 0x3
 1560 00a1 0E       		.uleb128 0xe
 1561 00a2 1C       		.uleb128 0x1c
 1562 00a3 0D       		.uleb128 0xd
 1563 00a4 00       		.byte	0
 1564 00a5 00       		.byte	0
 1565 00a6 0F       		.uleb128 0xf
 1566 00a7 13       		.uleb128 0x13
 1567 00a8 01       		.byte	0x1
 1568 00a9 03       		.uleb128 0x3
 1569 00aa 0E       		.uleb128 0xe
 1570 00ab 0B       		.uleb128 0xb
 1571 00ac 0B       		.uleb128 0xb
 1572 00ad 3A       		.uleb128 0x3a
 1573 00ae 0B       		.uleb128 0xb
 1574 00af 3B       		.uleb128 0x3b
 1575 00b0 05       		.uleb128 0x5
 1576 00b1 01       		.uleb128 0x1
 1577 00b2 13       		.uleb128 0x13
 1578 00b3 00       		.byte	0
 1579 00b4 00       		.byte	0
 1580 00b5 10       		.uleb128 0x10
 1581 00b6 0F       		.uleb128 0xf
 1582 00b7 00       		.byte	0
 1583 00b8 0B       		.uleb128 0xb
 1584 00b9 0B       		.uleb128 0xb
 1585 00ba 49       		.uleb128 0x49
 1586 00bb 13       		.uleb128 0x13
ARM GAS  C:\Users\Rob\AppData\Local\Temp\ccO4rU8D.s 			page 29


 1587 00bc 00       		.byte	0
 1588 00bd 00       		.byte	0
 1589 00be 11       		.uleb128 0x11
 1590 00bf 15       		.uleb128 0x15
 1591 00c0 01       		.byte	0x1
 1592 00c1 27       		.uleb128 0x27
 1593 00c2 0C       		.uleb128 0xc
 1594 00c3 01       		.uleb128 0x1
 1595 00c4 13       		.uleb128 0x13
 1596 00c5 00       		.byte	0
 1597 00c6 00       		.byte	0
 1598 00c7 12       		.uleb128 0x12
 1599 00c8 05       		.uleb128 0x5
 1600 00c9 00       		.byte	0
 1601 00ca 49       		.uleb128 0x49
 1602 00cb 13       		.uleb128 0x13
 1603 00cc 00       		.byte	0
 1604 00cd 00       		.byte	0
 1605 00ce 13       		.uleb128 0x13
 1606 00cf 26       		.uleb128 0x26
 1607 00d0 00       		.byte	0
 1608 00d1 49       		.uleb128 0x49
 1609 00d2 13       		.uleb128 0x13
 1610 00d3 00       		.byte	0
 1611 00d4 00       		.byte	0
 1612 00d5 14       		.uleb128 0x14
 1613 00d6 2E       		.uleb128 0x2e
 1614 00d7 01       		.byte	0x1
 1615 00d8 03       		.uleb128 0x3
 1616 00d9 0E       		.uleb128 0xe
 1617 00da 3A       		.uleb128 0x3a
 1618 00db 0B       		.uleb128 0xb
 1619 00dc 3B       		.uleb128 0x3b
 1620 00dd 0B       		.uleb128 0xb
 1621 00de 27       		.uleb128 0x27
 1622 00df 0C       		.uleb128 0xc
 1623 00e0 20       		.uleb128 0x20
 1624 00e1 0B       		.uleb128 0xb
 1625 00e2 01       		.uleb128 0x1
 1626 00e3 13       		.uleb128 0x13
 1627 00e4 00       		.byte	0
 1628 00e5 00       		.byte	0
 1629 00e6 15       		.uleb128 0x15
 1630 00e7 05       		.uleb128 0x5
 1631 00e8 00       		.byte	0
 1632 00e9 03       		.uleb128 0x3
 1633 00ea 0E       		.uleb128 0xe
 1634 00eb 3A       		.uleb128 0x3a
 1635 00ec 0B       		.uleb128 0xb
 1636 00ed 3B       		.uleb128 0x3b
 1637 00ee 0B       		.uleb128 0xb
 1638 00ef 49       		.uleb128 0x49
 1639 00f0 13       		.uleb128 0x13
 1640 00f1 00       		.byte	0
 1641 00f2 00       		.byte	0
 1642 00f3 16       		.uleb128 0x16
 1643 00f4 34       		.uleb128 0x34
ARM GAS  C:\Users\Rob\AppData\Local\Temp\ccO4rU8D.s 			page 30


 1644 00f5 00       		.byte	0
 1645 00f6 03       		.uleb128 0x3
 1646 00f7 08       		.uleb128 0x8
 1647 00f8 3A       		.uleb128 0x3a
 1648 00f9 0B       		.uleb128 0xb
 1649 00fa 3B       		.uleb128 0x3b
 1650 00fb 0B       		.uleb128 0xb
 1651 00fc 49       		.uleb128 0x49
 1652 00fd 13       		.uleb128 0x13
 1653 00fe 00       		.byte	0
 1654 00ff 00       		.byte	0
 1655 0100 17       		.uleb128 0x17
 1656 0101 2E       		.uleb128 0x2e
 1657 0102 01       		.byte	0x1
 1658 0103 3F       		.uleb128 0x3f
 1659 0104 0C       		.uleb128 0xc
 1660 0105 03       		.uleb128 0x3
 1661 0106 0E       		.uleb128 0xe
 1662 0107 3A       		.uleb128 0x3a
 1663 0108 0B       		.uleb128 0xb
 1664 0109 3B       		.uleb128 0x3b
 1665 010a 0B       		.uleb128 0xb
 1666 010b 27       		.uleb128 0x27
 1667 010c 0C       		.uleb128 0xc
 1668 010d 11       		.uleb128 0x11
 1669 010e 01       		.uleb128 0x1
 1670 010f 12       		.uleb128 0x12
 1671 0110 01       		.uleb128 0x1
 1672 0111 40       		.uleb128 0x40
 1673 0112 06       		.uleb128 0x6
 1674 0113 01       		.uleb128 0x1
 1675 0114 13       		.uleb128 0x13
 1676 0115 00       		.byte	0
 1677 0116 00       		.byte	0
 1678 0117 18       		.uleb128 0x18
 1679 0118 34       		.uleb128 0x34
 1680 0119 00       		.byte	0
 1681 011a 03       		.uleb128 0x3
 1682 011b 0E       		.uleb128 0xe
 1683 011c 3A       		.uleb128 0x3a
 1684 011d 0B       		.uleb128 0xb
 1685 011e 3B       		.uleb128 0x3b
 1686 011f 0B       		.uleb128 0xb
 1687 0120 49       		.uleb128 0x49
 1688 0121 13       		.uleb128 0x13
 1689 0122 02       		.uleb128 0x2
 1690 0123 06       		.uleb128 0x6
 1691 0124 00       		.byte	0
 1692 0125 00       		.byte	0
 1693 0126 19       		.uleb128 0x19
 1694 0127 1D       		.uleb128 0x1d
 1695 0128 01       		.byte	0x1
 1696 0129 31       		.uleb128 0x31
 1697 012a 13       		.uleb128 0x13
 1698 012b 52       		.uleb128 0x52
 1699 012c 01       		.uleb128 0x1
 1700 012d 55       		.uleb128 0x55
ARM GAS  C:\Users\Rob\AppData\Local\Temp\ccO4rU8D.s 			page 31


 1701 012e 06       		.uleb128 0x6
 1702 012f 58       		.uleb128 0x58
 1703 0130 0B       		.uleb128 0xb
 1704 0131 59       		.uleb128 0x59
 1705 0132 0B       		.uleb128 0xb
 1706 0133 00       		.byte	0
 1707 0134 00       		.byte	0
 1708 0135 1A       		.uleb128 0x1a
 1709 0136 0B       		.uleb128 0xb
 1710 0137 01       		.byte	0x1
 1711 0138 55       		.uleb128 0x55
 1712 0139 06       		.uleb128 0x6
 1713 013a 00       		.byte	0
 1714 013b 00       		.byte	0
 1715 013c 1B       		.uleb128 0x1b
 1716 013d 34       		.uleb128 0x34
 1717 013e 00       		.byte	0
 1718 013f 31       		.uleb128 0x31
 1719 0140 13       		.uleb128 0x13
 1720 0141 02       		.uleb128 0x2
 1721 0142 06       		.uleb128 0x6
 1722 0143 00       		.byte	0
 1723 0144 00       		.byte	0
 1724 0145 1C       		.uleb128 0x1c
 1725 0146 05       		.uleb128 0x5
 1726 0147 00       		.byte	0
 1727 0148 31       		.uleb128 0x31
 1728 0149 13       		.uleb128 0x13
 1729 014a 02       		.uleb128 0x2
 1730 014b 0A       		.uleb128 0xa
 1731 014c 00       		.byte	0
 1732 014d 00       		.byte	0
 1733 014e 1D       		.uleb128 0x1d
 1734 014f 2E       		.uleb128 0x2e
 1735 0150 00       		.byte	0
 1736 0151 3F       		.uleb128 0x3f
 1737 0152 0C       		.uleb128 0xc
 1738 0153 03       		.uleb128 0x3
 1739 0154 0E       		.uleb128 0xe
 1740 0155 3A       		.uleb128 0x3a
 1741 0156 0B       		.uleb128 0xb
 1742 0157 3B       		.uleb128 0x3b
 1743 0158 05       		.uleb128 0x5
 1744 0159 27       		.uleb128 0x27
 1745 015a 0C       		.uleb128 0xc
 1746 015b 11       		.uleb128 0x11
 1747 015c 01       		.uleb128 0x1
 1748 015d 12       		.uleb128 0x12
 1749 015e 01       		.uleb128 0x1
 1750 015f 40       		.uleb128 0x40
 1751 0160 06       		.uleb128 0x6
 1752 0161 00       		.byte	0
 1753 0162 00       		.byte	0
 1754 0163 1E       		.uleb128 0x1e
 1755 0164 2E       		.uleb128 0x2e
 1756 0165 01       		.byte	0x1
 1757 0166 3F       		.uleb128 0x3f
ARM GAS  C:\Users\Rob\AppData\Local\Temp\ccO4rU8D.s 			page 32


 1758 0167 0C       		.uleb128 0xc
 1759 0168 03       		.uleb128 0x3
 1760 0169 0E       		.uleb128 0xe
 1761 016a 3A       		.uleb128 0x3a
 1762 016b 0B       		.uleb128 0xb
 1763 016c 3B       		.uleb128 0x3b
 1764 016d 05       		.uleb128 0x5
 1765 016e 27       		.uleb128 0x27
 1766 016f 0C       		.uleb128 0xc
 1767 0170 11       		.uleb128 0x11
 1768 0171 01       		.uleb128 0x1
 1769 0172 12       		.uleb128 0x12
 1770 0173 01       		.uleb128 0x1
 1771 0174 40       		.uleb128 0x40
 1772 0175 06       		.uleb128 0x6
 1773 0176 01       		.uleb128 0x1
 1774 0177 13       		.uleb128 0x13
 1775 0178 00       		.byte	0
 1776 0179 00       		.byte	0
 1777 017a 1F       		.uleb128 0x1f
 1778 017b 05       		.uleb128 0x5
 1779 017c 00       		.byte	0
 1780 017d 03       		.uleb128 0x3
 1781 017e 0E       		.uleb128 0xe
 1782 017f 3A       		.uleb128 0x3a
 1783 0180 0B       		.uleb128 0xb
 1784 0181 3B       		.uleb128 0x3b
 1785 0182 05       		.uleb128 0x5
 1786 0183 49       		.uleb128 0x49
 1787 0184 13       		.uleb128 0x13
 1788 0185 02       		.uleb128 0x2
 1789 0186 06       		.uleb128 0x6
 1790 0187 00       		.byte	0
 1791 0188 00       		.byte	0
 1792 0189 20       		.uleb128 0x20
 1793 018a 34       		.uleb128 0x34
 1794 018b 00       		.byte	0
 1795 018c 03       		.uleb128 0x3
 1796 018d 08       		.uleb128 0x8
 1797 018e 3A       		.uleb128 0x3a
 1798 018f 0B       		.uleb128 0xb
 1799 0190 3B       		.uleb128 0x3b
 1800 0191 05       		.uleb128 0x5
 1801 0192 49       		.uleb128 0x49
 1802 0193 13       		.uleb128 0x13
 1803 0194 00       		.byte	0
 1804 0195 00       		.byte	0
 1805 0196 21       		.uleb128 0x21
 1806 0197 34       		.uleb128 0x34
 1807 0198 00       		.byte	0
 1808 0199 03       		.uleb128 0x3
 1809 019a 0E       		.uleb128 0xe
 1810 019b 3A       		.uleb128 0x3a
 1811 019c 0B       		.uleb128 0xb
 1812 019d 3B       		.uleb128 0x3b
 1813 019e 05       		.uleb128 0x5
 1814 019f 49       		.uleb128 0x49
ARM GAS  C:\Users\Rob\AppData\Local\Temp\ccO4rU8D.s 			page 33


 1815 01a0 13       		.uleb128 0x13
 1816 01a1 02       		.uleb128 0x2
 1817 01a2 06       		.uleb128 0x6
 1818 01a3 00       		.byte	0
 1819 01a4 00       		.byte	0
 1820 01a5 22       		.uleb128 0x22
 1821 01a6 0B       		.uleb128 0xb
 1822 01a7 01       		.byte	0x1
 1823 01a8 11       		.uleb128 0x11
 1824 01a9 01       		.uleb128 0x1
 1825 01aa 12       		.uleb128 0x12
 1826 01ab 01       		.uleb128 0x1
 1827 01ac 00       		.byte	0
 1828 01ad 00       		.byte	0
 1829 01ae 23       		.uleb128 0x23
 1830 01af 2E       		.uleb128 0x2e
 1831 01b0 01       		.byte	0x1
 1832 01b1 3F       		.uleb128 0x3f
 1833 01b2 0C       		.uleb128 0xc
 1834 01b3 03       		.uleb128 0x3
 1835 01b4 0E       		.uleb128 0xe
 1836 01b5 3A       		.uleb128 0x3a
 1837 01b6 0B       		.uleb128 0xb
 1838 01b7 3B       		.uleb128 0x3b
 1839 01b8 05       		.uleb128 0x5
 1840 01b9 27       		.uleb128 0x27
 1841 01ba 0C       		.uleb128 0xc
 1842 01bb 11       		.uleb128 0x11
 1843 01bc 01       		.uleb128 0x1
 1844 01bd 12       		.uleb128 0x12
 1845 01be 01       		.uleb128 0x1
 1846 01bf 40       		.uleb128 0x40
 1847 01c0 0A       		.uleb128 0xa
 1848 01c1 01       		.uleb128 0x1
 1849 01c2 13       		.uleb128 0x13
 1850 01c3 00       		.byte	0
 1851 01c4 00       		.byte	0
 1852 01c5 24       		.uleb128 0x24
 1853 01c6 05       		.uleb128 0x5
 1854 01c7 00       		.byte	0
 1855 01c8 03       		.uleb128 0x3
 1856 01c9 0E       		.uleb128 0xe
 1857 01ca 3A       		.uleb128 0x3a
 1858 01cb 0B       		.uleb128 0xb
 1859 01cc 3B       		.uleb128 0x3b
 1860 01cd 05       		.uleb128 0x5
 1861 01ce 49       		.uleb128 0x49
 1862 01cf 13       		.uleb128 0x13
 1863 01d0 02       		.uleb128 0x2
 1864 01d1 0A       		.uleb128 0xa
 1865 01d2 00       		.byte	0
 1866 01d3 00       		.byte	0
 1867 01d4 25       		.uleb128 0x25
 1868 01d5 34       		.uleb128 0x34
 1869 01d6 00       		.byte	0
 1870 01d7 03       		.uleb128 0x3
 1871 01d8 0E       		.uleb128 0xe
ARM GAS  C:\Users\Rob\AppData\Local\Temp\ccO4rU8D.s 			page 34


 1872 01d9 3A       		.uleb128 0x3a
 1873 01da 0B       		.uleb128 0xb
 1874 01db 3B       		.uleb128 0x3b
 1875 01dc 05       		.uleb128 0x5
 1876 01dd 49       		.uleb128 0x49
 1877 01de 13       		.uleb128 0x13
 1878 01df 3F       		.uleb128 0x3f
 1879 01e0 0C       		.uleb128 0xc
 1880 01e1 3C       		.uleb128 0x3c
 1881 01e2 0C       		.uleb128 0xc
 1882 01e3 00       		.byte	0
 1883 01e4 00       		.byte	0
 1884 01e5 26       		.uleb128 0x26
 1885 01e6 34       		.uleb128 0x34
 1886 01e7 00       		.byte	0
 1887 01e8 03       		.uleb128 0x3
 1888 01e9 0E       		.uleb128 0xe
 1889 01ea 3A       		.uleb128 0x3a
 1890 01eb 0B       		.uleb128 0xb
 1891 01ec 3B       		.uleb128 0x3b
 1892 01ed 0B       		.uleb128 0xb
 1893 01ee 49       		.uleb128 0x49
 1894 01ef 13       		.uleb128 0x13
 1895 01f0 3F       		.uleb128 0x3f
 1896 01f1 0C       		.uleb128 0xc
 1897 01f2 02       		.uleb128 0x2
 1898 01f3 0A       		.uleb128 0xa
 1899 01f4 00       		.byte	0
 1900 01f5 00       		.byte	0
 1901 01f6 00       		.byte	0
 1902              		.section	.debug_loc,"",%progbits
 1903              	.Ldebug_loc0:
 1904              	.LLST0:
 1905 0000 00000000 		.4byte	.LFB41
 1906 0004 02000000 		.4byte	.LCFI0
 1907 0008 0200     		.2byte	0x2
 1908 000a 7D       		.byte	0x7d
 1909 000b 00       		.sleb128 0
 1910 000c 02000000 		.4byte	.LCFI0
 1911 0010 68000000 		.4byte	.LFE41
 1912 0014 0200     		.2byte	0x2
 1913 0016 7D       		.byte	0x7d
 1914 0017 10       		.sleb128 16
 1915 0018 00000000 		.4byte	0
 1916 001c 00000000 		.4byte	0
 1917              	.LLST1:
 1918 0020 04000000 		.4byte	.LVL0
 1919 0024 38000000 		.4byte	.LVL3
 1920 0028 0100     		.2byte	0x1
 1921 002a 56       		.byte	0x56
 1922 002b 3A000000 		.4byte	.LVL4
 1923 002f 68000000 		.4byte	.LFE41
 1924 0033 0100     		.2byte	0x1
 1925 0035 56       		.byte	0x56
 1926 0036 00000000 		.4byte	0
 1927 003a 00000000 		.4byte	0
 1928              	.LLST2:
ARM GAS  C:\Users\Rob\AppData\Local\Temp\ccO4rU8D.s 			page 35


 1929 003e 0A000000 		.4byte	.LVL1
 1930 0042 10000000 		.4byte	.LVL2
 1931 0046 0100     		.2byte	0x1
 1932 0048 52       		.byte	0x52
 1933 0049 00000000 		.4byte	0
 1934 004d 00000000 		.4byte	0
 1935              	.LLST3:
 1936 0051 00000000 		.4byte	.LFB42
 1937 0055 02000000 		.4byte	.LCFI1
 1938 0059 0200     		.2byte	0x2
 1939 005b 7D       		.byte	0x7d
 1940 005c 00       		.sleb128 0
 1941 005d 02000000 		.4byte	.LCFI1
 1942 0061 18000000 		.4byte	.LFE42
 1943 0065 0200     		.2byte	0x2
 1944 0067 7D       		.byte	0x7d
 1945 0068 08       		.sleb128 8
 1946 0069 00000000 		.4byte	0
 1947 006d 00000000 		.4byte	0
 1948              	.LLST4:
 1949 0071 00000000 		.4byte	.LFB43
 1950 0075 02000000 		.4byte	.LCFI2
 1951 0079 0200     		.2byte	0x2
 1952 007b 7D       		.byte	0x7d
 1953 007c 00       		.sleb128 0
 1954 007d 02000000 		.4byte	.LCFI2
 1955 0081 28010000 		.4byte	.LFE43
 1956 0085 0200     		.2byte	0x2
 1957 0087 7D       		.byte	0x7d
 1958 0088 10       		.sleb128 16
 1959 0089 00000000 		.4byte	0
 1960 008d 00000000 		.4byte	0
 1961              	.LLST5:
 1962 0091 02000000 		.4byte	.LVL5
 1963 0095 28000000 		.4byte	.LVL6
 1964 0099 0100     		.2byte	0x1
 1965 009b 50       		.byte	0x50
 1966 009c 28000000 		.4byte	.LVL6
 1967 00a0 9E000000 		.4byte	.LVL16
 1968 00a4 0100     		.2byte	0x1
 1969 00a6 56       		.byte	0x56
 1970 00a7 A0000000 		.4byte	.LVL17
 1971 00ab 28010000 		.4byte	.LFE43
 1972 00af 0100     		.2byte	0x1
 1973 00b1 56       		.byte	0x56
 1974 00b2 00000000 		.4byte	0
 1975 00b6 00000000 		.4byte	0
 1976              	.LLST6:
 1977 00ba 44000000 		.4byte	.LVL8
 1978 00be 5A000000 		.4byte	.LVL9
 1979 00c2 0200     		.2byte	0x2
 1980 00c4 30       		.byte	0x30
 1981 00c5 9F       		.byte	0x9f
 1982 00c6 5A000000 		.4byte	.LVL9
 1983 00ca 72000000 		.4byte	.LVL10
 1984 00ce 0100     		.2byte	0x1
 1985 00d0 53       		.byte	0x53
ARM GAS  C:\Users\Rob\AppData\Local\Temp\ccO4rU8D.s 			page 36


 1986 00d1 76000000 		.4byte	.LVL11
 1987 00d5 80000000 		.4byte	.LVL12
 1988 00d9 0100     		.2byte	0x1
 1989 00db 53       		.byte	0x53
 1990 00dc 84000000 		.4byte	.LVL13
 1991 00e0 88000000 		.4byte	.LVL14
 1992 00e4 0100     		.2byte	0x1
 1993 00e6 53       		.byte	0x53
 1994 00e7 88000000 		.4byte	.LVL14
 1995 00eb 9E000000 		.4byte	.LVL15
 1996 00ef 0200     		.2byte	0x2
 1997 00f1 74       		.byte	0x74
 1998 00f2 20       		.sleb128 32
 1999 00f3 A0000000 		.4byte	.LVL17
 2000 00f7 CA000000 		.4byte	.LVL24
 2001 00fb 0100     		.2byte	0x1
 2002 00fd 53       		.byte	0x53
 2003 00fe D0000000 		.4byte	.LVL25
 2004 0102 D8000000 		.4byte	.LVL27
 2005 0106 0100     		.2byte	0x1
 2006 0108 53       		.byte	0x53
 2007 0109 DE000000 		.4byte	.LVL28
 2008 010d E6000000 		.4byte	.LVL30
 2009 0111 0100     		.2byte	0x1
 2010 0113 53       		.byte	0x53
 2011 0114 00000000 		.4byte	0
 2012 0118 00000000 		.4byte	0
 2013              	.LLST7:
 2014 011c 00000000 		.4byte	.LFB44
 2015 0120 02000000 		.4byte	.LCFI3
 2016 0124 0200     		.2byte	0x2
 2017 0126 7D       		.byte	0x7d
 2018 0127 00       		.sleb128 0
 2019 0128 02000000 		.4byte	.LCFI3
 2020 012c 34000000 		.4byte	.LFE44
 2021 0130 0200     		.2byte	0x2
 2022 0132 7D       		.byte	0x7d
 2023 0133 08       		.sleb128 8
 2024 0134 00000000 		.4byte	0
 2025 0138 00000000 		.4byte	0
 2026              	.LLST8:
 2027 013c 02000000 		.4byte	.LVL31
 2028 0140 08000000 		.4byte	.LVL32
 2029 0144 0100     		.2byte	0x1
 2030 0146 50       		.byte	0x50
 2031 0147 0A000000 		.4byte	.LVL33
 2032 014b 1C000000 		.4byte	.LVL34
 2033 014f 0100     		.2byte	0x1
 2034 0151 50       		.byte	0x50
 2035 0152 00000000 		.4byte	0
 2036 0156 00000000 		.4byte	0
 2037              	.LLST9:
 2038 015a 00000000 		.4byte	.LFB45
 2039 015e 02000000 		.4byte	.LCFI4
 2040 0162 0200     		.2byte	0x2
 2041 0164 7D       		.byte	0x7d
 2042 0165 00       		.sleb128 0
ARM GAS  C:\Users\Rob\AppData\Local\Temp\ccO4rU8D.s 			page 37


 2043 0166 02000000 		.4byte	.LCFI4
 2044 016a 30000000 		.4byte	.LFE45
 2045 016e 0200     		.2byte	0x2
 2046 0170 7D       		.byte	0x7d
 2047 0171 08       		.sleb128 8
 2048 0172 00000000 		.4byte	0
 2049 0176 00000000 		.4byte	0
 2050              	.LLST10:
 2051 017a 02000000 		.4byte	.LVL35
 2052 017e 10000000 		.4byte	.LVL36
 2053 0182 0100     		.2byte	0x1
 2054 0184 50       		.byte	0x50
 2055 0185 00000000 		.4byte	0
 2056 0189 00000000 		.4byte	0
 2057              	.LLST11:
 2058 018d 02000000 		.4byte	.LVL35
 2059 0191 2A000000 		.4byte	.LVL40
 2060 0195 0100     		.2byte	0x1
 2061 0197 51       		.byte	0x51
 2062 0198 00000000 		.4byte	0
 2063 019c 00000000 		.4byte	0
 2064              	.LLST12:
 2065 01a0 02000000 		.4byte	.LVL35
 2066 01a4 12000000 		.4byte	.LVL37
 2067 01a8 0100     		.2byte	0x1
 2068 01aa 52       		.byte	0x52
 2069 01ab 00000000 		.4byte	0
 2070 01af 00000000 		.4byte	0
 2071              	.LLST13:
 2072 01b3 20000000 		.4byte	.LVL38
 2073 01b7 28000000 		.4byte	.LVL39
 2074 01bb 0100     		.2byte	0x1
 2075 01bd 52       		.byte	0x52
 2076 01be 00000000 		.4byte	0
 2077 01c2 00000000 		.4byte	0
 2078              	.LLST14:
 2079 01c6 00000000 		.4byte	.LVL41
 2080 01ca 0C000000 		.4byte	.LVL42
 2081 01ce 0100     		.2byte	0x1
 2082 01d0 50       		.byte	0x50
 2083 01d1 00000000 		.4byte	0
 2084 01d5 00000000 		.4byte	0
 2085              		.section	.debug_aranges,"",%progbits
 2086 0000 44000000 		.4byte	0x44
 2087 0004 0200     		.2byte	0x2
 2088 0006 00000000 		.4byte	.Ldebug_info0
 2089 000a 04       		.byte	0x4
 2090 000b 00       		.byte	0
 2091 000c 0000     		.2byte	0
 2092 000e 0000     		.2byte	0
 2093 0010 00000000 		.4byte	.LFB41
 2094 0014 68000000 		.4byte	.LFE41-.LFB41
 2095 0018 00000000 		.4byte	.LFB42
 2096 001c 18000000 		.4byte	.LFE42-.LFB42
 2097 0020 00000000 		.4byte	.LFB43
 2098 0024 28010000 		.4byte	.LFE43-.LFB43
 2099 0028 00000000 		.4byte	.LFB44
ARM GAS  C:\Users\Rob\AppData\Local\Temp\ccO4rU8D.s 			page 38


 2100 002c 34000000 		.4byte	.LFE44-.LFB44
 2101 0030 00000000 		.4byte	.LFB45
 2102 0034 30000000 		.4byte	.LFE45-.LFB45
 2103 0038 00000000 		.4byte	.LFB46
 2104 003c 1A000000 		.4byte	.LFE46-.LFB46
 2105 0040 00000000 		.4byte	0
 2106 0044 00000000 		.4byte	0
 2107              		.section	.debug_ranges,"",%progbits
 2108              	.Ldebug_ranges0:
 2109 0000 04000000 		.4byte	.LBB4
 2110 0004 32000000 		.4byte	.LBE4
 2111 0008 3A000000 		.4byte	.LBB7
 2112 000c 68000000 		.4byte	.LBE7
 2113 0010 00000000 		.4byte	0
 2114 0014 00000000 		.4byte	0
 2115 0018 04000000 		.4byte	.LBB5
 2116 001c 32000000 		.4byte	.LBE5
 2117 0020 3A000000 		.4byte	.LBB6
 2118 0024 68000000 		.4byte	.LBE6
 2119 0028 00000000 		.4byte	0
 2120 002c 00000000 		.4byte	0
 2121 0030 00000000 		.4byte	.LFB41
 2122 0034 68000000 		.4byte	.LFE41
 2123 0038 00000000 		.4byte	.LFB42
 2124 003c 18000000 		.4byte	.LFE42
 2125 0040 00000000 		.4byte	.LFB43
 2126 0044 28010000 		.4byte	.LFE43
 2127 0048 00000000 		.4byte	.LFB44
 2128 004c 34000000 		.4byte	.LFE44
 2129 0050 00000000 		.4byte	.LFB45
 2130 0054 30000000 		.4byte	.LFE45
 2131 0058 00000000 		.4byte	.LFB46
 2132 005c 1A000000 		.4byte	.LFE46
 2133 0060 00000000 		.4byte	0
 2134 0064 00000000 		.4byte	0
 2135              		.section	.debug_line,"",%progbits
 2136              	.Ldebug_line0:
 2137 0000 0C020000 		.section	.debug_str,"MS",%progbits,1
 2137      02001601 
 2137      00000201 
 2137      FB0E0D00 
 2137      01010101 
 2138              	.LASF40:
 2139 0000 43434552 		.ascii	"CCER\000"
 2139      00
 2140              	.LASF17:
 2141 0005 41504231 		.ascii	"APB1RSTR\000"
 2141      52535452 
 2141      00
 2142              	.LASF63:
 2143 000e 70776D5F 		.ascii	"pwm_lld_enable_channel\000"
 2143      6C6C645F 
 2143      656E6162 
 2143      6C655F63 
 2143      68616E6E 
 2144              	.LASF38:
 2145 0025 43434D52 		.ascii	"CCMR1\000"
ARM GAS  C:\Users\Rob\AppData\Local\Temp\ccO4rU8D.s 			page 39


 2145      3100
 2146              	.LASF39:
 2147 002b 43434D52 		.ascii	"CCMR2\000"
 2147      3200
 2148              	.LASF3:
 2149 0031 73686F72 		.ascii	"short int\000"
 2149      7420696E 
 2149      7400
 2150              	.LASF49:
 2151 003b 70776D63 		.ascii	"pwmcnt_t\000"
 2151      6E745F74 
 2151      00
 2152              	.LASF21:
 2153 0044 42444352 		.ascii	"BDCR\000"
 2153      00
 2154              	.LASF48:
 2155 0049 70776D63 		.ascii	"pwmchannel_t\000"
 2155      68616E6E 
 2155      656C5F74 
 2155      00
 2156              	.LASF50:
 2157 0056 6D6F6465 		.ascii	"mode\000"
 2157      00
 2158              	.LASF54:
 2159 005b 6368616E 		.ascii	"channels\000"
 2159      6E656C73 
 2159      00
 2160              	.LASF69:
 2161 0064 2E2E2F2E 		.ascii	"../../os/hal/platforms/STM32/TIMv1/pwm_lld.c\000"
 2161      2E2F6F73 
 2161      2F68616C 
 2161      2F706C61 
 2161      74666F72 
 2162              	.LASF32:
 2163 0091 636F6E66 		.ascii	"config\000"
 2163      696700
 2164              	.LASF15:
 2165 0098 43464752 		.ascii	"CFGR\000"
 2165      00
 2166              	.LASF13:
 2167 009d 72656761 		.ascii	"regarm_t\000"
 2167      726D5F74 
 2167      00
 2168              	.LASF4:
 2169 00a6 75696E74 		.ascii	"uint8_t\000"
 2169      385F7400 
 2170              	.LASF20:
 2171 00ae 41504231 		.ascii	"APB1ENR\000"
 2171      454E5200 
 2172              	.LASF8:
 2173 00b6 75696E74 		.ascii	"uint32_t\000"
 2173      33325F74 
 2173      00
 2174              	.LASF56:
 2175 00bf 50574D43 		.ascii	"PWMConfig\000"
 2175      6F6E6669 
 2175      6700
ARM GAS  C:\Users\Rob\AppData\Local\Temp\ccO4rU8D.s 			page 40


 2176              	.LASF60:
 2177 00c9 63636572 		.ascii	"ccer\000"
 2177      00
 2178              	.LASF65:
 2179 00ce 77696474 		.ascii	"width\000"
 2179      6800
 2180              	.LASF22:
 2181 00d4 41484252 		.ascii	"AHBRSTR\000"
 2181      53545200 
 2182              	.LASF10:
 2183 00dc 6C6F6E67 		.ascii	"long long int\000"
 2183      206C6F6E 
 2183      6720696E 
 2183      7400
 2184              	.LASF14:
 2185 00ea 63686172 		.ascii	"char\000"
 2185      00
 2186              	.LASF58:
 2187 00ef 70776D5F 		.ascii	"pwm_lld_start\000"
 2187      6C6C645F 
 2187      73746172 
 2187      7400
 2188              	.LASF44:
 2189 00fd 43435235 		.ascii	"CCR5\000"
 2189      00
 2190              	.LASF25:
 2191 0102 5243435F 		.ascii	"RCC_TypeDef\000"
 2191      54797065 
 2191      44656600 
 2192              	.LASF18:
 2193 010e 41484245 		.ascii	"AHBENR\000"
 2193      4E5200
 2194              	.LASF16:
 2195 0115 41504232 		.ascii	"APB2RSTR\000"
 2195      52535452 
 2195      00
 2196              	.LASF66:
 2197 011e 70776D5F 		.ascii	"pwm_lld_disable_channel\000"
 2197      6C6C645F 
 2197      64697361 
 2197      626C655F 
 2197      6368616E 
 2198              	.LASF43:
 2199 0136 43434D52 		.ascii	"CCMR3\000"
 2199      3300
 2200              	.LASF62:
 2201 013c 70776D70 		.ascii	"pwmp\000"
 2201      00
 2202              	.LASF36:
 2203 0141 534D4352 		.ascii	"SMCR\000"
 2203      00
 2204              	.LASF26:
 2205 0146 50574D5F 		.ascii	"PWM_UNINIT\000"
 2205      554E494E 
 2205      495400
 2206              	.LASF2:
 2207 0151 756E7369 		.ascii	"unsigned char\000"
ARM GAS  C:\Users\Rob\AppData\Local\Temp\ccO4rU8D.s 			page 41


 2207      676E6564 
 2207      20636861 
 2207      7200
 2208              	.LASF19:
 2209 015f 41504232 		.ascii	"APB2ENR\000"
 2209      454E5200 
 2210              	.LASF45:
 2211 0167 43435236 		.ascii	"CCR6\000"
 2211      00
 2212              	.LASF1:
 2213 016c 7369676E 		.ascii	"signed char\000"
 2213      65642063 
 2213      68617200 
 2214              	.LASF11:
 2215 0178 6C6F6E67 		.ascii	"long long unsigned int\000"
 2215      206C6F6E 
 2215      6720756E 
 2215      7369676E 
 2215      65642069 
 2216              	.LASF0:
 2217 018f 756E7369 		.ascii	"unsigned int\000"
 2217      676E6564 
 2217      20696E74 
 2217      00
 2218              	.LASF23:
 2219 019c 43464752 		.ascii	"CFGR2\000"
 2219      3200
 2220              	.LASF24:
 2221 01a2 43464752 		.ascii	"CFGR3\000"
 2221      3300
 2222              	.LASF61:
 2223 01a8 70776D5F 		.ascii	"pwm_lld_stop\000"
 2223      6C6C645F 
 2223      73746F70 
 2223      00
 2224              	.LASF41:
 2225 01b5 42445452 		.ascii	"BDTR\000"
 2225      00
 2226              	.LASF37:
 2227 01ba 44494552 		.ascii	"DIER\000"
 2227      00
 2228              	.LASF35:
 2229 01bf 70776D63 		.ascii	"pwmcallback_t\000"
 2229      616C6C62 
 2229      61636B5F 
 2229      7400
 2230              	.LASF6:
 2231 01cd 73686F72 		.ascii	"short unsigned int\000"
 2231      7420756E 
 2231      7369676E 
 2231      65642069 
 2231      6E7400
 2232              	.LASF72:
 2233 01e0 70776D5F 		.ascii	"pwm_lld_init\000"
 2233      6C6C645F 
 2233      696E6974 
 2233      00
ARM GAS  C:\Users\Rob\AppData\Local\Temp\ccO4rU8D.s 			page 42


 2234              	.LASF5:
 2235 01ed 75696E74 		.ascii	"uint16_t\000"
 2235      31365F74 
 2235      00
 2236              	.LASF46:
 2237 01f6 73746D33 		.ascii	"stm32_tim_t\000"
 2237      325F7469 
 2237      6D5F7400 
 2238              	.LASF70:
 2239 0202 433A5C55 		.ascii	"C:\\Users\\Rob\\Projects\\ECE411Practicum\\src\\vir"
 2239      73657273 
 2239      5C526F62 
 2239      5C50726F 
 2239      6A656374 
 2240 022f 756C656E 		.ascii	"ulent\000"
 2240      7400
 2241              	.LASF30:
 2242 0235 50574D44 		.ascii	"PWMDriver\000"
 2242      72697665 
 2242      7200
 2243              	.LASF68:
 2244 023f 474E5520 		.ascii	"GNU C 4.6.2\000"
 2244      4320342E 
 2244      362E3200 
 2245              	.LASF12:
 2246 024b 5F426F6F 		.ascii	"_Bool\000"
 2246      6C00
 2247              	.LASF64:
 2248 0251 6368616E 		.ascii	"channel\000"
 2248      6E656C00 
 2249              	.LASF42:
 2250 0259 444D4152 		.ascii	"DMAR\000"
 2250      00
 2251              	.LASF33:
 2252 025e 70657269 		.ascii	"period\000"
 2252      6F6400
 2253              	.LASF9:
 2254 0265 6C6F6E67 		.ascii	"long unsigned int\000"
 2254      20756E73 
 2254      69676E65 
 2254      6420696E 
 2254      7400
 2255              	.LASF34:
 2256 0277 636C6F63 		.ascii	"clock\000"
 2256      6B00
 2257              	.LASF57:
 2258 027d 56656374 		.ascii	"Vector7C\000"
 2258      6F723743 
 2258      00
 2259              	.LASF31:
 2260 0286 73746174 		.ascii	"state\000"
 2260      6500
 2261              	.LASF28:
 2262 028c 50574D5F 		.ascii	"PWM_READY\000"
 2262      52454144 
 2262      5900
 2263              	.LASF27:
ARM GAS  C:\Users\Rob\AppData\Local\Temp\ccO4rU8D.s 			page 43


 2264 0296 50574D5F 		.ascii	"PWM_STOP\000"
 2264      53544F50 
 2264      00
 2265              	.LASF55:
 2266 029f 64696572 		.ascii	"dier\000"
 2266      00
 2267              	.LASF53:
 2268 02a4 66726571 		.ascii	"frequency\000"
 2268      75656E63 
 2268      7900
 2269              	.LASF67:
 2270 02ae 50574D44 		.ascii	"PWMD2\000"
 2270      3200
 2271              	.LASF52:
 2272 02b4 50574D43 		.ascii	"PWMChannelConfig\000"
 2272      68616E6E 
 2272      656C436F 
 2272      6E666967 
 2272      00
 2273              	.LASF47:
 2274 02c5 70776D6D 		.ascii	"pwmmode_t\000"
 2274      6F64655F 
 2274      7400
 2275              	.LASF7:
 2276 02cf 6C6F6E67 		.ascii	"long int\000"
 2276      20696E74 
 2276      00
 2277              	.LASF29:
 2278 02d8 70776D73 		.ascii	"pwmstate_t\000"
 2278      74617465 
 2278      5F7400
 2279              	.LASF71:
 2280 02e3 70776D5F 		.ascii	"pwm_lld_serve_interrupt\000"
 2280      6C6C645F 
 2280      73657276 
 2280      655F696E 
 2280      74657272 
 2281              	.LASF51:
 2282 02fb 63616C6C 		.ascii	"callback\000"
 2282      6261636B 
 2282      00
 2283              	.LASF59:
 2284 0304 5F736176 		.ascii	"_saved_lr\000"
 2284      65645F6C 
 2284      7200
 2285              		.ident	"GCC: (GNU) 4.6.2"
ARM GAS  C:\Users\Rob\AppData\Local\Temp\ccO4rU8D.s 			page 44


DEFINED SYMBOLS
                            *ABS*:00000000 pwm_lld.c
C:\Users\Rob\AppData\Local\Temp\ccO4rU8D.s:17     .text.Vector7C:00000000 $t
C:\Users\Rob\AppData\Local\Temp\ccO4rU8D.s:23     .text.Vector7C:00000000 Vector7C
C:\Users\Rob\AppData\Local\Temp\ccO4rU8D.s:125    .text.Vector7C:00000064 $d
C:\Users\Rob\AppData\Local\Temp\ccO4rU8D.s:132    .text.pwm_lld_init:00000000 $t
C:\Users\Rob\AppData\Local\Temp\ccO4rU8D.s:138    .text.pwm_lld_init:00000000 pwm_lld_init
C:\Users\Rob\AppData\Local\Temp\ccO4rU8D.s:163    .text.pwm_lld_init:00000014 $d
C:\Users\Rob\AppData\Local\Temp\ccO4rU8D.s:169    .text.pwm_lld_start:00000000 $t
C:\Users\Rob\AppData\Local\Temp\ccO4rU8D.s:175    .text.pwm_lld_start:00000000 pwm_lld_start
C:\Users\Rob\AppData\Local\Temp\ccO4rU8D.s:427    .text.pwm_lld_start:00000118 $d
C:\Users\Rob\AppData\Local\Temp\ccO4rU8D.s:435    .text.pwm_lld_stop:00000000 $t
C:\Users\Rob\AppData\Local\Temp\ccO4rU8D.s:441    .text.pwm_lld_stop:00000000 pwm_lld_stop
C:\Users\Rob\AppData\Local\Temp\ccO4rU8D.s:488    .text.pwm_lld_stop:0000002c $d
C:\Users\Rob\AppData\Local\Temp\ccO4rU8D.s:494    .text.pwm_lld_enable_channel:00000000 $t
C:\Users\Rob\AppData\Local\Temp\ccO4rU8D.s:500    .text.pwm_lld_enable_channel:00000000 pwm_lld_enable_channel
C:\Users\Rob\AppData\Local\Temp\ccO4rU8D.s:556    .text.pwm_lld_disable_channel:00000000 $t
C:\Users\Rob\AppData\Local\Temp\ccO4rU8D.s:562    .text.pwm_lld_disable_channel:00000000 pwm_lld_disable_channel
C:\Users\Rob\AppData\Local\Temp\ccO4rU8D.s:594    .bss.PWMD2:00000000 PWMD2
C:\Users\Rob\AppData\Local\Temp\ccO4rU8D.s:590    .bss.PWMD2:00000000 $d
                     .debug_frame:00000010 $d
C:\Users\Rob\AppData\Local\Temp\ccO4rU8D.s:131    .text.Vector7C:00000068 $t
C:\Users\Rob\AppData\Local\Temp\ccO4rU8D.s:168    .text.pwm_lld_init:00000018 $t
C:\Users\Rob\AppData\Local\Temp\ccO4rU8D.s:434    .text.pwm_lld_start:00000128 $t
C:\Users\Rob\AppData\Local\Temp\ccO4rU8D.s:493    .text.pwm_lld_stop:00000034 $t

UNDEFINED SYMBOLS
_port_irq_epilogue
pwmObjectInit
__aeabi_uidiv
nvicEnableVector
nvicDisableVector
