ARM GAS  C:\Users\Rob\AppData\Local\Temp\ccnyM9Da.s 			page 1


   1              		.cpu cortex-m0
   2              		.fpu softvfp
   3              		.eabi_attribute 20, 1
   4              		.eabi_attribute 21, 1
   5              		.eabi_attribute 23, 3
   6              		.eabi_attribute 24, 1
   7              		.eabi_attribute 25, 1
   8              		.eabi_attribute 26, 1
   9              		.eabi_attribute 30, 2
  10              		.eabi_attribute 18, 4
  11              		.code	16
  12              		.file	"serial_lld.c"
  13              		.text
  14              	.Ltext0:
  15              		.cfi_sections	.debug_frame
  16              		.section	.text.notify1,"ax",%progbits
  17              		.align	2
  18              		.p2align 4,,15
  19              		.code	16
  20              		.thumb_func
  21              		.type	notify1, %function
  22              	notify1:
  23              	.LFB44:
  24              		.file 1 "../../os/hal/platforms/STM32/USARTv2/serial_lld.c"
  25              		.loc 1 194 0
  26              		.cfi_startproc
  27              	.LVL0:
  28              		.loc 1 197 0
  29 0000 024B     		ldr	r3, .L2
  30 0002 8022     		mov	r2, #128
  31 0004 1968     		ldr	r1, [r3]
  32              		.loc 1 198 0
  33              		@ sp needed for prologue
  34              		.loc 1 197 0
  35 0006 0A43     		orr	r2, r1
  36 0008 1A60     		str	r2, [r3]
  37              		.loc 1 198 0
  38 000a 7047     		bx	lr
  39              	.L3:
  40              		.align	2
  41              	.L2:
  42 000c 00380140 		.word	1073821696
  43              		.cfi_endproc
  44              	.LFE44:
  45              		.size	notify1, .-notify1
  46              		.section	.text.VectorAC,"ax",%progbits
  47              		.align	2
  48              		.p2align 4,,15
  49              		.global	VectorAC
  50              		.code	16
  51              		.thumb_func
  52              		.type	VectorAC, %function
  53              	VectorAC:
  54              	.LFB45:
  55              		.loc 1 254 0
  56              		.cfi_startproc
  57 0000 F8B5     		push	{r3, r4, r5, r6, r7, lr}
ARM GAS  C:\Users\Rob\AppData\Local\Temp\ccnyM9Da.s 			page 2


  58              	.LCFI0:
  59              		.cfi_def_cfa_offset 24
  60              		.cfi_offset 3, -24
  61              		.cfi_offset 4, -20
  62              		.cfi_offset 5, -16
  63              		.cfi_offset 6, -12
  64              		.cfi_offset 7, -8
  65              		.cfi_offset 14, -4
  66 0002 4F46     		mov	r7, r9
  67 0004 4646     		mov	r6, r8
  68 0006 C0B4     		push	{r6, r7}
  69              	.LCFI1:
  70              		.cfi_def_cfa_offset 32
  71              		.cfi_offset 8, -32
  72              		.cfi_offset 9, -28
  73              		.loc 1 256 0
  74              	@ 256 "../../os/hal/platforms/STM32/USARTv2/serial_lld.c" 1
  75 0008 7746     		mov     r7, lr
  76              	@ 0 "" 2
  77              	.LVL1:
  78              		.code	16
  79              	.LBB17:
  80              	.LBB18:
  81              		.loc 1 148 0
  82 000a 324E     		ldr	r6, .L23
  83 000c 756F     		ldr	r5, [r6, #116]
  84              	.LVL2:
  85              		.loc 1 149 0
  86 000e 2A68     		ldr	r2, [r5]
  87              		.loc 1 153 0
  88 0010 EC69     		ldr	r4, [r5, #28]
  89              		.loc 1 149 0
  90 0012 9046     		mov	r8, r2
  91              	.LVL3:
  92              		.loc 1 154 0
  93 0014 2C62     		str	r4, [r5, #32]
  94              		.loc 1 157 0
  95 0016 2307     		lsl	r3, r4, #28
  96 0018 11D0     		beq	.L5
  97              	.LVL4:
  98              	.LBB19:
  99              	.LBB20:
 100              		.loc 1 129 0
 101 001a 2107     		lsl	r1, r4, #28
 102              		.loc 1 130 0
 103 001c C90F     		lsr	r1, r1, #31
 104 001e C901     		lsl	r1, r1, #7
 105              	.LVL5:
 106              		.loc 1 131 0
 107 0020 E207     		lsl	r2, r4, #31
 108 0022 01D5     		bpl	.L7
 109              	.LVL6:
 110              		.loc 1 132 0
 111 0024 2023     		mov	r3, #32
 112 0026 1943     		orr	r1, r3
 113              	.LVL7:
 114              	.L7:
ARM GAS  C:\Users\Rob\AppData\Local\Temp\ccnyM9Da.s 			page 3


 115              		.loc 1 133 0
 116 0028 A307     		lsl	r3, r4, #30
 117 002a 01D5     		bpl	.L8
 118              		.loc 1 134 0
 119 002c 4023     		mov	r3, #64
 120 002e 1943     		orr	r1, r3
 121              	.LVL8:
 122              	.L8:
 123              		.loc 1 135 0
 124 0030 6207     		lsl	r2, r4, #29
 125 0032 23D4     		bmi	.L18
 126              	.L9:
 127              		.loc 1 137 0
 128              	@ 137 "../../os/hal/platforms/STM32/USARTv2/serial_lld.c" 1
 129 0034 72B6     		cpsid   i
 130              	@ 0 "" 2
 131              		.loc 1 138 0
 132              		.code	16
 133 0036 301D     		add	r0, r6, #4
 134 0038 FFF7FEFF 		bl	chEvtBroadcastFlagsI
 135              	.LVL9:
 136              		.loc 1 139 0
 137              	@ 139 "../../os/hal/platforms/STM32/USARTv2/serial_lld.c" 1
 138 003c 62B6     		cpsie   i
 139              	@ 0 "" 2
 140              	.LVL10:
 141              		.code	16
 142              	.L5:
 143              	.LBE20:
 144              	.LBE19:
 145              		.loc 1 160 0
 146 003e E305     		lsl	r3, r4, #23
 147 0040 20D4     		bmi	.L19
 148              		.loc 1 166 0
 149 0042 A206     		lsl	r2, r4, #26
 150 0044 27D4     		bmi	.L20
 151              	.L11:
 152              		.loc 1 172 0
 153 0046 8023     		mov	r3, #128
 154 0048 4246     		mov	r2, r8
 155 004a 1342     		tst	r3, r2
 156 004c 01D0     		beq	.L12
 157 004e 2342     		tst	r3, r4
 158 0050 29D1     		bne	.L21
 159              	.L12:
 160              		.loc 1 185 0
 161 0052 4023     		mov	r3, #64
 162 0054 9946     		mov	r9, r3
 163 0056 2342     		tst	r3, r4
 164 0058 09D0     		beq	.L15
 165              		.loc 1 186 0
 166              	@ 186 "../../os/hal/platforms/STM32/USARTv2/serial_lld.c" 1
 167 005a 72B6     		cpsid   i
 168              	@ 0 "" 2
 169              		.loc 1 187 0
 170              		.code	16
 171 005c 1021     		mov	r1, #16
ARM GAS  C:\Users\Rob\AppData\Local\Temp\ccnyM9Da.s 			page 4


 172 005e 301D     		add	r0, r6, #4
 173 0060 FFF7FEFF 		bl	chEvtBroadcastFlagsI
 174              		.loc 1 188 0
 175              	@ 188 "../../os/hal/platforms/STM32/USARTv2/serial_lld.c" 1
 176 0064 62B6     		cpsie   i
 177              	@ 0 "" 2
 178              		.loc 1 189 0
 179              		.code	16
 180 0066 4346     		mov	r3, r8
 181 0068 4A46     		mov	r2, r9
 182 006a 9343     		bic	r3, r2
 183 006c 2B60     		str	r3, [r5]
 184              	.L15:
 185              	.LBE18:
 186              	.LBE17:
 187              		.loc 1 260 0
 188 006e 381C     		mov	r0, r7
 189 0070 FFF7FEFF 		bl	_port_irq_epilogue
 190              		.loc 1 261 0
 191              		@ sp needed for prologue
 192              	.LVL11:
 193              	.LVL12:
 194              	.LVL13:
 195              	.LVL14:
 196 0074 0CBC     		pop	{r2, r3}
 197 0076 9046     		mov	r8, r2
 198 0078 9946     		mov	r9, r3
 199 007a F8BD     		pop	{r3, r4, r5, r6, r7, pc}
 200              	.LVL15:
 201              	.L18:
 202              	.LBB25:
 203              	.LBB24:
 204              	.LBB22:
 205              	.LBB21:
 206              		.loc 1 136 0
 207 007c 8023     		mov	r3, #128
 208 007e 5B00     		lsl	r3, r3, #1
 209 0080 1943     		orr	r1, r3
 210              	.LVL16:
 211 0082 D7E7     		b	.L9
 212              	.LVL17:
 213              	.L19:
 214              	.LBE21:
 215              	.LBE22:
 216              		.loc 1 161 0
 217              	@ 161 "../../os/hal/platforms/STM32/USARTv2/serial_lld.c" 1
 218 0084 72B6     		cpsid   i
 219              	@ 0 "" 2
 220              		.loc 1 162 0
 221              		.code	16
 222 0086 8021     		mov	r1, #128
 223 0088 301D     		add	r0, r6, #4
 224 008a 8900     		lsl	r1, r1, #2
 225 008c FFF7FEFF 		bl	chEvtBroadcastFlagsI
 226              		.loc 1 163 0
 227              	@ 163 "../../os/hal/platforms/STM32/USARTv2/serial_lld.c" 1
 228 0090 62B6     		cpsie   i
ARM GAS  C:\Users\Rob\AppData\Local\Temp\ccnyM9Da.s 			page 5


 229              	@ 0 "" 2
 230              		.loc 1 166 0
 231              		.code	16
 232 0092 A206     		lsl	r2, r4, #26
 233 0094 D7D5     		bpl	.L11
 234              	.L20:
 235              		.loc 1 167 0
 236              	@ 167 "../../os/hal/platforms/STM32/USARTv2/serial_lld.c" 1
 237 0096 72B6     		cpsid   i
 238              	@ 0 "" 2
 239              		.loc 1 168 0
 240              		.code	16
 241 0098 A98C     		ldrh	r1, [r5, #36]
 242 009a 301C     		mov	r0, r6
 243 009c C9B2     		uxtb	r1, r1
 244 009e FFF7FEFF 		bl	sdIncomingDataI
 245              		.loc 1 169 0
 246              	@ 169 "../../os/hal/platforms/STM32/USARTv2/serial_lld.c" 1
 247 00a2 62B6     		cpsie   i
 248              	@ 0 "" 2
 249              		.code	16
 250 00a4 CFE7     		b	.L11
 251              	.L21:
 252              	.LBB23:
 253              		.loc 1 174 0
 254              	@ 174 "../../os/hal/platforms/STM32/USARTv2/serial_lld.c" 1
 255 00a6 72B6     		cpsid   i
 256              	@ 0 "" 2
 257              		.loc 1 175 0
 258              		.code	16
 259 00a8 301C     		mov	r0, r6
 260 00aa 3030     		add	r0, r0, #48
 261 00ac FFF7FEFF 		bl	chOQGetI
 262              	.LVL18:
 263              		.loc 1 176 0
 264 00b0 0028     		cmp	r0, #0
 265 00b2 03DB     		blt	.L22
 266              		.loc 1 181 0
 267 00b4 80B2     		uxth	r0, r0
 268              	.LVL19:
 269 00b6 2885     		strh	r0, [r5, #40]
 270              	.L14:
 271              		.loc 1 182 0
 272              	@ 182 "../../os/hal/platforms/STM32/USARTv2/serial_lld.c" 1
 273 00b8 62B6     		cpsie   i
 274              	@ 0 "" 2
 275              		.code	16
 276 00ba CAE7     		b	.L12
 277              	.LVL20:
 278              	.L22:
 279              		.loc 1 177 0
 280 00bc 301D     		add	r0, r6, #4
 281              	.LVL21:
 282 00be 0821     		mov	r1, #8
 283 00c0 FFF7FEFF 		bl	chEvtBroadcastFlagsI
 284              		.loc 1 178 0
 285 00c4 C023     		mov	r3, #192
ARM GAS  C:\Users\Rob\AppData\Local\Temp\ccnyM9Da.s 			page 6


 286 00c6 4246     		mov	r2, r8
 287 00c8 9A43     		bic	r2, r3
 288 00ca 4023     		mov	r3, #64
 289 00cc 1343     		orr	r3, r2
 290 00ce 2B60     		str	r3, [r5]
 291 00d0 F2E7     		b	.L14
 292              	.L24:
 293 00d2 C046     		.align	2
 294              	.L23:
 295 00d4 00000000 		.word	.LANCHOR0
 296              	.LBE23:
 297              	.LBE24:
 298              	.LBE25:
 299              		.cfi_endproc
 300              	.LFE45:
 301              		.size	VectorAC, .-VectorAC
 302 00d8 C046C046 		.section	.text.sd_lld_init,"ax",%progbits
 302      C046C046 
 303              		.align	2
 304              		.p2align 4,,15
 305              		.global	sd_lld_init
 306              		.code	16
 307              		.thumb_func
 308              		.type	sd_lld_init, %function
 309              	sd_lld_init:
 310              	.LFB46:
 311              		.loc 1 368 0
 312              		.cfi_startproc
 313 0000 10B5     		push	{r4, lr}
 314              	.LCFI2:
 315              		.cfi_def_cfa_offset 8
 316              		.cfi_offset 4, -8
 317              		.cfi_offset 14, -4
 318              		.loc 1 371 0
 319 0002 054C     		ldr	r4, .L26
 320 0004 0021     		mov	r1, #0
 321 0006 201C     		mov	r0, r4
 322 0008 044A     		ldr	r2, .L26+4
 323 000a FFF7FEFF 		bl	sdObjectInit
 324              		.loc 1 372 0
 325 000e 044B     		ldr	r3, .L26+8
 326              		.loc 1 405 0
 327              		@ sp needed for prologue
 328              		.loc 1 372 0
 329 0010 6367     		str	r3, [r4, #116]
 330              		.loc 1 373 0
 331 0012 044B     		ldr	r3, .L26+12
 332 0014 A367     		str	r3, [r4, #120]
 333              		.loc 1 405 0
 334 0016 10BD     		pop	{r4, pc}
 335              	.L27:
 336              		.align	2
 337              	.L26:
 338 0018 00000000 		.word	.LANCHOR0
 339 001c 00000000 		.word	notify1
 340 0020 00380140 		.word	1073821696
 341 0024 006CDC02 		.word	48000000
ARM GAS  C:\Users\Rob\AppData\Local\Temp\ccnyM9Da.s 			page 7


 342              		.cfi_endproc
 343              	.LFE46:
 344              		.size	sd_lld_init, .-sd_lld_init
 345              		.global	__aeabi_uidiv
 346 0028 C046C046 		.section	.text.sd_lld_start,"ax",%progbits
 346      C046C046 
 347              		.align	2
 348              		.p2align 4,,15
 349              		.global	sd_lld_start
 350              		.code	16
 351              		.thumb_func
 352              		.type	sd_lld_start, %function
 353              	sd_lld_start:
 354              	.LFB47:
 355              		.loc 1 417 0
 356              		.cfi_startproc
 357 0000 70B5     		push	{r4, r5, r6, lr}
 358              	.LCFI3:
 359              		.cfi_def_cfa_offset 16
 360              		.cfi_offset 4, -16
 361              		.cfi_offset 5, -12
 362              		.cfi_offset 6, -8
 363              		.cfi_offset 14, -4
 364              	.LVL22:
 365              		.loc 1 417 0
 366 0002 061C     		mov	r6, r0
 367              		.loc 1 419 0
 368 0004 0C1E     		sub	r4, r1, #0
 369 0006 27D0     		beq	.L32
 370              	.L29:
 371              	.LVL23:
 372              		.loc 1 422 0
 373 0008 337A     		ldrb	r3, [r6, #8]
 374 000a 012B     		cmp	r3, #1
 375 000c 16D0     		beq	.L33
 376              	.LVL24:
 377              	.L30:
 378              	.LBB26:
 379              	.LBB27:
 380              		.loc 1 96 0
 381 000e B06F     		ldr	r0, [r6, #120]
 382 0010 2168     		ldr	r1, [r4]
 383 0012 FFF7FEFF 		bl	__aeabi_uidiv
 384              		.loc 1 99 0
 385 0016 A368     		ldr	r3, [r4, #8]
 386              		.loc 1 93 0
 387 0018 756F     		ldr	r5, [r6, #116]
 388              	.LVL25:
 389              		.loc 1 99 0
 390 001a 4022     		mov	r2, #64
 391 001c 1343     		orr	r3, r2
 392              		.loc 1 96 0
 393 001e 80B2     		uxth	r0, r0
 394 0020 A881     		strh	r0, [r5, #12]
 395              		.loc 1 99 0
 396 0022 6B60     		str	r3, [r5, #4]
 397              		.loc 1 100 0
ARM GAS  C:\Users\Rob\AppData\Local\Temp\ccnyM9Da.s 			page 8


 398 0024 E368     		ldr	r3, [r4, #12]
 399 0026 0122     		mov	r2, #1
 400 0028 1343     		orr	r3, r2
 401 002a AB60     		str	r3, [r5, #8]
 402              		.loc 1 102 0
 403 002c 0B4A     		ldr	r2, .L34
 404 002e 6368     		ldr	r3, [r4, #4]
 405              	.LBE27:
 406              	.LBE26:
 407              		.loc 1 467 0
 408              		@ sp needed for prologue
 409              	.LBB29:
 410              	.LBB28:
 411              		.loc 1 102 0
 412 0030 1343     		orr	r3, r2
 413              		.loc 1 101 0
 414 0032 2B60     		str	r3, [r5]
 415              		.loc 1 104 0
 416 0034 0123     		mov	r3, #1
 417 0036 5B42     		neg	r3, r3
 418 0038 2B62     		str	r3, [r5, #32]
 419              	.LVL26:
 420              	.LVL27:
 421              	.LBE28:
 422              	.LBE29:
 423              		.loc 1 467 0
 424 003a 70BD     		pop	{r4, r5, r6, pc}
 425              	.LVL28:
 426              	.L33:
 427              		.loc 1 424 0
 428 003c 084B     		ldr	r3, .L34+4
 429 003e 9E42     		cmp	r6, r3
 430 0040 E5D1     		bne	.L30
 431              		.loc 1 425 0
 432 0042 084B     		ldr	r3, .L34+8
 433 0044 8022     		mov	r2, #128
 434 0046 9969     		ldr	r1, [r3, #24]
 435 0048 D201     		lsl	r2, r2, #7
 436 004a 0A43     		orr	r2, r1
 437 004c 9A61     		str	r2, [r3, #24]
 438              		.loc 1 426 0
 439 004e 1B20     		mov	r0, #27
 440              	.LVL29:
 441 0050 C021     		mov	r1, #192
 442 0052 FFF7FEFF 		bl	nvicEnableVector
 443 0056 DAE7     		b	.L30
 444              	.LVL30:
 445              	.L32:
 446              		.loc 1 420 0
 447 0058 034C     		ldr	r4, .L34+12
 448 005a D5E7     		b	.L29
 449              	.L35:
 450              		.align	2
 451              	.L34:
 452 005c 2D010000 		.word	301
 453 0060 00000000 		.word	.LANCHOR0
 454 0064 00100240 		.word	1073876992
ARM GAS  C:\Users\Rob\AppData\Local\Temp\ccnyM9Da.s 			page 9


 455 0068 00000000 		.word	.LANCHOR1
 456              		.cfi_endproc
 457              	.LFE47:
 458              		.size	sd_lld_start, .-sd_lld_start
 459 006c C046C046 		.section	.text.sd_lld_stop,"ax",%progbits
 460              		.align	2
 461              		.p2align 4,,15
 462              		.global	sd_lld_stop
 463              		.code	16
 464              		.thumb_func
 465              		.type	sd_lld_stop, %function
 466              	sd_lld_stop:
 467              	.LFB48:
 468              		.loc 1 478 0
 469              		.cfi_startproc
 470 0000 08B5     		push	{r3, lr}
 471              	.LCFI4:
 472              		.cfi_def_cfa_offset 8
 473              		.cfi_offset 3, -8
 474              		.cfi_offset 14, -4
 475              	.LVL31:
 476              		.loc 1 480 0
 477 0002 037A     		ldrb	r3, [r0, #8]
 478 0004 022B     		cmp	r3, #2
 479 0006 00D0     		beq	.L38
 480              	.LVL32:
 481              	.L36:
 482              		.loc 1 525 0
 483              		@ sp needed for prologue
 484 0008 08BD     		pop	{r3, pc}
 485              	.LVL33:
 486              	.L38:
 487              		.loc 1 481 0
 488 000a 436F     		ldr	r3, [r0, #116]
 489              	.LVL34:
 490              	.LBB30:
 491              	.LBB31:
 492              		.loc 1 115 0
 493 000c 0022     		mov	r2, #0
 494 000e 1A60     		str	r2, [r3]
 495              		.loc 1 116 0
 496 0010 5A60     		str	r2, [r3, #4]
 497              		.loc 1 117 0
 498 0012 9A60     		str	r2, [r3, #8]
 499              	.LBE31:
 500              	.LBE30:
 501              		.loc 1 483 0
 502 0014 054B     		ldr	r3, .L39
 503 0016 9842     		cmp	r0, r3
 504 0018 F6D1     		bne	.L36
 505              		.loc 1 484 0
 506 001a 054B     		ldr	r3, .L39+4
 507 001c 054A     		ldr	r2, .L39+8
 508 001e 9969     		ldr	r1, [r3, #24]
 509              		.loc 1 485 0
 510 0020 1B20     		mov	r0, #27
 511              	.LVL35:
ARM GAS  C:\Users\Rob\AppData\Local\Temp\ccnyM9Da.s 			page 10


 512              		.loc 1 484 0
 513 0022 0A40     		and	r2, r1
 514 0024 9A61     		str	r2, [r3, #24]
 515              		.loc 1 485 0
 516 0026 FFF7FEFF 		bl	nvicDisableVector
 517              		.loc 1 486 0
 518 002a EDE7     		b	.L36
 519              	.L40:
 520              		.align	2
 521              	.L39:
 522 002c 00000000 		.word	.LANCHOR0
 523 0030 00100240 		.word	1073876992
 524 0034 FFBFFFFF 		.word	-16385
 525              		.cfi_endproc
 526              	.LFE48:
 527              		.size	sd_lld_stop, .-sd_lld_stop
 528              		.global	SD1
 529 0038 C046C046 		.section	.rodata.default_config,"a",%progbits
 529      C046C046 
 530              		.align	2
 531              		.set	.LANCHOR1,. + 0
 532              		.type	default_config, %object
 533              		.size	default_config, 16
 534              	default_config:
 535 0000 00960000 		.word	38400
 536 0004 00000000 		.word	0
 537 0008 00400000 		.word	16384
 538 000c 00000000 		.word	0
 539              		.section	.bss.SD1,"aw",%nobits
 540              		.align	2
 541              		.set	.LANCHOR0,. + 0
 542              		.type	SD1, %object
 543              		.size	SD1, 124
 544              	SD1:
 545 0000 00000000 		.space	124
 545      00000000 
 545      00000000 
 545      00000000 
 545      00000000 
 546              		.text
 547              	.Letext0:
 548              		.file 2 "c:\\yagarto\\bin\\../lib/gcc/arm-none-eabi/4.6.2/include/stddef.h"
 549              		.file 3 "c:/yagarto/lib/gcc/../../arm-none-eabi/sys-include/stdint.h"
 550              		.file 4 "../../os/ports/GCC/ARMCMx/chtypes.h"
 551              		.file 5 "../../os/kernel/include/chlists.h"
 552              		.file 6 "../../os/kernel/include/chthreads.h"
 553              		.file 7 "../../os/ports/GCC/ARMCMx/chcore_v6m.h"
 554              		.file 8 "../../os/kernel/include/chmtx.h"
 555              		.file 9 "../../os/kernel/include/chevents.h"
 556              		.file 10 "../../os/kernel/include/chqueues.h"
 557              		.file 11 "../../os/hal/platforms/STM32F0xx/stm32f0xx.h"
 558              		.file 12 "../../os/hal/include/serial.h"
 559              		.file 13 "../../os/hal/platforms/STM32/USARTv2/serial_lld.h"