ARM GAS  C:\Users\Rob\AppData\Local\Temp\ccwox2P9.s 			page 1


   1              		.cpu cortex-m0
   2              		.fpu softvfp
   3              		.eabi_attribute 20, 1
   4              		.eabi_attribute 21, 1
   5              		.eabi_attribute 23, 3
   6              		.eabi_attribute 24, 1
   7              		.eabi_attribute 25, 1
   8              		.eabi_attribute 26, 1
   9              		.eabi_attribute 30, 2
  10              		.eabi_attribute 18, 4
  11              		.code	16
  12              		.file	"serial.c"
  13              		.text
  14              	.Ltext0:
  15              		.cfi_sections	.debug_frame
  16              		.section	.text.readt,"ax",%progbits
  17              		.align	2
  18              		.p2align 4,,15
  19              		.code	16
  20              		.thumb_func
  21              		.type	readt, %function
  22              	readt:
  23              	.LFB47:
  24              		.file 1 "../../os/hal/src/serial.c"
  25              		.loc 1 92 0
  26              		.cfi_startproc
  27 0000 08B5     		push	{r3, lr}
  28              	.LCFI0:
  29              		.cfi_def_cfa_offset 8
  30              		.cfi_offset 3, -8
  31              		.cfi_offset 14, -4
  32              	.LVL0:
  33              		.loc 1 94 0
  34 0002 0C30     		add	r0, r0, #12
  35              	.LVL1:
  36 0004 FFF7FEFF 		bl	chIQReadTimeout
  37              	.LVL2:
  38              		.loc 1 95 0
  39              		@ sp needed for prologue
  40 0008 08BD     		pop	{r3, pc}
  41              		.cfi_endproc
  42              	.LFE47:
  43              		.size	readt, .-readt
  44 000a C046C046 		.section	.text.read,"ax",%progbits
  44      C046
  45              		.align	2
  46              		.p2align 4,,15
  47              		.code	16
  48              		.thumb_func
  49              		.type	read, %function
  50              	read:
  51              	.LFB41:
  52              		.loc 1 61 0
  53              		.cfi_startproc
  54 0000 08B5     		push	{r3, lr}
  55              	.LCFI1:
  56              		.cfi_def_cfa_offset 8
ARM GAS  C:\Users\Rob\AppData\Local\Temp\ccwox2P9.s 			page 2


  57              		.cfi_offset 3, -8
  58              		.cfi_offset 14, -4
  59              	.LVL3:
  60              		.loc 1 63 0
  61 0002 0123     		mov	r3, #1
  62 0004 0C30     		add	r0, r0, #12
  63              	.LVL4:
  64 0006 5B42     		neg	r3, r3
  65 0008 FFF7FEFF 		bl	chIQReadTimeout
  66              	.LVL5:
  67              		.loc 1 65 0
  68              		@ sp needed for prologue
  69 000c 08BD     		pop	{r3, pc}
  70              		.cfi_endproc
  71              	.LFE41:
  72              		.size	read, .-read
  73 000e C046     		.section	.text.writet,"ax",%progbits
  74              		.align	2
  75              		.p2align 4,,15
  76              		.code	16
  77              		.thumb_func
  78              		.type	writet, %function
  79              	writet:
  80              	.LFB46:
  81              		.loc 1 87 0
  82              		.cfi_startproc
  83 0000 08B5     		push	{r3, lr}
  84              	.LCFI2:
  85              		.cfi_def_cfa_offset 8
  86              		.cfi_offset 3, -8
  87              		.cfi_offset 14, -4
  88              	.LVL6:
  89              		.loc 1 89 0
  90 0002 3030     		add	r0, r0, #48
  91              	.LVL7:
  92 0004 FFF7FEFF 		bl	chOQWriteTimeout
  93              	.LVL8:
  94              		.loc 1 90 0
  95              		@ sp needed for prologue
  96 0008 08BD     		pop	{r3, pc}
  97              		.cfi_endproc
  98              	.LFE46:
  99              		.size	writet, .-writet
 100 000a C046C046 		.section	.text.write,"ax",%progbits
 100      C046
 101              		.align	2
 102              		.p2align 4,,15
 103              		.code	16
 104              		.thumb_func
 105              		.type	write, %function
 106              	write:
 107              	.LFB40:
 108              		.loc 1 55 0
 109              		.cfi_startproc
 110 0000 08B5     		push	{r3, lr}
 111              	.LCFI3:
 112              		.cfi_def_cfa_offset 8
ARM GAS  C:\Users\Rob\AppData\Local\Temp\ccwox2P9.s 			page 3


 113              		.cfi_offset 3, -8
 114              		.cfi_offset 14, -4
 115              	.LVL9:
 116              		.loc 1 57 0
 117 0002 0123     		mov	r3, #1
 118 0004 3030     		add	r0, r0, #48
 119              	.LVL10:
 120 0006 5B42     		neg	r3, r3
 121 0008 FFF7FEFF 		bl	chOQWriteTimeout
 122              	.LVL11:
 123              		.loc 1 59 0
 124              		@ sp needed for prologue
 125 000c 08BD     		pop	{r3, pc}
 126              		.cfi_endproc
 127              	.LFE40:
 128              		.size	write, .-write
 129 000e C046     		.section	.text.gett,"ax",%progbits
 130              		.align	2
 131              		.p2align 4,,15
 132              		.code	16
 133              		.thumb_func
 134              		.type	gett, %function
 135              	gett:
 136              	.LFB45:
 137              		.loc 1 82 0
 138              		.cfi_startproc
 139 0000 08B5     		push	{r3, lr}
 140              	.LCFI4:
 141              		.cfi_def_cfa_offset 8
 142              		.cfi_offset 3, -8
 143              		.cfi_offset 14, -4
 144              	.LVL12:
 145              		.loc 1 84 0
 146 0002 0C30     		add	r0, r0, #12
 147              	.LVL13:
 148 0004 FFF7FEFF 		bl	chIQGetTimeout
 149              	.LVL14:
 150              		.loc 1 85 0
 151              		@ sp needed for prologue
 152 0008 08BD     		pop	{r3, pc}
 153              		.cfi_endproc
 154              	.LFE45:
 155              		.size	gett, .-gett
 156 000a C046C046 		.section	.text.get,"ax",%progbits
 156      C046
 157              		.align	2
 158              		.p2align 4,,15
 159              		.code	16
 160              		.thumb_func
 161              		.type	get, %function
 162              	get:
 163              	.LFB43:
 164              		.loc 1 72 0
 165              		.cfi_startproc
 166 0000 08B5     		push	{r3, lr}
 167              	.LCFI5:
 168              		.cfi_def_cfa_offset 8
ARM GAS  C:\Users\Rob\AppData\Local\Temp\ccwox2P9.s 			page 4


 169              		.cfi_offset 3, -8
 170              		.cfi_offset 14, -4
 171              	.LVL15:
 172              		.loc 1 74 0
 173 0002 0121     		mov	r1, #1
 174 0004 0C30     		add	r0, r0, #12
 175              	.LVL16:
 176 0006 4942     		neg	r1, r1
 177 0008 FFF7FEFF 		bl	chIQGetTimeout
 178              	.LVL17:
 179              		.loc 1 75 0
 180              		@ sp needed for prologue
 181 000c 08BD     		pop	{r3, pc}
 182              		.cfi_endproc
 183              	.LFE43:
 184              		.size	get, .-get
 185 000e C046     		.section	.text.putt,"ax",%progbits
 186              		.align	2
 187              		.p2align 4,,15
 188              		.code	16
 189              		.thumb_func
 190              		.type	putt, %function
 191              	putt:
 192              	.LFB44:
 193              		.loc 1 77 0
 194              		.cfi_startproc
 195 0000 08B5     		push	{r3, lr}
 196              	.LCFI6:
 197              		.cfi_def_cfa_offset 8
 198              		.cfi_offset 3, -8
 199              		.cfi_offset 14, -4
 200              	.LVL18:
 201              		.loc 1 79 0
 202 0002 3030     		add	r0, r0, #48
 203              	.LVL19:
 204 0004 FFF7FEFF 		bl	chOQPutTimeout
 205              	.LVL20:
 206              		.loc 1 80 0
 207              		@ sp needed for prologue
 208 0008 08BD     		pop	{r3, pc}
 209              		.cfi_endproc
 210              	.LFE44:
 211              		.size	putt, .-putt
 212 000a C046C046 		.section	.text.put,"ax",%progbits
 212      C046
 213              		.align	2
 214              		.p2align 4,,15
 215              		.code	16
 216              		.thumb_func
 217              		.type	put, %function
 218              	put:
 219              	.LFB42:
 220              		.loc 1 67 0
 221              		.cfi_startproc
 222 0000 08B5     		push	{r3, lr}
 223              	.LCFI7:
 224              		.cfi_def_cfa_offset 8
ARM GAS  C:\Users\Rob\AppData\Local\Temp\ccwox2P9.s 			page 5


 225              		.cfi_offset 3, -8
 226              		.cfi_offset 14, -4
 227              	.LVL21:
 228              		.loc 1 69 0
 229 0002 0122     		mov	r2, #1
 230 0004 3030     		add	r0, r0, #48
 231              	.LVL22:
 232 0006 5242     		neg	r2, r2
 233 0008 FFF7FEFF 		bl	chOQPutTimeout
 234              	.LVL23:
 235              		.loc 1 70 0
 236              		@ sp needed for prologue
 237 000c 08BD     		pop	{r3, pc}
 238              		.cfi_endproc
 239              	.LFE42:
 240              		.size	put, .-put
 241 000e C046     		.section	.text.sdInit,"ax",%progbits
 242              		.align	2
 243              		.p2align 4,,15
 244              		.global	sdInit
 245              		.code	16
 246              		.thumb_func
 247              		.type	sdInit, %function
 248              	sdInit:
 249              	.LFB48:
 250              		.loc 1 113 0
 251              		.cfi_startproc
 252 0000 08B5     		push	{r3, lr}
 253              	.LCFI8:
 254              		.cfi_def_cfa_offset 8
 255              		.cfi_offset 3, -8
 256              		.cfi_offset 14, -4
 257              		.loc 1 115 0
 258 0002 FFF7FEFF 		bl	sd_lld_init
 259              		.loc 1 116 0
 260              		@ sp needed for prologue
 261 0006 08BD     		pop	{r3, pc}
 262              		.cfi_endproc
 263              	.LFE48:
 264              		.size	sdInit, .-sdInit
 265              		.section	.text.sdObjectInit,"ax",%progbits
 266              		.align	2
 267              		.p2align 4,,15
 268              		.global	sdObjectInit
 269              		.code	16
 270              		.thumb_func
 271              		.type	sdObjectInit, %function
 272              	sdObjectInit:
 273              	.LFB49:
 274              		.loc 1 133 0
 275              		.cfi_startproc
 276 0000 30B5     		push	{r4, r5, lr}
 277              	.LCFI9:
 278              		.cfi_def_cfa_offset 12
 279              		.cfi_offset 4, -12
 280              		.cfi_offset 5, -8
 281              		.cfi_offset 14, -4
ARM GAS  C:\Users\Rob\AppData\Local\Temp\ccwox2P9.s 			page 6


 282              	.LVL24:
 283 0002 0B1C     		mov	r3, r1
 284              		.loc 1 135 0
 285 0004 0D49     		ldr	r1, .L11
 286              	.LVL25:
 287              		.loc 1 133 0
 288 0006 151C     		mov	r5, r2
 289              		.loc 1 135 0
 290 0008 021C     		mov	r2, r0
 291              	.LVL26:
 292              		.loc 1 133 0
 293 000a 041C     		mov	r4, r0
 294              		.loc 1 135 0
 295 000c 02C2     		stmia	r2!, {r1}
 296              		.loc 1 136 0
 297 000e 4260     		str	r2, [r0, #4]
 298              		.loc 1 138 0
 299 0010 211C     		mov	r1, r4
 300              		.loc 1 137 0
 301 0012 0122     		mov	r2, #1
 302              		.loc 1 133 0
 303 0014 83B0     		sub	sp, sp, #12
 304              	.LCFI10:
 305              		.cfi_def_cfa_offset 24
 306              		.loc 1 137 0
 307 0016 0272     		strb	r2, [r0, #8]
 308              		.loc 1 138 0
 309 0018 5431     		add	r1, r1, #84
 310 001a 0C30     		add	r0, r0, #12
 311              	.LVL27:
 312 001c 1022     		mov	r2, #16
 313 001e 0094     		str	r4, [sp]
 314 0020 FFF7FEFF 		bl	chIQInit
 315              	.LVL28:
 316              		.loc 1 139 0
 317 0024 201C     		mov	r0, r4
 318 0026 211C     		mov	r1, r4
 319 0028 2B1C     		mov	r3, r5
 320 002a 3030     		add	r0, r0, #48
 321 002c 6431     		add	r1, r1, #100
 322 002e 1022     		mov	r2, #16
 323 0030 0094     		str	r4, [sp]
 324 0032 FFF7FEFF 		bl	chOQInit
 325              		.loc 1 140 0
 326 0036 03B0     		add	sp, sp, #12
 327              		@ sp needed for prologue
 328              	.LVL29:
 329              	.LVL30:
 330 0038 30BD     		pop	{r4, r5, pc}
 331              	.L12:
 332 003a C046     		.align	2
 333              	.L11:
 334 003c 00000000 		.word	.LANCHOR0
 335              		.cfi_endproc
 336              	.LFE49:
 337              		.size	sdObjectInit, .-sdObjectInit
 338              		.section	.text.sdStart,"ax",%progbits
ARM GAS  C:\Users\Rob\AppData\Local\Temp\ccwox2P9.s 			page 7


 339              		.align	2
 340              		.p2align 4,,15
 341              		.global	sdStart
 342              		.code	16
 343              		.thumb_func
 344              		.type	sdStart, %function
 345              	sdStart:
 346              	.LFB50:
 347              		.loc 1 152 0
 348              		.cfi_startproc
 349 0000 10B5     		push	{r4, lr}
 350              	.LCFI11:
 351              		.cfi_def_cfa_offset 8
 352              		.cfi_offset 4, -8
 353              		.cfi_offset 14, -4
 354              	.LVL31:
 355              		.loc 1 152 0
 356 0002 041C     		mov	r4, r0
 357              		.loc 1 156 0
 358              	@ 156 "../../os/hal/src/serial.c" 1
 359 0004 72B6     		cpsid   i
 360              	@ 0 "" 2
 361              		.loc 1 160 0
 362              		.code	16
 363 0006 FFF7FEFF 		bl	sd_lld_start
 364              	.LVL32:
 365              		.loc 1 161 0
 366 000a 0223     		mov	r3, #2
 367 000c 2372     		strb	r3, [r4, #8]
 368              		.loc 1 162 0
 369              	@ 162 "../../os/hal/src/serial.c" 1
 370 000e 62B6     		cpsie   i
 371              	@ 0 "" 2
 372              		.loc 1 163 0
 373              		.code	16
 374              		@ sp needed for prologue
 375              	.LVL33:
 376 0010 10BD     		pop	{r4, pc}
 377              		.cfi_endproc
 378              	.LFE50:
 379              		.size	sdStart, .-sdStart
 380 0012 C046C046 		.section	.text.sdStop,"ax",%progbits
 380      C046C046 
 380      C046C046 
 380      C046
 381              		.align	2
 382              		.p2align 4,,15
 383              		.global	sdStop
 384              		.code	16
 385              		.thumb_func
 386              		.type	sdStop, %function
 387              	sdStop:
 388              	.LFB51:
 389              		.loc 1 174 0
 390              		.cfi_startproc
 391 0000 10B5     		push	{r4, lr}
 392              	.LCFI12:
ARM GAS  C:\Users\Rob\AppData\Local\Temp\ccwox2P9.s 			page 8


 393              		.cfi_def_cfa_offset 8
 394              		.cfi_offset 4, -8
 395              		.cfi_offset 14, -4
 396              	.LVL34:
 397              		.loc 1 174 0
 398 0002 041C     		mov	r4, r0
 399              		.loc 1 178 0
 400              	@ 178 "../../os/hal/src/serial.c" 1
 401 0004 72B6     		cpsid   i
 402              	@ 0 "" 2
 403              		.loc 1 182 0
 404              		.code	16
 405 0006 FFF7FEFF 		bl	sd_lld_stop
 406              	.LVL35:
 407              		.loc 1 183 0
 408 000a 0123     		mov	r3, #1
 409              		.loc 1 184 0
 410 000c 201C     		mov	r0, r4
 411              		.loc 1 183 0
 412 000e 2372     		strb	r3, [r4, #8]
 413              		.loc 1 184 0
 414 0010 3030     		add	r0, r0, #48
 415 0012 FFF7FEFF 		bl	chOQResetI
 416              		.loc 1 185 0
 417 0016 201C     		mov	r0, r4
 418 0018 0C30     		add	r0, r0, #12
 419 001a FFF7FEFF 		bl	chIQResetI
 420              		.loc 1 186 0
 421 001e FFF7FEFF 		bl	chSchRescheduleS
 422              		.loc 1 187 0
 423              	@ 187 "../../os/hal/src/serial.c" 1
 424 0022 62B6     		cpsie   i
 425              	@ 0 "" 2
 426              		.loc 1 188 0
 427              		.code	16
 428              		@ sp needed for prologue
 429              	.LVL36:
 430 0024 10BD     		pop	{r4, pc}
 431              		.cfi_endproc
 432              	.LFE51:
 433              		.size	sdStop, .-sdStop
 434 0026 C046C046 		.section	.text.sdIncomingDataI,"ax",%progbits
 434      C046C046 
 434      C046
 435              		.align	2
 436              		.p2align 4,,15
 437              		.global	sdIncomingDataI
 438              		.code	16
 439              		.thumb_func
 440              		.type	sdIncomingDataI, %function
 441              	sdIncomingDataI:
 442              	.LFB52:
 443              		.loc 1 206 0
 444              		.cfi_startproc
 445 0000 38B5     		push	{r3, r4, r5, lr}
 446              	.LCFI13:
 447              		.cfi_def_cfa_offset 16
ARM GAS  C:\Users\Rob\AppData\Local\Temp\ccwox2P9.s 			page 9


 448              		.cfi_offset 3, -16
 449              		.cfi_offset 4, -12
 450              		.cfi_offset 5, -8
 451              		.cfi_offset 14, -4
 452              	.LVL37:
 453              		.loc 1 211 0
 454 0002 4369     		ldr	r3, [r0, #20]
 455              		.loc 1 206 0
 456 0004 041C     		mov	r4, r0
 457 0006 0D1C     		mov	r5, r1
 458              		.loc 1 211 0
 459 0008 002B     		cmp	r3, #0
 460 000a 07D0     		beq	.L19
 461              		.loc 1 213 0
 462 000c 201C     		mov	r0, r4
 463 000e 0C30     		add	r0, r0, #12
 464              	.LVL38:
 465 0010 291C     		mov	r1, r5
 466              	.LVL39:
 467 0012 FFF7FEFF 		bl	chIQPutI
 468 0016 0028     		cmp	r0, #0
 469 0018 0BDB     		blt	.L20
 470              	.L15:
 471              		.loc 1 215 0
 472              		@ sp needed for prologue
 473              	.LVL40:
 474 001a 38BD     		pop	{r3, r4, r5, pc}
 475              	.LVL41:
 476              	.L19:
 477              		.loc 1 212 0
 478 001c 0430     		add	r0, r0, #4
 479              	.LVL42:
 480 001e 0421     		mov	r1, #4
 481              	.LVL43:
 482 0020 FFF7FEFF 		bl	chEvtBroadcastFlagsI
 483              		.loc 1 213 0
 484 0024 201C     		mov	r0, r4
 485 0026 0C30     		add	r0, r0, #12
 486 0028 291C     		mov	r1, r5
 487 002a FFF7FEFF 		bl	chIQPutI
 488 002e 0028     		cmp	r0, #0
 489 0030 F3DA     		bge	.L15
 490              	.L20:
 491              		.loc 1 214 0
 492 0032 201D     		add	r0, r4, #4
 493 0034 8021     		mov	r1, #128
 494 0036 FFF7FEFF 		bl	chEvtBroadcastFlagsI
 495 003a EEE7     		b	.L15
 496              		.cfi_endproc
 497              	.LFE52:
 498              		.size	sdIncomingDataI, .-sdIncomingDataI
 499 003c C046C046 		.section	.text.sdRequestDataI,"ax",%progbits
 500              		.align	2
 501              		.p2align 4,,15
 502              		.global	sdRequestDataI
 503              		.code	16
 504              		.thumb_func
ARM GAS  C:\Users\Rob\AppData\Local\Temp\ccwox2P9.s 			page 10


 505              		.type	sdRequestDataI, %function
 506              	sdRequestDataI:
 507              	.LFB53:
 508              		.loc 1 232 0
 509              		.cfi_startproc
 510 0000 38B5     		push	{r3, r4, r5, lr}
 511              	.LCFI14:
 512              		.cfi_def_cfa_offset 16
 513              		.cfi_offset 3, -16
 514              		.cfi_offset 4, -12
 515              		.cfi_offset 5, -8
 516              		.cfi_offset 14, -4
 517              	.LVL44:
 518              		.loc 1 232 0
 519 0002 051C     		mov	r5, r0
 520              		.loc 1 238 0
 521 0004 3030     		add	r0, r0, #48
 522              	.LVL45:
 523 0006 FFF7FEFF 		bl	chOQGetI
 524              		.loc 1 239 0
 525 000a 041E     		sub	r4, r0, #0
 526 000c 01DB     		blt	.L23
 527              	.L22:
 528              		.loc 1 242 0
 529 000e 201C     		mov	r0, r4
 530              		@ sp needed for prologue
 531              	.LVL46:
 532 0010 38BD     		pop	{r3, r4, r5, pc}
 533              	.LVL47:
 534              	.L23:
 535              		.loc 1 240 0
 536 0012 281D     		add	r0, r5, #4
 537 0014 0821     		mov	r1, #8
 538 0016 FFF7FEFF 		bl	chEvtBroadcastFlagsI
 539 001a F8E7     		b	.L22
 540              		.cfi_endproc
 541              	.LFE53:
 542              		.size	sdRequestDataI, .-sdRequestDataI
 543 001c C046C046 		.section	.rodata.vmt,"a",%progbits
 544              		.align	2
 545              		.set	.LANCHOR0,. + 0
 546              		.type	vmt, %object
 547              		.size	vmt, 32
 548              	vmt:
 549 0000 00000000 		.word	write
 550 0004 00000000 		.word	read
 551 0008 00000000 		.word	put
 552 000c 00000000 		.word	get
 553 0010 00000000 		.word	putt
 554 0014 00000000 		.word	gett
 555 0018 00000000 		.word	writet
 556 001c 00000000 		.word	readt
 557              		.text
 558              	.Letext0:
 559              		.file 2 "c:\\yagarto\\bin\\../lib/gcc/arm-none-eabi/4.6.2/include/stddef.h"
 560              		.file 3 "c:/yagarto/lib/gcc/../../arm-none-eabi/sys-include/stdint.h"
 561              		.file 4 "../../os/ports/GCC/ARMCMx/chtypes.h"
ARM GAS  C:\Users\Rob\AppData\Local\Temp\ccwox2P9.s 			page 11


 562              		.file 5 "../../os/kernel/include/chlists.h"
 563              		.file 6 "../../os/kernel/include/chthreads.h"
 564              		.file 7 "../../os/ports/GCC/ARMCMx/chcore_v6m.h"
 565              		.file 8 "../../os/kernel/include/chmtx.h"
 566              		.file 9 "../../os/kernel/include/chevents.h"
 567              		.file 10 "../../os/kernel/include/chqueues.h"
 568              		.file 11 "../../os/hal/platforms/STM32F0xx/stm32f0xx.h"
 569              		.file 12 "../../os/hal/include/serial.h"
 570              		.file 13 "../../os/hal/platforms/STM32/USARTv2/serial_lld.h"