ARM GAS  C:\Users\Rob\AppData\Local\Temp\ccW1RN4f.s 			page 1


   1              		.cpu cortex-m0
   2              		.fpu softvfp
   3              		.eabi_attribute 20, 1
   4              		.eabi_attribute 21, 1
   5              		.eabi_attribute 23, 3
   6              		.eabi_attribute 24, 1
   7              		.eabi_attribute 25, 1
   8              		.eabi_attribute 26, 1
   9              		.eabi_attribute 30, 2
  10              		.eabi_attribute 18, 4
  11              		.code	16
  12              		.file	"testmbox.c"
  13              		.text
  14              	.Ltext0:
  15              		.cfi_sections	.debug_frame
  16              		.section	.text.mbox1_setup,"ax",%progbits
  17              		.align	2
  18              		.p2align 4,,15
  19              		.code	16
  20              		.thumb_func
  21              		.type	mbox1_setup, %function
  22              	mbox1_setup:
  23              	.LFB7:
  24              		.file 1 "../../test/testmbox.c"
  25              		.loc 1 71 0
  26              		.cfi_startproc
  27 0000 08B5     		push	{r3, lr}
  28              	.LCFI0:
  29              		.cfi_def_cfa_offset 8
  30              		.cfi_offset 3, -8
  31              		.cfi_offset 14, -4
  32              		.loc 1 73 0
  33 0002 0348     		ldr	r0, .L2
  34 0004 0349     		ldr	r1, .L2+4
  35 0006 0522     		mov	r2, #5
  36 0008 FFF7FEFF 		bl	chMBInit
  37              		.loc 1 74 0
  38              		@ sp needed for prologue
  39 000c 08BD     		pop	{r3, pc}
  40              	.L3:
  41 000e C046     		.align	2
  42              	.L2:
  43 0010 00000000 		.word	.LANCHOR0
  44 0014 00000000 		.word	test
  45              		.cfi_endproc
  46              	.LFE7:
  47              		.size	mbox1_setup, .-mbox1_setup
  48 0018 C046C046 		.section	.text.mbox1_execute,"ax",%progbits
  48      C046C046 
  49              		.align	2
  50              		.p2align 4,,15
  51              		.code	16
  52              		.thumb_func
  53              		.type	mbox1_execute, %function
  54              	mbox1_execute:
  55              	.LFB8:
  56              		.loc 1 76 0
ARM GAS  C:\Users\Rob\AppData\Local\Temp\ccW1RN4f.s 			page 2


  57              		.cfi_startproc
  58 0000 70B5     		push	{r4, r5, r6, lr}
  59              	.LCFI1:
  60              		.cfi_def_cfa_offset 16
  61              		.cfi_offset 4, -16
  62              		.cfi_offset 5, -12
  63              		.cfi_offset 6, -8
  64              		.cfi_offset 14, -4
  65              		.loc 1 83 0
  66 0002 154D     		ldr	r5, .L30
  67              		.loc 1 76 0
  68 0004 82B0     		sub	sp, sp, #8
  69              	.LCFI2:
  70              		.cfi_def_cfa_offset 24
  71              		.loc 1 83 0
  72 0006 696A     		ldr	r1, [r5, #36]
  73 0008 0120     		mov	r0, #1
  74 000a 0539     		sub	r1, r1, #5
  75 000c 4B42     		neg	r3, r1
  76 000e 5941     		adc	r1, r1, r3
  77 0010 FFF7FEFF 		bl	_test_assert
  78 0014 0028     		cmp	r0, #0
  79 0016 1DD1     		bne	.L4
  80 0018 4224     		mov	r4, #66
  81              	.L6:
  82              		.loc 1 89 0
  83 001a 0122     		mov	r2, #1
  84 001c 211C     		mov	r1, r4
  85 001e 281C     		mov	r0, r5
  86 0020 5242     		neg	r2, r2
  87 0022 FFF7FEFF 		bl	chMBPost
  88              	.LVL0:
  89              		.loc 1 90 0
  90 0026 4142     		neg	r1, r0
  91 0028 4141     		adc	r1, r1, r0
  92              	.LVL1:
  93 002a 0220     		mov	r0, #2
  94 002c FFF7FEFF 		bl	_test_assert
  95 0030 0028     		cmp	r0, #0
  96 0032 0FD1     		bne	.L4
  97 0034 0134     		add	r4, r4, #1
  98              		.loc 1 88 0
  99 0036 462C     		cmp	r4, #70
 100 0038 EFD1     		bne	.L6
 101              		.loc 1 92 0
 102 003a 0122     		mov	r2, #1
 103 003c 4121     		mov	r1, #65
 104 003e 281C     		mov	r0, r5
 105 0040 5242     		neg	r2, r2
 106 0042 FFF7FEFF 		bl	chMBPostAhead
 107              	.LVL2:
 108              		.loc 1 93 0
 109 0046 4142     		neg	r1, r0
 110 0048 4141     		adc	r1, r1, r0
 111              	.LVL3:
 112 004a 0320     		mov	r0, #3
 113 004c FFF7FEFF 		bl	_test_assert
ARM GAS  C:\Users\Rob\AppData\Local\Temp\ccW1RN4f.s 			page 3


 114 0050 0028     		cmp	r0, #0
 115 0052 03D0     		beq	.L29
 116              	.LVL4:
 117              	.L4:
 118              		.loc 1 220 0
 119 0054 02B0     		add	sp, sp, #8
 120              		@ sp needed for prologue
 121 0056 70BD     		pop	{r4, r5, r6, pc}
 122              	.L31:
 123              		.align	2
 124              	.L30:
 125 0058 00000000 		.word	.LANCHOR0
 126              	.L29:
 127              	.LBB4:
 128              	.LBB5:
 129              		.loc 1 98 0
 130 005c 5821     		mov	r1, #88
 131 005e 281C     		mov	r0, r5
 132 0060 0122     		mov	r2, #1
 133 0062 FFF7FEFF 		bl	chMBPost
 134              	.LVL5:
 135              		.loc 1 99 0
 136 0066 411C     		add	r1, r0, #1
 137 0068 4B42     		neg	r3, r1
 138 006a 5941     		adc	r1, r1, r3
 139 006c 0420     		mov	r0, #4
 140              	.LVL6:
 141 006e FFF7FEFF 		bl	_test_assert
 142 0072 0028     		cmp	r0, #0
 143 0074 EED1     		bne	.L4
 144              		.loc 1 100 0
 145              	@ 100 "../../test/testmbox.c" 1
 146 0076 72B6     		cpsid   i
 147              	@ 0 "" 2
 148              		.loc 1 101 0
 149              		.code	16
 150 0078 5821     		mov	r1, #88
 151 007a 281C     		mov	r0, r5
 152 007c FFF7FEFF 		bl	chMBPostI
 153              	.LVL7:
 154              		.loc 1 102 0
 155              	@ 102 "../../test/testmbox.c" 1
 156 0080 62B6     		cpsie   i
 157              	@ 0 "" 2
 158              		.loc 1 103 0
 159              		.code	16
 160 0082 411C     		add	r1, r0, #1
 161 0084 4B42     		neg	r3, r1
 162 0086 5941     		adc	r1, r1, r3
 163 0088 0520     		mov	r0, #5
 164              	.LVL8:
 165 008a FFF7FEFF 		bl	_test_assert
 166 008e 0028     		cmp	r0, #0
 167 0090 E0D1     		bne	.L4
 168              		.loc 1 104 0
 169 0092 5821     		mov	r1, #88
 170 0094 281C     		mov	r0, r5
ARM GAS  C:\Users\Rob\AppData\Local\Temp\ccW1RN4f.s 			page 4


 171 0096 0122     		mov	r2, #1
 172 0098 FFF7FEFF 		bl	chMBPostAhead
 173              	.LVL9:
 174              		.loc 1 105 0
 175 009c 411C     		add	r1, r0, #1
 176 009e 4B42     		neg	r3, r1
 177 00a0 5941     		adc	r1, r1, r3
 178 00a2 0620     		mov	r0, #6
 179              	.LVL10:
 180 00a4 FFF7FEFF 		bl	_test_assert
 181 00a8 0028     		cmp	r0, #0
 182 00aa D3D1     		bne	.L4
 183              		.loc 1 106 0
 184              	@ 106 "../../test/testmbox.c" 1
 185 00ac 72B6     		cpsid   i
 186              	@ 0 "" 2
 187              		.loc 1 107 0
 188              		.code	16
 189 00ae 5821     		mov	r1, #88
 190 00b0 281C     		mov	r0, r5
 191 00b2 FFF7FEFF 		bl	chMBPostAheadI
 192              	.LVL11:
 193              		.loc 1 108 0
 194              	@ 108 "../../test/testmbox.c" 1
 195 00b6 62B6     		cpsie   i
 196              	@ 0 "" 2
 197              		.loc 1 109 0
 198              		.code	16
 199 00b8 411C     		add	r1, r0, #1
 200 00ba 4B42     		neg	r3, r1
 201 00bc 5941     		adc	r1, r1, r3
 202 00be 0720     		mov	r0, #7
 203              	.LVL12:
 204 00c0 FFF7FEFF 		bl	_test_assert
 205 00c4 0028     		cmp	r0, #0
 206 00c6 C5D1     		bne	.L4
 207              		.loc 1 114 0
 208              	@ 114 "../../test/testmbox.c" 1
 209 00c8 72B6     		cpsid   i
 210              	@ 0 "" 2
 211              		.code	16
 212 00ca 696A     		ldr	r1, [r5, #36]
 213 00cc 0820     		mov	r0, #8
 214 00ce 4B42     		neg	r3, r1
 215 00d0 5941     		adc	r1, r1, r3
 216 00d2 FFF7FEFF 		bl	_test_assert
 217              	@ 114 "../../test/testmbox.c" 1
 218 00d6 62B6     		cpsie   i
 219              	@ 0 "" 2
 220              		.code	16
 221 00d8 0028     		cmp	r0, #0
 222 00da BBD1     		bne	.L4
 223              		.loc 1 115 0
 224              	@ 115 "../../test/testmbox.c" 1
 225 00dc 72B6     		cpsid   i
 226              	@ 0 "" 2
 227              		.code	16
ARM GAS  C:\Users\Rob\AppData\Local\Temp\ccW1RN4f.s 			page 5


 228 00de A969     		ldr	r1, [r5, #24]
 229 00e0 0920     		mov	r0, #9
 230 00e2 0539     		sub	r1, r1, #5
 231 00e4 4B42     		neg	r3, r1
 232 00e6 5941     		adc	r1, r1, r3
 233 00e8 FFF7FEFF 		bl	_test_assert
 234              	@ 115 "../../test/testmbox.c" 1
 235 00ec 62B6     		cpsie   i
 236              	@ 0 "" 2
 237              		.code	16
 238 00ee 0028     		cmp	r0, #0
 239 00f0 B0D1     		bne	.L4
 240              		.loc 1 116 0
 241              	@ 116 "../../test/testmbox.c" 1
 242 00f2 72B6     		cpsid   i
 243              	@ 0 "" 2
 244              		.code	16
 245 00f4 AB68     		ldr	r3, [r5, #8]
 246 00f6 E968     		ldr	r1, [r5, #12]
 247 00f8 0A20     		mov	r0, #10
 248 00fa C91A     		sub	r1, r1, r3
 249 00fc 4B42     		neg	r3, r1
 250 00fe 5941     		adc	r1, r1, r3
 251 0100 FFF7FEFF 		bl	_test_assert
 252              	@ 116 "../../test/testmbox.c" 1
 253 0104 62B6     		cpsie   i
 254              	@ 0 "" 2
 255              		.code	16
 256 0106 0524     		mov	r4, #5
 257 0108 0028     		cmp	r0, #0
 258 010a A3D1     		bne	.L4
 259              	.L10:
 260              		.loc 1 122 0
 261 010c 0122     		mov	r2, #1
 262 010e 01A9     		add	r1, sp, #4
 263 0110 281C     		mov	r0, r5
 264 0112 5242     		neg	r2, r2
 265 0114 FFF7FEFF 		bl	chMBFetch
 266              	.LVL13:
 267              		.loc 1 123 0
 268 0118 4142     		neg	r1, r0
 269 011a 4141     		adc	r1, r1, r0
 270              	.LVL14:
 271 011c 0B20     		mov	r0, #11
 272 011e FFF7FEFF 		bl	_test_assert
 273 0122 0028     		cmp	r0, #0
 274 0124 00D0     		beq	.LCB198
 275 0126 95E7     		b	.L4	@long jump
 276              	.LCB198:
 277              	.LVL15:
 278              		.loc 1 124 0
 279 0128 0198     		ldr	r0, [sp, #4]
 280 012a 013C     		sub	r4, r4, #1
 281 012c C0B2     		uxtb	r0, r0
 282              	.LVL16:
 283 012e FFF7FEFF 		bl	test_emit_token
 284              		.loc 1 121 0
ARM GAS  C:\Users\Rob\AppData\Local\Temp\ccW1RN4f.s 			page 6


 285 0132 002C     		cmp	r4, #0
 286 0134 EAD1     		bne	.L10
 287              		.loc 1 126 0
 288 0136 A74C     		ldr	r4, .L32
 289 0138 0C20     		mov	r0, #12
 290 013a 211C     		mov	r1, r4
 291 013c FFF7FEFF 		bl	_test_assert_sequence
 292 0140 0028     		cmp	r0, #0
 293 0142 00D0     		beq	.LCB213
 294 0144 86E7     		b	.L4	@long jump
 295              	.LCB213:
 296              		.loc 1 131 0
 297 0146 0122     		mov	r2, #1
 298 0148 4721     		mov	r1, #71
 299 014a 281C     		mov	r0, r5
 300 014c 5242     		neg	r2, r2
 301 014e FFF7FEFF 		bl	chMBPost
 302              	.LVL17:
 303              		.loc 1 132 0
 304 0152 4142     		neg	r1, r0
 305 0154 4141     		adc	r1, r1, r0
 306              	.LVL18:
 307 0156 0D20     		mov	r0, #13
 308 0158 FFF7FEFF 		bl	_test_assert
 309 015c 0028     		cmp	r0, #0
 310 015e 00D0     		beq	.LCB227
 311 0160 78E7     		b	.L4	@long jump
 312              	.LCB227:
 313              		.loc 1 133 0
 314 0162 0122     		mov	r2, #1
 315 0164 01A9     		add	r1, sp, #4
 316 0166 281C     		mov	r0, r5
 317 0168 5242     		neg	r2, r2
 318 016a FFF7FEFF 		bl	chMBFetch
 319              	.LVL19:
 320              		.loc 1 134 0
 321 016e 4142     		neg	r1, r0
 322 0170 4141     		adc	r1, r1, r0
 323              	.LVL20:
 324 0172 0E20     		mov	r0, #14
 325 0174 FFF7FEFF 		bl	_test_assert
 326 0178 0028     		cmp	r0, #0
 327 017a 00D0     		beq	.LCB241
 328 017c 6AE7     		b	.L4	@long jump
 329              	.LCB241:
 330              		.loc 1 135 0
 331 017e AB68     		ldr	r3, [r5, #8]
 332 0180 2968     		ldr	r1, [r5]
 333 0182 0F20     		mov	r0, #15
 334 0184 C91A     		sub	r1, r1, r3
 335 0186 4B42     		neg	r3, r1
 336 0188 5941     		adc	r1, r1, r3
 337 018a FFF7FEFF 		bl	_test_assert
 338 018e 0028     		cmp	r0, #0
 339 0190 00D0     		beq	.LCB251
 340 0192 5FE7     		b	.L4	@long jump
 341              	.LCB251:
ARM GAS  C:\Users\Rob\AppData\Local\Temp\ccW1RN4f.s 			page 7


 342              		.loc 1 136 0
 343 0194 EB68     		ldr	r3, [r5, #12]
 344 0196 2968     		ldr	r1, [r5]
 345 0198 1020     		mov	r0, #16
 346 019a C91A     		sub	r1, r1, r3
 347 019c 4B42     		neg	r3, r1
 348 019e 5941     		adc	r1, r1, r3
 349 01a0 FFF7FEFF 		bl	_test_assert
 350 01a4 0028     		cmp	r0, #0
 351 01a6 00D0     		beq	.LCB261
 352 01a8 54E7     		b	.L4	@long jump
 353              	.LCB261:
 354              		.loc 1 141 0
 355 01aa 01A9     		add	r1, sp, #4
 356 01ac 281C     		mov	r0, r5
 357 01ae 0122     		mov	r2, #1
 358 01b0 FFF7FEFF 		bl	chMBFetch
 359              	.LVL21:
 360              		.loc 1 142 0
 361 01b4 411C     		add	r1, r0, #1
 362 01b6 4B42     		neg	r3, r1
 363 01b8 5941     		adc	r1, r1, r3
 364 01ba 1120     		mov	r0, #17
 365              	.LVL22:
 366 01bc FFF7FEFF 		bl	_test_assert
 367 01c0 0028     		cmp	r0, #0
 368 01c2 00D0     		beq	.LCB275
 369 01c4 46E7     		b	.L4	@long jump
 370              	.LCB275:
 371              		.loc 1 143 0
 372              	@ 143 "../../test/testmbox.c" 1
 373 01c6 72B6     		cpsid   i
 374              	@ 0 "" 2
 375              		.loc 1 144 0
 376              		.code	16
 377 01c8 281C     		mov	r0, r5
 378 01ca 01A9     		add	r1, sp, #4
 379 01cc FFF7FEFF 		bl	chMBFetchI
 380              	.LVL23:
 381              		.loc 1 145 0
 382              	@ 145 "../../test/testmbox.c" 1
 383 01d0 62B6     		cpsie   i
 384              	@ 0 "" 2
 385              		.loc 1 146 0
 386              		.code	16
 387 01d2 411C     		add	r1, r0, #1
 388 01d4 4B42     		neg	r3, r1
 389 01d6 5941     		adc	r1, r1, r3
 390 01d8 1220     		mov	r0, #18
 391              	.LVL24:
 392 01da FFF7FEFF 		bl	_test_assert
 393 01de 0028     		cmp	r0, #0
 394 01e0 00D0     		beq	.LCB290
 395 01e2 37E7     		b	.L4	@long jump
 396              	.LCB290:
 397              		.loc 1 151 0
 398              	@ 151 "../../test/testmbox.c" 1
ARM GAS  C:\Users\Rob\AppData\Local\Temp\ccW1RN4f.s 			page 8


 399 01e4 72B6     		cpsid   i
 400              	@ 0 "" 2
 401              		.code	16
 402 01e6 696A     		ldr	r1, [r5, #36]
 403 01e8 1320     		mov	r0, #19
 404 01ea 0539     		sub	r1, r1, #5
 405 01ec 4B42     		neg	r3, r1
 406 01ee 5941     		adc	r1, r1, r3
 407 01f0 FFF7FEFF 		bl	_test_assert
 408              	@ 151 "../../test/testmbox.c" 1
 409 01f4 62B6     		cpsie   i
 410              	@ 0 "" 2
 411              		.code	16
 412 01f6 0028     		cmp	r0, #0
 413 01f8 00D0     		beq	.LCB301
 414 01fa 2BE7     		b	.L4	@long jump
 415              	.LCB301:
 416              		.loc 1 152 0
 417              	@ 152 "../../test/testmbox.c" 1
 418 01fc 72B6     		cpsid   i
 419              	@ 0 "" 2
 420              		.code	16
 421 01fe A969     		ldr	r1, [r5, #24]
 422 0200 1420     		mov	r0, #20
 423 0202 4B42     		neg	r3, r1
 424 0204 5941     		adc	r1, r1, r3
 425 0206 FFF7FEFF 		bl	_test_assert
 426              	@ 152 "../../test/testmbox.c" 1
 427 020a 62B6     		cpsie   i
 428              	@ 0 "" 2
 429              		.code	16
 430 020c 0028     		cmp	r0, #0
 431 020e 00D0     		beq	.LCB311
 432 0210 20E7     		b	.L4	@long jump
 433              	.LCB311:
 434              		.loc 1 153 0
 435              	@ 153 "../../test/testmbox.c" 1
 436 0212 72B6     		cpsid   i
 437              	@ 0 "" 2
 438              		.code	16
 439 0214 AB68     		ldr	r3, [r5, #8]
 440 0216 E968     		ldr	r1, [r5, #12]
 441 0218 1520     		mov	r0, #21
 442 021a C91A     		sub	r1, r1, r3
 443 021c 4B42     		neg	r3, r1
 444 021e 5941     		adc	r1, r1, r3
 445 0220 FFF7FEFF 		bl	_test_assert
 446              	@ 153 "../../test/testmbox.c" 1
 447 0224 62B6     		cpsie   i
 448              	@ 0 "" 2
 449              		.code	16
 450 0226 0028     		cmp	r0, #0
 451 0228 00D0     		beq	.LCB323
 452 022a 13E7     		b	.L4	@long jump
 453              	.LCB323:
 454              		.loc 1 158 0
 455              	@ 158 "../../test/testmbox.c" 1
ARM GAS  C:\Users\Rob\AppData\Local\Temp\ccW1RN4f.s 			page 9


 456 022c 72B6     		cpsid   i
 457              	@ 0 "" 2
 458              		.loc 1 159 0
 459              		.code	16
 460 022e 4121     		mov	r1, #65
 461 0230 281C     		mov	r0, r5
 462 0232 FFF7FEFF 		bl	chMBPostI
 463              	.LVL25:
 464              		.loc 1 160 0
 465 0236 4142     		neg	r1, r0
 466 0238 4141     		adc	r1, r1, r0
 467              	.LVL26:
 468 023a 1620     		mov	r0, #22
 469 023c FFF7FEFF 		bl	_test_assert
 470 0240 0028     		cmp	r0, #0
 471 0242 00D0     		beq	.LCB336
 472 0244 06E7     		b	.L4	@long jump
 473              	.LCB336:
 474              		.loc 1 161 0
 475 0246 4221     		mov	r1, #66
 476 0248 281C     		mov	r0, r5
 477 024a FFF7FEFF 		bl	chMBPostI
 478              	.LVL27:
 479              		.loc 1 162 0
 480 024e 4142     		neg	r1, r0
 481 0250 4141     		adc	r1, r1, r0
 482              	.LVL28:
 483 0252 1720     		mov	r0, #23
 484 0254 FFF7FEFF 		bl	_test_assert
 485 0258 0028     		cmp	r0, #0
 486 025a 00D0     		beq	.LCB348
 487 025c FAE6     		b	.L4	@long jump
 488              	.LCB348:
 489              		.loc 1 163 0
 490 025e 4321     		mov	r1, #67
 491 0260 281C     		mov	r0, r5
 492 0262 FFF7FEFF 		bl	chMBPostI
 493              	.LVL29:
 494              		.loc 1 164 0
 495 0266 4142     		neg	r1, r0
 496 0268 4141     		adc	r1, r1, r0
 497              	.LVL30:
 498 026a 1820     		mov	r0, #24
 499 026c FFF7FEFF 		bl	_test_assert
 500 0270 0028     		cmp	r0, #0
 501 0272 00D0     		beq	.LCB360
 502 0274 EEE6     		b	.L4	@long jump
 503              	.LCB360:
 504              		.loc 1 165 0
 505 0276 4421     		mov	r1, #68
 506 0278 281C     		mov	r0, r5
 507 027a FFF7FEFF 		bl	chMBPostI
 508              	.LVL31:
 509              		.loc 1 166 0
 510 027e 4142     		neg	r1, r0
 511 0280 4141     		adc	r1, r1, r0
 512              	.LVL32:
ARM GAS  C:\Users\Rob\AppData\Local\Temp\ccW1RN4f.s 			page 10


 513 0282 1920     		mov	r0, #25
 514 0284 FFF7FEFF 		bl	_test_assert
 515 0288 0028     		cmp	r0, #0
 516 028a 00D0     		beq	.LCB372
 517 028c E2E6     		b	.L4	@long jump
 518              	.LCB372:
 519              		.loc 1 167 0
 520 028e 281C     		mov	r0, r5
 521 0290 4521     		mov	r1, #69
 522 0292 FFF7FEFF 		bl	chMBPostI
 523              	.LVL33:
 524              		.loc 1 168 0
 525              	@ 168 "../../test/testmbox.c" 1
 526 0296 62B6     		cpsie   i
 527              	@ 0 "" 2
 528              		.loc 1 169 0
 529              		.code	16
 530 0298 4142     		neg	r1, r0
 531 029a 4141     		adc	r1, r1, r0
 532              	.LVL34:
 533 029c 1A20     		mov	r0, #26
 534 029e FFF7FEFF 		bl	_test_assert
 535 02a2 0028     		cmp	r0, #0
 536 02a4 00D0     		beq	.LCB385
 537 02a6 D5E6     		b	.L4	@long jump
 538              	.LCB385:
 539              		.loc 1 170 0
 540 02a8 AB68     		ldr	r3, [r5, #8]
 541 02aa E968     		ldr	r1, [r5, #12]
 542 02ac 1B20     		mov	r0, #27
 543 02ae C91A     		sub	r1, r1, r3
 544 02b0 4B42     		neg	r3, r1
 545 02b2 5941     		adc	r1, r1, r3
 546 02b4 FFF7FEFF 		bl	_test_assert
 547 02b8 0028     		cmp	r0, #0
 548 02ba 00D0     		beq	.LCB395
 549 02bc CAE6     		b	.L4	@long jump
 550              	.LCB395:
 551 02be 0526     		mov	r6, #5
 552              	.LVL35:
 553              	.L14:
 554              		.loc 1 172 0
 555              	@ 172 "../../test/testmbox.c" 1
 556 02c0 72B6     		cpsid   i
 557              	@ 0 "" 2
 558              		.loc 1 173 0
 559              		.code	16
 560 02c2 281C     		mov	r0, r5
 561 02c4 01A9     		add	r1, sp, #4
 562 02c6 FFF7FEFF 		bl	chMBFetchI
 563              	.LVL36:
 564              		.loc 1 174 0
 565              	@ 174 "../../test/testmbox.c" 1
 566 02ca 62B6     		cpsie   i
 567              	@ 0 "" 2
 568              		.loc 1 175 0
 569              		.code	16
ARM GAS  C:\Users\Rob\AppData\Local\Temp\ccW1RN4f.s 			page 11


 570 02cc 4142     		neg	r1, r0
 571 02ce 4141     		adc	r1, r1, r0
 572              	.LVL37:
 573 02d0 1C20     		mov	r0, #28
 574 02d2 FFF7FEFF 		bl	_test_assert
 575 02d6 0028     		cmp	r0, #0
 576 02d8 00D0     		beq	.LCB414
 577 02da BBE6     		b	.L4	@long jump
 578              	.LCB414:
 579              	.LVL38:
 580              		.loc 1 176 0
 581 02dc 0198     		ldr	r0, [sp, #4]
 582 02de 013E     		sub	r6, r6, #1
 583 02e0 C0B2     		uxtb	r0, r0
 584              	.LVL39:
 585 02e2 FFF7FEFF 		bl	test_emit_token
 586              		.loc 1 171 0
 587 02e6 002E     		cmp	r6, #0
 588 02e8 EAD1     		bne	.L14
 589              		.loc 1 178 0
 590 02ea 1D20     		mov	r0, #29
 591 02ec 211C     		mov	r1, r4
 592 02ee FFF7FEFF 		bl	_test_assert_sequence
 593 02f2 0028     		cmp	r0, #0
 594 02f4 00D0     		beq	.LCB428
 595 02f6 ADE6     		b	.L4	@long jump
 596              	.LCB428:
 597              		.loc 1 179 0
 598              	@ 179 "../../test/testmbox.c" 1
 599 02f8 72B6     		cpsid   i
 600              	@ 0 "" 2
 601              		.code	16
 602 02fa 696A     		ldr	r1, [r5, #36]
 603 02fc 1E20     		mov	r0, #30
 604 02fe 0539     		sub	r1, r1, #5
 605 0300 4B42     		neg	r3, r1
 606 0302 5941     		adc	r1, r1, r3
 607 0304 FFF7FEFF 		bl	_test_assert
 608              	@ 179 "../../test/testmbox.c" 1
 609 0308 62B6     		cpsie   i
 610              	@ 0 "" 2
 611              		.code	16
 612 030a 0028     		cmp	r0, #0
 613 030c 00D0     		beq	.LCB439
 614 030e A1E6     		b	.L4	@long jump
 615              	.LCB439:
 616              		.loc 1 180 0
 617              	@ 180 "../../test/testmbox.c" 1
 618 0310 72B6     		cpsid   i
 619              	@ 0 "" 2
 620              		.code	16
 621 0312 A969     		ldr	r1, [r5, #24]
 622 0314 1F20     		mov	r0, #31
 623 0316 4B42     		neg	r3, r1
 624 0318 5941     		adc	r1, r1, r3
 625 031a FFF7FEFF 		bl	_test_assert
 626              	@ 180 "../../test/testmbox.c" 1
ARM GAS  C:\Users\Rob\AppData\Local\Temp\ccW1RN4f.s 			page 12


 627 031e 62B6     		cpsie   i
 628              	@ 0 "" 2
 629              		.code	16
 630 0320 0028     		cmp	r0, #0
 631 0322 00D0     		beq	.LCB449
 632 0324 96E6     		b	.L4	@long jump
 633              	.LCB449:
 634              		.loc 1 181 0
 635 0326 AB68     		ldr	r3, [r5, #8]
 636 0328 E968     		ldr	r1, [r5, #12]
 637 032a 2020     		mov	r0, #32
 638 032c C91A     		sub	r1, r1, r3
 639 032e 4B42     		neg	r3, r1
 640 0330 5941     		adc	r1, r1, r3
 641 0332 FFF7FEFF 		bl	_test_assert
 642 0336 0028     		cmp	r0, #0
 643 0338 00D0     		beq	.LCB459
 644 033a 8BE6     		b	.L4	@long jump
 645              	.LCB459:
 646              		.loc 1 183 0
 647              	@ 183 "../../test/testmbox.c" 1
 648 033c 72B6     		cpsid   i
 649              	@ 0 "" 2
 650              		.loc 1 184 0
 651              		.code	16
 652 033e 4521     		mov	r1, #69
 653 0340 281C     		mov	r0, r5
 654 0342 FFF7FEFF 		bl	chMBPostAheadI
 655              	.LVL40:
 656              		.loc 1 185 0
 657 0346 4142     		neg	r1, r0
 658 0348 4141     		adc	r1, r1, r0
 659              	.LVL41:
 660 034a 2120     		mov	r0, #33
 661 034c FFF7FEFF 		bl	_test_assert
 662 0350 0028     		cmp	r0, #0
 663 0352 00D0     		beq	.LCB472
 664 0354 7EE6     		b	.L4	@long jump
 665              	.LCB472:
 666              		.loc 1 186 0
 667 0356 4421     		mov	r1, #68
 668 0358 281C     		mov	r0, r5
 669 035a FFF7FEFF 		bl	chMBPostAheadI
 670              	.LVL42:
 671              		.loc 1 187 0
 672 035e 4142     		neg	r1, r0
 673 0360 4141     		adc	r1, r1, r0
 674              	.LVL43:
 675 0362 2220     		mov	r0, #34
 676 0364 FFF7FEFF 		bl	_test_assert
 677 0368 0028     		cmp	r0, #0
 678 036a 00D0     		beq	.LCB484
 679 036c 72E6     		b	.L4	@long jump
 680              	.LCB484:
 681              		.loc 1 188 0
 682 036e 4321     		mov	r1, #67
 683 0370 281C     		mov	r0, r5
ARM GAS  C:\Users\Rob\AppData\Local\Temp\ccW1RN4f.s 			page 13


 684 0372 FFF7FEFF 		bl	chMBPostAheadI
 685              	.LVL44:
 686              		.loc 1 189 0
 687 0376 4142     		neg	r1, r0
 688 0378 4141     		adc	r1, r1, r0
 689              	.LVL45:
 690 037a 2320     		mov	r0, #35
 691 037c FFF7FEFF 		bl	_test_assert
 692 0380 0028     		cmp	r0, #0
 693 0382 00D0     		beq	.LCB496
 694 0384 66E6     		b	.L4	@long jump
 695              	.LCB496:
 696              		.loc 1 190 0
 697 0386 4221     		mov	r1, #66
 698 0388 281C     		mov	r0, r5
 699 038a FFF7FEFF 		bl	chMBPostAheadI
 700              	.LVL46:
 701              		.loc 1 191 0
 702 038e 4142     		neg	r1, r0
 703 0390 4141     		adc	r1, r1, r0
 704              	.LVL47:
 705 0392 2420     		mov	r0, #36
 706 0394 FFF7FEFF 		bl	_test_assert
 707 0398 0028     		cmp	r0, #0
 708 039a 00D0     		beq	.LCB508
 709 039c 5AE6     		b	.L4	@long jump
 710              	.LCB508:
 711              		.loc 1 192 0
 712 039e 281C     		mov	r0, r5
 713 03a0 4121     		mov	r1, #65
 714 03a2 FFF7FEFF 		bl	chMBPostAheadI
 715              	.LVL48:
 716              		.loc 1 193 0
 717              	@ 193 "../../test/testmbox.c" 1
 718 03a6 62B6     		cpsie   i
 719              	@ 0 "" 2
 720              		.loc 1 194 0
 721              		.code	16
 722 03a8 4142     		neg	r1, r0
 723 03aa 4141     		adc	r1, r1, r0
 724              	.LVL49:
 725 03ac 2520     		mov	r0, #37
 726 03ae FFF7FEFF 		bl	_test_assert
 727 03b2 0028     		cmp	r0, #0
 728 03b4 00D0     		beq	.LCB521
 729 03b6 4DE6     		b	.L4	@long jump
 730              	.LCB521:
 731              		.loc 1 195 0
 732 03b8 AB68     		ldr	r3, [r5, #8]
 733 03ba E968     		ldr	r1, [r5, #12]
 734 03bc 2620     		mov	r0, #38
 735 03be C91A     		sub	r1, r1, r3
 736 03c0 4B42     		neg	r3, r1
 737 03c2 5941     		adc	r1, r1, r3
 738 03c4 FFF7FEFF 		bl	_test_assert
 739 03c8 0028     		cmp	r0, #0
 740 03ca 00D0     		beq	.LCB531
ARM GAS  C:\Users\Rob\AppData\Local\Temp\ccW1RN4f.s 			page 14


 741 03cc 42E6     		b	.L4	@long jump
 742              	.LCB531:
 743 03ce 0526     		mov	r6, #5
 744 03d0 02E0     		b	.L33
 745              	.L34:
 746 03d2 C046     		.align	2
 747              	.L32:
 748 03d4 00000000 		.word	.LC3
 749              	.L33:
 750              	.L17:
 751              		.loc 1 197 0
 752              	@ 197 "../../test/testmbox.c" 1
 753 03d8 72B6     		cpsid   i
 754              	@ 0 "" 2
 755              		.loc 1 198 0
 756              		.code	16
 757 03da 281C     		mov	r0, r5
 758 03dc 01A9     		add	r1, sp, #4
 759 03de FFF7FEFF 		bl	chMBFetchI
 760              	.LVL50:
 761              		.loc 1 199 0
 762              	@ 199 "../../test/testmbox.c" 1
 763 03e2 62B6     		cpsie   i
 764              	@ 0 "" 2
 765              		.loc 1 200 0
 766              		.code	16
 767 03e4 4142     		neg	r1, r0
 768 03e6 4141     		adc	r1, r1, r0
 769              	.LVL51:
 770 03e8 2720     		mov	r0, #39
 771 03ea FFF7FEFF 		bl	_test_assert
 772 03ee 0028     		cmp	r0, #0
 773 03f0 00D0     		beq	.LCB559
 774 03f2 2FE6     		b	.L4	@long jump
 775              	.LCB559:
 776              	.LVL52:
 777              		.loc 1 201 0
 778 03f4 0198     		ldr	r0, [sp, #4]
 779 03f6 013E     		sub	r6, r6, #1
 780 03f8 C0B2     		uxtb	r0, r0
 781              	.LVL53:
 782 03fa FFF7FEFF 		bl	test_emit_token
 783              		.loc 1 196 0
 784 03fe 002E     		cmp	r6, #0
 785 0400 EAD1     		bne	.L17
 786              		.loc 1 203 0
 787 0402 2820     		mov	r0, #40
 788 0404 211C     		mov	r1, r4
 789 0406 FFF7FEFF 		bl	_test_assert_sequence
 790 040a 0028     		cmp	r0, #0
 791 040c 00D0     		beq	.LCB573
 792 040e 21E6     		b	.L4	@long jump
 793              	.LCB573:
 794              		.loc 1 204 0
 795              	@ 204 "../../test/testmbox.c" 1
 796 0410 72B6     		cpsid   i
 797              	@ 0 "" 2
ARM GAS  C:\Users\Rob\AppData\Local\Temp\ccW1RN4f.s 			page 15


 798              		.code	16
 799 0412 696A     		ldr	r1, [r5, #36]
 800 0414 2920     		mov	r0, #41
 801 0416 0539     		sub	r1, r1, #5
 802 0418 4B42     		neg	r3, r1
 803 041a 5941     		adc	r1, r1, r3
 804 041c FFF7FEFF 		bl	_test_assert
 805              	@ 204 "../../test/testmbox.c" 1
 806 0420 62B6     		cpsie   i
 807              	@ 0 "" 2
 808              		.code	16
 809 0422 0028     		cmp	r0, #0
 810 0424 00D0     		beq	.LCB584
 811 0426 15E6     		b	.L4	@long jump
 812              	.LCB584:
 813              		.loc 1 205 0
 814              	@ 205 "../../test/testmbox.c" 1
 815 0428 72B6     		cpsid   i
 816              	@ 0 "" 2
 817              		.code	16
 818 042a A969     		ldr	r1, [r5, #24]
 819 042c 2A20     		mov	r0, #42
 820 042e 4B42     		neg	r3, r1
 821 0430 5941     		adc	r1, r1, r3
 822 0432 FFF7FEFF 		bl	_test_assert
 823              	@ 205 "../../test/testmbox.c" 1
 824 0436 62B6     		cpsie   i
 825              	@ 0 "" 2
 826              		.code	16
 827 0438 0028     		cmp	r0, #0
 828 043a 00D0     		beq	.LCB594
 829 043c 0AE6     		b	.L4	@long jump
 830              	.LCB594:
 831              		.loc 1 206 0
 832 043e AB68     		ldr	r3, [r5, #8]
 833 0440 E968     		ldr	r1, [r5, #12]
 834 0442 2B20     		mov	r0, #43
 835 0444 C91A     		sub	r1, r1, r3
 836 0446 4B42     		neg	r3, r1
 837 0448 5941     		adc	r1, r1, r3
 838 044a FFF7FEFF 		bl	_test_assert
 839 044e 0028     		cmp	r0, #0
 840 0450 00D0     		beq	.LCB604
 841 0452 FFE5     		b	.L4	@long jump
 842              	.LCB604:
 843              		.loc 1 211 0
 844 0454 281C     		mov	r0, r5
 845 0456 FFF7FEFF 		bl	chMBReset
 846              		.loc 1 216 0
 847              	@ 216 "../../test/testmbox.c" 1
 848 045a 72B6     		cpsid   i
 849              	@ 0 "" 2
 850              		.code	16
 851 045c 696A     		ldr	r1, [r5, #36]
 852 045e 2C20     		mov	r0, #44
 853 0460 0539     		sub	r1, r1, #5
 854 0462 4B42     		neg	r3, r1
ARM GAS  C:\Users\Rob\AppData\Local\Temp\ccW1RN4f.s 			page 16


 855 0464 5941     		adc	r1, r1, r3
 856 0466 FFF7FEFF 		bl	_test_assert
 857              	@ 216 "../../test/testmbox.c" 1
 858 046a 62B6     		cpsie   i
 859              	@ 0 "" 2
 860              		.code	16
 861 046c 0028     		cmp	r0, #0
 862 046e 00D0     		beq	.LCB617
 863 0470 F0E5     		b	.L4	@long jump
 864              	.LCB617:
 865              		.loc 1 217 0
 866              	@ 217 "../../test/testmbox.c" 1
 867 0472 72B6     		cpsid   i
 868              	@ 0 "" 2
 869              		.code	16
 870 0474 A969     		ldr	r1, [r5, #24]
 871 0476 2D20     		mov	r0, #45
 872 0478 4B42     		neg	r3, r1
 873 047a 5941     		adc	r1, r1, r3
 874 047c FFF7FEFF 		bl	_test_assert
 875              	@ 217 "../../test/testmbox.c" 1
 876 0480 62B6     		cpsie   i
 877              	@ 0 "" 2
 878              		.code	16
 879 0482 0028     		cmp	r0, #0
 880 0484 00D0     		beq	.LCB627
 881 0486 E5E5     		b	.L4	@long jump
 882              	.LCB627:
 883              		.loc 1 218 0
 884              	@ 218 "../../test/testmbox.c" 1
 885 0488 72B6     		cpsid   i
 886              	@ 0 "" 2
 887              		.code	16
 888 048a AB68     		ldr	r3, [r5, #8]
 889 048c 2968     		ldr	r1, [r5]
 890 048e 2E20     		mov	r0, #46
 891 0490 C91A     		sub	r1, r1, r3
 892 0492 4B42     		neg	r3, r1
 893 0494 5941     		adc	r1, r1, r3
 894 0496 FFF7FEFF 		bl	_test_assert
 895              	@ 218 "../../test/testmbox.c" 1
 896 049a 62B6     		cpsie   i
 897              	@ 0 "" 2
 898              		.code	16
 899 049c 0028     		cmp	r0, #0
 900 049e 00D0     		beq	.LCB639
 901 04a0 D8E5     		b	.L4	@long jump
 902              	.LCB639:
 903              		.loc 1 219 0
 904              	@ 219 "../../test/testmbox.c" 1
 905 04a2 72B6     		cpsid   i
 906              	@ 0 "" 2
 907              		.code	16
 908 04a4 EB68     		ldr	r3, [r5, #12]
 909 04a6 2968     		ldr	r1, [r5]
 910 04a8 2F20     		mov	r0, #47
 911 04aa C91A     		sub	r1, r1, r3
ARM GAS  C:\Users\Rob\AppData\Local\Temp\ccW1RN4f.s 			page 17


 912 04ac 4B42     		neg	r3, r1
 913 04ae 5941     		adc	r1, r1, r3
 914 04b0 FFF7FEFF 		bl	_test_assert
 915              	@ 219 "../../test/testmbox.c" 1
 916 04b4 62B6     		cpsie   i
 917              	@ 0 "" 2
 918              		.code	16
 919 04b6 CDE5     		b	.L4
 920              	.LBE5:
 921              	.LBE4:
 922              		.cfi_endproc
 923              	.LFE8:
 924              		.size	mbox1_execute, .-mbox1_execute
 925              		.global	patternmbox
 926              		.global	testmbox1
 927 04b8 C046C046 		.section	.data.mb1,"aw",%progbits
 927      C046C046 
 928              		.align	2
 929              		.set	.LANCHOR0,. + 0
 930              		.type	mb1, %object
 931              		.size	mb1, 40
 932              	mb1:
 933 0000 00000000 		.word	test
 934 0004 14000000 		.word	test+20
 935 0008 00000000 		.word	test
 936 000c 00000000 		.word	test
 937 0010 10000000 		.word	mb1+16
 938 0014 10000000 		.word	mb1+16
 939 0018 00000000 		.word	0
 940 001c 1C000000 		.word	mb1+28
 941 0020 1C000000 		.word	mb1+28
 942 0024 05000000 		.word	5
 943              		.section	.rodata.patternmbox,"a",%progbits
 944              		.align	2
 945              		.type	patternmbox, %object
 946              		.size	patternmbox, 8
 947              	patternmbox:
 948 0000 00000000 		.word	testmbox1
 949 0004 00000000 		.word	0
 950              		.section	.rodata.str1.4,"aMS",%progbits,1
 951              		.align	2
 952              	.LC3:
 953 0000 41424344 		.ascii	"ABCDE\000"
 953      4500
 954 0006 0000     		.space	2
 955              	.LC5:
 956 0008 4D61696C 		.ascii	"Mailboxes, queuing and timeouts\000"
 956      626F7865 
 956      732C2071 
 956      75657569 
 956      6E672061 
 957              		.section	.rodata.testmbox1,"a",%progbits
 958              		.align	2
 959              		.type	testmbox1, %object
 960              		.size	testmbox1, 16
 961              	testmbox1:
 962 0000 08000000 		.word	.LC5
ARM GAS  C:\Users\Rob\AppData\Local\Temp\ccW1RN4f.s 			page 18


 963 0004 00000000 		.word	mbox1_setup
 964 0008 00000000 		.word	0
 965 000c 00000000 		.word	mbox1_execute
 966              		.text
 967              	.Letext0:
 968              		.file 2 "c:/yagarto/lib/gcc/../../arm-none-eabi/sys-include/stdint.h"
 969              		.file 3 "../../os/ports/GCC/ARMCMx/chtypes.h"
 970              		.file 4 "../../os/kernel/include/chlists.h"
 971              		.file 5 "../../os/kernel/include/chthreads.h"
 972              		.file 6 "../../os/ports/GCC/ARMCMx/chcore_v6m.h"
 973              		.file 7 "../../os/kernel/include/chsem.h"
 974              		.file 8 "../../os/kernel/include/chmtx.h"
 975              		.file 9 "../../os/kernel/include/chmboxes.h"
 976              		.file 10 "../../test/test.h"