ARM GAS  C:\Users\Rob\AppData\Local\Temp\ccW1RN4f.s 			page 1


   1              		.cpu cortex-m0
   2              		.fpu softvfp
   3              		.eabi_attribute 20, 1
   4              		.eabi_attribute 21, 1
   5              		.eabi_attribute 23, 3
   6              		.eabi_attribute 24, 1
   7              		.eabi_attribute 25, 1
   8              		.eabi_attribute 26, 1
   9              		.eabi_attribute 30, 2
  10              		.eabi_attribute 18, 4
  11              		.code	16
  12              		.file	"testmbox.c"
  13              		.text
  14              	.Ltext0:
  15              		.cfi_sections	.debug_frame
  16              		.section	.text.mbox1_setup,"ax",%progbits
  17              		.align	2
  18              		.p2align 4,,15
  19              		.code	16
  20              		.thumb_func
  21              		.type	mbox1_setup, %function
  22              	mbox1_setup:
  23              	.LFB7:
  24              		.file 1 "../../test/testmbox.c"
  25              		.loc 1 71 0
  26              		.cfi_startproc
  27 0000 08B5     		push	{r3, lr}
  28              	.LCFI0:
  29              		.cfi_def_cfa_offset 8
  30              		.cfi_offset 3, -8
  31              		.cfi_offset 14, -4
  32              		.loc 1 73 0
  33 0002 0348     		ldr	r0, .L2
  34 0004 0349     		ldr	r1, .L2+4
  35 0006 0522     		mov	r2, #5
  36 0008 FFF7FEFF 		bl	chMBInit
  37              		.loc 1 74 0
  38              		@ sp needed for prologue
  39 000c 08BD     		pop	{r3, pc}
  40              	.L3:
  41 000e C046     		.align	2
  42              	.L2:
  43 0010 00000000 		.word	.LANCHOR0
  44 0014 00000000 		.word	test
  45              		.cfi_endproc
  46              	.LFE7:
  47              		.size	mbox1_setup, .-mbox1_setup
  48 0018 C046C046 		.section	.text.mbox1_execute,"ax",%progbits
  48      C046C046 
  49              		.align	2
  50              		.p2align 4,,15
  51              		.code	16
  52              		.thumb_func
  53              		.type	mbox1_execute, %function
  54              	mbox1_execute:
  55              	.LFB8:
  56              		.loc 1 76 0
ARM GAS  C:\Users\Rob\AppData\Local\Temp\ccW1RN4f.s 			page 2


  57              		.cfi_startproc
  58 0000 70B5     		push	{r4, r5, r6, lr}
  59              	.LCFI1:
  60              		.cfi_def_cfa_offset 16
  61              		.cfi_offset 4, -16
  62              		.cfi_offset 5, -12
  63              		.cfi_offset 6, -8
  64              		.cfi_offset 14, -4
  65              		.loc 1 83 0
  66 0002 154D     		ldr	r5, .L30
  67              		.loc 1 76 0
  68 0004 82B0     		sub	sp, sp, #8
  69              	.LCFI2:
  70              		.cfi_def_cfa_offset 24
  71              		.loc 1 83 0
  72 0006 696A     		ldr	r1, [r5, #36]
  73 0008 0120     		mov	r0, #1
  74 000a 0539     		sub	r1, r1, #5
  75 000c 4B42     		neg	r3, r1
  76 000e 5941     		adc	r1, r1, r3
  77 0010 FFF7FEFF 		bl	_test_assert
  78 0014 0028     		cmp	r0, #0
  79 0016 1DD1     		bne	.L4
  80 0018 4224     		mov	r4, #66
  81              	.L6:
  82              		.loc 1 89 0
  83 001a 0122     		mov	r2, #1
  84 001c 211C     		mov	r1, r4
  85 001e 281C     		mov	r0, r5
  86 0020 5242     		neg	r2, r2
  87 0022 FFF7FEFF 		bl	chMBPost
  88              	.LVL0:
  89              		.loc 1 90 0
  90 0026 4142     		neg	r1, r0
  91 0028 4141     		adc	r1, r1, r0
  92              	.LVL1:
  93 002a 0220     		mov	r0, #2
  94 002c FFF7FEFF 		bl	_test_assert
  95 0030 0028     		cmp	r0, #0
  96 0032 0FD1     		bne	.L4
  97 0034 0134     		add	r4, r4, #1
  98              		.loc 1 88 0
  99 0036 462C     		cmp	r4, #70
 100 0038 EFD1     		bne	.L6
 101              		.loc 1 92 0
 102 003a 0122     		mov	r2, #1
 103 003c 4121     		mov	r1, #65
 104 003e 281C     		mov	r0, r5
 105 0040 5242     		neg	r2, r2
 106 0042 FFF7FEFF 		bl	chMBPostAhead
 107              	.LVL2:
 108              		.loc 1 93 0
 109 0046 4142     		neg	r1, r0
 110 0048 4141     		adc	r1, r1, r0
 111              	.LVL3:
 112 004a 0320     		mov	r0, #3
 113 004c FFF7FEFF 		bl	_test_assert
ARM GAS  C:\Users\Rob\AppData\Local\Temp\ccW1RN4f.s 			page 3


 114 0050 0028     		cmp	r0, #0
 115 0052 03D0     		beq	.L29
 116              	.LVL4:
 117              	.L4:
 118              		.loc 1 220 0
 119 0054 02B0     		add	sp, sp, #8
 120              		@ sp needed for prologue
 121 0056 70BD     		pop	{r4, r5, r6, pc}
 122              	.L31:
 123              		.align	2
 124              	.L30:
 125 0058 00000000 		.word	.LANCHOR0
 126              	.L29:
 127              	.LBB4:
 128              	.LBB5:
 129              		.loc 1 98 0
 130 005c 5821     		mov	r1, #88
 131 005e 281C     		mov	r0, r5
 132 0060 0122     		mov	r2, #1
 133 0062 FFF7FEFF 		bl	chMBPost
 134              	.LVL5:
 135              		.loc 1 99 0
 136 0066 411C     		add	r1, r0, #1
 137 0068 4B42     		neg	r3, r1
 138 006a 5941     		adc	r1, r1, r3
 139 006c 0420     		mov	r0, #4
 140              	.LVL6:
 141 006e FFF7FEFF 		bl	_test_assert
 142 0072 0028     		cmp	r0, #0
 143 0074 EED1     		bne	.L4
 144              		.loc 1 100 0
 145              	@ 100 "../../test/testmbox.c" 1
 146 0076 72B6     		cpsid   i
 147              	@ 0 "" 2
 148              		.loc 1 101 0
 149              		.code	16
 150 0078 5821     		mov	r1, #88
 151 007a 281C     		mov	r0, r5
 152 007c FFF7FEFF 		bl	chMBPostI
 153              	.LVL7:
 154              		.loc 1 102 0
 155              	@ 102 "../../test/testmbox.c" 1
 156 0080 62B6     		cpsie   i
 157              	@ 0 "" 2
 158              		.loc 1 103 0
 159              		.code	16
 160 0082 411C     		add	r1, r0, #1
 161 0084 4B42     		neg	r3, r1
 162 0086 5941     		adc	r1, r1, r3
 163 0088 0520     		mov	r0, #5
 164              	.LVL8:
 165 008a FFF7FEFF 		bl	_test_assert
 166 008e 0028     		cmp	r0, #0
 167 0090 E0D1     		bne	.L4
 168              		.loc 1 104 0
 169 0092 5821     		mov	r1, #88
 170 0094 281C     		mov	r0, r5
ARM GAS  C:\Users\Rob\AppData\Local\Temp\ccW1RN4f.s 			page 4


 171 0096 0122     		mov	r2, #1
 172 0098 FFF7FEFF 		bl	chMBPostAhead
 173              	.LVL9:
 174              		.loc 1 105 0
 175 009c 411C     		add	r1, r0, #1
 176 009e 4B42     		neg	r3, r1
 177 00a0 5941     		adc	r1, r1, r3
 178 00a2 0620     		mov	r0, #6
 179              	.LVL10:
 180 00a4 FFF7FEFF 		bl	_test_assert
 181 00a8 0028     		cmp	r0, #0
 182 00aa D3D1     		bne	.L4
 183              		.loc 1 106 0
 184              	@ 106 "../../test/testmbox.c" 1
 185 00ac 72B6     		cpsid   i
 186              	@ 0 "" 2
 187              		.loc 1 107 0
 188              		.code	16
 189 00ae 5821     		mov	r1, #88
 190 00b0 281C     		mov	r0, r5
 191 00b2 FFF7FEFF 		bl	chMBPostAheadI
 192              	.LVL11:
 193              		.loc 1 108 0
 194              	@ 108 "../../test/testmbox.c" 1
 195 00b6 62B6     		cpsie   i
 196              	@ 0 "" 2
 197              		.loc 1 109 0
 198              		.code	16
 199 00b8 411C     		add	r1, r0, #1
 200 00ba 4B42     		neg	r3, r1
 201 00bc 5941     		adc	r1, r1, r3
 202 00be 0720     		mov	r0, #7
 203              	.LVL12:
 204 00c0 FFF7FEFF 		bl	_test_assert
 205 00c4 0028     		cmp	r0, #0
 206 00c6 C5D1     		bne	.L4
 207              		.loc 1 114 0
 208              	@ 114 "../../test/testmbox.c" 1
 209 00c8 72B6     		cpsid   i
 210              	@ 0 "" 2
 211              		.code	16
 212 00ca 696A     		ldr	r1, [r5, #36]
 213 00cc 0820     		mov	r0, #8
 214 00ce 4B42     		neg	r3, r1
 215 00d0 5941     		adc	r1, r1, r3
 216 00d2 FFF7FEFF 		bl	_test_assert
 217              	@ 114 "../../test/testmbox.c" 1
 218 00d6 62B6     		cpsie   i
 219              	@ 0 "" 2
 220              		.code	16
 221 00d8 0028     		cmp	r0, #0
 222 00da BBD1     		bne	.L4
 223              		.loc 1 115 0
 224              	@ 115 "../../test/testmbox.c" 1
 225 00dc 72B6     		cpsid   i
 226              	@ 0 "" 2
 227              		.code	16
ARM GAS  C:\Users\Rob\AppData\Local\Temp\ccW1RN4f.s 			page 5


 228 00de A969     		ldr	r1, [r5, #24]
 229 00e0 0920     		mov	r0, #9
 230 00e2 0539     		sub	r1, r1, #5
 231 00e4 4B42     		neg	r3, r1
 232 00e6 5941     		adc	r1, r1, r3
 233 00e8 FFF7FEFF 		bl	_test_assert
 234              	@ 115 "../../test/testmbox.c" 1
 235 00ec 62B6     		cpsie   i
 236              	@ 0 "" 2
 237              		.code	16
 238 00ee 0028     		cmp	r0, #0
 239 00f0 B0D1     		bne	.L4
 240              		.loc 1 116 0
 241              	@ 116 "../../test/testmbox.c" 1
 242 00f2 72B6     		cpsid   i
 243              	@ 0 "" 2
 244              		.code	16
 245 00f4 AB68     		ldr	r3, [r5, #8]
 246 00f6 E968     		ldr	r1, [r5, #12]
 247 00f8 0A20     		mov	r0, #10
 248 00fa C91A     		sub	r1, r1, r3
 249 00fc 4B42     		neg	r3, r1
 250 00fe 5941     		adc	r1, r1, r3
 251 0100 FFF7FEFF 		bl	_test_assert
 252              	@ 116 "../../test/testmbox.c" 1
 253 0104 62B6     		cpsie   i
 254              	@ 0 "" 2
 255              		.code	16
 256 0106 0524     		mov	r4, #5
 257 0108 0028     		cmp	r0, #0
 258 010a A3D1     		bne	.L4
 259              	.L10:
 260              		.loc 1 122 0
 261 010c 0122     		mov	r2, #1
 262 010e 01A9     		add	r1, sp, #4
 263 0110 281C     		mov	r0, r5
 264 0112 5242     		neg	r2, r2
 265 0114 FFF7FEFF 		bl	chMBFetch
 266              	.LVL13:
 267              		.loc 1 123 0
 268 0118 4142     		neg	r1, r0
 269 011a 4141     		adc	r1, r1, r0
 270              	.LVL14:
 271 011c 0B20     		mov	r0, #11
 272 011e FFF7FEFF 		bl	_test_assert
 273 0122 0028     		cmp	r0, #0
 274 0124 00D0     		beq	.LCB198
 275 0126 95E7     		b	.L4	@long jump
 276              	.LCB198:
 277              	.LVL15:
 278              		.loc 1 124 0
 279 0128 0198     		ldr	r0, [sp, #4]
 280 012a 013C     		sub	r4, r4, #1
 281 012c C0B2     		uxtb	r0, r0
 282              	.LVL16:
 283 012e FFF7FEFF 		bl	test_emit_token
 284              		.loc 1 121 0
ARM GAS  C:\Users\Rob\AppData\Local\Temp\ccW1RN4f.s 			page 6


 285 0132 002C     		cmp	r4, #0
 286 0134 EAD1     		bne	.L10
 287              		.loc 1 126 0
 288 0136 A74C     		ldr	r4, .L32
 289 0138 0C20     		mov	r0, #12
 290 013a 211C     		mov	r1, r4
 291 013c FFF7FEFF 		bl	_test_assert_sequence
 292 0140 0028     		cmp	r0, #0
 293 0142 00D0     		beq	.LCB213
 294 0144 86E7     		b	.L4	@long jump
 295              	.LCB213:
 296              		.loc 1 131 0
 297 0146 0122     		mov	r2, #1
 298 0148 4721     		mov	r1, #71
 299 014a 281C     		mov	r0, r5
 300 014c 5242     		neg	r2, r2
 301 014e FFF7FEFF 		bl	chMBPost
 302              	.LVL17:
 303              		.loc 1 132 0
 304 0152 4142     		neg	r1, r0
 305 0154 4141     		adc	r1, r1, r0
 306              	.LVL18:
 307 0156 0D20     		mov	r0, #13
 308 0158 FFF7FEFF 		bl	_test_assert
 309 015c 0028     		cmp	r0, #0
 310 015e 00D0     		beq	.LCB227
 311 0160 78E7     		b	.L4	@long jump
 312              	.LCB227:
 313              		.loc 1 133 0
 314 0162 0122     		mov	r2, #1
 315 0164 01A9     		add	r1, sp, #4
 316 0166 281C     		mov	r0, r5
 317 0168 5242     		neg	r2, r2
 318 016a FFF7FEFF 		bl	chMBFetch
 319              	.LVL19:
 320              		.loc 1 134 0
 321 016e 4142     		neg	r1, r0
 322 0170 4141     		adc	r1, r1, r0
 323              	.LVL20:
 324 0172 0E20     		mov	r0, #14
 325 0174 FFF7FEFF 		bl	_test_assert
 326 0178 0028     		cmp	r0, #0
 327 017a 00D0     		beq	.LCB241
 328 017c 6AE7     		b	.L4	@long jump
 329              	.LCB241:
 330              		.loc 1 135 0
 331 017e AB68     		ldr	r3, [r5, #8]
 332 0180 2968     		ldr	r1, [r5]
 333 0182 0F20     		mov	r0, #15
 334 0184 C91A     		sub	r1, r1, r3
 335 0186 4B42     		neg	r3, r1
 336 0188 5941     		adc	r1, r1, r3
 337 018a FFF7FEFF 		bl	_test_assert
 338 018e 0028     		cmp	r0, #0
 339 0190 00D0     		beq	.LCB251
 340 0192 5FE7     		b	.L4	@long jump
 341              	.LCB251:
ARM GAS  C:\Users\Rob\AppData\Local\Temp\ccW1RN4f.s 			page 7


 342              		.loc 1 136 0
 343 0194 EB68     		ldr	r3, [r5, #12]
 344 0196 2968     		ldr	r1, [r5]
 345 0198 1020     		mov	r0, #16
 346 019a C91A     		sub	r1, r1, r3
 347 019c 4B42     		neg	r3, r1
 348 019e 5941     		adc	r1, r1, r3
 349 01a0 FFF7FEFF 		bl	_test_assert
 350 01a4 0028     		cmp	r0, #0
 351 01a6 00D0     		beq	.LCB261
 352 01a8 54E7     		b	.L4	@long jump
 353              	.LCB261:
 354              		.loc 1 141 0
 355 01aa 01A9     		add	r1, sp, #4
 356 01ac 281C     		mov	r0, r5
 357 01ae 0122     		mov	r2, #1
 358 01b0 FFF7FEFF 		bl	chMBFetch
 359              	.LVL21:
 360              		.loc 1 142 0
 361 01b4 411C     		add	r1, r0, #1
 362 01b6 4B42     		neg	r3, r1
 363 01b8 5941     		adc	r1, r1, r3
 364 01ba 1120     		mov	r0, #17
 365              	.LVL22:
 366 01bc FFF7FEFF 		bl	_test_assert
 367 01c0 0028     		cmp	r0, #0
 368 01c2 00D0     		beq	.LCB275
 369 01c4 46E7     		b	.L4	@long jump
 370              	.LCB275:
 371              		.loc 1 143 0
 372              	@ 143 "../../test/testmbox.c" 1
 373 01c6 72B6     		cpsid   i
 374              	@ 0 "" 2
 375              		.loc 1 144 0
 376              		.code	16
 377 01c8 281C     		mov	r0, r5
 378 01ca 01A9     		add	r1, sp, #4
 379 01cc FFF7FEFF 		bl	chMBFetchI
 380              	.LVL23:
 381              		.loc 1 145 0
 382              	@ 145 "../../test/testmbox.c" 1
 383 01d0 62B6     		cpsie   i
 384              	@ 0 "" 2
 385              		.loc 1 146 0
 386              		.code	16
 387 01d2 411C     		add	r1, r0, #1
 388 01d4 4B42     		neg	r3, r1
 389 01d6 5941     		adc	r1, r1, r3
 390 01d8 1220     		mov	r0, #18
 391              	.LVL24:
 392 01da FFF7FEFF 		bl	_test_assert
 393 01de 0028     		cmp	r0, #0
 394 01e0 00D0     		beq	.LCB290
 395 01e2 37E7     		b	.L4	@long jump
 396              	.LCB290:
 397              		.loc 1 151 0
 398              	@ 151 "../../test/testmbox.c" 1
ARM GAS  C:\Users\Rob\AppData\Local\Temp\ccW1RN4f.s 			page 8


 399 01e4 72B6     		cpsid   i
 400              	@ 0 "" 2
 401              		.code	16
 402 01e6 696A     		ldr	r1, [r5, #36]
 403 01e8 1320     		mov	r0, #19
 404 01ea 0539     		sub	r1, r1, #5
 405 01ec 4B42     		neg	r3, r1
 406 01ee 5941     		adc	r1, r1, r3
 407 01f0 FFF7FEFF 		bl	_test_assert
 408              	@ 151 "../../test/testmbox.c" 1
 409 01f4 62B6     		cpsie   i
 410              	@ 0 "" 2
 411              		.code	16
 412 01f6 0028     		cmp	r0, #0
 413 01f8 00D0     		beq	.LCB301
 414 01fa 2BE7     		b	.L4	@long jump
 415              	.LCB301:
 416              		.loc 1 152 0
 417              	@ 152 "../../test/testmbox.c" 1
 418 01fc 72B6     		cpsid   i
 419              	@ 0 "" 2
 420              		.code	16
 421 01fe A969     		ldr	r1, [r5, #24]
 422 0200 1420     		mov	r0, #20
 423 0202 4B42     		neg	r3, r1
 424 0204 5941     		adc	r1, r1, r3
 425 0206 FFF7FEFF 		bl	_test_assert
 426              	@ 152 "../../test/testmbox.c" 1
 427 020a 62B6     		cpsie   i
 428              	@ 0 "" 2
 429              		.code	16
 430 020c 0028     		cmp	r0, #0
 431 020e 00D0     		beq	.LCB311
 432 0210 20E7     		b	.L4	@long jump
 433              	.LCB311:
 434              		.loc 1 153 0
 435              	@ 153 "../../test/testmbox.c" 1
 436 0212 72B6     		cpsid   i
 437              	@ 0 "" 2
 438              		.code	16
 439 0214 AB68     		ldr	r3, [r5, #8]
 440 0216 E968     		ldr	r1, [r5, #12]
 441 0218 1520     		mov	r0, #21
 442 021a C91A     		sub	r1, r1, r3
 443 021c 4B42     		neg	r3, r1
 444 021e 5941     		adc	r1, r1, r3
 445 0220 FFF7FEFF 		bl	_test_assert
 446              	@ 153 "../../test/testmbox.c" 1
 447 0224 62B6     		cpsie   i
 448              	@ 0 "" 2
 449              		.code	16
 450 0226 0028     		cmp	r0, #0
 451 0228 00D0     		beq	.LCB323
 452 022a 13E7     		b	.L4	@long jump
 453              	.LCB323:
 454              		.loc 1 158 0
 455              	@ 158 "../../test/testmbox.c" 1
ARM GAS  C:\Users\Rob\AppData\Local\Temp\ccW1RN4f.s 			page 9


 456 022c 72B6     		cpsid   i
 457              	@ 0 "" 2
 458              		.loc 1 159 0
 459              		.code	16
 460 022e 4121     		mov	r1, #65
 461 0230 281C     		mov	r0, r5
 462 0232 FFF7FEFF 		bl	chMBPostI
 463              	.LVL25:
 464              		.loc 1 160 0
 465 0236 4142     		neg	r1, r0
 466 0238 4141     		adc	r1, r1, r0
 467              	.LVL26:
 468 023a 1620     		mov	r0, #22
 469 023c FFF7FEFF 		bl	_test_assert
 470 0240 0028     		cmp	r0, #0
 471 0242 00D0     		beq	.LCB336
 472 0244 06E7     		b	.L4	@long jump
 473              	.LCB336:
 474              		.loc 1 161 0
 475 0246 4221     		mov	r1, #66
 476 0248 281C     		mov	r0, r5
 477 024a FFF7FEFF 		bl	chMBPostI
 478              	.LVL27:
 479              		.loc 1 162 0
 480 024e 4142     		neg	r1, r0
 481 0250 4141     		adc	r1, r1, r0
 482              	.LVL28:
 483 0252 1720     		mov	r0, #23
 484 0254 FFF7FEFF 		bl	_test_assert
 485 0258 0028     		cmp	r0, #0
 486 025a 00D0     		beq	.LCB348
 487 025c FAE6     		b	.L4	@long jump
 488              	.LCB348:
 489              		.loc 1 163 0
 490 025e 4321     		mov	r1, #67
 491 0260 281C     		mov	r0, r5
 492 0262 FFF7FEFF 		bl	chMBPostI
 493              	.LVL29:
 494              		.loc 1 164 0
 495 0266 4142     		neg	r1, r0
 496 0268 4141     		adc	r1, r1, r0
 497              	.LVL30:
 498 026a 1820     		mov	r0, #24
 499 026c FFF7FEFF 		bl	_test_assert
 500 0270 0028     		cmp	r0, #0
 501 0272 00D0     		beq	.LCB360
 502 0274 EEE6     		b	.L4	@long jump
 503              	.LCB360:
 504              		.loc 1 165 0
 505 0276 4421     		mov	r1, #68
 506 0278 281C     		mov	r0, r5
 507 027a FFF7FEFF 		bl	chMBPostI
 508              	.LVL31:
 509              		.loc 1 166 0
 510 027e 4142     		neg	r1, r0
 511 0280 4141     		adc	r1, r1, r0
 512              	.LVL32:
ARM GAS  C:\Users\Rob\AppData\Local\Temp\ccW1RN4f.s 			page 10


 513 0282 1920     		mov	r0, #25
 514 0284 FFF7FEFF 		bl	_test_assert
 515 0288 0028     		cmp	r0, #0
 516 028a 00D0     		beq	.LCB372
 517 028c E2E6     		b	.L4	@long jump
 518              	.LCB372:
 519              		.loc 1 167 0
 520 028e 281C     		mov	r0, r5
 521 0290 4521     		mov	r1, #69
 522 0292 FFF7FEFF 		bl	chMBPostI
 523              	.LVL33:
 524              		.loc 1 168 0
 525              	@ 168 "../../test/testmbox.c" 1
 526 0296 62B6     		cpsie   i
 527              	@ 0 "" 2
 528              		.loc 1 169 0
 529              		.code	16
 530 0298 4142     		neg	r1, r0
 531 029a 4141     		adc	r1, r1, r0
 532              	.LVL34:
 533 029c 1A20     		mov	r0, #26
 534 029e FFF7FEFF 		bl	_test_assert
 535 02a2 0028     		cmp	r0, #0
 536 02a4 00D0     		beq	.LCB385
 537 02a6 D5E6     		b	.L4	@long jump
 538              	.LCB385:
 539              		.loc 1 170 0
 540 02a8 AB68     		ldr	r3, [r5, #8]
 541 02aa E968     		ldr	r1, [r5, #12]
 542 02ac 1B20     		mov	r0, #27
 543 02ae C91A     		sub	r1, r1, r3
 544 02b0 4B42     		neg	r3, r1
 545 02b2 5941     		adc	r1, r1, r3
 546 02b4 FFF7FEFF 		bl	_test_assert
 547 02b8 0028     		cmp	r0, #0
 548 02ba 00D0     		beq	.LCB395
 549 02bc CAE6     		b	.L4	@long jump
 550              	.LCB395:
 551 02be 0526     		mov	r6, #5
 552              	.LVL35:
 553              	.L14:
 554              		.loc 1 172 0
 555              	@ 172 "../../test/testmbox.c" 1
 556 02c0 72B6     		cpsid   i
 557              	@ 0 "" 2
 558              		.loc 1 173 0
 559              		.code	16
 560 02c2 281C     		mov	r0, r5
 561 02c4 01A9     		add	r1, sp, #4
 562 02c6 FFF7FEFF 		bl	chMBFetchI
 563              	.LVL36:
 564              		.loc 1 174 0
 565              	@ 174 "../../test/testmbox.c" 1
 566 02ca 62B6     		cpsie   i
 567              	@ 0 "" 2
 568              		.loc 1 175 0
 569              		.code	16
ARM GAS  C:\Users\Rob\AppData\Local\Temp\ccW1RN4f.s 			page 11


 570 02cc 4142     		neg	r1, r0
 571 02ce 4141     		adc	r1, r1, r0
 572              	.LVL37:
 573 02d0 1C20     		mov	r0, #28
 574 02d2 FFF7FEFF 		bl	_test_assert
 575 02d6 0028     		cmp	r0, #0
 576 02d8 00D0     		beq	.LCB414
 577 02da BBE6     		b	.L4	@long jump
 578              	.LCB414:
 579              	.LVL38:
 580              		.loc 1 176 0
 581 02dc 0198     		ldr	r0, [sp, #4]
 582 02de 013E     		sub	r6, r6, #1
 583 02e0 C0B2     		uxtb	r0, r0
 584              	.LVL39:
 585 02e2 FFF7FEFF 		bl	test_emit_token
 586              		.loc 1 171 0
 587 02e6 002E     		cmp	r6, #0
 588 02e8 EAD1     		bne	.L14
 589              		.loc 1 178 0
 590 02ea 1D20     		mov	r0, #29
 591 02ec 211C     		mov	r1, r4
 592 02ee FFF7FEFF 		bl	_test_assert_sequence
 593 02f2 0028     		cmp	r0, #0
 594 02f4 00D0     		beq	.LCB428
 595 02f6 ADE6     		b	.L4	@long jump
 596              	.LCB428:
 597              		.loc 1 179 0
 598              	@ 179 "../../test/testmbox.c" 1
 599 02f8 72B6     		cpsid   i
 600              	@ 0 "" 2
 601              		.code	16
 602 02fa 696A     		ldr	r1, [r5, #36]
 603 02fc 1E20     		mov	r0, #30
 604 02fe 0539     		sub	r1, r1, #5
 605 0300 4B42     		neg	r3, r1
 606 0302 5941     		adc	r1, r1, r3
 607 0304 FFF7FEFF 		bl	_test_assert
 608              	@ 179 "../../test/testmbox.c" 1
 609 0308 62B6     		cpsie   i
 610              	@ 0 "" 2
 611              		.code	16
 612 030a 0028     		cmp	r0, #0
 613 030c 00D0     		beq	.LCB439
 614 030e A1E6     		b	.L4	@long jump
 615              	.LCB439:
 616              		.loc 1 180 0
 617              	@ 180 "../../test/testmbox.c" 1
 618 0310 72B6     		cpsid   i
 619              	@ 0 "" 2
 620              		.code	16
 621 0312 A969     		ldr	r1, [r5, #24]
 622 0314 1F20     		mov	r0, #31
 623 0316 4B42     		neg	r3, r1
 624 0318 5941     		adc	r1, r1, r3
 625 031a FFF7FEFF 		bl	_test_assert
 626              	@ 180 "../../test/testmbox.c" 1
ARM GAS  C:\Users\Rob\AppData\Local\Temp\ccW1RN4f.s 			page 12


 627 031e 62B6     		cpsie   i
 628              	@ 0 "" 2
 629              		.code	16
 630 0320 0028     		cmp	r0, #0
 631 0322 00D0     		beq	.LCB449
 632 0324 96E6     		b	.L4	@long jump
 633              	.LCB449:
 634              		.loc 1 181 0
 635 0326 AB68     		ldr	r3, [r5, #8]
 636 0328 E968     		ldr	r1, [r5, #12]
 637 032a 2020     		mov	r0, #32
 638 032c C91A     		sub	r1, r1, r3
 639 032e 4B42     		neg	r3, r1
 640 0330 5941     		adc	r1, r1, r3
 641 0332 FFF7FEFF 		bl	_test_assert
 642 0336 0028     		cmp	r0, #0
 643 0338 00D0     		beq	.LCB459
 644 033a 8BE6     		b	.L4	@long jump
 645              	.LCB459:
 646              		.loc 1 183 0
 647              	@ 183 "../../test/testmbox.c" 1
 648 033c 72B6     		cpsid   i
 649              	@ 0 "" 2
 650              		.loc 1 184 0
 651              		.code	16
 652 033e 4521     		mov	r1, #69
 653 0340 281C     		mov	r0, r5
 654 0342 FFF7FEFF 		bl	chMBPostAheadI
 655              	.LVL40:
 656              		.loc 1 185 0
 657 0346 4142     		neg	r1, r0
 658 0348 4141     		adc	r1, r1, r0
 659              	.LVL41:
 660 034a 2120     		mov	r0, #33
 661 034c FFF7FEFF 		bl	_test_assert
 662 0350 0028     		cmp	r0, #0
 663 0352 00D0     		beq	.LCB472
 664 0354 7EE6     		b	.L4	@long jump
 665              	.LCB472:
 666              		.loc 1 186 0
 667 0356 4421     		mov	r1, #68
 668 0358 281C     		mov	r0, r5
 669 035a FFF7FEFF 		bl	chMBPostAheadI
 670              	.LVL42:
 671              		.loc 1 187 0
 672 035e 4142     		neg	r1, r0
 673 0360 4141     		adc	r1, r1, r0
 674              	.LVL43:
 675 0362 2220     		mov	r0, #34
 676 0364 FFF7FEFF 		bl	_test_assert
 677 0368 0028     		cmp	r0, #0
 678 036a 00D0     		beq	.LCB484
 679 036c 72E6     		b	.L4	@long jump
 680              	.LCB484:
 681              		.loc 1 188 0
 682 036e 4321     		mov	r1, #67
 683 0370 281C     		mov	r0, r5
ARM GAS  C:\Users\Rob\AppData\Local\Temp\ccW1RN4f.s 			page 13


 684 0372 FFF7FEFF 		bl	chMBPostAheadI
 685              	.LVL44:
 686              		.loc 1 189 0
 687 0376 4142     		neg	r1, r0
 688 0378 4141     		adc	r1, r1, r0
 689              	.LVL45:
 690 037a 2320     		mov	r0, #35
 691 037c FFF7FEFF 		bl	_test_assert
 692 0380 0028     		cmp	r0, #0
 693 0382 00D0     		beq	.LCB496
 694 0384 66E6     		b	.L4	@long jump
 695              	.LCB496:
 696              		.loc 1 190 0
 697 0386 4221     		mov	r1, #66
 698 0388 281C     		mov	r0, r5
 699 038a FFF7FEFF 		bl	chMBPostAheadI
 700              	.LVL46:
 701              		.loc 1 191 0
 702 038e 4142     		neg	r1, r0
 703 0390 4141     		adc	r1, r1, r0
 704              	.LVL47:
 705 0392 2420     		mov	r0, #36
 706 0394 FFF7FEFF 		bl	_test_assert
 707 0398 0028     		cmp	r0, #0
 708 039a 00D0     		beq	.LCB508
 709 039c 5AE6     		b	.L4	@long jump
 710              	.LCB508:
 711              		.loc 1 192 0
 712 039e 281C     		mov	r0, r5
 713 03a0 4121     		mov	r1, #65
 714 03a2 FFF7FEFF 		bl	chMBPostAheadI
 715              	.LVL48:
 716              		.loc 1 193 0
 717              	@ 193 "../../test/testmbox.c" 1
 718 03a6 62B6     		cpsie   i
 719              	@ 0 "" 2
 720              		.loc 1 194 0
 721              		.code	16
 722 03a8 4142     		neg	r1, r0
 723 03aa 4141     		adc	r1, r1, r0
 724              	.LVL49:
 725 03ac 2520     		mov	r0, #37
 726 03ae FFF7FEFF 		bl	_test_assert
 727 03b2 0028     		cmp	r0, #0
 728 03b4 00D0     		beq	.LCB521
 729 03b6 4DE6     		b	.L4	@long jump
 730              	.LCB521:
 731              		.loc 1 195 0
 732 03b8 AB68     		ldr	r3, [r5, #8]
 733 03ba E968     		ldr	r1, [r5, #12]
 734 03bc 2620     		mov	r0, #38
 735 03be C91A     		sub	r1, r1, r3
 736 03c0 4B42     		neg	r3, r1
 737 03c2 5941     		adc	r1, r1, r3
 738 03c4 FFF7FEFF 		bl	_test_assert
 739 03c8 0028     		cmp	r0, #0
 740 03ca 00D0     		beq	.LCB531
ARM GAS  C:\Users\Rob\AppData\Local\Temp\ccW1RN4f.s 			page 14


 741 03cc 42E6     		b	.L4	@long jump
 742              	.LCB531:
 743 03ce 0526     		mov	r6, #5
 744 03d0 02E0     		b	.L33
 745              	.L34:
 746 03d2 C046     		.align	2
 747              	.L32:
 748 03d4 00000000 		.word	.LC3
 749              	.L33:
 750              	.L17:
 751              		.loc 1 197 0
 752              	@ 197 "../../test/testmbox.c" 1
 753 03d8 72B6     		cpsid   i
 754              	@ 0 "" 2
 755              		.loc 1 198 0
 756              		.code	16
 757 03da 281C     		mov	r0, r5
 758 03dc 01A9     		add	r1, sp, #4
 759 03de FFF7FEFF 		bl	chMBFetchI
 760              	.LVL50:
 761              		.loc 1 199 0
 762              	@ 199 "../../test/testmbox.c" 1
 763 03e2 62B6     		cpsie   i
 764              	@ 0 "" 2
 765              		.loc 1 200 0
 766              		.code	16
 767 03e4 4142     		neg	r1, r0
 768 03e6 4141     		adc	r1, r1, r0
 769              	.LVL51:
 770 03e8 2720     		mov	r0, #39
 771 03ea FFF7FEFF 		bl	_test_assert
 772 03ee 0028     		cmp	r0, #0
 773 03f0 00D0     		beq	.LCB559
 774 03f2 2FE6     		b	.L4	@long jump
 775              	.LCB559:
 776              	.LVL52:
 777              		.loc 1 201 0
 778 03f4 0198     		ldr	r0, [sp, #4]
 779 03f6 013E     		sub	r6, r6, #1
 780 03f8 C0B2     		uxtb	r0, r0
 781              	.LVL53:
 782 03fa FFF7FEFF 		bl	test_emit_token
 783              		.loc 1 196 0
 784 03fe 002E     		cmp	r6, #0
 785 0400 EAD1     		bne	.L17
 786              		.loc 1 203 0
 787 0402 2820     		mov	r0, #40
 788 0404 211C     		mov	r1, r4
 789 0406 FFF7FEFF 		bl	_test_assert_sequence
 790 040a 0028     		cmp	r0, #0
 791 040c 00D0     		beq	.LCB573
 792 040e 21E6     		b	.L4	@long jump
 793              	.LCB573:
 794              		.loc 1 204 0
 795              	@ 204 "../../test/testmbox.c" 1
 796 0410 72B6     		cpsid   i
 797              	@ 0 "" 2
ARM GAS  C:\Users\Rob\AppData\Local\Temp\ccW1RN4f.s 			page 15


 798              		.code	16
 799 0412 696A     		ldr	r1, [r5, #36]
 800 0414 2920     		mov	r0, #41
 801 0416 0539     		sub	r1, r1, #5
 802 0418 4B42     		neg	r3, r1
 803 041a 5941     		adc	r1, r1, r3
 804 041c FFF7FEFF 		bl	_test_assert
 805              	@ 204 "../../test/testmbox.c" 1
 806 0420 62B6     		cpsie   i
 807              	@ 0 "" 2
 808              		.code	16
 809 0422 0028     		cmp	r0, #0
 810 0424 00D0     		beq	.LCB584
 811 0426 15E6     		b	.L4	@long jump
 812              	.LCB584:
 813              		.loc 1 205 0
 814              	@ 205 "../../test/testmbox.c" 1
 815 0428 72B6     		cpsid   i
 816              	@ 0 "" 2
 817              		.code	16
 818 042a A969     		ldr	r1, [r5, #24]
 819 042c 2A20     		mov	r0, #42
 820 042e 4B42     		neg	r3, r1
 821 0430 5941     		adc	r1, r1, r3
 822 0432 FFF7FEFF 		bl	_test_assert
 823              	@ 205 "../../test/testmbox.c" 1
 824 0436 62B6     		cpsie   i
 825              	@ 0 "" 2
 826              		.code	16
 827 0438 0028     		cmp	r0, #0
 828 043a 00D0     		beq	.LCB594
 829 043c 0AE6     		b	.L4	@long jump
 830              	.LCB594:
 831              		.loc 1 206 0
 832 043e AB68     		ldr	r3, [r5, #8]
 833 0440 E968     		ldr	r1, [r5, #12]
 834 0442 2B20     		mov	r0, #43
 835 0444 C91A     		sub	r1, r1, r3
 836 0446 4B42     		neg	r3, r1
 837 0448 5941     		adc	r1, r1, r3
 838 044a FFF7FEFF 		bl	_test_assert
 839 044e 0028     		cmp	r0, #0
 840 0450 00D0     		beq	.LCB604
 841 0452 FFE5     		b	.L4	@long jump
 842              	.LCB604:
 843              		.loc 1 211 0
 844 0454 281C     		mov	r0, r5
 845 0456 FFF7FEFF 		bl	chMBReset
 846              		.loc 1 216 0
 847              	@ 216 "../../test/testmbox.c" 1
 848 045a 72B6     		cpsid   i
 849              	@ 0 "" 2
 850              		.code	16
 851 045c 696A     		ldr	r1, [r5, #36]
 852 045e 2C20     		mov	r0, #44
 853 0460 0539     		sub	r1, r1, #5
 854 0462 4B42     		neg	r3, r1
ARM GAS  C:\Users\Rob\AppData\Local\Temp\ccW1RN4f.s 			page 16


 855 0464 5941     		adc	r1, r1, r3
 856 0466 FFF7FEFF 		bl	_test_assert
 857              	@ 216 "../../test/testmbox.c" 1
 858 046a 62B6     		cpsie   i
 859              	@ 0 "" 2
 860              		.code	16
 861 046c 0028     		cmp	r0, #0
 862 046e 00D0     		beq	.LCB617
 863 0470 F0E5     		b	.L4	@long jump
 864              	.LCB617:
 865              		.loc 1 217 0
 866              	@ 217 "../../test/testmbox.c" 1
 867 0472 72B6     		cpsid   i
 868              	@ 0 "" 2
 869              		.code	16
 870 0474 A969     		ldr	r1, [r5, #24]
 871 0476 2D20     		mov	r0, #45
 872 0478 4B42     		neg	r3, r1
 873 047a 5941     		adc	r1, r1, r3
 874 047c FFF7FEFF 		bl	_test_assert
 875              	@ 217 "../../test/testmbox.c" 1
 876 0480 62B6     		cpsie   i
 877              	@ 0 "" 2
 878              		.code	16
 879 0482 0028     		cmp	r0, #0
 880 0484 00D0     		beq	.LCB627
 881 0486 E5E5     		b	.L4	@long jump
 882              	.LCB627:
 883              		.loc 1 218 0
 884              	@ 218 "../../test/testmbox.c" 1
 885 0488 72B6     		cpsid   i
 886              	@ 0 "" 2
 887              		.code	16
 888 048a AB68     		ldr	r3, [r5, #8]
 889 048c 2968     		ldr	r1, [r5]
 890 048e 2E20     		mov	r0, #46
 891 0490 C91A     		sub	r1, r1, r3
 892 0492 4B42     		neg	r3, r1
 893 0494 5941     		adc	r1, r1, r3
 894 0496 FFF7FEFF 		bl	_test_assert
 895              	@ 218 "../../test/testmbox.c" 1
 896 049a 62B6     		cpsie   i
 897              	@ 0 "" 2
 898              		.code	16
 899 049c 0028     		cmp	r0, #0
 900 049e 00D0     		beq	.LCB639
 901 04a0 D8E5     		b	.L4	@long jump
 902              	.LCB639:
 903              		.loc 1 219 0
 904              	@ 219 "../../test/testmbox.c" 1
 905 04a2 72B6     		cpsid   i
 906              	@ 0 "" 2
 907              		.code	16
 908 04a4 EB68     		ldr	r3, [r5, #12]
 909 04a6 2968     		ldr	r1, [r5]
 910 04a8 2F20     		mov	r0, #47
 911 04aa C91A     		sub	r1, r1, r3
ARM GAS  C:\Users\Rob\AppData\Local\Temp\ccW1RN4f.s 			page 17


 912 04ac 4B42     		neg	r3, r1
 913 04ae 5941     		adc	r1, r1, r3
 914 04b0 FFF7FEFF 		bl	_test_assert
 915              	@ 219 "../../test/testmbox.c" 1
 916 04b4 62B6     		cpsie   i
 917              	@ 0 "" 2
 918              		.code	16
 919 04b6 CDE5     		b	.L4
 920              	.LBE5:
 921              	.LBE4:
 922              		.cfi_endproc
 923              	.LFE8:
 924              		.size	mbox1_execute, .-mbox1_execute
 925              		.global	patternmbox
 926              		.global	testmbox1
 927 04b8 C046C046 		.section	.data.mb1,"aw",%progbits
 927      C046C046 
 928              		.align	2
 929              		.set	.LANCHOR0,. + 0
 930              		.type	mb1, %object
 931              		.size	mb1, 40
 932              	mb1:
 933 0000 00000000 		.word	test
 934 0004 14000000 		.word	test+20
 935 0008 00000000 		.word	test
 936 000c 00000000 		.word	test
 937 0010 10000000 		.word	mb1+16
 938 0014 10000000 		.word	mb1+16
 939 0018 00000000 		.word	0
 940 001c 1C000000 		.word	mb1+28
 941 0020 1C000000 		.word	mb1+28
 942 0024 05000000 		.word	5
 943              		.section	.rodata.patternmbox,"a",%progbits
 944              		.align	2
 945              		.type	patternmbox, %object
 946              		.size	patternmbox, 8
 947              	patternmbox:
 948 0000 00000000 		.word	testmbox1
 949 0004 00000000 		.word	0
 950              		.section	.rodata.str1.4,"aMS",%progbits,1
 951              		.align	2
 952              	.LC3:
 953 0000 41424344 		.ascii	"ABCDE\000"
 953      4500
 954 0006 0000     		.space	2
 955              	.LC5:
 956 0008 4D61696C 		.ascii	"Mailboxes, queuing and timeouts\000"
 956      626F7865 
 956      732C2071 
 956      75657569 
 956      6E672061 
 957              		.section	.rodata.testmbox1,"a",%progbits
 958              		.align	2
 959              		.type	testmbox1, %object
 960              		.size	testmbox1, 16
 961              	testmbox1:
 962 0000 08000000 		.word	.LC5
ARM GAS  C:\Users\Rob\AppData\Local\Temp\ccW1RN4f.s 			page 18


 963 0004 00000000 		.word	mbox1_setup
 964 0008 00000000 		.word	0
 965 000c 00000000 		.word	mbox1_execute
 966              		.text
 967              	.Letext0:
 968              		.file 2 "c:/yagarto/lib/gcc/../../arm-none-eabi/sys-include/stdint.h"
 969              		.file 3 "../../os/ports/GCC/ARMCMx/chtypes.h"
 970              		.file 4 "../../os/kernel/include/chlists.h"
 971              		.file 5 "../../os/kernel/include/chthreads.h"
 972              		.file 6 "../../os/ports/GCC/ARMCMx/chcore_v6m.h"
 973              		.file 7 "../../os/kernel/include/chsem.h"
 974              		.file 8 "../../os/kernel/include/chmtx.h"
 975              		.file 9 "../../os/kernel/include/chmboxes.h"
 976              		.file 10 "../../test/test.h"
 977              		.section	.debug_info,"",%progbits
 978              	.Ldebug_info0:
 979 0000 7A060000 		.4byte	0x67a
 980 0004 0200     		.2byte	0x2
 981 0006 00000000 		.4byte	.Ldebug_abbrev0
 982 000a 04       		.byte	0x4
 983 000b 01       		.uleb128 0x1
 984 000c 9C020000 		.4byte	.LASF79
 985 0010 01       		.byte	0x1
 986 0011 42020000 		.4byte	.LASF80
 987 0015 5F000000 		.4byte	.LASF81
 988 0019 00000000 		.4byte	0
 989 001d 00000000 		.4byte	0
 990 0021 00000000 		.4byte	.Ldebug_ranges0+0
 991 0025 00000000 		.4byte	.Ldebug_line0
 992 0029 02       		.uleb128 0x2
 993 002a 04       		.byte	0x4
 994 002b 05       		.byte	0x5
 995 002c 696E7400 		.ascii	"int\000"
 996 0030 03       		.uleb128 0x3
 997 0031 04       		.byte	0x4
 998 0032 07       		.byte	0x7
 999 0033 F7000000 		.4byte	.LASF0
 1000 0037 03       		.uleb128 0x3
 1001 0038 01       		.byte	0x1
 1002 0039 06       		.byte	0x6
 1003 003a A0000000 		.4byte	.LASF1
 1004 003e 04       		.uleb128 0x4
 1005 003f 12030000 		.4byte	.LASF5
 1006 0043 02       		.byte	0x2
 1007 0044 2A       		.byte	0x2a
 1008 0045 49000000 		.4byte	0x49
 1009 0049 03       		.uleb128 0x3
 1010 004a 01       		.byte	0x1
 1011 004b 08       		.byte	0x8
 1012 004c 11020000 		.4byte	.LASF2
 1013 0050 03       		.uleb128 0x3
 1014 0051 02       		.byte	0x2
 1015 0052 05       		.byte	0x5
 1016 0053 38020000 		.4byte	.LASF3
 1017 0057 03       		.uleb128 0x3
 1018 0058 02       		.byte	0x2
 1019 0059 07       		.byte	0x7
ARM GAS  C:\Users\Rob\AppData\Local\Temp\ccW1RN4f.s 			page 19


 1020 005a 48010000 		.4byte	.LASF4
 1021 005e 04       		.uleb128 0x4
 1022 005f 09020000 		.4byte	.LASF6
 1023 0063 02       		.byte	0x2
 1024 0064 4F       		.byte	0x4f
 1025 0065 69000000 		.4byte	0x69
 1026 0069 03       		.uleb128 0x3
 1027 006a 04       		.byte	0x4
 1028 006b 05       		.byte	0x5
 1029 006c C6000000 		.4byte	.LASF7
 1030 0070 04       		.uleb128 0x4
 1031 0071 93020000 		.4byte	.LASF8
 1032 0075 02       		.byte	0x2
 1033 0076 50       		.byte	0x50
 1034 0077 7B000000 		.4byte	0x7b
 1035 007b 03       		.uleb128 0x3
 1036 007c 04       		.byte	0x4
 1037 007d 07       		.byte	0x7
 1038 007e 0E010000 		.4byte	.LASF9
 1039 0082 03       		.uleb128 0x3
 1040 0083 08       		.byte	0x8
 1041 0084 05       		.byte	0x5
 1042 0085 92000000 		.4byte	.LASF10
 1043 0089 04       		.uleb128 0x4
 1044 008a 0D000000 		.4byte	.LASF11
 1045 008e 02       		.byte	0x2
 1046 008f 78       		.byte	0x78
 1047 0090 94000000 		.4byte	0x94
 1048 0094 03       		.uleb128 0x3
 1049 0095 08       		.byte	0x8
 1050 0096 07       		.byte	0x7
 1051 0097 1E000000 		.4byte	.LASF12
 1052 009b 03       		.uleb128 0x3
 1053 009c 01       		.byte	0x1
 1054 009d 02       		.byte	0x2
 1055 009e 03020000 		.4byte	.LASF13
 1056 00a2 04       		.uleb128 0x4
 1057 00a3 61010000 		.4byte	.LASF14
 1058 00a7 03       		.byte	0x3
 1059 00a8 25       		.byte	0x25
 1060 00a9 3E000000 		.4byte	0x3e
 1061 00ad 04       		.uleb128 0x4
 1062 00ae CF000000 		.4byte	.LASF15
 1063 00b2 03       		.byte	0x3
 1064 00b3 26       		.byte	0x26
 1065 00b4 3E000000 		.4byte	0x3e
 1066 00b8 04       		.uleb128 0x4
 1067 00b9 E4010000 		.4byte	.LASF16
 1068 00bd 03       		.byte	0x3
 1069 00be 27       		.byte	0x27
 1070 00bf 3E000000 		.4byte	0x3e
 1071 00c3 04       		.uleb128 0x4
 1072 00c4 BC000000 		.4byte	.LASF17
 1073 00c8 03       		.byte	0x3
 1074 00c9 28       		.byte	0x28
 1075 00ca 3E000000 		.4byte	0x3e
 1076 00ce 04       		.uleb128 0x4
ARM GAS  C:\Users\Rob\AppData\Local\Temp\ccW1RN4f.s 			page 20


 1077 00cf FB010000 		.4byte	.LASF18
 1078 00d3 03       		.byte	0x3
 1079 00d4 29       		.byte	0x29
 1080 00d5 70000000 		.4byte	0x70
 1081 00d9 04       		.uleb128 0x4
 1082 00da 5B010000 		.4byte	.LASF19
 1083 00de 03       		.byte	0x3
 1084 00df 2A       		.byte	0x2a
 1085 00e0 5E000000 		.4byte	0x5e
 1086 00e4 04       		.uleb128 0x4
 1087 00e5 81010000 		.4byte	.LASF20
 1088 00e9 03       		.byte	0x3
 1089 00ea 2C       		.byte	0x2c
 1090 00eb 70000000 		.4byte	0x70
 1091 00ef 04       		.uleb128 0x4
 1092 00f0 B4020000 		.4byte	.LASF21
 1093 00f4 03       		.byte	0x3
 1094 00f5 2E       		.byte	0x2e
 1095 00f6 70000000 		.4byte	0x70
 1096 00fa 04       		.uleb128 0x4
 1097 00fb F1000000 		.4byte	.LASF22
 1098 00ff 03       		.byte	0x3
 1099 0100 2F       		.byte	0x2f
 1100 0101 5E000000 		.4byte	0x5e
 1101 0105 04       		.uleb128 0x4
 1102 0106 78020000 		.4byte	.LASF23
 1103 010a 04       		.byte	0x4
 1104 010b 23       		.byte	0x23
 1105 010c 10010000 		.4byte	0x110
 1106 0110 05       		.uleb128 0x5
 1107 0111 78020000 		.4byte	.LASF23
 1108 0115 48       		.byte	0x48
 1109 0116 05       		.byte	0x5
 1110 0117 57       		.byte	0x57
 1111 0118 35020000 		.4byte	0x235
 1112 011c 06       		.uleb128 0x6
 1113 011d 69020000 		.4byte	.LASF24
 1114 0121 05       		.byte	0x5
 1115 0122 58       		.byte	0x58
 1116 0123 5A020000 		.4byte	0x25a
 1117 0127 02       		.byte	0x2
 1118 0128 23       		.byte	0x23
 1119 0129 00       		.uleb128 0
 1120 012a 06       		.uleb128 0x6
 1121 012b EC010000 		.4byte	.LASF25
 1122 012f 05       		.byte	0x5
 1123 0130 5A       		.byte	0x5a
 1124 0131 5A020000 		.4byte	0x25a
 1125 0135 02       		.byte	0x2
 1126 0136 23       		.byte	0x23
 1127 0137 04       		.uleb128 0x4
 1128 0138 06       		.uleb128 0x6
 1129 0139 58000000 		.4byte	.LASF26
 1130 013d 05       		.byte	0x5
 1131 013e 5C       		.byte	0x5c
 1132 013f CE000000 		.4byte	0xce
 1133 0143 02       		.byte	0x2
ARM GAS  C:\Users\Rob\AppData\Local\Temp\ccW1RN4f.s 			page 21


 1134 0144 23       		.byte	0x23
 1135 0145 08       		.uleb128 0x8
 1136 0146 06       		.uleb128 0x6
 1137 0147 30030000 		.4byte	.LASF27
 1138 014b 05       		.byte	0x5
 1139 014c 5D       		.byte	0x5d
 1140 014d 29030000 		.4byte	0x329
 1141 0151 02       		.byte	0x2
 1142 0152 23       		.byte	0x23
 1143 0153 0C       		.uleb128 0xc
 1144 0154 06       		.uleb128 0x6
 1145 0155 D8000000 		.4byte	.LASF28
 1146 0159 05       		.byte	0x5
 1147 015a 5F       		.byte	0x5f
 1148 015b 5A020000 		.4byte	0x25a
 1149 015f 02       		.byte	0x2
 1150 0160 23       		.byte	0x23
 1151 0161 10       		.uleb128 0x10
 1152 0162 06       		.uleb128 0x6
 1153 0163 B1010000 		.4byte	.LASF29
 1154 0167 05       		.byte	0x5
 1155 0168 60       		.byte	0x60
 1156 0169 5A020000 		.4byte	0x25a
 1157 016d 02       		.byte	0x2
 1158 016e 23       		.byte	0x23
 1159 016f 14       		.uleb128 0x14
 1160 0170 06       		.uleb128 0x6
 1161 0171 21030000 		.4byte	.LASF30
 1162 0175 05       		.byte	0x5
 1163 0176 67       		.byte	0x67
 1164 0177 6E040000 		.4byte	0x46e
 1165 017b 02       		.byte	0x2
 1166 017c 23       		.byte	0x23
 1167 017d 18       		.uleb128 0x18
 1168 017e 06       		.uleb128 0x6
 1169 017f B4000000 		.4byte	.LASF31
 1170 0183 05       		.byte	0x5
 1171 0184 72       		.byte	0x72
 1172 0185 AD000000 		.4byte	0xad
 1173 0189 02       		.byte	0x2
 1174 018a 23       		.byte	0x23
 1175 018b 1C       		.uleb128 0x1c
 1176 018c 06       		.uleb128 0x6
 1177 018d 70020000 		.4byte	.LASF32
 1178 0191 05       		.byte	0x5
 1179 0192 76       		.byte	0x76
 1180 0193 A2000000 		.4byte	0xa2
 1181 0197 02       		.byte	0x2
 1182 0198 23       		.byte	0x23
 1183 0199 1D       		.uleb128 0x1d
 1184 019a 06       		.uleb128 0x6
 1185 019b 0B030000 		.4byte	.LASF33
 1186 019f 05       		.byte	0x5
 1187 01a0 7B       		.byte	0x7b
 1188 01a1 B8000000 		.4byte	0xb8
 1189 01a5 02       		.byte	0x2
 1190 01a6 23       		.byte	0x23
ARM GAS  C:\Users\Rob\AppData\Local\Temp\ccW1RN4f.s 			page 22


 1191 01a7 1E       		.uleb128 0x1e
 1192 01a8 06       		.uleb128 0x6
 1193 01a9 58020000 		.4byte	.LASF34
 1194 01ad 05       		.byte	0x5
 1195 01ae 81       		.byte	0x81
 1196 01af C3000000 		.4byte	0xc3
 1197 01b3 02       		.byte	0x2
 1198 01b4 23       		.byte	0x23
 1199 01b5 1F       		.uleb128 0x1f
 1200 01b6 06       		.uleb128 0x6
 1201 01b7 D0020000 		.4byte	.LASF35
 1202 01bb 05       		.byte	0x5
 1203 01bc 88       		.byte	0x88
 1204 01bd 4A030000 		.4byte	0x34a
 1205 01c1 02       		.byte	0x2
 1206 01c2 23       		.byte	0x23
 1207 01c3 20       		.uleb128 0x20
 1208 01c4 07       		.uleb128 0x7
 1209 01c5 705F7500 		.ascii	"p_u\000"
 1210 01c9 05       		.byte	0x5
 1211 01ca AD       		.byte	0xad
 1212 01cb 39040000 		.4byte	0x439
 1213 01cf 02       		.byte	0x2
 1214 01d0 23       		.byte	0x23
 1215 01d1 24       		.uleb128 0x24
 1216 01d2 06       		.uleb128 0x6
 1217 01d3 36030000 		.4byte	.LASF36
 1218 01d7 05       		.byte	0x5
 1219 01d8 B2       		.byte	0xb2
 1220 01d9 82020000 		.4byte	0x282
 1221 01dd 02       		.byte	0x2
 1222 01de 23       		.byte	0x23
 1223 01df 28       		.uleb128 0x28
 1224 01e0 06       		.uleb128 0x6
 1225 01e1 DE020000 		.4byte	.LASF37
 1226 01e5 05       		.byte	0x5
 1227 01e6 B8       		.byte	0xb8
 1228 01e7 60020000 		.4byte	0x260
 1229 01eb 02       		.byte	0x2
 1230 01ec 23       		.byte	0x23
 1231 01ed 2C       		.uleb128 0x2c
 1232 01ee 06       		.uleb128 0x6
 1233 01ef 00000000 		.4byte	.LASF38
 1234 01f3 05       		.byte	0x5
 1235 01f4 BC       		.byte	0xbc
 1236 01f5 D9000000 		.4byte	0xd9
 1237 01f9 02       		.byte	0x2
 1238 01fa 23       		.byte	0x23
 1239 01fb 34       		.uleb128 0x34
 1240 01fc 06       		.uleb128 0x6
 1241 01fd 88020000 		.4byte	.LASF39
 1242 0201 05       		.byte	0x5
 1243 0202 C2       		.byte	0xc2
 1244 0203 E4000000 		.4byte	0xe4
 1245 0207 02       		.byte	0x2
 1246 0208 23       		.byte	0x23
 1247 0209 38       		.uleb128 0x38
ARM GAS  C:\Users\Rob\AppData\Local\Temp\ccW1RN4f.s 			page 23


 1248 020a 06       		.uleb128 0x6
 1249 020b 2E020000 		.4byte	.LASF40
 1250 020f 05       		.byte	0x5
 1251 0210 C9       		.byte	0xc9
 1252 0211 80040000 		.4byte	0x480
 1253 0215 02       		.byte	0x2
 1254 0216 23       		.byte	0x23
 1255 0217 3C       		.uleb128 0x3c
 1256 0218 06       		.uleb128 0x6
 1257 0219 BE020000 		.4byte	.LASF41
 1258 021d 05       		.byte	0x5
 1259 021e CD       		.byte	0xcd
 1260 021f CE000000 		.4byte	0xce
 1261 0223 02       		.byte	0x2
 1262 0224 23       		.byte	0x23
 1263 0225 40       		.uleb128 0x40
 1264 0226 06       		.uleb128 0x6
 1265 0227 AC000000 		.4byte	.LASF42
 1266 022b 05       		.byte	0x5
 1267 022c D3       		.byte	0xd3
 1268 022d 98020000 		.4byte	0x298
 1269 0231 02       		.byte	0x2
 1270 0232 23       		.byte	0x23
 1271 0233 44       		.uleb128 0x44
 1272 0234 00       		.byte	0
 1273 0235 08       		.uleb128 0x8
 1274 0236 08       		.byte	0x8
 1275 0237 04       		.byte	0x4
 1276 0238 5A       		.byte	0x5a
 1277 0239 5A020000 		.4byte	0x25a
 1278 023d 06       		.uleb128 0x6
 1279 023e 69020000 		.4byte	.LASF24
 1280 0242 04       		.byte	0x4
 1281 0243 5B       		.byte	0x5b
 1282 0244 5A020000 		.4byte	0x25a
 1283 0248 02       		.byte	0x2
 1284 0249 23       		.byte	0x23
 1285 024a 00       		.uleb128 0
 1286 024b 06       		.uleb128 0x6
 1287 024c EC010000 		.4byte	.LASF25
 1288 0250 04       		.byte	0x4
 1289 0251 5D       		.byte	0x5d
 1290 0252 5A020000 		.4byte	0x25a
 1291 0256 02       		.byte	0x2
 1292 0257 23       		.byte	0x23
 1293 0258 04       		.uleb128 0x4
 1294 0259 00       		.byte	0
 1295 025a 09       		.uleb128 0x9
 1296 025b 04       		.byte	0x4
 1297 025c 05010000 		.4byte	0x105
 1298 0260 04       		.uleb128 0x4
 1299 0261 B9010000 		.4byte	.LASF43
 1300 0265 04       		.byte	0x4
 1301 0266 5F       		.byte	0x5f
 1302 0267 35020000 		.4byte	0x235
 1303 026b 08       		.uleb128 0x8
 1304 026c 04       		.byte	0x4
ARM GAS  C:\Users\Rob\AppData\Local\Temp\ccW1RN4f.s 			page 24


 1305 026d 04       		.byte	0x4
 1306 026e 64       		.byte	0x64
 1307 026f 82020000 		.4byte	0x282
 1308 0273 06       		.uleb128 0x6
 1309 0274 69020000 		.4byte	.LASF24
 1310 0278 04       		.byte	0x4
 1311 0279 66       		.byte	0x66
 1312 027a 5A020000 		.4byte	0x25a
 1313 027e 02       		.byte	0x2
 1314 027f 23       		.byte	0x23
 1315 0280 00       		.uleb128 0
 1316 0281 00       		.byte	0
 1317 0282 04       		.uleb128 0x4
 1318 0283 75010000 		.4byte	.LASF44
 1319 0287 04       		.byte	0x4
 1320 0288 69       		.byte	0x69
 1321 0289 6B020000 		.4byte	0x26b
 1322 028d 04       		.uleb128 0x4
 1323 028e E8000000 		.4byte	.LASF45
 1324 0292 06       		.byte	0x6
 1325 0293 A0       		.byte	0xa0
 1326 0294 98020000 		.4byte	0x298
 1327 0298 0A       		.uleb128 0xa
 1328 0299 04       		.byte	0x4
 1329 029a 04       		.uleb128 0x4
 1330 029b 9D010000 		.4byte	.LASF46
 1331 029f 06       		.byte	0x6
 1332 02a0 A6       		.byte	0xa6
 1333 02a1 89000000 		.4byte	0x89
 1334 02a5 05       		.uleb128 0x5
 1335 02a6 D7020000 		.4byte	.LASF47
 1336 02aa 24       		.byte	0x24
 1337 02ab 06       		.byte	0x6
 1338 02ac B3       		.byte	0xb3
 1339 02ad 29030000 		.4byte	0x329
 1340 02b1 07       		.uleb128 0x7
 1341 02b2 723800   		.ascii	"r8\000"
 1342 02b5 06       		.byte	0x6
 1343 02b6 B4       		.byte	0xb4
 1344 02b7 8D020000 		.4byte	0x28d
 1345 02bb 02       		.byte	0x2
 1346 02bc 23       		.byte	0x23
 1347 02bd 00       		.uleb128 0
 1348 02be 07       		.uleb128 0x7
 1349 02bf 723900   		.ascii	"r9\000"
 1350 02c2 06       		.byte	0x6
 1351 02c3 B5       		.byte	0xb5
 1352 02c4 8D020000 		.4byte	0x28d
 1353 02c8 02       		.byte	0x2
 1354 02c9 23       		.byte	0x23
 1355 02ca 04       		.uleb128 0x4
 1356 02cb 07       		.uleb128 0x7
 1357 02cc 72313000 		.ascii	"r10\000"
 1358 02d0 06       		.byte	0x6
 1359 02d1 B6       		.byte	0xb6
 1360 02d2 8D020000 		.4byte	0x28d
 1361 02d6 02       		.byte	0x2
ARM GAS  C:\Users\Rob\AppData\Local\Temp\ccW1RN4f.s 			page 25


 1362 02d7 23       		.byte	0x23
 1363 02d8 08       		.uleb128 0x8
 1364 02d9 07       		.uleb128 0x7
 1365 02da 72313100 		.ascii	"r11\000"
 1366 02de 06       		.byte	0x6
 1367 02df B7       		.byte	0xb7
 1368 02e0 8D020000 		.4byte	0x28d
 1369 02e4 02       		.byte	0x2
 1370 02e5 23       		.byte	0x23
 1371 02e6 0C       		.uleb128 0xc
 1372 02e7 07       		.uleb128 0x7
 1373 02e8 723400   		.ascii	"r4\000"
 1374 02eb 06       		.byte	0x6
 1375 02ec B8       		.byte	0xb8
 1376 02ed 8D020000 		.4byte	0x28d
 1377 02f1 02       		.byte	0x2
 1378 02f2 23       		.byte	0x23
 1379 02f3 10       		.uleb128 0x10
 1380 02f4 07       		.uleb128 0x7
 1381 02f5 723500   		.ascii	"r5\000"
 1382 02f8 06       		.byte	0x6
 1383 02f9 B9       		.byte	0xb9
 1384 02fa 8D020000 		.4byte	0x28d
 1385 02fe 02       		.byte	0x2
 1386 02ff 23       		.byte	0x23
 1387 0300 14       		.uleb128 0x14
 1388 0301 07       		.uleb128 0x7
 1389 0302 723600   		.ascii	"r6\000"
 1390 0305 06       		.byte	0x6
 1391 0306 BA       		.byte	0xba
 1392 0307 8D020000 		.4byte	0x28d
 1393 030b 02       		.byte	0x2
 1394 030c 23       		.byte	0x23
 1395 030d 18       		.uleb128 0x18
 1396 030e 07       		.uleb128 0x7
 1397 030f 723700   		.ascii	"r7\000"
 1398 0312 06       		.byte	0x6
 1399 0313 BB       		.byte	0xbb
 1400 0314 8D020000 		.4byte	0x28d
 1401 0318 02       		.byte	0x2
 1402 0319 23       		.byte	0x23
 1403 031a 1C       		.uleb128 0x1c
 1404 031b 07       		.uleb128 0x7
 1405 031c 6C7200   		.ascii	"lr\000"
 1406 031f 06       		.byte	0x6
 1407 0320 BC       		.byte	0xbc
 1408 0321 8D020000 		.4byte	0x28d
 1409 0325 02       		.byte	0x2
 1410 0326 23       		.byte	0x23
 1411 0327 20       		.uleb128 0x20
 1412 0328 00       		.byte	0
 1413 0329 05       		.uleb128 0x5
 1414 032a 40010000 		.4byte	.LASF48
 1415 032e 04       		.byte	0x4
 1416 032f 06       		.byte	0x6
 1417 0330 C6       		.byte	0xc6
 1418 0331 44030000 		.4byte	0x344
ARM GAS  C:\Users\Rob\AppData\Local\Temp\ccW1RN4f.s 			page 26


 1419 0335 07       		.uleb128 0x7
 1420 0336 72313300 		.ascii	"r13\000"
 1421 033a 06       		.byte	0x6
 1422 033b C7       		.byte	0xc7
 1423 033c 44030000 		.4byte	0x344
 1424 0340 02       		.byte	0x2
 1425 0341 23       		.byte	0x23
 1426 0342 00       		.uleb128 0
 1427 0343 00       		.byte	0
 1428 0344 09       		.uleb128 0x9
 1429 0345 04       		.byte	0x4
 1430 0346 A5020000 		.4byte	0x2a5
 1431 034a 0B       		.uleb128 0xb
 1432 034b EF000000 		.4byte	0xef
 1433 034f 05       		.uleb128 0x5
 1434 0350 E9020000 		.4byte	.LASF49
 1435 0354 0C       		.byte	0xc
 1436 0355 07       		.byte	0x7
 1437 0356 25       		.byte	0x25
 1438 0357 78030000 		.4byte	0x378
 1439 035b 06       		.uleb128 0x6
 1440 035c E0000000 		.4byte	.LASF50
 1441 0360 07       		.byte	0x7
 1442 0361 26       		.byte	0x26
 1443 0362 60020000 		.4byte	0x260
 1444 0366 02       		.byte	0x2
 1445 0367 23       		.byte	0x23
 1446 0368 00       		.uleb128 0
 1447 0369 06       		.uleb128 0x6
 1448 036a 3A010000 		.4byte	.LASF51
 1449 036e 07       		.byte	0x7
 1450 036f 28       		.byte	0x28
 1451 0370 FA000000 		.4byte	0xfa
 1452 0374 02       		.byte	0x2
 1453 0375 23       		.byte	0x23
 1454 0376 08       		.uleb128 0x8
 1455 0377 00       		.byte	0
 1456 0378 04       		.uleb128 0x4
 1457 0379 E9020000 		.4byte	.LASF49
 1458 037d 07       		.byte	0x7
 1459 037e 29       		.byte	0x29
 1460 037f 4F030000 		.4byte	0x34f
 1461 0383 05       		.uleb128 0x5
 1462 0384 8D010000 		.4byte	.LASF52
 1463 0388 10       		.byte	0x10
 1464 0389 08       		.byte	0x8
 1465 038a 25       		.byte	0x25
 1466 038b BA030000 		.4byte	0x3ba
 1467 038f 06       		.uleb128 0x6
 1468 0390 1F020000 		.4byte	.LASF53
 1469 0394 08       		.byte	0x8
 1470 0395 26       		.byte	0x26
 1471 0396 60020000 		.4byte	0x260
 1472 039a 02       		.byte	0x2
 1473 039b 23       		.byte	0x23
 1474 039c 00       		.uleb128 0
 1475 039d 06       		.uleb128 0x6
ARM GAS  C:\Users\Rob\AppData\Local\Temp\ccW1RN4f.s 			page 27


 1476 039e 28030000 		.4byte	.LASF54
 1477 03a2 08       		.byte	0x8
 1478 03a3 28       		.byte	0x28
 1479 03a4 5A020000 		.4byte	0x25a
 1480 03a8 02       		.byte	0x2
 1481 03a9 23       		.byte	0x23
 1482 03aa 08       		.uleb128 0x8
 1483 03ab 06       		.uleb128 0x6
 1484 03ac AD020000 		.4byte	.LASF55
 1485 03b0 08       		.byte	0x8
 1486 03b1 2A       		.byte	0x2a
 1487 03b2 BA030000 		.4byte	0x3ba
 1488 03b6 02       		.byte	0x2
 1489 03b7 23       		.byte	0x23
 1490 03b8 0C       		.uleb128 0xc
 1491 03b9 00       		.byte	0
 1492 03ba 09       		.uleb128 0x9
 1493 03bb 04       		.byte	0x4
 1494 03bc 83030000 		.4byte	0x383
 1495 03c0 04       		.uleb128 0x4
 1496 03c1 8D010000 		.4byte	.LASF52
 1497 03c5 08       		.byte	0x8
 1498 03c6 2C       		.byte	0x2c
 1499 03c7 83030000 		.4byte	0x383
 1500 03cb 08       		.uleb128 0x8
 1501 03cc 28       		.byte	0x28
 1502 03cd 09       		.byte	0x9
 1503 03ce 2C       		.byte	0x2c
 1504 03cf 28040000 		.4byte	0x428
 1505 03d3 06       		.uleb128 0x6
 1506 03d4 CC010000 		.4byte	.LASF56
 1507 03d8 09       		.byte	0x9
 1508 03d9 2D       		.byte	0x2d
 1509 03da 28040000 		.4byte	0x428
 1510 03de 02       		.byte	0x2
 1511 03df 23       		.byte	0x23
 1512 03e0 00       		.uleb128 0
 1513 03e1 06       		.uleb128 0x6
 1514 03e2 27020000 		.4byte	.LASF57
 1515 03e6 09       		.byte	0x9
 1516 03e7 2F       		.byte	0x2f
 1517 03e8 28040000 		.4byte	0x428
 1518 03ec 02       		.byte	0x2
 1519 03ed 23       		.byte	0x23
 1520 03ee 04       		.uleb128 0x4
 1521 03ef 06       		.uleb128 0x6
 1522 03f0 4F000000 		.4byte	.LASF58
 1523 03f4 09       		.byte	0x9
 1524 03f5 31       		.byte	0x31
 1525 03f6 28040000 		.4byte	0x428
 1526 03fa 02       		.byte	0x2
 1527 03fb 23       		.byte	0x23
 1528 03fc 08       		.uleb128 0x8
 1529 03fd 06       		.uleb128 0x6
 1530 03fe A8010000 		.4byte	.LASF59
 1531 0402 09       		.byte	0x9
 1532 0403 32       		.byte	0x32
ARM GAS  C:\Users\Rob\AppData\Local\Temp\ccW1RN4f.s 			page 28


 1533 0404 28040000 		.4byte	0x428
 1534 0408 02       		.byte	0x2
 1535 0409 23       		.byte	0x23
 1536 040a 0C       		.uleb128 0xc
 1537 040b 06       		.uleb128 0x6
 1538 040c F3020000 		.4byte	.LASF60
 1539 0410 09       		.byte	0x9
 1540 0411 33       		.byte	0x33
 1541 0412 78030000 		.4byte	0x378
 1542 0416 02       		.byte	0x2
 1543 0417 23       		.byte	0x23
 1544 0418 10       		.uleb128 0x10
 1545 0419 06       		.uleb128 0x6
 1546 041a 29010000 		.4byte	.LASF61
 1547 041e 09       		.byte	0x9
 1548 041f 35       		.byte	0x35
 1549 0420 78030000 		.4byte	0x378
 1550 0424 02       		.byte	0x2
 1551 0425 23       		.byte	0x23
 1552 0426 1C       		.uleb128 0x1c
 1553 0427 00       		.byte	0
 1554 0428 09       		.uleb128 0x9
 1555 0429 04       		.byte	0x4
 1556 042a D9000000 		.4byte	0xd9
 1557 042e 04       		.uleb128 0x4
 1558 042f 16000000 		.4byte	.LASF62
 1559 0433 09       		.byte	0x9
 1560 0434 37       		.byte	0x37
 1561 0435 CB030000 		.4byte	0x3cb
 1562 0439 0C       		.uleb128 0xc
 1563 043a 04       		.byte	0x4
 1564 043b 05       		.byte	0x5
 1565 043c 8F       		.byte	0x8f
 1566 043d 6E040000 		.4byte	0x46e
 1567 0441 0D       		.uleb128 0xd
 1568 0442 06000000 		.4byte	.LASF63
 1569 0446 05       		.byte	0x5
 1570 0447 96       		.byte	0x96
 1571 0448 D9000000 		.4byte	0xd9
 1572 044c 0D       		.uleb128 0xd
 1573 044d 41000000 		.4byte	.LASF64
 1574 0451 05       		.byte	0x5
 1575 0452 9D       		.byte	0x9d
 1576 0453 D9000000 		.4byte	0xd9
 1577 0457 0D       		.uleb128 0xd
 1578 0458 1A030000 		.4byte	.LASF65
 1579 045c 05       		.byte	0x5
 1580 045d A4       		.byte	0xa4
 1581 045e 98020000 		.4byte	0x298
 1582 0462 0D       		.uleb128 0xd
 1583 0463 62020000 		.4byte	.LASF66
 1584 0467 05       		.byte	0x5
 1585 0468 AB       		.byte	0xab
 1586 0469 E4000000 		.4byte	0xe4
 1587 046d 00       		.byte	0
 1588 046e 09       		.uleb128 0x9
 1589 046f 04       		.byte	0x4
ARM GAS  C:\Users\Rob\AppData\Local\Temp\ccW1RN4f.s 			page 29


 1590 0470 74040000 		.4byte	0x474
 1591 0474 0E       		.uleb128 0xe
 1592 0475 79040000 		.4byte	0x479
 1593 0479 03       		.uleb128 0x3
 1594 047a 01       		.byte	0x1
 1595 047b 08       		.byte	0x8
 1596 047c A8020000 		.4byte	.LASF67
 1597 0480 09       		.uleb128 0x9
 1598 0481 04       		.byte	0x4
 1599 0482 C0030000 		.4byte	0x3c0
 1600 0486 05       		.uleb128 0x5
 1601 0487 7F020000 		.4byte	.LASF68
 1602 048b 10       		.byte	0x10
 1603 048c 0A       		.byte	0xa
 1604 048d 3B       		.byte	0x3b
 1605 048e CB040000 		.4byte	0x4cb
 1606 0492 06       		.uleb128 0x6
 1607 0493 35010000 		.4byte	.LASF69
 1608 0497 0A       		.byte	0xa
 1609 0498 3C       		.byte	0x3c
 1610 0499 6E040000 		.4byte	0x46e
 1611 049d 02       		.byte	0x2
 1612 049e 23       		.byte	0x23
 1613 049f 00       		.uleb128 0
 1614 04a0 06       		.uleb128 0x6
 1615 04a1 C6010000 		.4byte	.LASF70
 1616 04a5 0A       		.byte	0xa
 1617 04a6 3D       		.byte	0x3d
 1618 04a7 CD040000 		.4byte	0x4cd
 1619 04ab 02       		.byte	0x2
 1620 04ac 23       		.byte	0x23
 1621 04ad 04       		.uleb128 0x4
 1622 04ae 06       		.uleb128 0x6
 1623 04af 20010000 		.4byte	.LASF71
 1624 04b3 0A       		.byte	0xa
 1625 04b4 3E       		.byte	0x3e
 1626 04b5 CD040000 		.4byte	0x4cd
 1627 04b9 02       		.byte	0x2
 1628 04ba 23       		.byte	0x23
 1629 04bb 08       		.uleb128 0x8
 1630 04bc 06       		.uleb128 0x6
 1631 04bd F3010000 		.4byte	.LASF72
 1632 04c1 0A       		.byte	0xa
 1633 04c2 3F       		.byte	0x3f
 1634 04c3 CD040000 		.4byte	0x4cd
 1635 04c7 02       		.byte	0x2
 1636 04c8 23       		.byte	0x23
 1637 04c9 0C       		.uleb128 0xc
 1638 04ca 00       		.byte	0
 1639 04cb 0F       		.uleb128 0xf
 1640 04cc 01       		.byte	0x1
 1641 04cd 09       		.uleb128 0x9
 1642 04ce 04       		.byte	0x4
 1643 04cf CB040000 		.4byte	0x4cb
 1644 04d3 10       		.uleb128 0x10
 1645 04d4 F005     		.2byte	0x5f0
 1646 04d6 0A       		.byte	0xa
ARM GAS  C:\Users\Rob\AppData\Local\Temp\ccW1RN4f.s 			page 30


 1647 04d7 44       		.byte	0x44
 1648 04d8 22050000 		.4byte	0x522
 1649 04dc 07       		.uleb128 0x7
 1650 04dd 543000   		.ascii	"T0\000"
 1651 04e0 0A       		.byte	0xa
 1652 04e1 45       		.byte	0x45
 1653 04e2 22050000 		.4byte	0x522
 1654 04e6 02       		.byte	0x2
 1655 04e7 23       		.byte	0x23
 1656 04e8 00       		.uleb128 0
 1657 04e9 07       		.uleb128 0x7
 1658 04ea 543100   		.ascii	"T1\000"
 1659 04ed 0A       		.byte	0xa
 1660 04ee 46       		.byte	0x46
 1661 04ef 22050000 		.4byte	0x522
 1662 04f3 03       		.byte	0x3
 1663 04f4 23       		.byte	0x23
 1664 04f5 B002     		.uleb128 0x130
 1665 04f7 07       		.uleb128 0x7
 1666 04f8 543200   		.ascii	"T2\000"
 1667 04fb 0A       		.byte	0xa
 1668 04fc 47       		.byte	0x47
 1669 04fd 22050000 		.4byte	0x522
 1670 0501 03       		.byte	0x3
 1671 0502 23       		.byte	0x23
 1672 0503 E004     		.uleb128 0x260
 1673 0505 07       		.uleb128 0x7
 1674 0506 543300   		.ascii	"T3\000"
 1675 0509 0A       		.byte	0xa
 1676 050a 48       		.byte	0x48
 1677 050b 22050000 		.4byte	0x522
 1678 050f 03       		.byte	0x3
 1679 0510 23       		.byte	0x23
 1680 0511 9007     		.uleb128 0x390
 1681 0513 07       		.uleb128 0x7
 1682 0514 543400   		.ascii	"T4\000"
 1683 0517 0A       		.byte	0xa
 1684 0518 49       		.byte	0x49
 1685 0519 22050000 		.4byte	0x522
 1686 051d 03       		.byte	0x3
 1687 051e 23       		.byte	0x23
 1688 051f C009     		.uleb128 0x4c0
 1689 0521 00       		.byte	0
 1690 0522 11       		.uleb128 0x11
 1691 0523 9A020000 		.4byte	0x29a
 1692 0527 32050000 		.4byte	0x532
 1693 052b 12       		.uleb128 0x12
 1694 052c 30000000 		.4byte	0x30
 1695 0530 25       		.byte	0x25
 1696 0531 00       		.byte	0
 1697 0532 13       		.uleb128 0x13
 1698 0533 FE020000 		.4byte	.LASF82
 1699 0537 F005     		.2byte	0x5f0
 1700 0539 0A       		.byte	0xa
 1701 053a 43       		.byte	0x43
 1702 053b 55050000 		.4byte	0x555
 1703 053f 14       		.uleb128 0x14
ARM GAS  C:\Users\Rob\AppData\Local\Temp\ccW1RN4f.s 			page 31


 1704 0540 776100   		.ascii	"wa\000"
 1705 0543 0A       		.byte	0xa
 1706 0544 4A       		.byte	0x4a
 1707 0545 D3040000 		.4byte	0x4d3
 1708 0549 0D       		.uleb128 0xd
 1709 054a C9020000 		.4byte	.LASF73
 1710 054e 0A       		.byte	0xa
 1711 054f 4B       		.byte	0x4b
 1712 0550 55050000 		.4byte	0x555
 1713 0554 00       		.byte	0
 1714 0555 11       		.uleb128 0x11
 1715 0556 3E000000 		.4byte	0x3e
 1716 055a 66050000 		.4byte	0x566
 1717 055e 15       		.uleb128 0x15
 1718 055f 30000000 		.4byte	0x30
 1719 0563 EF05     		.2byte	0x5ef
 1720 0565 00       		.byte	0
 1721 0566 16       		.uleb128 0x16
 1722 0567 D6010000 		.4byte	.LASF83
 1723 056b 01       		.byte	0x1
 1724 056c 4C       		.byte	0x4c
 1725 056d 01       		.byte	0x1
 1726 056e 01       		.byte	0x1
 1727 056f 93050000 		.4byte	0x593
 1728 0573 17       		.uleb128 0x17
 1729 0574 04010000 		.4byte	.LASF74
 1730 0578 01       		.byte	0x1
 1731 0579 4D       		.byte	0x4d
 1732 057a D9000000 		.4byte	0xd9
 1733 057e 17       		.uleb128 0x17
 1734 057f 09010000 		.4byte	.LASF75
 1735 0583 01       		.byte	0x1
 1736 0584 4D       		.byte	0x4d
 1737 0585 D9000000 		.4byte	0xd9
 1738 0589 18       		.uleb128 0x18
 1739 058a 6900     		.ascii	"i\000"
 1740 058c 01       		.byte	0x1
 1741 058d 4E       		.byte	0x4e
 1742 058e 30000000 		.4byte	0x30
 1743 0592 00       		.byte	0
 1744 0593 19       		.uleb128 0x19
 1745 0594 69010000 		.4byte	.LASF84
 1746 0598 01       		.byte	0x1
 1747 0599 47       		.byte	0x47
 1748 059a 01       		.byte	0x1
 1749 059b 00000000 		.4byte	.LFB7
 1750 059f 18000000 		.4byte	.LFE7
 1751 05a3 00000000 		.4byte	.LLST0
 1752 05a7 1A       		.uleb128 0x1a
 1753 05a8 66050000 		.4byte	0x566
 1754 05ac 00000000 		.4byte	.LFB8
 1755 05b0 B8040000 		.4byte	.LFE8
 1756 05b4 20000000 		.4byte	.LLST1
 1757 05b8 01060000 		.4byte	0x601
 1758 05bc 1B       		.uleb128 0x1b
 1759 05bd 73050000 		.4byte	0x573
 1760 05c1 4C000000 		.4byte	.LLST2
ARM GAS  C:\Users\Rob\AppData\Local\Temp\ccW1RN4f.s 			page 32


 1761 05c5 1C       		.uleb128 0x1c
 1762 05c6 7E050000 		.4byte	0x57e
 1763 05ca 1C       		.uleb128 0x1c
 1764 05cb 89050000 		.4byte	0x589
 1765 05cf 1D       		.uleb128 0x1d
 1766 05d0 66050000 		.4byte	0x566
 1767 05d4 5C000000 		.4byte	.LBB4
 1768 05d8 B8040000 		.4byte	.LBE4
 1769 05dc 01       		.byte	0x1
 1770 05dd 4C       		.byte	0x4c
 1771 05de 1E       		.uleb128 0x1e
 1772 05df 5C000000 		.4byte	.LBB5
 1773 05e3 B8040000 		.4byte	.LBE5
 1774 05e7 1B       		.uleb128 0x1b
 1775 05e8 73050000 		.4byte	0x573
 1776 05ec 6A000000 		.4byte	.LLST3
 1777 05f0 1B       		.uleb128 0x1b
 1778 05f1 7E050000 		.4byte	0x57e
 1779 05f5 59010000 		.4byte	.LLST4
 1780 05f9 1C       		.uleb128 0x1c
 1781 05fa 89050000 		.4byte	0x589
 1782 05fe 00       		.byte	0
 1783 05ff 00       		.byte	0
 1784 0600 00       		.byte	0
 1785 0601 1F       		.uleb128 0x1f
 1786 0602 4A000000 		.4byte	.LASF76
 1787 0606 0A       		.byte	0xa
 1788 0607 A6       		.byte	0xa6
 1789 0608 32050000 		.4byte	0x532
 1790 060c 01       		.byte	0x1
 1791 060d 01       		.byte	0x1
 1792 060e 20       		.uleb128 0x20
 1793 060f 6D623100 		.ascii	"mb1\000"
 1794 0613 01       		.byte	0x1
 1795 0614 3C       		.byte	0x3c
 1796 0615 2E040000 		.4byte	0x42e
 1797 0619 05       		.byte	0x5
 1798 061a 03       		.byte	0x3
 1799 061b 00000000 		.4byte	mb1
 1800 061f 1F       		.uleb128 0x1f
 1801 0620 93010000 		.4byte	.LASF77
 1802 0624 01       		.byte	0x1
 1803 0625 DE       		.byte	0xde
 1804 0626 2C060000 		.4byte	0x62c
 1805 062a 01       		.byte	0x1
 1806 062b 01       		.byte	0x1
 1807 062c 0E       		.uleb128 0xe
 1808 062d 86040000 		.4byte	0x486
 1809 0631 1F       		.uleb128 0x1f
 1810 0632 4A000000 		.4byte	.LASF76
 1811 0636 0A       		.byte	0xa
 1812 0637 A6       		.byte	0xa6
 1813 0638 32050000 		.4byte	0x532
 1814 063c 01       		.byte	0x1
 1815 063d 01       		.byte	0x1
 1816 063e 21       		.uleb128 0x21
 1817 063f 93010000 		.4byte	.LASF77
ARM GAS  C:\Users\Rob\AppData\Local\Temp\ccW1RN4f.s 			page 33


 1818 0643 01       		.byte	0x1
 1819 0644 DE       		.byte	0xde
 1820 0645 2C060000 		.4byte	0x62c
 1821 0649 01       		.byte	0x1
 1822 064a 05       		.byte	0x5
 1823 064b 03       		.byte	0x3
 1824 064c 00000000 		.4byte	testmbox1
 1825 0650 11       		.uleb128 0x11
 1826 0651 60060000 		.4byte	0x660
 1827 0655 60060000 		.4byte	0x660
 1828 0659 12       		.uleb128 0x12
 1829 065a 30000000 		.4byte	0x30
 1830 065e 01       		.byte	0x1
 1831 065f 00       		.byte	0
 1832 0660 09       		.uleb128 0x9
 1833 0661 04       		.byte	0x4
 1834 0662 2C060000 		.4byte	0x62c
 1835 0666 21       		.uleb128 0x21
 1836 0667 35000000 		.4byte	.LASF78
 1837 066b 01       		.byte	0x1
 1838 066c EA       		.byte	0xea
 1839 066d 78060000 		.4byte	0x678
 1840 0671 01       		.byte	0x1
 1841 0672 05       		.byte	0x5
 1842 0673 03       		.byte	0x3
 1843 0674 00000000 		.4byte	patternmbox
 1844 0678 0E       		.uleb128 0xe
 1845 0679 50060000 		.4byte	0x650
 1846 067d 00       		.byte	0
 1847              		.section	.debug_abbrev,"",%progbits
 1848              	.Ldebug_abbrev0:
 1849 0000 01       		.uleb128 0x1
 1850 0001 11       		.uleb128 0x11
 1851 0002 01       		.byte	0x1
 1852 0003 25       		.uleb128 0x25
 1853 0004 0E       		.uleb128 0xe
 1854 0005 13       		.uleb128 0x13
 1855 0006 0B       		.uleb128 0xb
 1856 0007 03       		.uleb128 0x3
 1857 0008 0E       		.uleb128 0xe
 1858 0009 1B       		.uleb128 0x1b
 1859 000a 0E       		.uleb128 0xe
 1860 000b 11       		.uleb128 0x11
 1861 000c 01       		.uleb128 0x1
 1862 000d 52       		.uleb128 0x52
 1863 000e 01       		.uleb128 0x1
 1864 000f 55       		.uleb128 0x55
 1865 0010 06       		.uleb128 0x6
 1866 0011 10       		.uleb128 0x10
 1867 0012 06       		.uleb128 0x6
 1868 0013 00       		.byte	0
 1869 0014 00       		.byte	0
 1870 0015 02       		.uleb128 0x2
 1871 0016 24       		.uleb128 0x24
 1872 0017 00       		.byte	0
 1873 0018 0B       		.uleb128 0xb
 1874 0019 0B       		.uleb128 0xb
ARM GAS  C:\Users\Rob\AppData\Local\Temp\ccW1RN4f.s 			page 34


 1875 001a 3E       		.uleb128 0x3e
 1876 001b 0B       		.uleb128 0xb
 1877 001c 03       		.uleb128 0x3
 1878 001d 08       		.uleb128 0x8
 1879 001e 00       		.byte	0
 1880 001f 00       		.byte	0
 1881 0020 03       		.uleb128 0x3
 1882 0021 24       		.uleb128 0x24
 1883 0022 00       		.byte	0
 1884 0023 0B       		.uleb128 0xb
 1885 0024 0B       		.uleb128 0xb
 1886 0025 3E       		.uleb128 0x3e
 1887 0026 0B       		.uleb128 0xb
 1888 0027 03       		.uleb128 0x3
 1889 0028 0E       		.uleb128 0xe
 1890 0029 00       		.byte	0
 1891 002a 00       		.byte	0
 1892 002b 04       		.uleb128 0x4
 1893 002c 16       		.uleb128 0x16
 1894 002d 00       		.byte	0
 1895 002e 03       		.uleb128 0x3
 1896 002f 0E       		.uleb128 0xe
 1897 0030 3A       		.uleb128 0x3a
 1898 0031 0B       		.uleb128 0xb
 1899 0032 3B       		.uleb128 0x3b
 1900 0033 0B       		.uleb128 0xb
 1901 0034 49       		.uleb128 0x49
 1902 0035 13       		.uleb128 0x13
 1903 0036 00       		.byte	0
 1904 0037 00       		.byte	0
 1905 0038 05       		.uleb128 0x5
 1906 0039 13       		.uleb128 0x13
 1907 003a 01       		.byte	0x1
 1908 003b 03       		.uleb128 0x3
 1909 003c 0E       		.uleb128 0xe
 1910 003d 0B       		.uleb128 0xb
 1911 003e 0B       		.uleb128 0xb
 1912 003f 3A       		.uleb128 0x3a
 1913 0040 0B       		.uleb128 0xb
 1914 0041 3B       		.uleb128 0x3b
 1915 0042 0B       		.uleb128 0xb
 1916 0043 01       		.uleb128 0x1
 1917 0044 13       		.uleb128 0x13
 1918 0045 00       		.byte	0
 1919 0046 00       		.byte	0
 1920 0047 06       		.uleb128 0x6
 1921 0048 0D       		.uleb128 0xd
 1922 0049 00       		.byte	0
 1923 004a 03       		.uleb128 0x3
 1924 004b 0E       		.uleb128 0xe
 1925 004c 3A       		.uleb128 0x3a
 1926 004d 0B       		.uleb128 0xb
 1927 004e 3B       		.uleb128 0x3b
 1928 004f 0B       		.uleb128 0xb
 1929 0050 49       		.uleb128 0x49
 1930 0051 13       		.uleb128 0x13
 1931 0052 38       		.uleb128 0x38
ARM GAS  C:\Users\Rob\AppData\Local\Temp\ccW1RN4f.s 			page 35


 1932 0053 0A       		.uleb128 0xa
 1933 0054 00       		.byte	0
 1934 0055 00       		.byte	0
 1935 0056 07       		.uleb128 0x7
 1936 0057 0D       		.uleb128 0xd
 1937 0058 00       		.byte	0
 1938 0059 03       		.uleb128 0x3
 1939 005a 08       		.uleb128 0x8
 1940 005b 3A       		.uleb128 0x3a
 1941 005c 0B       		.uleb128 0xb
 1942 005d 3B       		.uleb128 0x3b
 1943 005e 0B       		.uleb128 0xb
 1944 005f 49       		.uleb128 0x49
 1945 0060 13       		.uleb128 0x13
 1946 0061 38       		.uleb128 0x38
 1947 0062 0A       		.uleb128 0xa
 1948 0063 00       		.byte	0
 1949 0064 00       		.byte	0
 1950 0065 08       		.uleb128 0x8
 1951 0066 13       		.uleb128 0x13
 1952 0067 01       		.byte	0x1
 1953 0068 0B       		.uleb128 0xb
 1954 0069 0B       		.uleb128 0xb
 1955 006a 3A       		.uleb128 0x3a
 1956 006b 0B       		.uleb128 0xb
 1957 006c 3B       		.uleb128 0x3b
 1958 006d 0B       		.uleb128 0xb
 1959 006e 01       		.uleb128 0x1
 1960 006f 13       		.uleb128 0x13
 1961 0070 00       		.byte	0
 1962 0071 00       		.byte	0
 1963 0072 09       		.uleb128 0x9
 1964 0073 0F       		.uleb128 0xf
 1965 0074 00       		.byte	0
 1966 0075 0B       		.uleb128 0xb
 1967 0076 0B       		.uleb128 0xb
 1968 0077 49       		.uleb128 0x49
 1969 0078 13       		.uleb128 0x13
 1970 0079 00       		.byte	0
 1971 007a 00       		.byte	0
 1972 007b 0A       		.uleb128 0xa
 1973 007c 0F       		.uleb128 0xf
 1974 007d 00       		.byte	0
 1975 007e 0B       		.uleb128 0xb
 1976 007f 0B       		.uleb128 0xb
 1977 0080 00       		.byte	0
 1978 0081 00       		.byte	0
 1979 0082 0B       		.uleb128 0xb
 1980 0083 35       		.uleb128 0x35
 1981 0084 00       		.byte	0
 1982 0085 49       		.uleb128 0x49
 1983 0086 13       		.uleb128 0x13
 1984 0087 00       		.byte	0
 1985 0088 00       		.byte	0
 1986 0089 0C       		.uleb128 0xc
 1987 008a 17       		.uleb128 0x17
 1988 008b 01       		.byte	0x1
ARM GAS  C:\Users\Rob\AppData\Local\Temp\ccW1RN4f.s 			page 36


 1989 008c 0B       		.uleb128 0xb
 1990 008d 0B       		.uleb128 0xb
 1991 008e 3A       		.uleb128 0x3a
 1992 008f 0B       		.uleb128 0xb
 1993 0090 3B       		.uleb128 0x3b
 1994 0091 0B       		.uleb128 0xb
 1995 0092 01       		.uleb128 0x1
 1996 0093 13       		.uleb128 0x13
 1997 0094 00       		.byte	0
 1998 0095 00       		.byte	0
 1999 0096 0D       		.uleb128 0xd
 2000 0097 0D       		.uleb128 0xd
 2001 0098 00       		.byte	0
 2002 0099 03       		.uleb128 0x3
 2003 009a 0E       		.uleb128 0xe
 2004 009b 3A       		.uleb128 0x3a
 2005 009c 0B       		.uleb128 0xb
 2006 009d 3B       		.uleb128 0x3b
 2007 009e 0B       		.uleb128 0xb
 2008 009f 49       		.uleb128 0x49
 2009 00a0 13       		.uleb128 0x13
 2010 00a1 00       		.byte	0
 2011 00a2 00       		.byte	0
 2012 00a3 0E       		.uleb128 0xe
 2013 00a4 26       		.uleb128 0x26
 2014 00a5 00       		.byte	0
 2015 00a6 49       		.uleb128 0x49
 2016 00a7 13       		.uleb128 0x13
 2017 00a8 00       		.byte	0
 2018 00a9 00       		.byte	0
 2019 00aa 0F       		.uleb128 0xf
 2020 00ab 15       		.uleb128 0x15
 2021 00ac 00       		.byte	0
 2022 00ad 27       		.uleb128 0x27
 2023 00ae 0C       		.uleb128 0xc
 2024 00af 00       		.byte	0
 2025 00b0 00       		.byte	0
 2026 00b1 10       		.uleb128 0x10
 2027 00b2 13       		.uleb128 0x13
 2028 00b3 01       		.byte	0x1
 2029 00b4 0B       		.uleb128 0xb
 2030 00b5 05       		.uleb128 0x5
 2031 00b6 3A       		.uleb128 0x3a
 2032 00b7 0B       		.uleb128 0xb
 2033 00b8 3B       		.uleb128 0x3b
 2034 00b9 0B       		.uleb128 0xb
 2035 00ba 01       		.uleb128 0x1
 2036 00bb 13       		.uleb128 0x13
 2037 00bc 00       		.byte	0
 2038 00bd 00       		.byte	0
 2039 00be 11       		.uleb128 0x11
 2040 00bf 01       		.uleb128 0x1
 2041 00c0 01       		.byte	0x1
 2042 00c1 49       		.uleb128 0x49
 2043 00c2 13       		.uleb128 0x13
 2044 00c3 01       		.uleb128 0x1
 2045 00c4 13       		.uleb128 0x13
ARM GAS  C:\Users\Rob\AppData\Local\Temp\ccW1RN4f.s 			page 37


 2046 00c5 00       		.byte	0
 2047 00c6 00       		.byte	0
 2048 00c7 12       		.uleb128 0x12
 2049 00c8 21       		.uleb128 0x21
 2050 00c9 00       		.byte	0
 2051 00ca 49       		.uleb128 0x49
 2052 00cb 13       		.uleb128 0x13
 2053 00cc 2F       		.uleb128 0x2f
 2054 00cd 0B       		.uleb128 0xb
 2055 00ce 00       		.byte	0
 2056 00cf 00       		.byte	0
 2057 00d0 13       		.uleb128 0x13
 2058 00d1 17       		.uleb128 0x17
 2059 00d2 01       		.byte	0x1
 2060 00d3 03       		.uleb128 0x3
 2061 00d4 0E       		.uleb128 0xe
 2062 00d5 0B       		.uleb128 0xb
 2063 00d6 05       		.uleb128 0x5
 2064 00d7 3A       		.uleb128 0x3a
 2065 00d8 0B       		.uleb128 0xb
 2066 00d9 3B       		.uleb128 0x3b
 2067 00da 0B       		.uleb128 0xb
 2068 00db 01       		.uleb128 0x1
 2069 00dc 13       		.uleb128 0x13
 2070 00dd 00       		.byte	0
 2071 00de 00       		.byte	0
 2072 00df 14       		.uleb128 0x14
 2073 00e0 0D       		.uleb128 0xd
 2074 00e1 00       		.byte	0
 2075 00e2 03       		.uleb128 0x3
 2076 00e3 08       		.uleb128 0x8
 2077 00e4 3A       		.uleb128 0x3a
 2078 00e5 0B       		.uleb128 0xb
 2079 00e6 3B       		.uleb128 0x3b
 2080 00e7 0B       		.uleb128 0xb
 2081 00e8 49       		.uleb128 0x49
 2082 00e9 13       		.uleb128 0x13
 2083 00ea 00       		.byte	0
 2084 00eb 00       		.byte	0
 2085 00ec 15       		.uleb128 0x15
 2086 00ed 21       		.uleb128 0x21
 2087 00ee 00       		.byte	0
 2088 00ef 49       		.uleb128 0x49
 2089 00f0 13       		.uleb128 0x13
 2090 00f1 2F       		.uleb128 0x2f
 2091 00f2 05       		.uleb128 0x5
 2092 00f3 00       		.byte	0
 2093 00f4 00       		.byte	0
 2094 00f5 16       		.uleb128 0x16
 2095 00f6 2E       		.uleb128 0x2e
 2096 00f7 01       		.byte	0x1
 2097 00f8 03       		.uleb128 0x3
 2098 00f9 0E       		.uleb128 0xe
 2099 00fa 3A       		.uleb128 0x3a
 2100 00fb 0B       		.uleb128 0xb
 2101 00fc 3B       		.uleb128 0x3b
 2102 00fd 0B       		.uleb128 0xb
ARM GAS  C:\Users\Rob\AppData\Local\Temp\ccW1RN4f.s 			page 38


 2103 00fe 27       		.uleb128 0x27
 2104 00ff 0C       		.uleb128 0xc
 2105 0100 20       		.uleb128 0x20
 2106 0101 0B       		.uleb128 0xb
 2107 0102 01       		.uleb128 0x1
 2108 0103 13       		.uleb128 0x13
 2109 0104 00       		.byte	0
 2110 0105 00       		.byte	0
 2111 0106 17       		.uleb128 0x17
 2112 0107 34       		.uleb128 0x34
 2113 0108 00       		.byte	0
 2114 0109 03       		.uleb128 0x3
 2115 010a 0E       		.uleb128 0xe
 2116 010b 3A       		.uleb128 0x3a
 2117 010c 0B       		.uleb128 0xb
 2118 010d 3B       		.uleb128 0x3b
 2119 010e 0B       		.uleb128 0xb
 2120 010f 49       		.uleb128 0x49
 2121 0110 13       		.uleb128 0x13
 2122 0111 00       		.byte	0
 2123 0112 00       		.byte	0
 2124 0113 18       		.uleb128 0x18
 2125 0114 34       		.uleb128 0x34
 2126 0115 00       		.byte	0
 2127 0116 03       		.uleb128 0x3
 2128 0117 08       		.uleb128 0x8
 2129 0118 3A       		.uleb128 0x3a
 2130 0119 0B       		.uleb128 0xb
 2131 011a 3B       		.uleb128 0x3b
 2132 011b 0B       		.uleb128 0xb
 2133 011c 49       		.uleb128 0x49
 2134 011d 13       		.uleb128 0x13
 2135 011e 00       		.byte	0
 2136 011f 00       		.byte	0
 2137 0120 19       		.uleb128 0x19
 2138 0121 2E       		.uleb128 0x2e
 2139 0122 00       		.byte	0
 2140 0123 03       		.uleb128 0x3
 2141 0124 0E       		.uleb128 0xe
 2142 0125 3A       		.uleb128 0x3a
 2143 0126 0B       		.uleb128 0xb
 2144 0127 3B       		.uleb128 0x3b
 2145 0128 0B       		.uleb128 0xb
 2146 0129 27       		.uleb128 0x27
 2147 012a 0C       		.uleb128 0xc
 2148 012b 11       		.uleb128 0x11
 2149 012c 01       		.uleb128 0x1
 2150 012d 12       		.uleb128 0x12
 2151 012e 01       		.uleb128 0x1
 2152 012f 40       		.uleb128 0x40
 2153 0130 06       		.uleb128 0x6
 2154 0131 00       		.byte	0
 2155 0132 00       		.byte	0
 2156 0133 1A       		.uleb128 0x1a
 2157 0134 2E       		.uleb128 0x2e
 2158 0135 01       		.byte	0x1
 2159 0136 31       		.uleb128 0x31
ARM GAS  C:\Users\Rob\AppData\Local\Temp\ccW1RN4f.s 			page 39


 2160 0137 13       		.uleb128 0x13
 2161 0138 11       		.uleb128 0x11
 2162 0139 01       		.uleb128 0x1
 2163 013a 12       		.uleb128 0x12
 2164 013b 01       		.uleb128 0x1
 2165 013c 40       		.uleb128 0x40
 2166 013d 06       		.uleb128 0x6
 2167 013e 01       		.uleb128 0x1
 2168 013f 13       		.uleb128 0x13
 2169 0140 00       		.byte	0
 2170 0141 00       		.byte	0
 2171 0142 1B       		.uleb128 0x1b
 2172 0143 34       		.uleb128 0x34
 2173 0144 00       		.byte	0
 2174 0145 31       		.uleb128 0x31
 2175 0146 13       		.uleb128 0x13
 2176 0147 02       		.uleb128 0x2
 2177 0148 06       		.uleb128 0x6
 2178 0149 00       		.byte	0
 2179 014a 00       		.byte	0
 2180 014b 1C       		.uleb128 0x1c
 2181 014c 34       		.uleb128 0x34
 2182 014d 00       		.byte	0
 2183 014e 31       		.uleb128 0x31
 2184 014f 13       		.uleb128 0x13
 2185 0150 00       		.byte	0
 2186 0151 00       		.byte	0
 2187 0152 1D       		.uleb128 0x1d
 2188 0153 1D       		.uleb128 0x1d
 2189 0154 01       		.byte	0x1
 2190 0155 31       		.uleb128 0x31
 2191 0156 13       		.uleb128 0x13
 2192 0157 11       		.uleb128 0x11
 2193 0158 01       		.uleb128 0x1
 2194 0159 12       		.uleb128 0x12
 2195 015a 01       		.uleb128 0x1
 2196 015b 58       		.uleb128 0x58
 2197 015c 0B       		.uleb128 0xb
 2198 015d 59       		.uleb128 0x59
 2199 015e 0B       		.uleb128 0xb
 2200 015f 00       		.byte	0
 2201 0160 00       		.byte	0
 2202 0161 1E       		.uleb128 0x1e
 2203 0162 0B       		.uleb128 0xb
 2204 0163 01       		.byte	0x1
 2205 0164 11       		.uleb128 0x11
 2206 0165 01       		.uleb128 0x1
 2207 0166 12       		.uleb128 0x12
 2208 0167 01       		.uleb128 0x1
 2209 0168 00       		.byte	0
 2210 0169 00       		.byte	0
 2211 016a 1F       		.uleb128 0x1f
 2212 016b 34       		.uleb128 0x34
 2213 016c 00       		.byte	0
 2214 016d 03       		.uleb128 0x3
 2215 016e 0E       		.uleb128 0xe
 2216 016f 3A       		.uleb128 0x3a
ARM GAS  C:\Users\Rob\AppData\Local\Temp\ccW1RN4f.s 			page 40


 2217 0170 0B       		.uleb128 0xb
 2218 0171 3B       		.uleb128 0x3b
 2219 0172 0B       		.uleb128 0xb
 2220 0173 49       		.uleb128 0x49
 2221 0174 13       		.uleb128 0x13
 2222 0175 3F       		.uleb128 0x3f
 2223 0176 0C       		.uleb128 0xc
 2224 0177 3C       		.uleb128 0x3c
 2225 0178 0C       		.uleb128 0xc
 2226 0179 00       		.byte	0
 2227 017a 00       		.byte	0
 2228 017b 20       		.uleb128 0x20
 2229 017c 34       		.uleb128 0x34
 2230 017d 00       		.byte	0
 2231 017e 03       		.uleb128 0x3
 2232 017f 08       		.uleb128 0x8
 2233 0180 3A       		.uleb128 0x3a
 2234 0181 0B       		.uleb128 0xb
 2235 0182 3B       		.uleb128 0x3b
 2236 0183 0B       		.uleb128 0xb
 2237 0184 49       		.uleb128 0x49
 2238 0185 13       		.uleb128 0x13
 2239 0186 02       		.uleb128 0x2
 2240 0187 0A       		.uleb128 0xa
 2241 0188 00       		.byte	0
 2242 0189 00       		.byte	0
 2243 018a 21       		.uleb128 0x21
 2244 018b 34       		.uleb128 0x34
 2245 018c 00       		.byte	0
 2246 018d 03       		.uleb128 0x3
 2247 018e 0E       		.uleb128 0xe
 2248 018f 3A       		.uleb128 0x3a
 2249 0190 0B       		.uleb128 0xb
 2250 0191 3B       		.uleb128 0x3b
 2251 0192 0B       		.uleb128 0xb
 2252 0193 49       		.uleb128 0x49
 2253 0194 13       		.uleb128 0x13
 2254 0195 3F       		.uleb128 0x3f
 2255 0196 0C       		.uleb128 0xc
 2256 0197 02       		.uleb128 0x2
 2257 0198 0A       		.uleb128 0xa
 2258 0199 00       		.byte	0
 2259 019a 00       		.byte	0
 2260 019b 00       		.byte	0
 2261              		.section	.debug_loc,"",%progbits
 2262              	.Ldebug_loc0:
 2263              	.LLST0:
 2264 0000 00000000 		.4byte	.LFB7
 2265 0004 02000000 		.4byte	.LCFI0
 2266 0008 0200     		.2byte	0x2
 2267 000a 7D       		.byte	0x7d
 2268 000b 00       		.sleb128 0
 2269 000c 02000000 		.4byte	.LCFI0
 2270 0010 18000000 		.4byte	.LFE7
 2271 0014 0200     		.2byte	0x2
 2272 0016 7D       		.byte	0x7d
 2273 0017 08       		.sleb128 8
ARM GAS  C:\Users\Rob\AppData\Local\Temp\ccW1RN4f.s 			page 41


 2274 0018 00000000 		.4byte	0
 2275 001c 00000000 		.4byte	0
 2276              	.LLST1:
 2277 0020 00000000 		.4byte	.LFB8
 2278 0024 02000000 		.4byte	.LCFI1
 2279 0028 0200     		.2byte	0x2
 2280 002a 7D       		.byte	0x7d
 2281 002b 00       		.sleb128 0
 2282 002c 02000000 		.4byte	.LCFI1
 2283 0030 06000000 		.4byte	.LCFI2
 2284 0034 0200     		.2byte	0x2
 2285 0036 7D       		.byte	0x7d
 2286 0037 10       		.sleb128 16
 2287 0038 06000000 		.4byte	.LCFI2
 2288 003c B8040000 		.4byte	.LFE8
 2289 0040 0200     		.2byte	0x2
 2290 0042 7D       		.byte	0x7d
 2291 0043 18       		.sleb128 24
 2292 0044 00000000 		.4byte	0
 2293 0048 00000000 		.4byte	0
 2294              	.LLST2:
 2295 004c 26000000 		.4byte	.LVL0
 2296 0050 2A000000 		.4byte	.LVL1
 2297 0054 0100     		.2byte	0x1
 2298 0056 50       		.byte	0x50
 2299 0057 46000000 		.4byte	.LVL2
 2300 005b 4A000000 		.4byte	.LVL3
 2301 005f 0100     		.2byte	0x1
 2302 0061 50       		.byte	0x50
 2303 0062 00000000 		.4byte	0
 2304 0066 00000000 		.4byte	0
 2305              	.LLST3:
 2306 006a 66000000 		.4byte	.LVL5
 2307 006e 6E000000 		.4byte	.LVL6
 2308 0072 0100     		.2byte	0x1
 2309 0074 50       		.byte	0x50
 2310 0075 80000000 		.4byte	.LVL7
 2311 0079 8A000000 		.4byte	.LVL8
 2312 007d 0100     		.2byte	0x1
 2313 007f 50       		.byte	0x50
 2314 0080 9C000000 		.4byte	.LVL9
 2315 0084 A4000000 		.4byte	.LVL10
 2316 0088 0100     		.2byte	0x1
 2317 008a 50       		.byte	0x50
 2318 008b B6000000 		.4byte	.LVL11
 2319 008f C0000000 		.4byte	.LVL12
 2320 0093 0100     		.2byte	0x1
 2321 0095 50       		.byte	0x50
 2322 0096 18010000 		.4byte	.LVL13
 2323 009a 1C010000 		.4byte	.LVL14
 2324 009e 0100     		.2byte	0x1
 2325 00a0 50       		.byte	0x50
 2326 00a1 52010000 		.4byte	.LVL17
 2327 00a5 56010000 		.4byte	.LVL18
 2328 00a9 0100     		.2byte	0x1
 2329 00ab 50       		.byte	0x50
 2330 00ac 6E010000 		.4byte	.LVL19
ARM GAS  C:\Users\Rob\AppData\Local\Temp\ccW1RN4f.s 			page 42


 2331 00b0 72010000 		.4byte	.LVL20
 2332 00b4 0100     		.2byte	0x1
 2333 00b6 50       		.byte	0x50
 2334 00b7 B4010000 		.4byte	.LVL21
 2335 00bb BC010000 		.4byte	.LVL22
 2336 00bf 0100     		.2byte	0x1
 2337 00c1 50       		.byte	0x50
 2338 00c2 D0010000 		.4byte	.LVL23
 2339 00c6 DA010000 		.4byte	.LVL24
 2340 00ca 0100     		.2byte	0x1
 2341 00cc 50       		.byte	0x50
 2342 00cd 36020000 		.4byte	.LVL25
 2343 00d1 3A020000 		.4byte	.LVL26
 2344 00d5 0100     		.2byte	0x1
 2345 00d7 50       		.byte	0x50
 2346 00d8 4E020000 		.4byte	.LVL27
 2347 00dc 52020000 		.4byte	.LVL28
 2348 00e0 0100     		.2byte	0x1
 2349 00e2 50       		.byte	0x50
 2350 00e3 66020000 		.4byte	.LVL29
 2351 00e7 6A020000 		.4byte	.LVL30
 2352 00eb 0100     		.2byte	0x1
 2353 00ed 50       		.byte	0x50
 2354 00ee 7E020000 		.4byte	.LVL31
 2355 00f2 82020000 		.4byte	.LVL32
 2356 00f6 0100     		.2byte	0x1
 2357 00f8 50       		.byte	0x50
 2358 00f9 96020000 		.4byte	.LVL33
 2359 00fd 9C020000 		.4byte	.LVL34
 2360 0101 0100     		.2byte	0x1
 2361 0103 50       		.byte	0x50
 2362 0104 CA020000 		.4byte	.LVL36
 2363 0108 D0020000 		.4byte	.LVL37
 2364 010c 0100     		.2byte	0x1
 2365 010e 50       		.byte	0x50
 2366 010f 46030000 		.4byte	.LVL40
 2367 0113 4A030000 		.4byte	.LVL41
 2368 0117 0100     		.2byte	0x1
 2369 0119 50       		.byte	0x50
 2370 011a 5E030000 		.4byte	.LVL42
 2371 011e 62030000 		.4byte	.LVL43
 2372 0122 0100     		.2byte	0x1
 2373 0124 50       		.byte	0x50
 2374 0125 76030000 		.4byte	.LVL44
 2375 0129 7A030000 		.4byte	.LVL45
 2376 012d 0100     		.2byte	0x1
 2377 012f 50       		.byte	0x50
 2378 0130 8E030000 		.4byte	.LVL46
 2379 0134 92030000 		.4byte	.LVL47
 2380 0138 0100     		.2byte	0x1
 2381 013a 50       		.byte	0x50
 2382 013b A6030000 		.4byte	.LVL48
 2383 013f AC030000 		.4byte	.LVL49
 2384 0143 0100     		.2byte	0x1
 2385 0145 50       		.byte	0x50
 2386 0146 E2030000 		.4byte	.LVL50
 2387 014a E8030000 		.4byte	.LVL51
ARM GAS  C:\Users\Rob\AppData\Local\Temp\ccW1RN4f.s 			page 43


 2388 014e 0100     		.2byte	0x1
 2389 0150 50       		.byte	0x50
 2390 0151 00000000 		.4byte	0
 2391 0155 00000000 		.4byte	0
 2392              	.LLST4:
 2393 0159 28010000 		.4byte	.LVL15
 2394 015d 2E010000 		.4byte	.LVL16
 2395 0161 0200     		.2byte	0x2
 2396 0163 91       		.byte	0x91
 2397 0164 7C       		.sleb128 -4
 2398 0165 DC020000 		.4byte	.LVL38
 2399 0169 E2020000 		.4byte	.LVL39
 2400 016d 0200     		.2byte	0x2
 2401 016f 91       		.byte	0x91
 2402 0170 7C       		.sleb128 -4
 2403 0171 F4030000 		.4byte	.LVL52
 2404 0175 FA030000 		.4byte	.LVL53
 2405 0179 0200     		.2byte	0x2
 2406 017b 91       		.byte	0x91
 2407 017c 7C       		.sleb128 -4
 2408 017d 00000000 		.4byte	0
 2409 0181 00000000 		.4byte	0
 2410              		.section	.debug_aranges,"",%progbits
 2411 0000 24000000 		.4byte	0x24
 2412 0004 0200     		.2byte	0x2
 2413 0006 00000000 		.4byte	.Ldebug_info0
 2414 000a 04       		.byte	0x4
 2415 000b 00       		.byte	0
 2416 000c 0000     		.2byte	0
 2417 000e 0000     		.2byte	0
 2418 0010 00000000 		.4byte	.LFB7
 2419 0014 18000000 		.4byte	.LFE7-.LFB7
 2420 0018 00000000 		.4byte	.LFB8
 2421 001c B8040000 		.4byte	.LFE8-.LFB8
 2422 0020 00000000 		.4byte	0
 2423 0024 00000000 		.4byte	0
 2424              		.section	.debug_ranges,"",%progbits
 2425              	.Ldebug_ranges0:
 2426 0000 00000000 		.4byte	.LFB7
 2427 0004 18000000 		.4byte	.LFE7
 2428 0008 00000000 		.4byte	.LFB8
 2429 000c B8040000 		.4byte	.LFE8
 2430 0010 00000000 		.4byte	0
 2431 0014 00000000 		.4byte	0
 2432              		.section	.debug_line,"",%progbits
 2433              	.Ldebug_line0:
 2434 0000 93010000 		.section	.debug_str,"MS",%progbits,1
 2434      02000401 
 2434      00000201 
 2434      FB0E0D00 
 2434      01010101 
 2435              	.LASF38:
 2436 0000 705F6D73 		.ascii	"p_msg\000"
 2436      6700
 2437              	.LASF63:
 2438 0006 7264796D 		.ascii	"rdymsg\000"
 2438      736700
ARM GAS  C:\Users\Rob\AppData\Local\Temp\ccW1RN4f.s 			page 44


 2439              	.LASF11:
 2440 000d 75696E74 		.ascii	"uint64_t\000"
 2440      36345F74 
 2440      00
 2441              	.LASF62:
 2442 0016 4D61696C 		.ascii	"Mailbox\000"
 2442      626F7800 
 2443              	.LASF12:
 2444 001e 6C6F6E67 		.ascii	"long long unsigned int\000"
 2444      206C6F6E 
 2444      6720756E 
 2444      7369676E 
 2444      65642069 
 2445              	.LASF78:
 2446 0035 70617474 		.ascii	"patternmbox\000"
 2446      65726E6D 
 2446      626F7800 
 2447              	.LASF64:
 2448 0041 65786974 		.ascii	"exitcode\000"
 2448      636F6465 
 2448      00
 2449              	.LASF76:
 2450 004a 74657374 		.ascii	"test\000"
 2450      00
 2451              	.LASF58:
 2452 004f 6D625F77 		.ascii	"mb_wrptr\000"
 2452      72707472 
 2452      00
 2453              	.LASF26:
 2454 0058 705F7072 		.ascii	"p_prio\000"
 2454      696F00
 2455              	.LASF81:
 2456 005f 433A5C55 		.ascii	"C:\\Users\\Rob\\Projects\\ECE411Practicum\\src\\vir"
 2456      73657273 
 2456      5C526F62 
 2456      5C50726F 
 2456      6A656374 
 2457 008c 756C656E 		.ascii	"ulent\000"
 2457      7400
 2458              	.LASF10:
 2459 0092 6C6F6E67 		.ascii	"long long int\000"
 2459      206C6F6E 
 2459      6720696E 
 2459      7400
 2460              	.LASF1:
 2461 00a0 7369676E 		.ascii	"signed char\000"
 2461      65642063 
 2461      68617200 
 2462              	.LASF42:
 2463 00ac 705F6D70 		.ascii	"p_mpool\000"
 2463      6F6F6C00 
 2464              	.LASF31:
 2465 00b4 705F7374 		.ascii	"p_state\000"
 2465      61746500 
 2466              	.LASF17:
 2467 00bc 74736C69 		.ascii	"tslices_t\000"
 2467      6365735F 
ARM GAS  C:\Users\Rob\AppData\Local\Temp\ccW1RN4f.s 			page 45


 2467      7400
 2468              	.LASF7:
 2469 00c6 6C6F6E67 		.ascii	"long int\000"
 2469      20696E74 
 2469      00
 2470              	.LASF15:
 2471 00cf 74737461 		.ascii	"tstate_t\000"
 2471      74655F74 
 2471      00
 2472              	.LASF28:
 2473 00d8 705F6E65 		.ascii	"p_newer\000"
 2473      77657200 
 2474              	.LASF50:
 2475 00e0 735F7175 		.ascii	"s_queue\000"
 2475      65756500 
 2476              	.LASF45:
 2477 00e8 72656761 		.ascii	"regarm_t\000"
 2477      726D5F74 
 2477      00
 2478              	.LASF22:
 2479 00f1 636E745F 		.ascii	"cnt_t\000"
 2479      7400
 2480              	.LASF0:
 2481 00f7 756E7369 		.ascii	"unsigned int\000"
 2481      676E6564 
 2481      20696E74 
 2481      00
 2482              	.LASF74:
 2483 0104 6D736731 		.ascii	"msg1\000"
 2483      00
 2484              	.LASF75:
 2485 0109 6D736732 		.ascii	"msg2\000"
 2485      00
 2486              	.LASF9:
 2487 010e 6C6F6E67 		.ascii	"long unsigned int\000"
 2487      20756E73 
 2487      69676E65 
 2487      6420696E 
 2487      7400
 2488              	.LASF71:
 2489 0120 74656172 		.ascii	"teardown\000"
 2489      646F776E 
 2489      00
 2490              	.LASF61:
 2491 0129 6D625F65 		.ascii	"mb_emptysem\000"
 2491      6D707479 
 2491      73656D00 
 2492              	.LASF69:
 2493 0135 6E616D65 		.ascii	"name\000"
 2493      00
 2494              	.LASF51:
 2495 013a 735F636E 		.ascii	"s_cnt\000"
 2495      7400
 2496              	.LASF48:
 2497 0140 636F6E74 		.ascii	"context\000"
 2497      65787400 
 2498              	.LASF4:
ARM GAS  C:\Users\Rob\AppData\Local\Temp\ccW1RN4f.s 			page 46


 2499 0148 73686F72 		.ascii	"short unsigned int\000"
 2499      7420756E 
 2499      7369676E 
 2499      65642069 
 2499      6E7400
 2500              	.LASF19:
 2501 015b 6D73675F 		.ascii	"msg_t\000"
 2501      7400
 2502              	.LASF14:
 2503 0161 746D6F64 		.ascii	"tmode_t\000"
 2503      655F7400 
 2504              	.LASF84:
 2505 0169 6D626F78 		.ascii	"mbox1_setup\000"
 2505      315F7365 
 2505      74757000 
 2506              	.LASF44:
 2507 0175 54687265 		.ascii	"ThreadsList\000"
 2507      6164734C 
 2507      69737400 
 2508              	.LASF20:
 2509 0181 6576656E 		.ascii	"eventmask_t\000"
 2509      746D6173 
 2509      6B5F7400 
 2510              	.LASF52:
 2511 018d 4D757465 		.ascii	"Mutex\000"
 2511      7800
 2512              	.LASF77:
 2513 0193 74657374 		.ascii	"testmbox1\000"
 2513      6D626F78 
 2513      3100
 2514              	.LASF46:
 2515 019d 73746B61 		.ascii	"stkalign_t\000"
 2515      6C69676E 
 2515      5F7400
 2516              	.LASF59:
 2517 01a8 6D625F72 		.ascii	"mb_rdptr\000"
 2517      64707472 
 2517      00
 2518              	.LASF29:
 2519 01b1 705F6F6C 		.ascii	"p_older\000"
 2519      64657200 
 2520              	.LASF43:
 2521 01b9 54687265 		.ascii	"ThreadsQueue\000"
 2521      61647351 
 2521      75657565 
 2521      00
 2522              	.LASF70:
 2523 01c6 73657475 		.ascii	"setup\000"
 2523      7000
 2524              	.LASF56:
 2525 01cc 6D625F62 		.ascii	"mb_buffer\000"
 2525      75666665 
 2525      7200
 2526              	.LASF83:
 2527 01d6 6D626F78 		.ascii	"mbox1_execute\000"
 2527      315F6578 
 2527      65637574 
ARM GAS  C:\Users\Rob\AppData\Local\Temp\ccW1RN4f.s 			page 47


 2527      6500
 2528              	.LASF16:
 2529 01e4 74726566 		.ascii	"trefs_t\000"
 2529      735F7400 
 2530              	.LASF25:
 2531 01ec 705F7072 		.ascii	"p_prev\000"
 2531      657600
 2532              	.LASF72:
 2533 01f3 65786563 		.ascii	"execute\000"
 2533      75746500 
 2534              	.LASF18:
 2535 01fb 74707269 		.ascii	"tprio_t\000"
 2535      6F5F7400 
 2536              	.LASF13:
 2537 0203 5F426F6F 		.ascii	"_Bool\000"
 2537      6C00
 2538              	.LASF6:
 2539 0209 696E7433 		.ascii	"int32_t\000"
 2539      325F7400 
 2540              	.LASF2:
 2541 0211 756E7369 		.ascii	"unsigned char\000"
 2541      676E6564 
 2541      20636861 
 2541      7200
 2542              	.LASF53:
 2543 021f 6D5F7175 		.ascii	"m_queue\000"
 2543      65756500 
 2544              	.LASF57:
 2545 0227 6D625F74 		.ascii	"mb_top\000"
 2545      6F7000
 2546              	.LASF40:
 2547 022e 705F6D74 		.ascii	"p_mtxlist\000"
 2547      786C6973 
 2547      7400
 2548              	.LASF3:
 2549 0238 73686F72 		.ascii	"short int\000"
 2549      7420696E 
 2549      7400
 2550              	.LASF80:
 2551 0242 2E2E2F2E 		.ascii	"../../test/testmbox.c\000"
 2551      2E2F7465 
 2551      73742F74 
 2551      6573746D 
 2551      626F782E 
 2552              	.LASF34:
 2553 0258 705F7072 		.ascii	"p_preempt\000"
 2553      65656D70 
 2553      7400
 2554              	.LASF66:
 2555 0262 65776D61 		.ascii	"ewmask\000"
 2555      736B00
 2556              	.LASF24:
 2557 0269 705F6E65 		.ascii	"p_next\000"
 2557      787400
 2558              	.LASF32:
 2559 0270 705F666C 		.ascii	"p_flags\000"
 2559      61677300 
ARM GAS  C:\Users\Rob\AppData\Local\Temp\ccW1RN4f.s 			page 48


 2560              	.LASF23:
 2561 0278 54687265 		.ascii	"Thread\000"
 2561      616400
 2562              	.LASF68:
 2563 027f 74657374 		.ascii	"testcase\000"
 2563      63617365 
 2563      00
 2564              	.LASF39:
 2565 0288 705F6570 		.ascii	"p_epending\000"
 2565      656E6469 
 2565      6E6700
 2566              	.LASF8:
 2567 0293 75696E74 		.ascii	"uint32_t\000"
 2567      33325F74 
 2567      00
 2568              	.LASF79:
 2569 029c 474E5520 		.ascii	"GNU C 4.6.2\000"
 2569      4320342E 
 2569      362E3200 
 2570              	.LASF67:
 2571 02a8 63686172 		.ascii	"char\000"
 2571      00
 2572              	.LASF55:
 2573 02ad 6D5F6E65 		.ascii	"m_next\000"
 2573      787400
 2574              	.LASF21:
 2575 02b4 73797374 		.ascii	"systime_t\000"
 2575      696D655F 
 2575      7400
 2576              	.LASF41:
 2577 02be 705F7265 		.ascii	"p_realprio\000"
 2577      616C7072 
 2577      696F00
 2578              	.LASF73:
 2579 02c9 62756666 		.ascii	"buffer\000"
 2579      657200
 2580              	.LASF35:
 2581 02d0 705F7469 		.ascii	"p_time\000"
 2581      6D6500
 2582              	.LASF47:
 2583 02d7 696E7463 		.ascii	"intctx\000"
 2583      747800
 2584              	.LASF37:
 2585 02de 705F6D73 		.ascii	"p_msgqueue\000"
 2585      67717565 
 2585      756500
 2586              	.LASF49:
 2587 02e9 53656D61 		.ascii	"Semaphore\000"
 2587      70686F72 
 2587      6500
 2588              	.LASF60:
 2589 02f3 6D625F66 		.ascii	"mb_fullsem\000"
 2589      756C6C73 
 2589      656D00
 2590              	.LASF82:
 2591 02fe 74657374 		.ascii	"test_buffers\000"
 2591      5F627566 
ARM GAS  C:\Users\Rob\AppData\Local\Temp\ccW1RN4f.s 			page 49


 2591      66657273 
 2591      00
 2592              	.LASF33:
 2593 030b 705F7265 		.ascii	"p_refs\000"
 2593      667300
 2594              	.LASF5:
 2595 0312 75696E74 		.ascii	"uint8_t\000"
 2595      385F7400 
 2596              	.LASF65:
 2597 031a 77746F62 		.ascii	"wtobjp\000"
 2597      6A7000
 2598              	.LASF30:
 2599 0321 705F6E61 		.ascii	"p_name\000"
 2599      6D6500
 2600              	.LASF54:
 2601 0328 6D5F6F77 		.ascii	"m_owner\000"
 2601      6E657200 
 2602              	.LASF27:
 2603 0330 705F6374 		.ascii	"p_ctx\000"
 2603      7800
 2604              	.LASF36:
 2605 0336 705F7761 		.ascii	"p_waiting\000"
 2605      6974696E 
 2605      6700
 2606              		.ident	"GCC: (GNU) 4.6.2"
ARM GAS  C:\Users\Rob\AppData\Local\Temp\ccW1RN4f.s 			page 50


DEFINED SYMBOLS
                            *ABS*:00000000 testmbox.c
C:\Users\Rob\AppData\Local\Temp\ccW1RN4f.s:17     .text.mbox1_setup:00000000 $t
C:\Users\Rob\AppData\Local\Temp\ccW1RN4f.s:22     .text.mbox1_setup:00000000 mbox1_setup
C:\Users\Rob\AppData\Local\Temp\ccW1RN4f.s:43     .text.mbox1_setup:00000010 $d
C:\Users\Rob\AppData\Local\Temp\ccW1RN4f.s:49     .text.mbox1_execute:00000000 $t
C:\Users\Rob\AppData\Local\Temp\ccW1RN4f.s:54     .text.mbox1_execute:00000000 mbox1_execute
C:\Users\Rob\AppData\Local\Temp\ccW1RN4f.s:125    .text.mbox1_execute:00000058 $d
C:\Users\Rob\AppData\Local\Temp\ccW1RN4f.s:130    .text.mbox1_execute:0000005c $t
C:\Users\Rob\AppData\Local\Temp\ccW1RN4f.s:748    .text.mbox1_execute:000003d4 $d
C:\Users\Rob\AppData\Local\Temp\ccW1RN4f.s:753    .text.mbox1_execute:000003d8 $t
C:\Users\Rob\AppData\Local\Temp\ccW1RN4f.s:947    .rodata.patternmbox:00000000 patternmbox
C:\Users\Rob\AppData\Local\Temp\ccW1RN4f.s:961    .rodata.testmbox1:00000000 testmbox1
C:\Users\Rob\AppData\Local\Temp\ccW1RN4f.s:928    .data.mb1:00000000 $d
C:\Users\Rob\AppData\Local\Temp\ccW1RN4f.s:932    .data.mb1:00000000 mb1
C:\Users\Rob\AppData\Local\Temp\ccW1RN4f.s:944    .rodata.patternmbox:00000000 $d
C:\Users\Rob\AppData\Local\Temp\ccW1RN4f.s:951    .rodata.str1.4:00000000 $d
C:\Users\Rob\AppData\Local\Temp\ccW1RN4f.s:958    .rodata.testmbox1:00000000 $d
                     .debug_frame:00000010 $d
C:\Users\Rob\AppData\Local\Temp\ccW1RN4f.s:48     .text.mbox1_setup:00000018 $t

UNDEFINED SYMBOLS
chMBInit
test
_test_assert
chMBPost
chMBPostAhead
chMBPostI
chMBPostAheadI
chMBFetch
test_emit_token
_test_assert_sequence
chMBFetchI
chMBReset
