ARM GAS  C:\Users\Rob\AppData\Local\Temp\ccqQMFGN.s 			page 1


   1              		.cpu cortex-m0
   2              		.fpu softvfp
   3              		.eabi_attribute 20, 1
   4              		.eabi_attribute 21, 1
   5              		.eabi_attribute 23, 3
   6              		.eabi_attribute 24, 1
   7              		.eabi_attribute 25, 1
   8              		.eabi_attribute 26, 1
   9              		.eabi_attribute 30, 2
  10              		.eabi_attribute 18, 4
  11              		.code	16
  12              		.file	"testsem.c"
  13              		.text
  14              	.Ltext0:
  15              		.cfi_sections	.debug_frame
  16              		.section	.text.sem3_setup,"ax",%progbits
  17              		.align	2
  18              		.p2align 4,,15
  19              		.code	16
  20              		.thumb_func
  21              		.type	sem3_setup, %function
  22              	sem3_setup:
  23              	.LFB13:
  24              		.file 1 "../../test/testsem.c"
  25              		.loc 1 204 0
  26              		.cfi_startproc
  27 0000 08B5     		push	{r3, lr}
  28              	.LCFI0:
  29              		.cfi_def_cfa_offset 8
  30              		.cfi_offset 3, -8
  31              		.cfi_offset 14, -4
  32              		.loc 1 206 0
  33 0002 0248     		ldr	r0, .L2
  34 0004 0021     		mov	r1, #0
  35 0006 FFF7FEFF 		bl	chSemInit
  36              		.loc 1 207 0
  37              		@ sp needed for prologue
  38 000a 08BD     		pop	{r3, pc}
  39              	.L3:
  40              		.align	2
  41              	.L2:
  42 000c 00000000 		.word	.LANCHOR0
  43              		.cfi_endproc
  44              	.LFE13:
  45              		.size	sem3_setup, .-sem3_setup
  46              		.section	.text.sem2_setup,"ax",%progbits
  47              		.align	2
  48              		.p2align 4,,15
  49              		.code	16
  50              		.thumb_func
  51              		.type	sem2_setup, %function
  52              	sem2_setup:
  53              	.LFB10:
  54              		.loc 1 128 0
  55              		.cfi_startproc
  56 0000 08B5     		push	{r3, lr}
  57              	.LCFI1:
ARM GAS  C:\Users\Rob\AppData\Local\Temp\ccqQMFGN.s 			page 2


  58              		.cfi_def_cfa_offset 8
  59              		.cfi_offset 3, -8
  60              		.cfi_offset 14, -4
  61              		.loc 1 130 0
  62 0002 0248     		ldr	r0, .L5
  63 0004 0021     		mov	r1, #0
  64 0006 FFF7FEFF 		bl	chSemInit
  65              		.loc 1 131 0
  66              		@ sp needed for prologue
  67 000a 08BD     		pop	{r3, pc}
  68              	.L6:
  69              		.align	2
  70              	.L5:
  71 000c 00000000 		.word	.LANCHOR0
  72              		.cfi_endproc
  73              	.LFE10:
  74              		.size	sem2_setup, .-sem2_setup
  75              		.section	.text.sem1_setup,"ax",%progbits
  76              		.align	2
  77              		.p2align 4,,15
  78              		.code	16
  79              		.thumb_func
  80              		.type	sem1_setup, %function
  81              	sem1_setup:
  82              	.LFB7:
  83              		.loc 1 72 0
  84              		.cfi_startproc
  85 0000 08B5     		push	{r3, lr}
  86              	.LCFI2:
  87              		.cfi_def_cfa_offset 8
  88              		.cfi_offset 3, -8
  89              		.cfi_offset 14, -4
  90              		.loc 1 74 0
  91 0002 0248     		ldr	r0, .L8
  92 0004 0021     		mov	r1, #0
  93 0006 FFF7FEFF 		bl	chSemInit
  94              		.loc 1 75 0
  95              		@ sp needed for prologue
  96 000a 08BD     		pop	{r3, pc}
  97              	.L9:
  98              		.align	2
  99              	.L8:
 100 000c 00000000 		.word	.LANCHOR0
 101              		.cfi_endproc
 102              	.LFE7:
 103              		.size	sem1_setup, .-sem1_setup
 104              		.section	.text.sem4_execute,"ax",%progbits
 105              		.align	2
 106              		.p2align 4,,15
 107              		.code	16
 108              		.thumb_func
 109              		.type	sem4_execute, %function
 110              	sem4_execute:
 111              	.LFB17:
 112              		.loc 1 251 0
 113              		.cfi_startproc
 114 0000 00B5     		push	{lr}
ARM GAS  C:\Users\Rob\AppData\Local\Temp\ccqQMFGN.s 			page 3


 115              	.LCFI3:
 116              		.cfi_def_cfa_offset 4
 117              		.cfi_offset 14, -4
 118 0002 87B0     		sub	sp, sp, #28
 119              	.LCFI4:
 120              		.cfi_def_cfa_offset 32
 121              		.loc 1 255 0
 122 0004 03A8     		add	r0, sp, #12
 123 0006 0021     		mov	r1, #0
 124 0008 FFF7FEFF 		bl	chSemInit
 125              		.loc 1 256 0
 126 000c 03A8     		add	r0, sp, #12
 127 000e 0021     		mov	r1, #0
 128 0010 FFF7FEFF 		bl	chSemReset
 129              		.loc 1 257 0
 130 0014 059B     		ldr	r3, [sp, #20]
 131 0016 0120     		mov	r0, #1
 132 0018 591E     		sub	r1, r3, #1
 133 001a 0B43     		orr	r3, r1
 134 001c D90F     		lsr	r1, r3, #31
 135 001e FFF7FEFF 		bl	_test_assert
 136 0022 0028     		cmp	r0, #0
 137 0024 01D0     		beq	.L15
 138              	.L10:
 139              		.loc 1 279 0
 140 0026 07B0     		add	sp, sp, #28
 141              		@ sp needed for prologue
 142 0028 00BD     		pop	{pc}
 143              	.L15:
 144              		.loc 1 261 0
 145 002a 2A4B     		ldr	r3, .L18
 146              		.loc 1 260 0
 147 002c 9821     		mov	r1, #152
 148              		.loc 1 261 0
 149 002e 9B69     		ldr	r3, [r3, #24]
 150              		.loc 1 260 0
 151 0030 4900     		lsl	r1, r1, #1
 152 0032 9A68     		ldr	r2, [r3, #8]
 153 0034 03AB     		add	r3, sp, #12
 154 0036 0093     		str	r3, [sp]
 155 0038 274B     		ldr	r3, .L18+4
 156 003a 013A     		sub	r2, r2, #1
 157 003c 1868     		ldr	r0, [r3]
 158 003e 274B     		ldr	r3, .L18+8
 159 0040 FFF7FEFF 		bl	chThdCreateStatic
 160 0044 264B     		ldr	r3, .L18+12
 161 0046 1860     		str	r0, [r3]
 162              		.loc 1 264 0
 163 0048 03A8     		add	r0, sp, #12
 164 004a FFF7FEFF 		bl	chSemWait
 165              		.loc 1 267 0
 166 004e 059B     		ldr	r3, [sp, #20]
 167 0050 0220     		mov	r0, #2
 168 0052 591E     		sub	r1, r3, #1
 169 0054 0B43     		orr	r3, r1
 170 0056 D90F     		lsr	r1, r3, #31
 171 0058 FFF7FEFF 		bl	_test_assert
ARM GAS  C:\Users\Rob\AppData\Local\Temp\ccqQMFGN.s 			page 4


 172 005c 0028     		cmp	r0, #0
 173 005e E2D1     		bne	.L10
 174              		.loc 1 271 0
 175              	@ 271 "../../test/testsem.c" 1
 176 0060 72B6     		cpsid   i
 177              	@ 0 "" 2
 178              		.code	16
 179 0062 059B     		ldr	r3, [sp, #20]
 180 0064 002B     		cmp	r3, #0
 181 0066 30DD     		ble	.L16
 182              	.L12:
 183              		.loc 1 271 0 is_stmt 0 discriminator 2
 184 0068 FFF7FEFF 		bl	chSchRescheduleS
 185              	@ 271 "../../test/testsem.c" 1
 186 006c 62B6     		cpsie   i
 187              	@ 0 "" 2
 188              		.loc 1 272 0 is_stmt 1 discriminator 2
 189              		.code	16
 190 006e 059B     		ldr	r3, [sp, #20]
 191 0070 0320     		mov	r0, #3
 192 0072 D917     		asr	r1, r3, #31
 193 0074 C91A     		sub	r1, r1, r3
 194 0076 C90F     		lsr	r1, r1, #31
 195 0078 FFF7FEFF 		bl	_test_assert
 196 007c 0028     		cmp	r0, #0
 197 007e D2D1     		bne	.L10
 198              		.loc 1 273 0
 199 0080 0599     		ldr	r1, [sp, #20]
 200 0082 0420     		mov	r0, #4
 201 0084 0139     		sub	r1, r1, #1
 202 0086 4B42     		neg	r3, r1
 203 0088 5941     		adc	r1, r1, r3
 204 008a FFF7FEFF 		bl	_test_assert
 205 008e 0028     		cmp	r0, #0
 206 0090 C9D1     		bne	.L10
 207              		.loc 1 276 0
 208              	@ 276 "../../test/testsem.c" 1
 209 0092 72B6     		cpsid   i
 210              	@ 0 "" 2
 211              		.code	16
 212 0094 059B     		ldr	r3, [sp, #20]
 213 0096 002B     		cmp	r3, #0
 214 0098 13DD     		ble	.L17
 215              	.L13:
 216              		.loc 1 276 0 is_stmt 0 discriminator 2
 217 009a FFF7FEFF 		bl	chSchRescheduleS
 218              	@ 276 "../../test/testsem.c" 1
 219 009e 62B6     		cpsie   i
 220              	@ 0 "" 2
 221              		.loc 1 277 0 is_stmt 1 discriminator 2
 222              		.code	16
 223 00a0 059B     		ldr	r3, [sp, #20]
 224 00a2 0320     		mov	r0, #3
 225 00a4 D917     		asr	r1, r3, #31
 226 00a6 C91A     		sub	r1, r1, r3
 227 00a8 C90F     		lsr	r1, r1, #31
 228 00aa FFF7FEFF 		bl	_test_assert
ARM GAS  C:\Users\Rob\AppData\Local\Temp\ccqQMFGN.s 			page 5


 229 00ae 0028     		cmp	r0, #0
 230 00b0 B9D1     		bne	.L10
 231              		.loc 1 278 0
 232 00b2 0599     		ldr	r1, [sp, #20]
 233 00b4 0520     		mov	r0, #5
 234 00b6 0139     		sub	r1, r1, #1
 235 00b8 4B42     		neg	r3, r1
 236 00ba 5941     		adc	r1, r1, r3
 237 00bc FFF7FEFF 		bl	_test_assert
 238 00c0 B1E7     		b	.L10
 239              	.L17:
 240              		.loc 1 276 0 discriminator 1
 241 00c2 03A8     		add	r0, sp, #12
 242 00c4 FFF7FEFF 		bl	chSemSignalI
 243 00c8 E7E7     		b	.L13
 244              	.L16:
 245              		.loc 1 271 0 discriminator 1
 246 00ca 03A8     		add	r0, sp, #12
 247 00cc FFF7FEFF 		bl	chSemSignalI
 248 00d0 CAE7     		b	.L12
 249              	.L19:
 250 00d2 C046     		.align	2
 251              	.L18:
 252 00d4 00000000 		.word	rlist
 253 00d8 00000000 		.word	wa
 254 00dc 00000000 		.word	thread4
 255 00e0 00000000 		.word	threads
 256              		.cfi_endproc
 257              	.LFE17:
 258              		.size	sem4_execute, .-sem4_execute
 259 00e4 C046C046 		.section	.text.thread4,"ax",%progbits
 259      C046C046 
 259      C046C046 
 260              		.align	2
 261              		.p2align 4,,15
 262              		.code	16
 263              		.thumb_func
 264              		.type	thread4, %function
 265              	thread4:
 266              	.LFB16:
 267              		.loc 1 245 0
 268              		.cfi_startproc
 269 0000 08B5     		push	{r3, lr}
 270              	.LCFI5:
 271              		.cfi_def_cfa_offset 8
 272              		.cfi_offset 3, -8
 273              		.cfi_offset 14, -4
 274              	.LVL0:
 275              		.loc 1 247 0
 276              	@ 247 "../../test/testsem.c" 1
 277 0002 72B6     		cpsid   i
 278              	@ 0 "" 2
 279              		.code	16
 280 0004 8368     		ldr	r3, [r0, #8]
 281 0006 002B     		cmp	r3, #0
 282 0008 04DD     		ble	.L22
 283              	.LVL1:
ARM GAS  C:\Users\Rob\AppData\Local\Temp\ccqQMFGN.s 			page 6


 284              	.L21:
 285              		.loc 1 247 0 is_stmt 0 discriminator 2
 286 000a FFF7FEFF 		bl	chSchRescheduleS
 287              	@ 247 "../../test/testsem.c" 1
 288 000e 62B6     		cpsie   i
 289              	@ 0 "" 2
 290              		.loc 1 249 0 is_stmt 1 discriminator 2
 291              		.code	16
 292 0010 0020     		mov	r0, #0
 293              		@ sp needed for prologue
 294 0012 08BD     		pop	{r3, pc}
 295              	.LVL2:
 296              	.L22:
 297              		.loc 1 247 0 discriminator 1
 298 0014 FFF7FEFF 		bl	chSemSignalI
 299              	.LVL3:
 300 0018 F7E7     		b	.L21
 301              		.cfi_endproc
 302              	.LFE16:
 303              		.size	thread4, .-thread4
 304 001a C046C046 		.section	.text.thread3,"ax",%progbits
 304      C046
 305              		.align	2
 306              		.p2align 4,,15
 307              		.code	16
 308              		.thumb_func
 309              		.type	thread3, %function
 310              	thread3:
 311              	.LFB14:
 312              		.loc 1 209 0
 313              		.cfi_startproc
 314 0000 10B5     		push	{r4, lr}
 315              	.LCFI6:
 316              		.cfi_def_cfa_offset 8
 317              		.cfi_offset 4, -8
 318              		.cfi_offset 14, -4
 319              	.LVL4:
 320              		.loc 1 212 0
 321 0002 044C     		ldr	r4, .L24
 322              		.loc 1 215 0
 323              		@ sp needed for prologue
 324              		.loc 1 212 0
 325 0004 201C     		mov	r0, r4
 326              	.LVL5:
 327 0006 FFF7FEFF 		bl	chSemWait
 328              		.loc 1 213 0
 329 000a 201C     		mov	r0, r4
 330 000c FFF7FEFF 		bl	chSemSignal
 331              		.loc 1 215 0
 332 0010 0020     		mov	r0, #0
 333 0012 10BD     		pop	{r4, pc}
 334              	.L25:
 335              		.align	2
 336              	.L24:
 337 0014 00000000 		.word	.LANCHOR0
 338              		.cfi_endproc
 339              	.LFE14:
ARM GAS  C:\Users\Rob\AppData\Local\Temp\ccqQMFGN.s 			page 7


 340              		.size	thread3, .-thread3
 341 0018 C046C046 		.section	.text.thread1,"ax",%progbits
 341      C046C046 
 342              		.align	2
 343              		.p2align 4,,15
 344              		.code	16
 345              		.thumb_func
 346              		.type	thread1, %function
 347              	thread1:
 348              	.LFB8:
 349              		.loc 1 77 0
 350              		.cfi_startproc
 351 0000 10B5     		push	{r4, lr}
 352              	.LCFI7:
 353              		.cfi_def_cfa_offset 8
 354              		.cfi_offset 4, -8
 355              		.cfi_offset 14, -4
 356              	.LVL6:
 357              		.loc 1 77 0
 358 0002 041C     		mov	r4, r0
 359              		.loc 1 79 0
 360 0004 0348     		ldr	r0, .L27
 361              	.LVL7:
 362 0006 FFF7FEFF 		bl	chSemWait
 363              		.loc 1 80 0
 364 000a 2078     		ldrb	r0, [r4]
 365 000c FFF7FEFF 		bl	test_emit_token
 366              		.loc 1 82 0
 367              		@ sp needed for prologue
 368 0010 0020     		mov	r0, #0
 369              	.LVL8:
 370 0012 10BD     		pop	{r4, pc}
 371              	.L28:
 372              		.align	2
 373              	.L27:
 374 0014 00000000 		.word	.LANCHOR0
 375              		.cfi_endproc
 376              	.LFE8:
 377              		.size	thread1, .-thread1
 378 0018 C046C046 		.section	.text.thread2,"ax",%progbits
 378      C046C046 
 379              		.align	2
 380              		.p2align 4,,15
 381              		.code	16
 382              		.thumb_func
 383              		.type	thread2, %function
 384              	thread2:
 385              	.LFB11:
 386              		.loc 1 133 0
 387              		.cfi_startproc
 388 0000 08B5     		push	{r3, lr}
 389              	.LCFI8:
 390              		.cfi_def_cfa_offset 8
 391              		.cfi_offset 3, -8
 392              		.cfi_offset 14, -4
 393              	.LVL9:
 394              		.loc 1 136 0
ARM GAS  C:\Users\Rob\AppData\Local\Temp\ccqQMFGN.s 			page 8


 395 0002 0648     		ldr	r0, .L30
 396              	.LVL10:
 397 0004 FFF7FEFF 		bl	chThdSleep
 398              		.loc 1 137 0
 399              	@ 137 "../../test/testsem.c" 1
 400 0008 72B6     		cpsid   i
 401              	@ 0 "" 2
 402              		.loc 1 138 0
 403              		.code	16
 404 000a 0548     		ldr	r0, .L30+4
 405 000c FFF7FEFF 		bl	chSemSignalI
 406              		.loc 1 139 0
 407 0010 FFF7FEFF 		bl	chSchRescheduleS
 408              		.loc 1 140 0
 409              	@ 140 "../../test/testsem.c" 1
 410 0014 62B6     		cpsie   i
 411              	@ 0 "" 2
 412              		.loc 1 142 0
 413              		.code	16
 414 0016 0020     		mov	r0, #0
 415              		@ sp needed for prologue
 416 0018 08BD     		pop	{r3, pc}
 417              	.L31:
 418 001a C046     		.align	2
 419              	.L30:
 420 001c 88130000 		.word	5000
 421 0020 00000000 		.word	.LANCHOR0
 422              		.cfi_endproc
 423              	.LFE11:
 424              		.size	thread2, .-thread2
 425 0024 C046C046 		.section	.text.sem1_execute,"ax",%progbits
 425      C046C046 
 425      C046C046 
 426              		.align	2
 427              		.p2align 4,,15
 428              		.code	16
 429              		.thumb_func
 430              		.type	sem1_execute, %function
 431              	sem1_execute:
 432              	.LFB9:
 433              		.loc 1 84 0
 434              		.cfi_startproc
 435 0000 F0B5     		push	{r4, r5, r6, r7, lr}
 436              	.LCFI9:
 437              		.cfi_def_cfa_offset 20
 438              		.cfi_offset 4, -20
 439              		.cfi_offset 5, -16
 440              		.cfi_offset 6, -12
 441              		.cfi_offset 7, -8
 442              		.cfi_offset 14, -4
 443 0002 4F46     		mov	r7, r9
 444 0004 4646     		mov	r6, r8
 445 0006 C0B4     		push	{r6, r7}
 446              	.LCFI10:
 447              		.cfi_def_cfa_offset 28
 448              		.cfi_offset 8, -28
 449              		.cfi_offset 9, -24
ARM GAS  C:\Users\Rob\AppData\Local\Temp\ccqQMFGN.s 			page 9


 450              		.loc 1 86 0
 451 0008 3D4C     		ldr	r4, .L34
 452 000a 3E4E     		ldr	r6, .L34+4
 453 000c 2368     		ldr	r3, [r4]
 454 000e 3E4F     		ldr	r7, .L34+8
 455 0010 9946     		mov	r9, r3
 456 0012 B369     		ldr	r3, [r6, #24]
 457              		.loc 1 84 0
 458 0014 83B0     		sub	sp, sp, #12
 459              	.LCFI11:
 460              		.cfi_def_cfa_offset 40
 461              		.loc 1 86 0
 462 0016 9A68     		ldr	r2, [r3, #8]
 463 0018 3C4B     		ldr	r3, .L34+12
 464 001a 9821     		mov	r1, #152
 465 001c 0532     		add	r2, r2, #5
 466 001e 0093     		str	r3, [sp]
 467 0020 4900     		lsl	r1, r1, #1
 468 0022 9846     		mov	r8, r3
 469 0024 4846     		mov	r0, r9
 470 0026 3B1C     		mov	r3, r7
 471 0028 FFF7FEFF 		bl	chThdCreateStatic
 472              		.loc 1 87 0
 473 002c B369     		ldr	r3, [r6, #24]
 474              		.loc 1 86 0
 475 002e 384D     		ldr	r5, .L34+16
 476              		.loc 1 87 0
 477 0030 9A68     		ldr	r2, [r3, #8]
 478 0032 384B     		ldr	r3, .L34+20
 479 0034 9821     		mov	r1, #152
 480              		.loc 1 86 0
 481 0036 2860     		str	r0, [r5]
 482              		.loc 1 87 0
 483 0038 0132     		add	r2, r2, #1
 484 003a 6068     		ldr	r0, [r4, #4]
 485 003c 0093     		str	r3, [sp]
 486 003e 4900     		lsl	r1, r1, #1
 487 0040 3B1C     		mov	r3, r7
 488 0042 FFF7FEFF 		bl	chThdCreateStatic
 489              		.loc 1 88 0
 490 0046 B369     		ldr	r3, [r6, #24]
 491 0048 9821     		mov	r1, #152
 492 004a 9A68     		ldr	r2, [r3, #8]
 493 004c 324B     		ldr	r3, .L34+24
 494              		.loc 1 87 0
 495 004e 6860     		str	r0, [r5, #4]
 496              		.loc 1 88 0
 497 0050 0332     		add	r2, r2, #3
 498 0052 A068     		ldr	r0, [r4, #8]
 499 0054 0093     		str	r3, [sp]
 500 0056 4900     		lsl	r1, r1, #1
 501 0058 3B1C     		mov	r3, r7
 502 005a FFF7FEFF 		bl	chThdCreateStatic
 503              		.loc 1 89 0
 504 005e B369     		ldr	r3, [r6, #24]
 505 0060 9821     		mov	r1, #152
 506 0062 9A68     		ldr	r2, [r3, #8]
ARM GAS  C:\Users\Rob\AppData\Local\Temp\ccqQMFGN.s 			page 10


 507 0064 2D4B     		ldr	r3, .L34+28
 508              		.loc 1 88 0
 509 0066 A860     		str	r0, [r5, #8]
 510              		.loc 1 89 0
 511 0068 0432     		add	r2, r2, #4
 512 006a E068     		ldr	r0, [r4, #12]
 513 006c 0093     		str	r3, [sp]
 514 006e 4900     		lsl	r1, r1, #1
 515 0070 3B1C     		mov	r3, r7
 516 0072 FFF7FEFF 		bl	chThdCreateStatic
 517              		.loc 1 90 0
 518 0076 B369     		ldr	r3, [r6, #24]
 519 0078 9821     		mov	r1, #152
 520 007a 9A68     		ldr	r2, [r3, #8]
 521 007c 284B     		ldr	r3, .L34+32
 522 007e 4900     		lsl	r1, r1, #1
 523 0080 0232     		add	r2, r2, #2
 524              		.loc 1 89 0
 525 0082 E860     		str	r0, [r5, #12]
 526              		.loc 1 90 0
 527 0084 2069     		ldr	r0, [r4, #16]
 528 0086 0093     		str	r3, [sp]
 529 0088 3B1C     		mov	r3, r7
 530 008a FFF7FEFF 		bl	chThdCreateStatic
 531              		.loc 1 91 0
 532 008e 254C     		ldr	r4, .L34+36
 533              		.loc 1 90 0
 534 0090 2861     		str	r0, [r5, #16]
 535              		.loc 1 91 0
 536 0092 201C     		mov	r0, r4
 537 0094 FFF7FEFF 		bl	chSemSignal
 538              		.loc 1 92 0
 539 0098 201C     		mov	r0, r4
 540 009a FFF7FEFF 		bl	chSemSignal
 541              		.loc 1 93 0
 542 009e 201C     		mov	r0, r4
 543 00a0 FFF7FEFF 		bl	chSemSignal
 544              		.loc 1 94 0
 545 00a4 201C     		mov	r0, r4
 546 00a6 FFF7FEFF 		bl	chSemSignal
 547              		.loc 1 95 0
 548 00aa 201C     		mov	r0, r4
 549 00ac FFF7FEFF 		bl	chSemSignal
 550              		.loc 1 96 0
 551 00b0 FFF7FEFF 		bl	test_wait_threads
 552              		.loc 1 100 0
 553 00b4 0120     		mov	r0, #1
 554 00b6 1C49     		ldr	r1, .L34+40
 555 00b8 FFF7FEFF 		bl	_test_assert_sequence
 556 00bc 0028     		cmp	r0, #0
 557 00be 1AD1     		bne	.L32
 558              		.loc 1 102 0
 559 00c0 B369     		ldr	r3, [r6, #24]
 560 00c2 9821     		mov	r1, #152
 561 00c4 9A68     		ldr	r2, [r3, #8]
 562 00c6 4346     		mov	r3, r8
 563 00c8 0093     		str	r3, [sp]
ARM GAS  C:\Users\Rob\AppData\Local\Temp\ccqQMFGN.s 			page 11


 564 00ca 0532     		add	r2, r2, #5
 565 00cc 4846     		mov	r0, r9
 566 00ce 4900     		lsl	r1, r1, #1
 567 00d0 3B1C     		mov	r3, r7
 568 00d2 FFF7FEFF 		bl	chThdCreateStatic
 569 00d6 2860     		str	r0, [r5]
 570              		.loc 1 103 0
 571              	@ 103 "../../test/testsem.c" 1
 572 00d8 72B6     		cpsid   i
 573              	@ 0 "" 2
 574              		.loc 1 104 0
 575              		.code	16
 576 00da 0221     		mov	r1, #2
 577 00dc 201C     		mov	r0, r4
 578 00de FFF7FEFF 		bl	chSemAddCounterI
 579              		.loc 1 105 0
 580              	@ 105 "../../test/testsem.c" 1
 581 00e2 62B6     		cpsie   i
 582              	@ 0 "" 2
 583              		.loc 1 106 0
 584              		.code	16
 585 00e4 FFF7FEFF 		bl	test_wait_threads
 586              		.loc 1 107 0
 587 00e8 A168     		ldr	r1, [r4, #8]
 588 00ea 0220     		mov	r0, #2
 589 00ec 0139     		sub	r1, r1, #1
 590 00ee 4B42     		neg	r3, r1
 591 00f0 5941     		adc	r1, r1, r3
 592 00f2 FFF7FEFF 		bl	_test_assert
 593              	.L32:
 594              		.loc 1 108 0
 595 00f6 03B0     		add	sp, sp, #12
 596              		@ sp needed for prologue
 597 00f8 0CBC     		pop	{r2, r3}
 598 00fa 9046     		mov	r8, r2
 599 00fc 9946     		mov	r9, r3
 600 00fe F0BD     		pop	{r4, r5, r6, r7, pc}
 601              	.L35:
 602              		.align	2
 603              	.L34:
 604 0100 00000000 		.word	wa
 605 0104 00000000 		.word	rlist
 606 0108 00000000 		.word	thread1
 607 010c 00000000 		.word	.LC13
 608 0110 00000000 		.word	threads
 609 0114 04000000 		.word	.LC16
 610 0118 08000000 		.word	.LC18
 611 011c 0C000000 		.word	.LC20
 612 0120 10000000 		.word	.LC22
 613 0124 00000000 		.word	.LANCHOR0
 614 0128 14000000 		.word	.LC25
 615              		.cfi_endproc
 616              	.LFE9:
 617              		.size	sem1_execute, .-sem1_execute
 618 012c C046C046 		.section	.text.sem3_execute,"ax",%progbits
 619              		.align	2
 620              		.p2align 4,,15
ARM GAS  C:\Users\Rob\AppData\Local\Temp\ccqQMFGN.s 			page 12


 621              		.code	16
 622              		.thumb_func
 623              		.type	sem3_execute, %function
 624              	sem3_execute:
 625              	.LFB15:
 626              		.loc 1 217 0
 627              		.cfi_startproc
 628 0000 10B5     		push	{r4, lr}
 629              	.LCFI12:
 630              		.cfi_def_cfa_offset 8
 631              		.cfi_offset 4, -8
 632              		.cfi_offset 14, -4
 633              		.loc 1 219 0
 634 0002 1E4B     		ldr	r3, .L39
 635              		.loc 1 217 0
 636 0004 82B0     		sub	sp, sp, #8
 637              	.LCFI13:
 638              		.cfi_def_cfa_offset 16
 639              		.loc 1 219 0
 640 0006 9B69     		ldr	r3, [r3, #24]
 641 0008 9821     		mov	r1, #152
 642 000a 9A68     		ldr	r2, [r3, #8]
 643 000c 0023     		mov	r3, #0
 644 000e 0093     		str	r3, [sp]
 645 0010 1B4B     		ldr	r3, .L39+4
 646 0012 0132     		add	r2, r2, #1
 647 0014 1868     		ldr	r0, [r3]
 648 0016 4900     		lsl	r1, r1, #1
 649 0018 1A4B     		ldr	r3, .L39+8
 650 001a FFF7FEFF 		bl	chThdCreateStatic
 651              		.loc 1 220 0
 652 001e 1A4C     		ldr	r4, .L39+12
 653              		.loc 1 219 0
 654 0020 1A4B     		ldr	r3, .L39+16
 655              		.loc 1 220 0
 656 0022 211C     		mov	r1, r4
 657              		.loc 1 219 0
 658 0024 1860     		str	r0, [r3]
 659              		.loc 1 220 0
 660 0026 201C     		mov	r0, r4
 661 0028 FFF7FEFF 		bl	chSemSignalWait
 662              		.loc 1 221 0
 663 002c 2168     		ldr	r1, [r4]
 664 002e 0120     		mov	r0, #1
 665 0030 091B     		sub	r1, r1, r4
 666 0032 4B42     		neg	r3, r1
 667 0034 5941     		adc	r1, r1, r3
 668 0036 FFF7FEFF 		bl	_test_assert
 669 003a 0028     		cmp	r0, #0
 670 003c 01D0     		beq	.L38
 671              	.L36:
 672              		.loc 1 227 0
 673 003e 02B0     		add	sp, sp, #8
 674              		@ sp needed for prologue
 675 0040 10BD     		pop	{r4, pc}
 676              	.L38:
 677              		.loc 1 222 0
ARM GAS  C:\Users\Rob\AppData\Local\Temp\ccqQMFGN.s 			page 13


 678 0042 A168     		ldr	r1, [r4, #8]
 679 0044 0220     		mov	r0, #2
 680 0046 4B42     		neg	r3, r1
 681 0048 5941     		adc	r1, r1, r3
 682 004a FFF7FEFF 		bl	_test_assert
 683 004e 0028     		cmp	r0, #0
 684 0050 F5D1     		bne	.L36
 685              	.LBB4:
 686              	.LBB5:
 687              		.loc 1 224 0
 688 0052 211C     		mov	r1, r4
 689 0054 201C     		mov	r0, r4
 690 0056 FFF7FEFF 		bl	chSemSignalWait
 691              		.loc 1 225 0
 692 005a 2168     		ldr	r1, [r4]
 693 005c 0320     		mov	r0, #3
 694 005e 091B     		sub	r1, r1, r4
 695 0060 4B42     		neg	r3, r1
 696 0062 5941     		adc	r1, r1, r3
 697 0064 FFF7FEFF 		bl	_test_assert
 698 0068 0028     		cmp	r0, #0
 699 006a E8D1     		bne	.L36
 700              		.loc 1 226 0
 701 006c A168     		ldr	r1, [r4, #8]
 702 006e 0420     		mov	r0, #4
 703 0070 4B42     		neg	r3, r1
 704 0072 5941     		adc	r1, r1, r3
 705 0074 FFF7FEFF 		bl	_test_assert
 706 0078 E1E7     		b	.L36
 707              	.L40:
 708 007a C046     		.align	2
 709              	.L39:
 710 007c 00000000 		.word	rlist
 711 0080 00000000 		.word	wa
 712 0084 00000000 		.word	thread3
 713 0088 00000000 		.word	.LANCHOR0
 714 008c 00000000 		.word	threads
 715              	.LBE5:
 716              	.LBE4:
 717              		.cfi_endproc
 718              	.LFE15:
 719              		.size	sem3_execute, .-sem3_execute
 720              		.section	.text.sem2_execute,"ax",%progbits
 721              		.align	2
 722              		.p2align 4,,15
 723              		.code	16
 724              		.thumb_func
 725              		.type	sem2_execute, %function
 726              	sem2_execute:
 727              	.LFB12:
 728              		.loc 1 144 0
 729              		.cfi_startproc
 730 0000 70B5     		push	{r4, r5, r6, lr}
 731              	.LCFI14:
 732              		.cfi_def_cfa_offset 16
 733              		.cfi_offset 4, -16
 734              		.cfi_offset 5, -12
ARM GAS  C:\Users\Rob\AppData\Local\Temp\ccqQMFGN.s 			page 14


 735              		.cfi_offset 6, -8
 736              		.cfi_offset 14, -4
 737              		.loc 1 152 0
 738 0002 434C     		ldr	r4, .L46
 739 0004 0021     		mov	r1, #0
 740              		.loc 1 144 0
 741 0006 82B0     		sub	sp, sp, #8
 742              	.LCFI15:
 743              		.cfi_def_cfa_offset 24
 744              		.loc 1 152 0
 745 0008 201C     		mov	r0, r4
 746 000a FFF7FEFF 		bl	chSemWaitTimeout
 747              	.LVL11:
 748              		.loc 1 153 0
 749 000e 411C     		add	r1, r0, #1
 750 0010 4B42     		neg	r3, r1
 751 0012 5941     		adc	r1, r1, r3
 752 0014 0120     		mov	r0, #1
 753              	.LVL12:
 754 0016 FFF7FEFF 		bl	_test_assert
 755 001a 0028     		cmp	r0, #0
 756 001c 01D0     		beq	.L45
 757              	.L41:
 758              		.loc 1 182 0
 759 001e 02B0     		add	sp, sp, #8
 760              		@ sp needed for prologue
 761 0020 70BD     		pop	{r4, r5, r6, pc}
 762              	.L45:
 763              		.loc 1 154 0
 764 0022 2168     		ldr	r1, [r4]
 765 0024 0220     		mov	r0, #2
 766 0026 091B     		sub	r1, r1, r4
 767 0028 4B42     		neg	r3, r1
 768 002a 5941     		adc	r1, r1, r3
 769 002c FFF7FEFF 		bl	_test_assert
 770 0030 0028     		cmp	r0, #0
 771 0032 F4D1     		bne	.L41
 772              		.loc 1 155 0
 773 0034 A168     		ldr	r1, [r4, #8]
 774 0036 0320     		mov	r0, #3
 775 0038 4B42     		neg	r3, r1
 776 003a 5941     		adc	r1, r1, r3
 777 003c FFF7FEFF 		bl	_test_assert
 778 0040 0028     		cmp	r0, #0
 779 0042 ECD1     		bne	.L41
 780              	.LBB8:
 781              	.LBB9:
 782              		.loc 1 160 0
 783 0044 334B     		ldr	r3, .L46+4
 784 0046 9821     		mov	r1, #152
 785 0048 9B69     		ldr	r3, [r3, #24]
 786 004a 4900     		lsl	r1, r1, #1
 787 004c 9A68     		ldr	r2, [r3, #8]
 788 004e 324B     		ldr	r3, .L46+8
 789 0050 013A     		sub	r2, r2, #1
 790 0052 0090     		str	r0, [sp]
 791 0054 1868     		ldr	r0, [r3]
ARM GAS  C:\Users\Rob\AppData\Local\Temp\ccqQMFGN.s 			page 15


 792 0056 314B     		ldr	r3, .L46+12
 793 0058 FFF7FEFF 		bl	chThdCreateStatic
 794 005c 304B     		ldr	r3, .L46+16
 795              		.loc 1 162 0
 796 005e 3149     		ldr	r1, .L46+20
 797              		.loc 1 160 0
 798 0060 1860     		str	r0, [r3]
 799              		.loc 1 162 0
 800 0062 201C     		mov	r0, r4
 801 0064 FFF7FEFF 		bl	chSemWaitTimeout
 802 0068 051C     		mov	r5, r0
 803              	.LVL13:
 804              		.loc 1 163 0
 805 006a FFF7FEFF 		bl	test_wait_threads
 806              	.LVL14:
 807              		.loc 1 164 0
 808 006e 6942     		neg	r1, r5
 809 0070 6941     		adc	r1, r1, r5
 810              	.LVL15:
 811 0072 0420     		mov	r0, #4
 812 0074 FFF7FEFF 		bl	_test_assert
 813 0078 0028     		cmp	r0, #0
 814 007a D0D1     		bne	.L41
 815              		.loc 1 165 0
 816 007c 2168     		ldr	r1, [r4]
 817 007e 0520     		mov	r0, #5
 818 0080 091B     		sub	r1, r1, r4
 819 0082 4B42     		neg	r3, r1
 820 0084 5941     		adc	r1, r1, r3
 821 0086 FFF7FEFF 		bl	_test_assert
 822 008a 0028     		cmp	r0, #0
 823 008c C7D1     		bne	.L41
 824              		.loc 1 166 0
 825 008e A168     		ldr	r1, [r4, #8]
 826 0090 0620     		mov	r0, #6
 827 0092 4B42     		neg	r3, r1
 828 0094 5941     		adc	r1, r1, r3
 829 0096 FFF7FEFF 		bl	_test_assert
 830 009a 0028     		cmp	r0, #0
 831 009c BFD1     		bne	.L41
 832              		.loc 1 171 0
 833 009e FFF7FEFF 		bl	test_wait_tick
 834              		.loc 1 172 0
 835 00a2 214B     		ldr	r3, .L46+24
 836 00a4 4125     		mov	r5, #65
 837 00a6 DE68     		ldr	r6, [r3, #12]
 838              	.LVL16:
 839              	.L43:
 840              		.loc 1 174 0
 841 00a8 281C     		mov	r0, r5
 842 00aa FFF7FEFF 		bl	test_emit_token
 843              		.loc 1 175 0
 844 00ae 1D49     		ldr	r1, .L46+20
 845 00b0 201C     		mov	r0, r4
 846 00b2 FFF7FEFF 		bl	chSemWaitTimeout
 847              	.LVL17:
 848              		.loc 1 176 0
ARM GAS  C:\Users\Rob\AppData\Local\Temp\ccqQMFGN.s 			page 16


 849 00b6 411C     		add	r1, r0, #1
 850 00b8 4B42     		neg	r3, r1
 851 00ba 5941     		adc	r1, r1, r3
 852 00bc 0720     		mov	r0, #7
 853              	.LVL18:
 854 00be FFF7FEFF 		bl	_test_assert
 855 00c2 0028     		cmp	r0, #0
 856 00c4 ABD1     		bne	.L41
 857              		.loc 1 177 0
 858 00c6 2168     		ldr	r1, [r4]
 859 00c8 0820     		mov	r0, #8
 860 00ca 091B     		sub	r1, r1, r4
 861 00cc 4B42     		neg	r3, r1
 862 00ce 5941     		adc	r1, r1, r3
 863 00d0 FFF7FEFF 		bl	_test_assert
 864 00d4 0028     		cmp	r0, #0
 865 00d6 A2D1     		bne	.L41
 866              		.loc 1 178 0
 867 00d8 A168     		ldr	r1, [r4, #8]
 868 00da 0920     		mov	r0, #9
 869 00dc 4B42     		neg	r3, r1
 870 00de 5941     		adc	r1, r1, r3
 871 00e0 FFF7FEFF 		bl	_test_assert
 872 00e4 0028     		cmp	r0, #0
 873 00e6 9AD1     		bne	.L41
 874 00e8 0135     		add	r5, r5, #1
 875 00ea EDB2     		uxtb	r5, r5
 876              		.loc 1 173 0
 877 00ec 462D     		cmp	r5, #70
 878 00ee DBD1     		bne	.L43
 879              		.loc 1 180 0
 880 00f0 0A20     		mov	r0, #10
 881 00f2 0E49     		ldr	r1, .L46+28
 882 00f4 FFF7FEFF 		bl	_test_assert_sequence
 883 00f8 0028     		cmp	r0, #0
 884 00fa 00D0     		beq	.LCB655
 885 00fc 8FE7     		b	.L41	@long jump
 886              	.LCB655:
 887              		.loc 1 172 0
 888 00fe 0C4B     		ldr	r3, .L46+32
 889              		.loc 1 181 0
 890 0100 0B20     		mov	r0, #11
 891              		.loc 1 172 0
 892 0102 F118     		add	r1, r6, r3
 893              		.loc 1 181 0
 894 0104 0B4B     		ldr	r3, .L46+36
 895 0106 F218     		add	r2, r6, r3
 896 0108 FFF7FEFF 		bl	_test_assert_time_window
 897 010c 87E7     		b	.L41
 898              	.L47:
 899 010e C046     		.align	2
 900              	.L46:
 901 0110 00000000 		.word	.LANCHOR0
 902 0114 00000000 		.word	rlist
 903 0118 00000000 		.word	wa
 904 011c 00000000 		.word	thread2
 905 0120 00000000 		.word	threads
ARM GAS  C:\Users\Rob\AppData\Local\Temp\ccqQMFGN.s 			page 17


 906 0124 50C30000 		.word	50000
 907 0128 00000000 		.word	vtlist
 908 012c 14000000 		.word	.LC25
 909 0130 90D00300 		.word	250000
 910 0134 84D20300 		.word	250500
 911              	.LBE9:
 912              	.LBE8:
 913              		.cfi_endproc
 914              	.LFE12:
 915              		.size	sem2_execute, .-sem2_execute
 916              		.global	patternsem
 917              		.global	testsem4
 918              		.global	testsem3
 919              		.global	testsem2
 920              		.global	testsem1
 921 0138 C046C046 		.section	.rodata.testsem1,"a",%progbits
 921      C046C046 
 922              		.align	2
 923              		.type	testsem1, %object
 924              		.size	testsem1, 16
 925              	testsem1:
 926 0000 74000000 		.word	.LC42
 927 0004 00000000 		.word	sem1_setup
 928 0008 00000000 		.word	0
 929 000c 00000000 		.word	sem1_execute
 930              		.section	.rodata.testsem2,"a",%progbits
 931              		.align	2
 932              		.type	testsem2, %object
 933              		.size	testsem2, 16
 934              	testsem2:
 935 0000 60000000 		.word	.LC41
 936 0004 00000000 		.word	sem2_setup
 937 0008 00000000 		.word	0
 938 000c 00000000 		.word	sem2_execute
 939              		.section	.rodata.testsem3,"a",%progbits
 940              		.align	2
 941              		.type	testsem3, %object
 942              		.size	testsem3, 16
 943              	testsem3:
 944 0000 40000000 		.word	.LC40
 945 0004 00000000 		.word	sem3_setup
 946 0008 00000000 		.word	0
 947 000c 00000000 		.word	sem3_execute
 948              		.section	.rodata.testsem4,"a",%progbits
 949              		.align	2
 950              		.type	testsem4, %object
 951              		.size	testsem4, 16
 952              	testsem4:
 953 0000 1C000000 		.word	.LC39
 954 0004 00000000 		.word	0
 955 0008 00000000 		.word	0
 956 000c 00000000 		.word	sem4_execute
 957              		.section	.data.sem1,"aw",%progbits
 958              		.align	2
 959              		.set	.LANCHOR0,. + 0
 960              		.type	sem1, %object
 961              		.size	sem1, 12
ARM GAS  C:\Users\Rob\AppData\Local\Temp\ccqQMFGN.s 			page 18


 962              	sem1:
 963 0000 00000000 		.word	sem1
 964 0004 00000000 		.word	sem1
 965 0008 00000000 		.word	0
 966              		.section	.rodata.patternsem,"a",%progbits
 967              		.align	2
 968              		.type	patternsem, %object
 969              		.size	patternsem, 20
 970              	patternsem:
 971 0000 00000000 		.word	testsem1
 972 0004 00000000 		.word	testsem2
 973 0008 00000000 		.word	testsem3
 974 000c 00000000 		.word	testsem4
 975 0010 00000000 		.word	0
 976              		.section	.rodata.str1.4,"aMS",%progbits,1
 977              		.align	2
 978              	.LC13:
 979 0000 4100     		.ascii	"A\000"
 980 0002 0000     		.space	2
 981              	.LC16:
 982 0004 4200     		.ascii	"B\000"
 983 0006 0000     		.space	2
 984              	.LC18:
 985 0008 4300     		.ascii	"C\000"
 986 000a 0000     		.space	2
 987              	.LC20:
 988 000c 4400     		.ascii	"D\000"
 989 000e 0000     		.space	2
 990              	.LC22:
 991 0010 4500     		.ascii	"E\000"
 992 0012 0000     		.space	2
 993              	.LC25:
 994 0014 41424344 		.ascii	"ABCDE\000"
 994      4500
 995 001a 0000     		.space	2
 996              	.LC39:
 997 001c 42696E61 		.ascii	"Binary Semaphores, functionality\000"
 997      72792053 
 997      656D6170 
 997      686F7265 
 997      732C2066 
 998 003d 000000   		.space	3
 999              	.LC40:
 1000 0040 53656D61 		.ascii	"Semaphores, atomic signal-wait\000"
 1000      70686F72 
 1000      65732C20 
 1000      61746F6D 
 1000      69632073 
 1001 005f 00       		.space	1
 1002              	.LC41:
 1003 0060 53656D61 		.ascii	"Semaphores, timeout\000"
 1003      70686F72 
 1003      65732C20 
 1003      74696D65 
 1003      6F757400 
 1004              	.LC42:
 1005 0074 53656D61 		.ascii	"Semaphores, enqueuing\000"
ARM GAS  C:\Users\Rob\AppData\Local\Temp\ccqQMFGN.s 			page 19


 1005      70686F72 
 1005      65732C20 
 1005      656E7175 
 1005      6575696E 
 1006 008a 0000     		.text
 1007              	.Letext0:
 1008              		.file 2 "c:/yagarto/lib/gcc/../../arm-none-eabi/sys-include/stdint.h"
 1009              		.file 3 "../../os/ports/GCC/ARMCMx/chtypes.h"
 1010              		.file 4 "../../os/kernel/include/chlists.h"
 1011              		.file 5 "../../os/kernel/include/chthreads.h"
 1012              		.file 6 "../../os/ports/GCC/ARMCMx/chcore_v6m.h"
 1013              		.file 7 "../../os/kernel/include/chvt.h"
 1014              		.file 8 "../../os/kernel/include/chschd.h"
 1015              		.file 9 "../../os/kernel/include/chsem.h"
 1016              		.file 10 "../../os/kernel/include/chbsem.h"
 1017              		.file 11 "../../os/kernel/include/chmtx.h"
 1018              		.file 12 "../../test/test.h"