ARM GAS  C:\Users\Rob\AppData\Local\Temp\cc4fUlqK.s 			page 1


   1              		.cpu cortex-m0
   2              		.fpu softvfp
   3              		.eabi_attribute 20, 1
   4              		.eabi_attribute 21, 1
   5              		.eabi_attribute 23, 3
   6              		.eabi_attribute 24, 1
   7              		.eabi_attribute 25, 1
   8              		.eabi_attribute 26, 1
   9              		.eabi_attribute 30, 2
  10              		.eabi_attribute 18, 4
  11              		.code	16
  12              		.file	"testevt.c"
  13              		.text
  14              	.Ltext0:
  15              		.cfi_sections	.debug_frame
  16              		.section	.text.evt3_setup,"ax",%progbits
  17              		.align	2
  18              		.p2align 4,,15
  19              		.code	16
  20              		.thumb_func
  21              		.type	evt3_setup, %function
  22              	evt3_setup:
  23              	.LFB16:
  24              		.file 1 "../../test/testevt.c"
  25              		.loc 1 247 0
  26              		.cfi_startproc
  27 0000 08B5     		push	{r3, lr}
  28              	.LCFI0:
  29              		.cfi_def_cfa_offset 8
  30              		.cfi_offset 3, -8
  31              		.cfi_offset 14, -4
  32              		.loc 1 249 0
  33 0002 0120     		mov	r0, #1
  34 0004 4042     		neg	r0, r0
  35 0006 FFF7FEFF 		bl	chEvtGetAndClearEvents
  36              		.loc 1 250 0
  37              		@ sp needed for prologue
  38 000a 08BD     		pop	{r3, pc}
  39              		.cfi_endproc
  40              	.LFE16:
  41              		.size	evt3_setup, .-evt3_setup
  42 000c C046C046 		.section	.text.evt2_setup,"ax",%progbits
  43              		.align	2
  44              		.p2align 4,,15
  45              		.code	16
  46              		.thumb_func
  47              		.type	evt2_setup, %function
  48              	evt2_setup:
  49              	.LFB12:
  50              		.loc 1 128 0
  51              		.cfi_startproc
  52 0000 08B5     		push	{r3, lr}
  53              	.LCFI1:
  54              		.cfi_def_cfa_offset 8
  55              		.cfi_offset 3, -8
  56              		.cfi_offset 14, -4
  57              		.loc 1 130 0
ARM GAS  C:\Users\Rob\AppData\Local\Temp\cc4fUlqK.s 			page 2


  58 0002 0120     		mov	r0, #1
  59 0004 4042     		neg	r0, r0
  60 0006 FFF7FEFF 		bl	chEvtGetAndClearEvents
  61              		.loc 1 131 0
  62              		@ sp needed for prologue
  63 000a 08BD     		pop	{r3, pc}
  64              		.cfi_endproc
  65              	.LFE12:
  66              		.size	evt2_setup, .-evt2_setup
  67 000c C046C046 		.section	.text.evt1_setup,"ax",%progbits
  68              		.align	2
  69              		.p2align 4,,15
  70              		.code	16
  71              		.thumb_func
  72              		.type	evt1_setup, %function
  73              	evt1_setup:
  74              	.LFB7:
  75              		.loc 1 75 0
  76              		.cfi_startproc
  77 0000 08B5     		push	{r3, lr}
  78              	.LCFI2:
  79              		.cfi_def_cfa_offset 8
  80              		.cfi_offset 3, -8
  81              		.cfi_offset 14, -4
  82              		.loc 1 77 0
  83 0002 0120     		mov	r0, #1
  84 0004 4042     		neg	r0, r0
  85 0006 FFF7FEFF 		bl	chEvtGetAndClearEvents
  86              		.loc 1 78 0
  87              		@ sp needed for prologue
  88 000a 08BD     		pop	{r3, pc}
  89              		.cfi_endproc
  90              	.LFE7:
  91              		.size	evt1_setup, .-evt1_setup
  92 000c C046C046 		.section	.text.thread2,"ax",%progbits
  93              		.align	2
  94              		.p2align 4,,15
  95              		.code	16
  96              		.thumb_func
  97              		.type	thread2, %function
  98              	thread2:
  99              	.LFB14:
 100              		.loc 1 140 0
 101              		.cfi_startproc
 102 0000 08B5     		push	{r3, lr}
 103              	.LCFI3:
 104              		.cfi_def_cfa_offset 8
 105              		.cfi_offset 3, -8
 106              		.cfi_offset 14, -4
 107              	.LVL0:
 108              		.loc 1 143 0
 109 0002 0021     		mov	r1, #0
 110 0004 0548     		ldr	r0, .L5
 111              	.LVL1:
 112 0006 FFF7FEFF 		bl	chEvtBroadcastFlags
 113              		.loc 1 144 0
 114 000a 0548     		ldr	r0, .L5+4
ARM GAS  C:\Users\Rob\AppData\Local\Temp\cc4fUlqK.s 			page 3


 115 000c FFF7FEFF 		bl	chThdSleep
 116              		.loc 1 145 0
 117 0010 0448     		ldr	r0, .L5+8
 118 0012 0021     		mov	r1, #0
 119 0014 FFF7FEFF 		bl	chEvtBroadcastFlags
 120              		.loc 1 147 0
 121              		@ sp needed for prologue
 122 0018 0020     		mov	r0, #0
 123 001a 08BD     		pop	{r3, pc}
 124              	.L6:
 125              		.align	2
 126              	.L5:
 127 001c 00000000 		.word	.LANCHOR0
 128 0020 88130000 		.word	5000
 129 0024 00000000 		.word	.LANCHOR1
 130              		.cfi_endproc
 131              	.LFE14:
 132              		.size	thread2, .-thread2
 133 0028 C046C046 		.section	.text.thread1,"ax",%progbits
 133      C046C046 
 134              		.align	2
 135              		.p2align 4,,15
 136              		.code	16
 137              		.thumb_func
 138              		.type	thread1, %function
 139              	thread1:
 140              	.LFB13:
 141              		.loc 1 133 0
 142              		.cfi_startproc
 143 0000 10B5     		push	{r4, lr}
 144              	.LCFI4:
 145              		.cfi_def_cfa_offset 8
 146              		.cfi_offset 4, -8
 147              		.cfi_offset 14, -4
 148              	.LVL2:
 149              		.loc 1 133 0
 150 0002 041C     		mov	r4, r0
 151              		.loc 1 135 0
 152 0004 0448     		ldr	r0, .L8
 153              	.LVL3:
 154 0006 FFF7FEFF 		bl	chThdSleep
 155              		.loc 1 136 0
 156 000a 201C     		mov	r0, r4
 157 000c 0121     		mov	r1, #1
 158 000e FFF7FEFF 		bl	chEvtSignal
 159              		.loc 1 138 0
 160              		@ sp needed for prologue
 161 0012 0020     		mov	r0, #0
 162              	.LVL4:
 163 0014 10BD     		pop	{r4, pc}
 164              	.L9:
 165 0016 C046     		.align	2
 166              	.L8:
 167 0018 88130000 		.word	5000
 168              		.cfi_endproc
 169              	.LFE13:
 170              		.size	thread1, .-thread1
ARM GAS  C:\Users\Rob\AppData\Local\Temp\cc4fUlqK.s 			page 4


 171 001c C046C046 		.section	.text.evt1_execute,"ax",%progbits
 172              		.align	2
 173              		.p2align 4,,15
 174              		.code	16
 175              		.thumb_func
 176              		.type	evt1_execute, %function
 177              	evt1_execute:
 178              	.LFB11:
 179              		.loc 1 85 0
 180              		.cfi_startproc
 181 0000 10B5     		push	{r4, lr}
 182              	.LCFI5:
 183              		.cfi_def_cfa_offset 8
 184              		.cfi_offset 4, -8
 185              		.cfi_offset 14, -4
 186              		.loc 1 91 0
 187 0002 1D4C     		ldr	r4, .L14
 188              		.loc 1 85 0
 189 0004 88B0     		sub	sp, sp, #32
 190              	.LCFI6:
 191              		.cfi_def_cfa_offset 40
 192              		.loc 1 92 0
 193 0006 201C     		mov	r0, r4
 194 0008 6946     		mov	r1, sp
 195 000a 0122     		mov	r2, #1
 196              		.loc 1 91 0
 197 000c 2460     		str	r4, [r4]
 198              		.loc 1 92 0
 199 000e FFF7FEFF 		bl	chEvtRegisterMask
 200              		.loc 1 93 0
 201 0012 201C     		mov	r0, r4
 202 0014 04A9     		add	r1, sp, #16
 203 0016 0222     		mov	r2, #2
 204 0018 FFF7FEFF 		bl	chEvtRegisterMask
 205              		.loc 1 94 0
 206 001c 2168     		ldr	r1, [r4]
 207 001e 0120     		mov	r0, #1
 208 0020 091B     		sub	r1, r1, r4
 209 0022 4B1E     		sub	r3, r1, #1
 210 0024 9941     		sbc	r1, r1, r3
 211 0026 FFF7FEFF 		bl	_test_assert
 212 002a 0028     		cmp	r0, #0
 213 002c 01D0     		beq	.L13
 214              	.L10:
 215              		.loc 1 105 0
 216 002e 08B0     		add	sp, sp, #32
 217              		@ sp needed for prologue
 218 0030 10BD     		pop	{r4, pc}
 219              	.L13:
 220              		.loc 1 95 0
 221 0032 201C     		mov	r0, r4
 222 0034 6946     		mov	r1, sp
 223 0036 FFF7FEFF 		bl	chEvtUnregister
 224              		.loc 1 96 0
 225 003a 2168     		ldr	r1, [r4]
 226 003c 0220     		mov	r0, #2
 227 003e 091B     		sub	r1, r1, r4
ARM GAS  C:\Users\Rob\AppData\Local\Temp\cc4fUlqK.s 			page 5


 228 0040 4B1E     		sub	r3, r1, #1
 229 0042 9941     		sbc	r1, r1, r3
 230 0044 FFF7FEFF 		bl	_test_assert
 231 0048 0028     		cmp	r0, #0
 232 004a F0D1     		bne	.L10
 233              		.loc 1 97 0
 234 004c 201C     		mov	r0, r4
 235 004e 04A9     		add	r1, sp, #16
 236 0050 FFF7FEFF 		bl	chEvtUnregister
 237              		.loc 1 98 0
 238 0054 2168     		ldr	r1, [r4]
 239 0056 0320     		mov	r0, #3
 240 0058 0C1B     		sub	r4, r1, r4
 241 005a 6142     		neg	r1, r4
 242 005c 6141     		adc	r1, r1, r4
 243 005e FFF7FEFF 		bl	_test_assert
 244 0062 0028     		cmp	r0, #0
 245 0064 E3D1     		bne	.L10
 246              		.loc 1 103 0
 247 0066 0548     		ldr	r0, .L14+4
 248 0068 0721     		mov	r1, #7
 249 006a FFF7FEFF 		bl	chEvtDispatch
 250              		.loc 1 104 0
 251 006e 0449     		ldr	r1, .L14+8
 252 0070 0420     		mov	r0, #4
 253 0072 FFF7FEFF 		bl	_test_assert_sequence
 254 0076 DAE7     		b	.L10
 255              	.L15:
 256              		.align	2
 257              	.L14:
 258 0078 00000000 		.word	.LANCHOR0
 259 007c 00000000 		.word	.LANCHOR2
 260 0080 00000000 		.word	.LC4
 261              		.cfi_endproc
 262              	.LFE11:
 263              		.size	evt1_execute, .-evt1_execute
 264 0084 C046C046 		.section	.text.h3,"ax",%progbits
 264      C046C046 
 264      C046C046 
 265              		.align	2
 266              		.p2align 4,,15
 267              		.code	16
 268              		.thumb_func
 269              		.type	h3, %function
 270              	h3:
 271              	.LFB10:
 272              		.loc 1 82 0
 273              		.cfi_startproc
 274 0000 08B5     		push	{r3, lr}
 275              	.LCFI7:
 276              		.cfi_def_cfa_offset 8
 277              		.cfi_offset 3, -8
 278              		.cfi_offset 14, -4
 279              	.LVL5:
 280              		.loc 1 82 0
 281 0002 4320     		mov	r0, #67
 282              	.LVL6:
ARM GAS  C:\Users\Rob\AppData\Local\Temp\cc4fUlqK.s 			page 6


 283 0004 FFF7FEFF 		bl	test_emit_token
 284              		@ sp needed for prologue
 285 0008 08BD     		pop	{r3, pc}
 286              		.cfi_endproc
 287              	.LFE10:
 288              		.size	h3, .-h3
 289              		.section	.text.h2,"ax",%progbits
 290              		.align	2
 291              		.p2align 4,,15
 292              		.code	16
 293              		.thumb_func
 294              		.type	h2, %function
 295              	h2:
 296              	.LFB9:
 297              		.loc 1 81 0
 298              		.cfi_startproc
 299 0000 08B5     		push	{r3, lr}
 300              	.LCFI8:
 301              		.cfi_def_cfa_offset 8
 302              		.cfi_offset 3, -8
 303              		.cfi_offset 14, -4
 304              	.LVL7:
 305              		.loc 1 81 0
 306 0002 4220     		mov	r0, #66
 307              	.LVL8:
 308 0004 FFF7FEFF 		bl	test_emit_token
 309              		@ sp needed for prologue
 310 0008 08BD     		pop	{r3, pc}
 311              		.cfi_endproc
 312              	.LFE9:
 313              		.size	h2, .-h2
 314              		.section	.text.h1,"ax",%progbits
 315              		.align	2
 316              		.p2align 4,,15
 317              		.code	16
 318              		.thumb_func
 319              		.type	h1, %function
 320              	h1:
 321              	.LFB8:
 322              		.loc 1 80 0
 323              		.cfi_startproc
 324 0000 08B5     		push	{r3, lr}
 325              	.LCFI9:
 326              		.cfi_def_cfa_offset 8
 327              		.cfi_offset 3, -8
 328              		.cfi_offset 14, -4
 329              	.LVL9:
 330              		.loc 1 80 0
 331 0002 4120     		mov	r0, #65
 332              	.LVL10:
 333 0004 FFF7FEFF 		bl	test_emit_token
 334              		@ sp needed for prologue
 335 0008 08BD     		pop	{r3, pc}
 336              		.cfi_endproc
 337              	.LFE8:
 338              		.size	h1, .-h1
 339              		.section	.text.evt3_execute,"ax",%progbits
ARM GAS  C:\Users\Rob\AppData\Local\Temp\cc4fUlqK.s 			page 7


 340              		.align	2
 341              		.p2align 4,,15
 342              		.code	16
 343              		.thumb_func
 344              		.type	evt3_execute, %function
 345              	evt3_execute:
 346              	.LFB17:
 347              		.loc 1 252 0
 348              		.cfi_startproc
 349 0000 08B5     		push	{r3, lr}
 350              	.LCFI10:
 351              		.cfi_def_cfa_offset 8
 352              		.cfi_offset 3, -8
 353              		.cfi_offset 14, -4
 354              		.loc 1 258 0
 355 0002 0120     		mov	r0, #1
 356 0004 0021     		mov	r1, #0
 357 0006 4042     		neg	r0, r0
 358 0008 FFF7FEFF 		bl	chEvtWaitOneTimeout
 359              	.LVL11:
 360              		.loc 1 259 0
 361 000c 4142     		neg	r1, r0
 362 000e 4141     		adc	r1, r1, r0
 363              	.LVL12:
 364 0010 0120     		mov	r0, #1
 365 0012 FFF7FEFF 		bl	_test_assert
 366 0016 0028     		cmp	r0, #0
 367 0018 00D0     		beq	.L21
 368              	.L19:
 369              		.loc 1 270 0
 370              		@ sp needed for prologue
 371 001a 08BD     		pop	{r3, pc}
 372              	.L21:
 373              		.loc 1 260 0
 374 001c 0120     		mov	r0, #1
 375 001e 0021     		mov	r1, #0
 376 0020 4042     		neg	r0, r0
 377 0022 FFF7FEFF 		bl	chEvtWaitAnyTimeout
 378              	.LVL13:
 379              		.loc 1 261 0
 380 0026 4142     		neg	r1, r0
 381 0028 4141     		adc	r1, r1, r0
 382              	.LVL14:
 383 002a 0220     		mov	r0, #2
 384 002c FFF7FEFF 		bl	_test_assert
 385 0030 0028     		cmp	r0, #0
 386 0032 F2D1     		bne	.L19
 387              		.loc 1 262 0
 388 0034 0120     		mov	r0, #1
 389 0036 0021     		mov	r1, #0
 390 0038 4042     		neg	r0, r0
 391 003a FFF7FEFF 		bl	chEvtWaitAllTimeout
 392              	.LVL15:
 393              		.loc 1 263 0
 394 003e 4142     		neg	r1, r0
 395 0040 4141     		adc	r1, r1, r0
 396              	.LVL16:
ARM GAS  C:\Users\Rob\AppData\Local\Temp\cc4fUlqK.s 			page 8


 397 0042 0320     		mov	r0, #3
 398 0044 FFF7FEFF 		bl	_test_assert
 399 0048 0028     		cmp	r0, #0
 400 004a E6D1     		bne	.L19
 401              	.LBB4:
 402              	.LBB5:
 403              		.loc 1 264 0
 404 004c 0120     		mov	r0, #1
 405 004e 0A21     		mov	r1, #10
 406 0050 4042     		neg	r0, r0
 407 0052 FFF7FEFF 		bl	chEvtWaitOneTimeout
 408              	.LVL17:
 409              		.loc 1 265 0
 410 0056 4142     		neg	r1, r0
 411 0058 4141     		adc	r1, r1, r0
 412              	.LVL18:
 413 005a 0420     		mov	r0, #4
 414 005c FFF7FEFF 		bl	_test_assert
 415 0060 0028     		cmp	r0, #0
 416 0062 DAD1     		bne	.L19
 417              		.loc 1 266 0
 418 0064 0120     		mov	r0, #1
 419 0066 0A21     		mov	r1, #10
 420 0068 4042     		neg	r0, r0
 421 006a FFF7FEFF 		bl	chEvtWaitAnyTimeout
 422              	.LVL19:
 423              		.loc 1 267 0
 424 006e 4142     		neg	r1, r0
 425 0070 4141     		adc	r1, r1, r0
 426              	.LVL20:
 427 0072 0520     		mov	r0, #5
 428 0074 FFF7FEFF 		bl	_test_assert
 429 0078 0028     		cmp	r0, #0
 430 007a CED1     		bne	.L19
 431              		.loc 1 268 0
 432 007c 0120     		mov	r0, #1
 433 007e 0A21     		mov	r1, #10
 434 0080 4042     		neg	r0, r0
 435 0082 FFF7FEFF 		bl	chEvtWaitAllTimeout
 436              	.LVL21:
 437              		.loc 1 269 0
 438 0086 4142     		neg	r1, r0
 439 0088 4141     		adc	r1, r1, r0
 440              	.LVL22:
 441 008a 0620     		mov	r0, #6
 442 008c FFF7FEFF 		bl	_test_assert
 443 0090 C3E7     		b	.L19
 444              	.LBE5:
 445              	.LBE4:
 446              		.cfi_endproc
 447              	.LFE17:
 448              		.size	evt3_execute, .-evt3_execute
 449 0092 C046C046 		.section	.text.evt2_execute,"ax",%progbits
 449      C046C046 
 449      C046C046 
 449      C046
 450              		.align	2
ARM GAS  C:\Users\Rob\AppData\Local\Temp\cc4fUlqK.s 			page 9


 451              		.p2align 4,,15
 452              		.code	16
 453              		.thumb_func
 454              		.type	evt2_execute, %function
 455              	evt2_execute:
 456              	.LFB15:
 457              		.loc 1 149 0
 458              		.cfi_startproc
 459 0000 F0B5     		push	{r4, r5, r6, r7, lr}
 460              	.LCFI11:
 461              		.cfi_def_cfa_offset 20
 462              		.cfi_offset 4, -20
 463              		.cfi_offset 5, -16
 464              		.cfi_offset 6, -12
 465              		.cfi_offset 7, -8
 466              		.cfi_offset 14, -4
 467 0002 5746     		mov	r7, sl
 468 0004 4E46     		mov	r6, r9
 469 0006 4546     		mov	r5, r8
 470 0008 E0B4     		push	{r5, r6, r7}
 471              	.LCFI12:
 472              		.cfi_def_cfa_offset 32
 473              		.cfi_offset 8, -32
 474              		.cfi_offset 9, -28
 475              		.cfi_offset 10, -24
 476 000a 8AB0     		sub	sp, sp, #40
 477              	.LCFI13:
 478              		.cfi_def_cfa_offset 72
 479              		.loc 1 157 0
 480 000c 0520     		mov	r0, #5
 481 000e FFF7FEFF 		bl	chEvtAddEvents
 482              		.loc 1 158 0
 483 0012 0120     		mov	r0, #1
 484 0014 4042     		neg	r0, r0
 485 0016 FFF7FEFF 		bl	chEvtWaitOne
 486              	.LVL23:
 487              		.loc 1 159 0
 488 001a 411E     		sub	r1, r0, #1
 489 001c 4B42     		neg	r3, r1
 490 001e 5941     		adc	r1, r1, r3
 491 0020 0120     		mov	r0, #1
 492              	.LVL24:
 493 0022 FFF7FEFF 		bl	_test_assert
 494 0026 0028     		cmp	r0, #0
 495 0028 05D0     		beq	.L24
 496              	.L22:
 497              		.loc 1 222 0
 498 002a 0AB0     		add	sp, sp, #40
 499              		@ sp needed for prologue
 500 002c 1CBC     		pop	{r2, r3, r4}
 501 002e 9046     		mov	r8, r2
 502 0030 9946     		mov	r9, r3
 503 0032 A246     		mov	sl, r4
 504 0034 F0BD     		pop	{r4, r5, r6, r7, pc}
 505              	.L24:
 506              		.loc 1 160 0
 507 0036 0120     		mov	r0, #1
ARM GAS  C:\Users\Rob\AppData\Local\Temp\cc4fUlqK.s 			page 10


 508 0038 4042     		neg	r0, r0
 509 003a FFF7FEFF 		bl	chEvtWaitOne
 510              	.LVL25:
 511              		.loc 1 161 0
 512 003e 011F     		sub	r1, r0, #4
 513 0040 4B42     		neg	r3, r1
 514 0042 5941     		adc	r1, r1, r3
 515 0044 0220     		mov	r0, #2
 516              	.LVL26:
 517 0046 FFF7FEFF 		bl	_test_assert
 518 004a 0028     		cmp	r0, #0
 519 004c EDD1     		bne	.L22
 520              		.loc 1 162 0
 521 004e 0120     		mov	r0, #1
 522 0050 4042     		neg	r0, r0
 523 0052 FFF7FEFF 		bl	chEvtGetAndClearEvents
 524              	.LVL27:
 525              		.loc 1 163 0
 526 0056 4142     		neg	r1, r0
 527 0058 4141     		adc	r1, r1, r0
 528              	.LVL28:
 529 005a 0320     		mov	r0, #3
 530 005c FFF7FEFF 		bl	_test_assert
 531 0060 0028     		cmp	r0, #0
 532 0062 E2D1     		bne	.L22
 533              	.LBB8:
 534              	.LBB9:
 535              		.loc 1 168 0
 536 0064 FFF7FEFF 		bl	test_wait_tick
 537              		.loc 1 170 0
 538 0068 6E4B     		ldr	r3, .L25
 539 006a 6F4D     		ldr	r5, .L25+4
 540 006c 1968     		ldr	r1, [r3]
 541 006e AB69     		ldr	r3, [r5, #24]
 542 0070 8A46     		mov	sl, r1
 543 0072 6E49     		ldr	r1, .L25+8
 544 0074 9A68     		ldr	r2, [r3, #8]
 545              		.loc 1 169 0
 546 0076 6E4E     		ldr	r6, .L25+12
 547              		.loc 1 170 0
 548 0078 8846     		mov	r8, r1
 549 007a 9821     		mov	r1, #152
 550              		.loc 1 169 0
 551 007c F768     		ldr	r7, [r6, #12]
 552              	.LVL29:
 553              		.loc 1 170 0
 554 007e 013A     		sub	r2, r2, #1
 555 0080 4900     		lsl	r1, r1, #1
 556 0082 0093     		str	r3, [sp]
 557 0084 5046     		mov	r0, sl
 558 0086 4346     		mov	r3, r8
 559 0088 FFF7FEFF 		bl	chThdCreateStatic
 560 008c 694C     		ldr	r4, .L25+16
 561 008e 2060     		str	r0, [r4]
 562              		.loc 1 172 0
 563 0090 0120     		mov	r0, #1
 564 0092 4042     		neg	r0, r0
ARM GAS  C:\Users\Rob\AppData\Local\Temp\cc4fUlqK.s 			page 11


 565 0094 FFF7FEFF 		bl	chEvtWaitOne
 566              		.loc 1 169 0
 567 0098 674A     		ldr	r2, .L25+20
 568              		.loc 1 173 0
 569 009a 684B     		ldr	r3, .L25+24
 570              		.loc 1 172 0
 571 009c 8146     		mov	r9, r0
 572              	.LVL30:
 573              		.loc 1 169 0
 574 009e B918     		add	r1, r7, r2
 575              		.loc 1 173 0
 576 00a0 0420     		mov	r0, #4
 577              	.LVL31:
 578 00a2 FA18     		add	r2, r7, r3
 579 00a4 FFF7FEFF 		bl	_test_assert_time_window
 580 00a8 0028     		cmp	r0, #0
 581 00aa BED1     		bne	.L22
 582              		.loc 1 174 0
 583 00ac 4946     		mov	r1, r9
 584 00ae 0139     		sub	r1, r1, #1
 585 00b0 4B42     		neg	r3, r1
 586 00b2 5941     		adc	r1, r1, r3
 587 00b4 0520     		mov	r0, #5
 588 00b6 FFF7FEFF 		bl	_test_assert
 589 00ba 0028     		cmp	r0, #0
 590 00bc B5D1     		bne	.L22
 591              		.loc 1 175 0
 592 00be 0120     		mov	r0, #1
 593 00c0 4042     		neg	r0, r0
 594 00c2 FFF7FEFF 		bl	chEvtGetAndClearEvents
 595              	.LVL32:
 596              		.loc 1 176 0
 597 00c6 4142     		neg	r1, r0
 598 00c8 4141     		adc	r1, r1, r0
 599              	.LVL33:
 600 00ca 0620     		mov	r0, #6
 601 00cc FFF7FEFF 		bl	_test_assert
 602 00d0 0028     		cmp	r0, #0
 603 00d2 AAD1     		bne	.L22
 604              		.loc 1 177 0
 605 00d4 FFF7FEFF 		bl	test_wait_threads
 606              		.loc 1 182 0
 607 00d8 0520     		mov	r0, #5
 608 00da FFF7FEFF 		bl	chEvtAddEvents
 609              		.loc 1 183 0
 610 00de 0120     		mov	r0, #1
 611 00e0 4042     		neg	r0, r0
 612 00e2 FFF7FEFF 		bl	chEvtWaitAny
 613              	.LVL34:
 614              		.loc 1 184 0
 615 00e6 411F     		sub	r1, r0, #5
 616 00e8 4B42     		neg	r3, r1
 617 00ea 5941     		adc	r1, r1, r3
 618 00ec 0720     		mov	r0, #7
 619              	.LVL35:
 620 00ee FFF7FEFF 		bl	_test_assert
 621 00f2 0028     		cmp	r0, #0
ARM GAS  C:\Users\Rob\AppData\Local\Temp\cc4fUlqK.s 			page 12


 622 00f4 99D1     		bne	.L22
 623              		.loc 1 185 0
 624 00f6 0120     		mov	r0, #1
 625 00f8 4042     		neg	r0, r0
 626 00fa FFF7FEFF 		bl	chEvtGetAndClearEvents
 627              	.LVL36:
 628              		.loc 1 186 0
 629 00fe 4142     		neg	r1, r0
 630 0100 4141     		adc	r1, r1, r0
 631              	.LVL37:
 632 0102 0820     		mov	r0, #8
 633 0104 FFF7FEFF 		bl	_test_assert
 634 0108 0028     		cmp	r0, #0
 635 010a 00D0     		beq	.LCB448
 636 010c 8DE7     		b	.L22	@long jump
 637              	.LCB448:
 638              		.loc 1 191 0
 639 010e FFF7FEFF 		bl	test_wait_tick
 640              		.loc 1 193 0
 641 0112 AB69     		ldr	r3, [r5, #24]
 642 0114 9821     		mov	r1, #152
 643 0116 9A68     		ldr	r2, [r3, #8]
 644              		.loc 1 192 0
 645 0118 F768     		ldr	r7, [r6, #12]
 646              	.LVL38:
 647              		.loc 1 193 0
 648 011a 013A     		sub	r2, r2, #1
 649 011c 4900     		lsl	r1, r1, #1
 650 011e 0093     		str	r3, [sp]
 651 0120 5046     		mov	r0, sl
 652 0122 4346     		mov	r3, r8
 653 0124 FFF7FEFF 		bl	chThdCreateStatic
 654 0128 2060     		str	r0, [r4]
 655              		.loc 1 195 0
 656 012a 0120     		mov	r0, #1
 657 012c 4042     		neg	r0, r0
 658 012e FFF7FEFF 		bl	chEvtWaitAny
 659              		.loc 1 192 0
 660 0132 414A     		ldr	r2, .L25+20
 661              		.loc 1 196 0
 662 0134 414B     		ldr	r3, .L25+24
 663              		.loc 1 195 0
 664 0136 8046     		mov	r8, r0
 665              	.LVL39:
 666              		.loc 1 192 0
 667 0138 B918     		add	r1, r7, r2
 668              		.loc 1 196 0
 669 013a 0920     		mov	r0, #9
 670              	.LVL40:
 671 013c FA18     		add	r2, r7, r3
 672 013e FFF7FEFF 		bl	_test_assert_time_window
 673 0142 0028     		cmp	r0, #0
 674 0144 00D0     		beq	.LCB476
 675 0146 70E7     		b	.L22	@long jump
 676              	.LCB476:
 677              		.loc 1 197 0
 678 0148 4146     		mov	r1, r8
ARM GAS  C:\Users\Rob\AppData\Local\Temp\cc4fUlqK.s 			page 13


 679 014a 0139     		sub	r1, r1, #1
 680 014c 4B42     		neg	r3, r1
 681 014e 5941     		adc	r1, r1, r3
 682 0150 0A20     		mov	r0, #10
 683 0152 FFF7FEFF 		bl	_test_assert
 684 0156 0028     		cmp	r0, #0
 685 0158 00D0     		beq	.LCB485
 686 015a 66E7     		b	.L22	@long jump
 687              	.LCB485:
 688              		.loc 1 198 0
 689 015c 0120     		mov	r0, #1
 690 015e 4042     		neg	r0, r0
 691 0160 FFF7FEFF 		bl	chEvtGetAndClearEvents
 692              	.LVL41:
 693              		.loc 1 199 0
 694 0164 4142     		neg	r1, r0
 695 0166 4141     		adc	r1, r1, r0
 696              	.LVL42:
 697 0168 0B20     		mov	r0, #11
 698 016a FFF7FEFF 		bl	_test_assert
 699 016e 0028     		cmp	r0, #0
 700 0170 00D0     		beq	.LCB497
 701 0172 5AE7     		b	.L22	@long jump
 702              	.LCB497:
 703              		.loc 1 200 0
 704 0174 FFF7FEFF 		bl	test_wait_threads
 705              		.loc 1 206 0
 706 0178 3149     		ldr	r1, .L25+28
 707              		.loc 1 205 0
 708 017a 324F     		ldr	r7, .L25+32
 709              	.LVL43:
 710              		.loc 1 206 0
 711 017c 0A1C     		mov	r2, r1
 712 017e 1160     		str	r1, [r2]
 713 0180 8846     		mov	r8, r1
 714              		.loc 1 207 0
 715 0182 381C     		mov	r0, r7
 716 0184 02A9     		add	r1, sp, #8
 717 0186 0122     		mov	r2, #1
 718              		.loc 1 205 0
 719 0188 3F60     		str	r7, [r7]
 720              		.loc 1 207 0
 721 018a FFF7FEFF 		bl	chEvtRegisterMask
 722              		.loc 1 208 0
 723 018e 06A9     		add	r1, sp, #24
 724 0190 0422     		mov	r2, #4
 725 0192 4046     		mov	r0, r8
 726 0194 FFF7FEFF 		bl	chEvtRegisterMask
 727              		.loc 1 209 0
 728 0198 FFF7FEFF 		bl	test_wait_tick
 729              		.loc 1 211 0
 730 019c AB69     		ldr	r3, [r5, #24]
 731 019e 9821     		mov	r1, #152
 732 01a0 9A68     		ldr	r2, [r3, #8]
 733 01a2 294B     		ldr	r3, .L25+36
 734              		.loc 1 210 0
 735 01a4 F668     		ldr	r6, [r6, #12]
ARM GAS  C:\Users\Rob\AppData\Local\Temp\cc4fUlqK.s 			page 14


 736              	.LVL44:
 737              		.loc 1 211 0
 738 01a6 013A     		sub	r2, r2, #1
 739 01a8 4900     		lsl	r1, r1, #1
 740 01aa 0093     		str	r3, [sp]
 741 01ac 5046     		mov	r0, sl
 742 01ae 274B     		ldr	r3, .L25+40
 743 01b0 FFF7FEFF 		bl	chThdCreateStatic
 744 01b4 2060     		str	r0, [r4]
 745              		.loc 1 213 0
 746 01b6 0520     		mov	r0, #5
 747 01b8 FFF7FEFF 		bl	chEvtWaitAll
 748              		.loc 1 210 0
 749 01bc 1E4B     		ldr	r3, .L25+20
 750              		.loc 1 214 0
 751 01be 0C20     		mov	r0, #12
 752              		.loc 1 210 0
 753 01c0 F118     		add	r1, r6, r3
 754              		.loc 1 214 0
 755 01c2 1E4B     		ldr	r3, .L25+24
 756 01c4 F218     		add	r2, r6, r3
 757 01c6 FFF7FEFF 		bl	_test_assert_time_window
 758 01ca 0028     		cmp	r0, #0
 759 01cc 00D0     		beq	.LCB540
 760 01ce 2CE7     		b	.L22	@long jump
 761              	.LCB540:
 762              		.loc 1 215 0
 763 01d0 0120     		mov	r0, #1
 764 01d2 4042     		neg	r0, r0
 765 01d4 FFF7FEFF 		bl	chEvtGetAndClearEvents
 766              	.LVL45:
 767              		.loc 1 216 0
 768 01d8 4142     		neg	r1, r0
 769 01da 4141     		adc	r1, r1, r0
 770              	.LVL46:
 771 01dc 0D20     		mov	r0, #13
 772 01de FFF7FEFF 		bl	_test_assert
 773 01e2 0028     		cmp	r0, #0
 774 01e4 00D0     		beq	.LCB552
 775 01e6 20E7     		b	.L22	@long jump
 776              	.LCB552:
 777              		.loc 1 217 0
 778 01e8 FFF7FEFF 		bl	test_wait_threads
 779              		.loc 1 218 0
 780 01ec 381C     		mov	r0, r7
 781 01ee 02A9     		add	r1, sp, #8
 782 01f0 FFF7FEFF 		bl	chEvtUnregister
 783              		.loc 1 219 0
 784 01f4 4046     		mov	r0, r8
 785 01f6 06A9     		add	r1, sp, #24
 786 01f8 FFF7FEFF 		bl	chEvtUnregister
 787              		.loc 1 220 0
 788 01fc 3968     		ldr	r1, [r7]
 789 01fe 0E20     		mov	r0, #14
 790 0200 C91B     		sub	r1, r1, r7
 791 0202 4F42     		neg	r7, r1
 792 0204 7941     		adc	r1, r1, r7
ARM GAS  C:\Users\Rob\AppData\Local\Temp\cc4fUlqK.s 			page 15


 793 0206 FFF7FEFF 		bl	_test_assert
 794 020a 0028     		cmp	r0, #0
 795 020c 00D0     		beq	.LCB568
 796 020e 0CE7     		b	.L22	@long jump
 797              	.LCB568:
 798              		.loc 1 221 0
 799 0210 4246     		mov	r2, r8
 800 0212 1168     		ldr	r1, [r2]
 801 0214 0F20     		mov	r0, #15
 802 0216 891A     		sub	r1, r1, r2
 803 0218 4B42     		neg	r3, r1
 804 021a 5941     		adc	r1, r1, r3
 805 021c FFF7FEFF 		bl	_test_assert
 806 0220 03E7     		b	.L22
 807              	.L26:
 808 0222 C046     		.align	2
 809              	.L25:
 810 0224 00000000 		.word	wa
 811 0228 00000000 		.word	rlist
 812 022c 00000000 		.word	thread1
 813 0230 00000000 		.word	vtlist
 814 0234 00000000 		.word	threads
 815 0238 88130000 		.word	5000
 816 023c 7C150000 		.word	5500
 817 0240 00000000 		.word	.LANCHOR1
 818 0244 00000000 		.word	.LANCHOR0
 819 0248 04000000 		.word	.LC14
 820 024c 00000000 		.word	thread2
 821              	.LBE9:
 822              	.LBE8:
 823              		.cfi_endproc
 824              	.LFE15:
 825              		.size	evt2_execute, .-evt2_execute
 826              		.global	patternevt
 827              		.global	testevt3
 828              		.global	testevt2
 829              		.global	testevt1
 830              		.section	.rodata.patternevt,"a",%progbits
 831              		.align	2
 832              		.type	patternevt, %object
 833              		.size	patternevt, 16
 834              	patternevt:
 835 0000 00000000 		.word	testevt1
 836 0004 00000000 		.word	testevt2
 837 0008 00000000 		.word	testevt3
 838 000c 00000000 		.word	0
 839              		.section	.rodata.testevt2,"a",%progbits
 840              		.align	2
 841              		.type	testevt2, %object
 842              		.size	testevt2, 16
 843              	testevt2:
 844 0000 1C000000 		.word	.LC17
 845 0004 00000000 		.word	evt2_setup
 846 0008 00000000 		.word	0
 847 000c 00000000 		.word	evt2_execute
 848              		.section	.rodata.str1.4,"aMS",%progbits,1
 849              		.align	2
ARM GAS  C:\Users\Rob\AppData\Local\Temp\cc4fUlqK.s 			page 16


 850              	.LC4:
 851 0000 41424300 		.ascii	"ABC\000"
 852              	.LC14:
 853 0004 4100     		.ascii	"A\000"
 854 0006 0000     		.space	2
 855              	.LC16:
 856 0008 4576656E 		.ascii	"Events, timeouts\000"
 856      74732C20 
 856      74696D65 
 856      6F757473 
 856      00
 857 0019 000000   		.space	3
 858              	.LC17:
 859 001c 4576656E 		.ascii	"Events, wait and broadcast\000"
 859      74732C20 
 859      77616974 
 859      20616E64 
 859      2062726F 
 860 0037 00       		.space	1
 861              	.LC18:
 862 0038 4576656E 		.ascii	"Events, registration and dispatch\000"
 862      74732C20 
 862      72656769 
 862      73747261 
 862      74696F6E 
 863 005a 0000     		.section	.rodata.testevt1,"a",%progbits
 864              		.align	2
 865              		.type	testevt1, %object
 866              		.size	testevt1, 16
 867              	testevt1:
 868 0000 38000000 		.word	.LC18
 869 0004 00000000 		.word	evt1_setup
 870 0008 00000000 		.word	0
 871 000c 00000000 		.word	evt1_execute
 872              		.section	.rodata.evhndl,"a",%progbits
 873              		.align	2
 874              		.set	.LANCHOR2,. + 0
 875              		.type	evhndl, %object
 876              		.size	evhndl, 12
 877              	evhndl:
 878 0000 00000000 		.word	h1
 879 0004 00000000 		.word	h2
 880 0008 00000000 		.word	h3
 881              		.section	.rodata.testevt3,"a",%progbits
 882              		.align	2
 883              		.type	testevt3, %object
 884              		.size	testevt3, 16
 885              	testevt3:
 886 0000 08000000 		.word	.LC16
 887 0004 00000000 		.word	evt3_setup
 888 0008 00000000 		.word	0
 889 000c 00000000 		.word	evt3_execute
 890              		.section	.data.es1,"aw",%progbits
 891              		.align	2
 892              		.set	.LANCHOR0,. + 0
 893              		.type	es1, %object
 894              		.size	es1, 4
ARM GAS  C:\Users\Rob\AppData\Local\Temp\cc4fUlqK.s 			page 17


 895              	es1:
 896 0000 00000000 		.word	es1
 897              		.section	.data.es2,"aw",%progbits
 898              		.align	2
 899              		.set	.LANCHOR1,. + 0
 900              		.type	es2, %object
 901              		.size	es2, 4
 902              	es2:
 903 0000 00000000 		.word	es2
 904              		.text
 905              	.Letext0:
 906              		.file 2 "c:/yagarto/lib/gcc/../../arm-none-eabi/sys-include/stdint.h"
 907              		.file 3 "../../os/ports/GCC/ARMCMx/chtypes.h"
 908              		.file 4 "../../os/kernel/include/chlists.h"
 909              		.file 5 "../../os/kernel/include/chthreads.h"
 910              		.file 6 "../../os/ports/GCC/ARMCMx/chcore_v6m.h"
 911              		.file 7 "../../os/kernel/include/chvt.h"
 912              		.file 8 "../../os/kernel/include/chschd.h"
 913              		.file 9 "../../os/kernel/include/chmtx.h"
 914              		.file 10 "../../os/kernel/include/chevents.h"
 915              		.file 11 "../../test/test.h"