ARM GAS  C:\Users\Rob\AppData\Local\Temp\ccqQMFGN.s 			page 1


   1              		.cpu cortex-m0
   2              		.fpu softvfp
   3              		.eabi_attribute 20, 1
   4              		.eabi_attribute 21, 1
   5              		.eabi_attribute 23, 3
   6              		.eabi_attribute 24, 1
   7              		.eabi_attribute 25, 1
   8              		.eabi_attribute 26, 1
   9              		.eabi_attribute 30, 2
  10              		.eabi_attribute 18, 4
  11              		.code	16
  12              		.file	"testsem.c"
  13              		.text
  14              	.Ltext0:
  15              		.cfi_sections	.debug_frame
  16              		.section	.text.sem3_setup,"ax",%progbits
  17              		.align	2
  18              		.p2align 4,,15
  19              		.code	16
  20              		.thumb_func
  21              		.type	sem3_setup, %function
  22              	sem3_setup:
  23              	.LFB13:
  24              		.file 1 "../../test/testsem.c"
  25              		.loc 1 204 0
  26              		.cfi_startproc
  27 0000 08B5     		push	{r3, lr}
  28              	.LCFI0:
  29              		.cfi_def_cfa_offset 8
  30              		.cfi_offset 3, -8
  31              		.cfi_offset 14, -4
  32              		.loc 1 206 0
  33 0002 0248     		ldr	r0, .L2
  34 0004 0021     		mov	r1, #0
  35 0006 FFF7FEFF 		bl	chSemInit
  36              		.loc 1 207 0
  37              		@ sp needed for prologue
  38 000a 08BD     		pop	{r3, pc}
  39              	.L3:
  40              		.align	2
  41              	.L2:
  42 000c 00000000 		.word	.LANCHOR0
  43              		.cfi_endproc
  44              	.LFE13:
  45              		.size	sem3_setup, .-sem3_setup
  46              		.section	.text.sem2_setup,"ax",%progbits
  47              		.align	2
  48              		.p2align 4,,15
  49              		.code	16
  50              		.thumb_func
  51              		.type	sem2_setup, %function
  52              	sem2_setup:
  53              	.LFB10:
  54              		.loc 1 128 0
  55              		.cfi_startproc
  56 0000 08B5     		push	{r3, lr}
  57              	.LCFI1:
ARM GAS  C:\Users\Rob\AppData\Local\Temp\ccqQMFGN.s 			page 2


  58              		.cfi_def_cfa_offset 8
  59              		.cfi_offset 3, -8
  60              		.cfi_offset 14, -4
  61              		.loc 1 130 0
  62 0002 0248     		ldr	r0, .L5
  63 0004 0021     		mov	r1, #0
  64 0006 FFF7FEFF 		bl	chSemInit
  65              		.loc 1 131 0
  66              		@ sp needed for prologue
  67 000a 08BD     		pop	{r3, pc}
  68              	.L6:
  69              		.align	2
  70              	.L5:
  71 000c 00000000 		.word	.LANCHOR0
  72              		.cfi_endproc
  73              	.LFE10:
  74              		.size	sem2_setup, .-sem2_setup
  75              		.section	.text.sem1_setup,"ax",%progbits
  76              		.align	2
  77              		.p2align 4,,15
  78              		.code	16
  79              		.thumb_func
  80              		.type	sem1_setup, %function
  81              	sem1_setup:
  82              	.LFB7:
  83              		.loc 1 72 0
  84              		.cfi_startproc
  85 0000 08B5     		push	{r3, lr}
  86              	.LCFI2:
  87              		.cfi_def_cfa_offset 8
  88              		.cfi_offset 3, -8
  89              		.cfi_offset 14, -4
  90              		.loc 1 74 0
  91 0002 0248     		ldr	r0, .L8
  92 0004 0021     		mov	r1, #0
  93 0006 FFF7FEFF 		bl	chSemInit
  94              		.loc 1 75 0
  95              		@ sp needed for prologue
  96 000a 08BD     		pop	{r3, pc}
  97              	.L9:
  98              		.align	2
  99              	.L8:
 100 000c 00000000 		.word	.LANCHOR0
 101              		.cfi_endproc
 102              	.LFE7:
 103              		.size	sem1_setup, .-sem1_setup
 104              		.section	.text.sem4_execute,"ax",%progbits
 105              		.align	2
 106              		.p2align 4,,15
 107              		.code	16
 108              		.thumb_func
 109              		.type	sem4_execute, %function
 110              	sem4_execute:
 111              	.LFB17:
 112              		.loc 1 251 0
 113              		.cfi_startproc
 114 0000 00B5     		push	{lr}
ARM GAS  C:\Users\Rob\AppData\Local\Temp\ccqQMFGN.s 			page 3


 115              	.LCFI3:
 116              		.cfi_def_cfa_offset 4
 117              		.cfi_offset 14, -4
 118 0002 87B0     		sub	sp, sp, #28
 119              	.LCFI4:
 120              		.cfi_def_cfa_offset 32
 121              		.loc 1 255 0
 122 0004 03A8     		add	r0, sp, #12
 123 0006 0021     		mov	r1, #0
 124 0008 FFF7FEFF 		bl	chSemInit
 125              		.loc 1 256 0
 126 000c 03A8     		add	r0, sp, #12
 127 000e 0021     		mov	r1, #0
 128 0010 FFF7FEFF 		bl	chSemReset
 129              		.loc 1 257 0
 130 0014 059B     		ldr	r3, [sp, #20]
 131 0016 0120     		mov	r0, #1
 132 0018 591E     		sub	r1, r3, #1
 133 001a 0B43     		orr	r3, r1
 134 001c D90F     		lsr	r1, r3, #31
 135 001e FFF7FEFF 		bl	_test_assert
 136 0022 0028     		cmp	r0, #0
 137 0024 01D0     		beq	.L15
 138              	.L10:
 139              		.loc 1 279 0
 140 0026 07B0     		add	sp, sp, #28
 141              		@ sp needed for prologue
 142 0028 00BD     		pop	{pc}
 143              	.L15:
 144              		.loc 1 261 0
 145 002a 2A4B     		ldr	r3, .L18
 146              		.loc 1 260 0
 147 002c 9821     		mov	r1, #152
 148              		.loc 1 261 0
 149 002e 9B69     		ldr	r3, [r3, #24]
 150              		.loc 1 260 0
 151 0030 4900     		lsl	r1, r1, #1
 152 0032 9A68     		ldr	r2, [r3, #8]
 153 0034 03AB     		add	r3, sp, #12
 154 0036 0093     		str	r3, [sp]
 155 0038 274B     		ldr	r3, .L18+4
 156 003a 013A     		sub	r2, r2, #1
 157 003c 1868     		ldr	r0, [r3]
 158 003e 274B     		ldr	r3, .L18+8
 159 0040 FFF7FEFF 		bl	chThdCreateStatic
 160 0044 264B     		ldr	r3, .L18+12
 161 0046 1860     		str	r0, [r3]
 162              		.loc 1 264 0
 163 0048 03A8     		add	r0, sp, #12
 164 004a FFF7FEFF 		bl	chSemWait
 165              		.loc 1 267 0
 166 004e 059B     		ldr	r3, [sp, #20]
 167 0050 0220     		mov	r0, #2
 168 0052 591E     		sub	r1, r3, #1
 169 0054 0B43     		orr	r3, r1
 170 0056 D90F     		lsr	r1, r3, #31
 171 0058 FFF7FEFF 		bl	_test_assert
ARM GAS  C:\Users\Rob\AppData\Local\Temp\ccqQMFGN.s 			page 4


 172 005c 0028     		cmp	r0, #0
 173 005e E2D1     		bne	.L10
 174              		.loc 1 271 0
 175              	@ 271 "../../test/testsem.c" 1
 176 0060 72B6     		cpsid   i
 177              	@ 0 "" 2
 178              		.code	16
 179 0062 059B     		ldr	r3, [sp, #20]
 180 0064 002B     		cmp	r3, #0
 181 0066 30DD     		ble	.L16
 182              	.L12:
 183              		.loc 1 271 0 is_stmt 0 discriminator 2
 184 0068 FFF7FEFF 		bl	chSchRescheduleS
 185              	@ 271 "../../test/testsem.c" 1
 186 006c 62B6     		cpsie   i
 187              	@ 0 "" 2
 188              		.loc 1 272 0 is_stmt 1 discriminator 2
 189              		.code	16
 190 006e 059B     		ldr	r3, [sp, #20]
 191 0070 0320     		mov	r0, #3
 192 0072 D917     		asr	r1, r3, #31
 193 0074 C91A     		sub	r1, r1, r3
 194 0076 C90F     		lsr	r1, r1, #31
 195 0078 FFF7FEFF 		bl	_test_assert
 196 007c 0028     		cmp	r0, #0
 197 007e D2D1     		bne	.L10
 198              		.loc 1 273 0
 199 0080 0599     		ldr	r1, [sp, #20]
 200 0082 0420     		mov	r0, #4
 201 0084 0139     		sub	r1, r1, #1
 202 0086 4B42     		neg	r3, r1
 203 0088 5941     		adc	r1, r1, r3
 204 008a FFF7FEFF 		bl	_test_assert
 205 008e 0028     		cmp	r0, #0
 206 0090 C9D1     		bne	.L10
 207              		.loc 1 276 0
 208              	@ 276 "../../test/testsem.c" 1
 209 0092 72B6     		cpsid   i
 210              	@ 0 "" 2
 211              		.code	16
 212 0094 059B     		ldr	r3, [sp, #20]
 213 0096 002B     		cmp	r3, #0
 214 0098 13DD     		ble	.L17
 215              	.L13:
 216              		.loc 1 276 0 is_stmt 0 discriminator 2
 217 009a FFF7FEFF 		bl	chSchRescheduleS
 218              	@ 276 "../../test/testsem.c" 1
 219 009e 62B6     		cpsie   i
 220              	@ 0 "" 2
 221              		.loc 1 277 0 is_stmt 1 discriminator 2
 222              		.code	16
 223 00a0 059B     		ldr	r3, [sp, #20]
 224 00a2 0320     		mov	r0, #3
 225 00a4 D917     		asr	r1, r3, #31
 226 00a6 C91A     		sub	r1, r1, r3
 227 00a8 C90F     		lsr	r1, r1, #31
 228 00aa FFF7FEFF 		bl	_test_assert
ARM GAS  C:\Users\Rob\AppData\Local\Temp\ccqQMFGN.s 			page 5


 229 00ae 0028     		cmp	r0, #0
 230 00b0 B9D1     		bne	.L10
 231              		.loc 1 278 0
 232 00b2 0599     		ldr	r1, [sp, #20]
 233 00b4 0520     		mov	r0, #5
 234 00b6 0139     		sub	r1, r1, #1
 235 00b8 4B42     		neg	r3, r1
 236 00ba 5941     		adc	r1, r1, r3
 237 00bc FFF7FEFF 		bl	_test_assert
 238 00c0 B1E7     		b	.L10
 239              	.L17:
 240              		.loc 1 276 0 discriminator 1
 241 00c2 03A8     		add	r0, sp, #12
 242 00c4 FFF7FEFF 		bl	chSemSignalI
 243 00c8 E7E7     		b	.L13
 244              	.L16:
 245              		.loc 1 271 0 discriminator 1
 246 00ca 03A8     		add	r0, sp, #12
 247 00cc FFF7FEFF 		bl	chSemSignalI
 248 00d0 CAE7     		b	.L12
 249              	.L19:
 250 00d2 C046     		.align	2
 251              	.L18:
 252 00d4 00000000 		.word	rlist
 253 00d8 00000000 		.word	wa
 254 00dc 00000000 		.word	thread4
 255 00e0 00000000 		.word	threads
 256              		.cfi_endproc
 257              	.LFE17:
 258              		.size	sem4_execute, .-sem4_execute
 259 00e4 C046C046 		.section	.text.thread4,"ax",%progbits
 259      C046C046 
 259      C046C046 
 260              		.align	2
 261              		.p2align 4,,15
 262              		.code	16
 263              		.thumb_func
 264              		.type	thread4, %function
 265              	thread4:
 266              	.LFB16:
 267              		.loc 1 245 0
 268              		.cfi_startproc
 269 0000 08B5     		push	{r3, lr}
 270              	.LCFI5:
 271              		.cfi_def_cfa_offset 8
 272              		.cfi_offset 3, -8
 273              		.cfi_offset 14, -4
 274              	.LVL0:
 275              		.loc 1 247 0
 276              	@ 247 "../../test/testsem.c" 1
 277 0002 72B6     		cpsid   i
 278              	@ 0 "" 2
 279              		.code	16
 280 0004 8368     		ldr	r3, [r0, #8]
 281 0006 002B     		cmp	r3, #0
 282 0008 04DD     		ble	.L22
 283              	.LVL1:
ARM GAS  C:\Users\Rob\AppData\Local\Temp\ccqQMFGN.s 			page 6


 284              	.L21:
 285              		.loc 1 247 0 is_stmt 0 discriminator 2
 286 000a FFF7FEFF 		bl	chSchRescheduleS
 287              	@ 247 "../../test/testsem.c" 1
 288 000e 62B6     		cpsie   i
 289              	@ 0 "" 2
 290              		.loc 1 249 0 is_stmt 1 discriminator 2
 291              		.code	16
 292 0010 0020     		mov	r0, #0
 293              		@ sp needed for prologue
 294 0012 08BD     		pop	{r3, pc}
 295              	.LVL2:
 296              	.L22:
 297              		.loc 1 247 0 discriminator 1
 298 0014 FFF7FEFF 		bl	chSemSignalI
 299              	.LVL3:
 300 0018 F7E7     		b	.L21
 301              		.cfi_endproc
 302              	.LFE16:
 303              		.size	thread4, .-thread4
 304 001a C046C046 		.section	.text.thread3,"ax",%progbits
 304      C046
 305              		.align	2
 306              		.p2align 4,,15
 307              		.code	16
 308              		.thumb_func
 309              		.type	thread3, %function
 310              	thread3:
 311              	.LFB14:
 312              		.loc 1 209 0
 313              		.cfi_startproc
 314 0000 10B5     		push	{r4, lr}
 315              	.LCFI6:
 316              		.cfi_def_cfa_offset 8
 317              		.cfi_offset 4, -8
 318              		.cfi_offset 14, -4
 319              	.LVL4:
 320              		.loc 1 212 0
 321 0002 044C     		ldr	r4, .L24
 322              		.loc 1 215 0
 323              		@ sp needed for prologue
 324              		.loc 1 212 0
 325 0004 201C     		mov	r0, r4
 326              	.LVL5:
 327 0006 FFF7FEFF 		bl	chSemWait
 328              		.loc 1 213 0
 329 000a 201C     		mov	r0, r4
 330 000c FFF7FEFF 		bl	chSemSignal
 331              		.loc 1 215 0
 332 0010 0020     		mov	r0, #0
 333 0012 10BD     		pop	{r4, pc}
 334              	.L25:
 335              		.align	2
 336              	.L24:
 337 0014 00000000 		.word	.LANCHOR0
 338              		.cfi_endproc
 339              	.LFE14:
ARM GAS  C:\Users\Rob\AppData\Local\Temp\ccqQMFGN.s 			page 7


 340              		.size	thread3, .-thread3
 341 0018 C046C046 		.section	.text.thread1,"ax",%progbits
 341      C046C046 
 342              		.align	2
 343              		.p2align 4,,15
 344              		.code	16
 345              		.thumb_func
 346              		.type	thread1, %function
 347              	thread1:
 348              	.LFB8:
 349              		.loc 1 77 0
 350              		.cfi_startproc
 351 0000 10B5     		push	{r4, lr}
 352              	.LCFI7:
 353              		.cfi_def_cfa_offset 8
 354              		.cfi_offset 4, -8
 355              		.cfi_offset 14, -4
 356              	.LVL6:
 357              		.loc 1 77 0
 358 0002 041C     		mov	r4, r0
 359              		.loc 1 79 0
 360 0004 0348     		ldr	r0, .L27
 361              	.LVL7:
 362 0006 FFF7FEFF 		bl	chSemWait
 363              		.loc 1 80 0
 364 000a 2078     		ldrb	r0, [r4]
 365 000c FFF7FEFF 		bl	test_emit_token
 366              		.loc 1 82 0
 367              		@ sp needed for prologue
 368 0010 0020     		mov	r0, #0
 369              	.LVL8:
 370 0012 10BD     		pop	{r4, pc}
 371              	.L28:
 372              		.align	2
 373              	.L27:
 374 0014 00000000 		.word	.LANCHOR0
 375              		.cfi_endproc
 376              	.LFE8:
 377              		.size	thread1, .-thread1
 378 0018 C046C046 		.section	.text.thread2,"ax",%progbits
 378      C046C046 
 379              		.align	2
 380              		.p2align 4,,15
 381              		.code	16
 382              		.thumb_func
 383              		.type	thread2, %function
 384              	thread2:
 385              	.LFB11:
 386              		.loc 1 133 0
 387              		.cfi_startproc
 388 0000 08B5     		push	{r3, lr}
 389              	.LCFI8:
 390              		.cfi_def_cfa_offset 8
 391              		.cfi_offset 3, -8
 392              		.cfi_offset 14, -4
 393              	.LVL9:
 394              		.loc 1 136 0
ARM GAS  C:\Users\Rob\AppData\Local\Temp\ccqQMFGN.s 			page 8


 395 0002 0648     		ldr	r0, .L30
 396              	.LVL10:
 397 0004 FFF7FEFF 		bl	chThdSleep
 398              		.loc 1 137 0
 399              	@ 137 "../../test/testsem.c" 1
 400 0008 72B6     		cpsid   i
 401              	@ 0 "" 2
 402              		.loc 1 138 0
 403              		.code	16
 404 000a 0548     		ldr	r0, .L30+4
 405 000c FFF7FEFF 		bl	chSemSignalI
 406              		.loc 1 139 0
 407 0010 FFF7FEFF 		bl	chSchRescheduleS
 408              		.loc 1 140 0
 409              	@ 140 "../../test/testsem.c" 1
 410 0014 62B6     		cpsie   i
 411              	@ 0 "" 2
 412              		.loc 1 142 0
 413              		.code	16
 414 0016 0020     		mov	r0, #0
 415              		@ sp needed for prologue
 416 0018 08BD     		pop	{r3, pc}
 417              	.L31:
 418 001a C046     		.align	2
 419              	.L30:
 420 001c 88130000 		.word	5000
 421 0020 00000000 		.word	.LANCHOR0
 422              		.cfi_endproc
 423              	.LFE11:
 424              		.size	thread2, .-thread2
 425 0024 C046C046 		.section	.text.sem1_execute,"ax",%progbits
 425      C046C046 
 425      C046C046 
 426              		.align	2
 427              		.p2align 4,,15
 428              		.code	16
 429              		.thumb_func
 430              		.type	sem1_execute, %function
 431              	sem1_execute:
 432              	.LFB9:
 433              		.loc 1 84 0
 434              		.cfi_startproc
 435 0000 F0B5     		push	{r4, r5, r6, r7, lr}
 436              	.LCFI9:
 437              		.cfi_def_cfa_offset 20
 438              		.cfi_offset 4, -20
 439              		.cfi_offset 5, -16
 440              		.cfi_offset 6, -12
 441              		.cfi_offset 7, -8
 442              		.cfi_offset 14, -4
 443 0002 4F46     		mov	r7, r9
 444 0004 4646     		mov	r6, r8
 445 0006 C0B4     		push	{r6, r7}
 446              	.LCFI10:
 447              		.cfi_def_cfa_offset 28
 448              		.cfi_offset 8, -28
 449              		.cfi_offset 9, -24
ARM GAS  C:\Users\Rob\AppData\Local\Temp\ccqQMFGN.s 			page 9


 450              		.loc 1 86 0
 451 0008 3D4C     		ldr	r4, .L34
 452 000a 3E4E     		ldr	r6, .L34+4
 453 000c 2368     		ldr	r3, [r4]
 454 000e 3E4F     		ldr	r7, .L34+8
 455 0010 9946     		mov	r9, r3
 456 0012 B369     		ldr	r3, [r6, #24]
 457              		.loc 1 84 0
 458 0014 83B0     		sub	sp, sp, #12
 459              	.LCFI11:
 460              		.cfi_def_cfa_offset 40
 461              		.loc 1 86 0
 462 0016 9A68     		ldr	r2, [r3, #8]
 463 0018 3C4B     		ldr	r3, .L34+12
 464 001a 9821     		mov	r1, #152
 465 001c 0532     		add	r2, r2, #5
 466 001e 0093     		str	r3, [sp]
 467 0020 4900     		lsl	r1, r1, #1
 468 0022 9846     		mov	r8, r3
 469 0024 4846     		mov	r0, r9
 470 0026 3B1C     		mov	r3, r7
 471 0028 FFF7FEFF 		bl	chThdCreateStatic
 472              		.loc 1 87 0
 473 002c B369     		ldr	r3, [r6, #24]
 474              		.loc 1 86 0
 475 002e 384D     		ldr	r5, .L34+16
 476              		.loc 1 87 0
 477 0030 9A68     		ldr	r2, [r3, #8]
 478 0032 384B     		ldr	r3, .L34+20
 479 0034 9821     		mov	r1, #152
 480              		.loc 1 86 0
 481 0036 2860     		str	r0, [r5]
 482              		.loc 1 87 0
 483 0038 0132     		add	r2, r2, #1
 484 003a 6068     		ldr	r0, [r4, #4]
 485 003c 0093     		str	r3, [sp]
 486 003e 4900     		lsl	r1, r1, #1
 487 0040 3B1C     		mov	r3, r7
 488 0042 FFF7FEFF 		bl	chThdCreateStatic
 489              		.loc 1 88 0
 490 0046 B369     		ldr	r3, [r6, #24]
 491 0048 9821     		mov	r1, #152
 492 004a 9A68     		ldr	r2, [r3, #8]
 493 004c 324B     		ldr	r3, .L34+24
 494              		.loc 1 87 0
 495 004e 6860     		str	r0, [r5, #4]
 496              		.loc 1 88 0
 497 0050 0332     		add	r2, r2, #3
 498 0052 A068     		ldr	r0, [r4, #8]
 499 0054 0093     		str	r3, [sp]
 500 0056 4900     		lsl	r1, r1, #1
 501 0058 3B1C     		mov	r3, r7
 502 005a FFF7FEFF 		bl	chThdCreateStatic
 503              		.loc 1 89 0
 504 005e B369     		ldr	r3, [r6, #24]
 505 0060 9821     		mov	r1, #152
 506 0062 9A68     		ldr	r2, [r3, #8]
ARM GAS  C:\Users\Rob\AppData\Local\Temp\ccqQMFGN.s 			page 10


 507 0064 2D4B     		ldr	r3, .L34+28
 508              		.loc 1 88 0
 509 0066 A860     		str	r0, [r5, #8]
 510              		.loc 1 89 0
 511 0068 0432     		add	r2, r2, #4
 512 006a E068     		ldr	r0, [r4, #12]
 513 006c 0093     		str	r3, [sp]
 514 006e 4900     		lsl	r1, r1, #1
 515 0070 3B1C     		mov	r3, r7
 516 0072 FFF7FEFF 		bl	chThdCreateStatic
 517              		.loc 1 90 0
 518 0076 B369     		ldr	r3, [r6, #24]
 519 0078 9821     		mov	r1, #152
 520 007a 9A68     		ldr	r2, [r3, #8]
 521 007c 284B     		ldr	r3, .L34+32
 522 007e 4900     		lsl	r1, r1, #1
 523 0080 0232     		add	r2, r2, #2
 524              		.loc 1 89 0
 525 0082 E860     		str	r0, [r5, #12]
 526              		.loc 1 90 0
 527 0084 2069     		ldr	r0, [r4, #16]
 528 0086 0093     		str	r3, [sp]
 529 0088 3B1C     		mov	r3, r7
 530 008a FFF7FEFF 		bl	chThdCreateStatic
 531              		.loc 1 91 0
 532 008e 254C     		ldr	r4, .L34+36
 533              		.loc 1 90 0
 534 0090 2861     		str	r0, [r5, #16]
 535              		.loc 1 91 0
 536 0092 201C     		mov	r0, r4
 537 0094 FFF7FEFF 		bl	chSemSignal
 538              		.loc 1 92 0
 539 0098 201C     		mov	r0, r4
 540 009a FFF7FEFF 		bl	chSemSignal
 541              		.loc 1 93 0
 542 009e 201C     		mov	r0, r4
 543 00a0 FFF7FEFF 		bl	chSemSignal
 544              		.loc 1 94 0
 545 00a4 201C     		mov	r0, r4
 546 00a6 FFF7FEFF 		bl	chSemSignal
 547              		.loc 1 95 0
 548 00aa 201C     		mov	r0, r4
 549 00ac FFF7FEFF 		bl	chSemSignal
 550              		.loc 1 96 0
 551 00b0 FFF7FEFF 		bl	test_wait_threads
 552              		.loc 1 100 0
 553 00b4 0120     		mov	r0, #1
 554 00b6 1C49     		ldr	r1, .L34+40
 555 00b8 FFF7FEFF 		bl	_test_assert_sequence
 556 00bc 0028     		cmp	r0, #0
 557 00be 1AD1     		bne	.L32
 558              		.loc 1 102 0
 559 00c0 B369     		ldr	r3, [r6, #24]
 560 00c2 9821     		mov	r1, #152
 561 00c4 9A68     		ldr	r2, [r3, #8]
 562 00c6 4346     		mov	r3, r8
 563 00c8 0093     		str	r3, [sp]
ARM GAS  C:\Users\Rob\AppData\Local\Temp\ccqQMFGN.s 			page 11


 564 00ca 0532     		add	r2, r2, #5
 565 00cc 4846     		mov	r0, r9
 566 00ce 4900     		lsl	r1, r1, #1
 567 00d0 3B1C     		mov	r3, r7
 568 00d2 FFF7FEFF 		bl	chThdCreateStatic
 569 00d6 2860     		str	r0, [r5]
 570              		.loc 1 103 0
 571              	@ 103 "../../test/testsem.c" 1
 572 00d8 72B6     		cpsid   i
 573              	@ 0 "" 2
 574              		.loc 1 104 0
 575              		.code	16
 576 00da 0221     		mov	r1, #2
 577 00dc 201C     		mov	r0, r4
 578 00de FFF7FEFF 		bl	chSemAddCounterI
 579              		.loc 1 105 0
 580              	@ 105 "../../test/testsem.c" 1
 581 00e2 62B6     		cpsie   i
 582              	@ 0 "" 2
 583              		.loc 1 106 0
 584              		.code	16
 585 00e4 FFF7FEFF 		bl	test_wait_threads
 586              		.loc 1 107 0
 587 00e8 A168     		ldr	r1, [r4, #8]
 588 00ea 0220     		mov	r0, #2
 589 00ec 0139     		sub	r1, r1, #1
 590 00ee 4B42     		neg	r3, r1
 591 00f0 5941     		adc	r1, r1, r3
 592 00f2 FFF7FEFF 		bl	_test_assert
 593              	.L32:
 594              		.loc 1 108 0
 595 00f6 03B0     		add	sp, sp, #12
 596              		@ sp needed for prologue
 597 00f8 0CBC     		pop	{r2, r3}
 598 00fa 9046     		mov	r8, r2
 599 00fc 9946     		mov	r9, r3
 600 00fe F0BD     		pop	{r4, r5, r6, r7, pc}
 601              	.L35:
 602              		.align	2
 603              	.L34:
 604 0100 00000000 		.word	wa
 605 0104 00000000 		.word	rlist
 606 0108 00000000 		.word	thread1
 607 010c 00000000 		.word	.LC13
 608 0110 00000000 		.word	threads
 609 0114 04000000 		.word	.LC16
 610 0118 08000000 		.word	.LC18
 611 011c 0C000000 		.word	.LC20
 612 0120 10000000 		.word	.LC22
 613 0124 00000000 		.word	.LANCHOR0
 614 0128 14000000 		.word	.LC25
 615              		.cfi_endproc
 616              	.LFE9:
 617              		.size	sem1_execute, .-sem1_execute
 618 012c C046C046 		.section	.text.sem3_execute,"ax",%progbits
 619              		.align	2
 620              		.p2align 4,,15
ARM GAS  C:\Users\Rob\AppData\Local\Temp\ccqQMFGN.s 			page 12


 621              		.code	16
 622              		.thumb_func
 623              		.type	sem3_execute, %function
 624              	sem3_execute:
 625              	.LFB15:
 626              		.loc 1 217 0
 627              		.cfi_startproc
 628 0000 10B5     		push	{r4, lr}
 629              	.LCFI12:
 630              		.cfi_def_cfa_offset 8
 631              		.cfi_offset 4, -8
 632              		.cfi_offset 14, -4
 633              		.loc 1 219 0
 634 0002 1E4B     		ldr	r3, .L39
 635              		.loc 1 217 0
 636 0004 82B0     		sub	sp, sp, #8
 637              	.LCFI13:
 638              		.cfi_def_cfa_offset 16
 639              		.loc 1 219 0
 640 0006 9B69     		ldr	r3, [r3, #24]
 641 0008 9821     		mov	r1, #152
 642 000a 9A68     		ldr	r2, [r3, #8]
 643 000c 0023     		mov	r3, #0
 644 000e 0093     		str	r3, [sp]
 645 0010 1B4B     		ldr	r3, .L39+4
 646 0012 0132     		add	r2, r2, #1
 647 0014 1868     		ldr	r0, [r3]
 648 0016 4900     		lsl	r1, r1, #1
 649 0018 1A4B     		ldr	r3, .L39+8
 650 001a FFF7FEFF 		bl	chThdCreateStatic
 651              		.loc 1 220 0
 652 001e 1A4C     		ldr	r4, .L39+12
 653              		.loc 1 219 0
 654 0020 1A4B     		ldr	r3, .L39+16
 655              		.loc 1 220 0
 656 0022 211C     		mov	r1, r4
 657              		.loc 1 219 0
 658 0024 1860     		str	r0, [r3]
 659              		.loc 1 220 0
 660 0026 201C     		mov	r0, r4
 661 0028 FFF7FEFF 		bl	chSemSignalWait
 662              		.loc 1 221 0
 663 002c 2168     		ldr	r1, [r4]
 664 002e 0120     		mov	r0, #1
 665 0030 091B     		sub	r1, r1, r4
 666 0032 4B42     		neg	r3, r1
 667 0034 5941     		adc	r1, r1, r3
 668 0036 FFF7FEFF 		bl	_test_assert
 669 003a 0028     		cmp	r0, #0
 670 003c 01D0     		beq	.L38
 671              	.L36:
 672              		.loc 1 227 0
 673 003e 02B0     		add	sp, sp, #8
 674              		@ sp needed for prologue
 675 0040 10BD     		pop	{r4, pc}
 676              	.L38:
 677              		.loc 1 222 0
ARM GAS  C:\Users\Rob\AppData\Local\Temp\ccqQMFGN.s 			page 13


 678 0042 A168     		ldr	r1, [r4, #8]
 679 0044 0220     		mov	r0, #2
 680 0046 4B42     		neg	r3, r1
 681 0048 5941     		adc	r1, r1, r3
 682 004a FFF7FEFF 		bl	_test_assert
 683 004e 0028     		cmp	r0, #0
 684 0050 F5D1     		bne	.L36
 685              	.LBB4:
 686              	.LBB5:
 687              		.loc 1 224 0
 688 0052 211C     		mov	r1, r4
 689 0054 201C     		mov	r0, r4
 690 0056 FFF7FEFF 		bl	chSemSignalWait
 691              		.loc 1 225 0
 692 005a 2168     		ldr	r1, [r4]
 693 005c 0320     		mov	r0, #3
 694 005e 091B     		sub	r1, r1, r4
 695 0060 4B42     		neg	r3, r1
 696 0062 5941     		adc	r1, r1, r3
 697 0064 FFF7FEFF 		bl	_test_assert
 698 0068 0028     		cmp	r0, #0
 699 006a E8D1     		bne	.L36
 700              		.loc 1 226 0
 701 006c A168     		ldr	r1, [r4, #8]
 702 006e 0420     		mov	r0, #4
 703 0070 4B42     		neg	r3, r1
 704 0072 5941     		adc	r1, r1, r3
 705 0074 FFF7FEFF 		bl	_test_assert
 706 0078 E1E7     		b	.L36
 707              	.L40:
 708 007a C046     		.align	2
 709              	.L39:
 710 007c 00000000 		.word	rlist
 711 0080 00000000 		.word	wa
 712 0084 00000000 		.word	thread3
 713 0088 00000000 		.word	.LANCHOR0
 714 008c 00000000 		.word	threads
 715              	.LBE5:
 716              	.LBE4:
 717              		.cfi_endproc
 718              	.LFE15:
 719              		.size	sem3_execute, .-sem3_execute
 720              		.section	.text.sem2_execute,"ax",%progbits
 721              		.align	2
 722              		.p2align 4,,15
 723              		.code	16
 724              		.thumb_func
 725              		.type	sem2_execute, %function
 726              	sem2_execute:
 727              	.LFB12:
 728              		.loc 1 144 0
 729              		.cfi_startproc
 730 0000 70B5     		push	{r4, r5, r6, lr}
 731              	.LCFI14:
 732              		.cfi_def_cfa_offset 16
 733              		.cfi_offset 4, -16
 734              		.cfi_offset 5, -12
ARM GAS  C:\Users\Rob\AppData\Local\Temp\ccqQMFGN.s 			page 14


 735              		.cfi_offset 6, -8
 736              		.cfi_offset 14, -4
 737              		.loc 1 152 0
 738 0002 434C     		ldr	r4, .L46
 739 0004 0021     		mov	r1, #0
 740              		.loc 1 144 0
 741 0006 82B0     		sub	sp, sp, #8
 742              	.LCFI15:
 743              		.cfi_def_cfa_offset 24
 744              		.loc 1 152 0
 745 0008 201C     		mov	r0, r4
 746 000a FFF7FEFF 		bl	chSemWaitTimeout
 747              	.LVL11:
 748              		.loc 1 153 0
 749 000e 411C     		add	r1, r0, #1
 750 0010 4B42     		neg	r3, r1
 751 0012 5941     		adc	r1, r1, r3
 752 0014 0120     		mov	r0, #1
 753              	.LVL12:
 754 0016 FFF7FEFF 		bl	_test_assert
 755 001a 0028     		cmp	r0, #0
 756 001c 01D0     		beq	.L45
 757              	.L41:
 758              		.loc 1 182 0
 759 001e 02B0     		add	sp, sp, #8
 760              		@ sp needed for prologue
 761 0020 70BD     		pop	{r4, r5, r6, pc}
 762              	.L45:
 763              		.loc 1 154 0
 764 0022 2168     		ldr	r1, [r4]
 765 0024 0220     		mov	r0, #2
 766 0026 091B     		sub	r1, r1, r4
 767 0028 4B42     		neg	r3, r1
 768 002a 5941     		adc	r1, r1, r3
 769 002c FFF7FEFF 		bl	_test_assert
 770 0030 0028     		cmp	r0, #0
 771 0032 F4D1     		bne	.L41
 772              		.loc 1 155 0
 773 0034 A168     		ldr	r1, [r4, #8]
 774 0036 0320     		mov	r0, #3
 775 0038 4B42     		neg	r3, r1
 776 003a 5941     		adc	r1, r1, r3
 777 003c FFF7FEFF 		bl	_test_assert
 778 0040 0028     		cmp	r0, #0
 779 0042 ECD1     		bne	.L41
 780              	.LBB8:
 781              	.LBB9:
 782              		.loc 1 160 0
 783 0044 334B     		ldr	r3, .L46+4
 784 0046 9821     		mov	r1, #152
 785 0048 9B69     		ldr	r3, [r3, #24]
 786 004a 4900     		lsl	r1, r1, #1
 787 004c 9A68     		ldr	r2, [r3, #8]
 788 004e 324B     		ldr	r3, .L46+8
 789 0050 013A     		sub	r2, r2, #1
 790 0052 0090     		str	r0, [sp]
 791 0054 1868     		ldr	r0, [r3]
ARM GAS  C:\Users\Rob\AppData\Local\Temp\ccqQMFGN.s 			page 15


 792 0056 314B     		ldr	r3, .L46+12
 793 0058 FFF7FEFF 		bl	chThdCreateStatic
 794 005c 304B     		ldr	r3, .L46+16
 795              		.loc 1 162 0
 796 005e 3149     		ldr	r1, .L46+20
 797              		.loc 1 160 0
 798 0060 1860     		str	r0, [r3]
 799              		.loc 1 162 0
 800 0062 201C     		mov	r0, r4
 801 0064 FFF7FEFF 		bl	chSemWaitTimeout
 802 0068 051C     		mov	r5, r0
 803              	.LVL13:
 804              		.loc 1 163 0
 805 006a FFF7FEFF 		bl	test_wait_threads
 806              	.LVL14:
 807              		.loc 1 164 0
 808 006e 6942     		neg	r1, r5
 809 0070 6941     		adc	r1, r1, r5
 810              	.LVL15:
 811 0072 0420     		mov	r0, #4
 812 0074 FFF7FEFF 		bl	_test_assert
 813 0078 0028     		cmp	r0, #0
 814 007a D0D1     		bne	.L41
 815              		.loc 1 165 0
 816 007c 2168     		ldr	r1, [r4]
 817 007e 0520     		mov	r0, #5
 818 0080 091B     		sub	r1, r1, r4
 819 0082 4B42     		neg	r3, r1
 820 0084 5941     		adc	r1, r1, r3
 821 0086 FFF7FEFF 		bl	_test_assert
 822 008a 0028     		cmp	r0, #0
 823 008c C7D1     		bne	.L41
 824              		.loc 1 166 0
 825 008e A168     		ldr	r1, [r4, #8]
 826 0090 0620     		mov	r0, #6
 827 0092 4B42     		neg	r3, r1
 828 0094 5941     		adc	r1, r1, r3
 829 0096 FFF7FEFF 		bl	_test_assert
 830 009a 0028     		cmp	r0, #0
 831 009c BFD1     		bne	.L41
 832              		.loc 1 171 0
 833 009e FFF7FEFF 		bl	test_wait_tick
 834              		.loc 1 172 0
 835 00a2 214B     		ldr	r3, .L46+24
 836 00a4 4125     		mov	r5, #65
 837 00a6 DE68     		ldr	r6, [r3, #12]
 838              	.LVL16:
 839              	.L43:
 840              		.loc 1 174 0
 841 00a8 281C     		mov	r0, r5
 842 00aa FFF7FEFF 		bl	test_emit_token
 843              		.loc 1 175 0
 844 00ae 1D49     		ldr	r1, .L46+20
 845 00b0 201C     		mov	r0, r4
 846 00b2 FFF7FEFF 		bl	chSemWaitTimeout
 847              	.LVL17:
 848              		.loc 1 176 0
ARM GAS  C:\Users\Rob\AppData\Local\Temp\ccqQMFGN.s 			page 16


 849 00b6 411C     		add	r1, r0, #1
 850 00b8 4B42     		neg	r3, r1
 851 00ba 5941     		adc	r1, r1, r3
 852 00bc 0720     		mov	r0, #7
 853              	.LVL18:
 854 00be FFF7FEFF 		bl	_test_assert
 855 00c2 0028     		cmp	r0, #0
 856 00c4 ABD1     		bne	.L41
 857              		.loc 1 177 0
 858 00c6 2168     		ldr	r1, [r4]
 859 00c8 0820     		mov	r0, #8
 860 00ca 091B     		sub	r1, r1, r4
 861 00cc 4B42     		neg	r3, r1
 862 00ce 5941     		adc	r1, r1, r3
 863 00d0 FFF7FEFF 		bl	_test_assert
 864 00d4 0028     		cmp	r0, #0
 865 00d6 A2D1     		bne	.L41
 866              		.loc 1 178 0
 867 00d8 A168     		ldr	r1, [r4, #8]
 868 00da 0920     		mov	r0, #9
 869 00dc 4B42     		neg	r3, r1
 870 00de 5941     		adc	r1, r1, r3
 871 00e0 FFF7FEFF 		bl	_test_assert
 872 00e4 0028     		cmp	r0, #0
 873 00e6 9AD1     		bne	.L41
 874 00e8 0135     		add	r5, r5, #1
 875 00ea EDB2     		uxtb	r5, r5
 876              		.loc 1 173 0
 877 00ec 462D     		cmp	r5, #70
 878 00ee DBD1     		bne	.L43
 879              		.loc 1 180 0
 880 00f0 0A20     		mov	r0, #10
 881 00f2 0E49     		ldr	r1, .L46+28
 882 00f4 FFF7FEFF 		bl	_test_assert_sequence
 883 00f8 0028     		cmp	r0, #0
 884 00fa 00D0     		beq	.LCB655
 885 00fc 8FE7     		b	.L41	@long jump
 886              	.LCB655:
 887              		.loc 1 172 0
 888 00fe 0C4B     		ldr	r3, .L46+32
 889              		.loc 1 181 0
 890 0100 0B20     		mov	r0, #11
 891              		.loc 1 172 0
 892 0102 F118     		add	r1, r6, r3
 893              		.loc 1 181 0
 894 0104 0B4B     		ldr	r3, .L46+36
 895 0106 F218     		add	r2, r6, r3
 896 0108 FFF7FEFF 		bl	_test_assert_time_window
 897 010c 87E7     		b	.L41
 898              	.L47:
 899 010e C046     		.align	2
 900              	.L46:
 901 0110 00000000 		.word	.LANCHOR0
 902 0114 00000000 		.word	rlist
 903 0118 00000000 		.word	wa
 904 011c 00000000 		.word	thread2
 905 0120 00000000 		.word	threads
ARM GAS  C:\Users\Rob\AppData\Local\Temp\ccqQMFGN.s 			page 17


 906 0124 50C30000 		.word	50000
 907 0128 00000000 		.word	vtlist
 908 012c 14000000 		.word	.LC25
 909 0130 90D00300 		.word	250000
 910 0134 84D20300 		.word	250500
 911              	.LBE9:
 912              	.LBE8:
 913              		.cfi_endproc
 914              	.LFE12:
 915              		.size	sem2_execute, .-sem2_execute
 916              		.global	patternsem
 917              		.global	testsem4
 918              		.global	testsem3
 919              		.global	testsem2
 920              		.global	testsem1
 921 0138 C046C046 		.section	.rodata.testsem1,"a",%progbits
 921      C046C046 
 922              		.align	2
 923              		.type	testsem1, %object
 924              		.size	testsem1, 16
 925              	testsem1:
 926 0000 74000000 		.word	.LC42
 927 0004 00000000 		.word	sem1_setup
 928 0008 00000000 		.word	0
 929 000c 00000000 		.word	sem1_execute
 930              		.section	.rodata.testsem2,"a",%progbits
 931              		.align	2
 932              		.type	testsem2, %object
 933              		.size	testsem2, 16
 934              	testsem2:
 935 0000 60000000 		.word	.LC41
 936 0004 00000000 		.word	sem2_setup
 937 0008 00000000 		.word	0
 938 000c 00000000 		.word	sem2_execute
 939              		.section	.rodata.testsem3,"a",%progbits
 940              		.align	2
 941              		.type	testsem3, %object
 942              		.size	testsem3, 16
 943              	testsem3:
 944 0000 40000000 		.word	.LC40
 945 0004 00000000 		.word	sem3_setup
 946 0008 00000000 		.word	0
 947 000c 00000000 		.word	sem3_execute
 948              		.section	.rodata.testsem4,"a",%progbits
 949              		.align	2
 950              		.type	testsem4, %object
 951              		.size	testsem4, 16
 952              	testsem4:
 953 0000 1C000000 		.word	.LC39
 954 0004 00000000 		.word	0
 955 0008 00000000 		.word	0
 956 000c 00000000 		.word	sem4_execute
 957              		.section	.data.sem1,"aw",%progbits
 958              		.align	2
 959              		.set	.LANCHOR0,. + 0
 960              		.type	sem1, %object
 961              		.size	sem1, 12
ARM GAS  C:\Users\Rob\AppData\Local\Temp\ccqQMFGN.s 			page 18


 962              	sem1:
 963 0000 00000000 		.word	sem1
 964 0004 00000000 		.word	sem1
 965 0008 00000000 		.word	0
 966              		.section	.rodata.patternsem,"a",%progbits
 967              		.align	2
 968              		.type	patternsem, %object
 969              		.size	patternsem, 20
 970              	patternsem:
 971 0000 00000000 		.word	testsem1
 972 0004 00000000 		.word	testsem2
 973 0008 00000000 		.word	testsem3
 974 000c 00000000 		.word	testsem4
 975 0010 00000000 		.word	0
 976              		.section	.rodata.str1.4,"aMS",%progbits,1
 977              		.align	2
 978              	.LC13:
 979 0000 4100     		.ascii	"A\000"
 980 0002 0000     		.space	2
 981              	.LC16:
 982 0004 4200     		.ascii	"B\000"
 983 0006 0000     		.space	2
 984              	.LC18:
 985 0008 4300     		.ascii	"C\000"
 986 000a 0000     		.space	2
 987              	.LC20:
 988 000c 4400     		.ascii	"D\000"
 989 000e 0000     		.space	2
 990              	.LC22:
 991 0010 4500     		.ascii	"E\000"
 992 0012 0000     		.space	2
 993              	.LC25:
 994 0014 41424344 		.ascii	"ABCDE\000"
 994      4500
 995 001a 0000     		.space	2
 996              	.LC39:
 997 001c 42696E61 		.ascii	"Binary Semaphores, functionality\000"
 997      72792053 
 997      656D6170 
 997      686F7265 
 997      732C2066 
 998 003d 000000   		.space	3
 999              	.LC40:
 1000 0040 53656D61 		.ascii	"Semaphores, atomic signal-wait\000"
 1000      70686F72 
 1000      65732C20 
 1000      61746F6D 
 1000      69632073 
 1001 005f 00       		.space	1
 1002              	.LC41:
 1003 0060 53656D61 		.ascii	"Semaphores, timeout\000"
 1003      70686F72 
 1003      65732C20 
 1003      74696D65 
 1003      6F757400 
 1004              	.LC42:
 1005 0074 53656D61 		.ascii	"Semaphores, enqueuing\000"
ARM GAS  C:\Users\Rob\AppData\Local\Temp\ccqQMFGN.s 			page 19


 1005      70686F72 
 1005      65732C20 
 1005      656E7175 
 1005      6575696E 
 1006 008a 0000     		.text
 1007              	.Letext0:
 1008              		.file 2 "c:/yagarto/lib/gcc/../../arm-none-eabi/sys-include/stdint.h"
 1009              		.file 3 "../../os/ports/GCC/ARMCMx/chtypes.h"
 1010              		.file 4 "../../os/kernel/include/chlists.h"
 1011              		.file 5 "../../os/kernel/include/chthreads.h"
 1012              		.file 6 "../../os/ports/GCC/ARMCMx/chcore_v6m.h"
 1013              		.file 7 "../../os/kernel/include/chvt.h"
 1014              		.file 8 "../../os/kernel/include/chschd.h"
 1015              		.file 9 "../../os/kernel/include/chsem.h"
 1016              		.file 10 "../../os/kernel/include/chbsem.h"
 1017              		.file 11 "../../os/kernel/include/chmtx.h"
 1018              		.file 12 "../../test/test.h"
 1019              		.section	.debug_info,"",%progbits
 1020              	.Ldebug_info0:
 1021 0000 C6080000 		.4byte	0x8c6
 1022 0004 0200     		.2byte	0x2
 1023 0006 00000000 		.4byte	.Ldebug_abbrev0
 1024 000a 04       		.byte	0x4
 1025 000b 01       		.uleb128 0x1
 1026 000c 2B030000 		.4byte	.LASF101
 1027 0010 01       		.byte	0x1
 1028 0011 99020000 		.4byte	.LASF102
 1029 0015 46000000 		.4byte	.LASF103
 1030 0019 00000000 		.4byte	0
 1031 001d 00000000 		.4byte	0
 1032 0021 00000000 		.4byte	.Ldebug_ranges0+0
 1033 0025 00000000 		.4byte	.Ldebug_line0
 1034 0029 02       		.uleb128 0x2
 1035 002a 04       		.byte	0x4
 1036 002b 05       		.byte	0x5
 1037 002c 696E7400 		.ascii	"int\000"
 1038 0030 03       		.uleb128 0x3
 1039 0031 04       		.byte	0x4
 1040 0032 07       		.byte	0x7
 1041 0033 14010000 		.4byte	.LASF0
 1042 0037 03       		.uleb128 0x3
 1043 0038 01       		.byte	0x1
 1044 0039 06       		.byte	0x6
 1045 003a 87000000 		.4byte	.LASF1
 1046 003e 04       		.uleb128 0x4
 1047 003f BD030000 		.4byte	.LASF5
 1048 0043 02       		.byte	0x2
 1049 0044 2A       		.byte	0x2a
 1050 0045 49000000 		.4byte	0x49
 1051 0049 03       		.uleb128 0x3
 1052 004a 01       		.byte	0x1
 1053 004b 08       		.byte	0x8
 1054 004c 81020000 		.4byte	.LASF2
 1055 0050 03       		.uleb128 0x3
 1056 0051 02       		.byte	0x2
 1057 0052 05       		.byte	0x5
 1058 0053 C6010000 		.4byte	.LASF3
ARM GAS  C:\Users\Rob\AppData\Local\Temp\ccqQMFGN.s 			page 20


 1059 0057 03       		.uleb128 0x3
 1060 0058 02       		.byte	0x2
 1061 0059 07       		.byte	0x7
 1062 005a 88010000 		.4byte	.LASF4
 1063 005e 04       		.uleb128 0x4
 1064 005f 79020000 		.4byte	.LASF6
 1065 0063 02       		.byte	0x2
 1066 0064 4F       		.byte	0x4f
 1067 0065 69000000 		.4byte	0x69
 1068 0069 03       		.uleb128 0x3
 1069 006a 04       		.byte	0x4
 1070 006b 05       		.byte	0x5
 1071 006c C2000000 		.4byte	.LASF7
 1072 0070 04       		.uleb128 0x4
 1073 0071 0D030000 		.4byte	.LASF8
 1074 0075 02       		.byte	0x2
 1075 0076 50       		.byte	0x50
 1076 0077 7B000000 		.4byte	0x7b
 1077 007b 03       		.uleb128 0x3
 1078 007c 04       		.byte	0x4
 1079 007d 07       		.byte	0x7
 1080 007e 5A010000 		.4byte	.LASF9
 1081 0082 03       		.uleb128 0x3
 1082 0083 08       		.byte	0x8
 1083 0084 05       		.byte	0x5
 1084 0085 79000000 		.4byte	.LASF10
 1085 0089 03       		.uleb128 0x3
 1086 008a 08       		.byte	0x8
 1087 008b 07       		.byte	0x7
 1088 008c 1F000000 		.4byte	.LASF11
 1089 0090 03       		.uleb128 0x3
 1090 0091 01       		.byte	0x1
 1091 0092 02       		.byte	0x2
 1092 0093 73020000 		.4byte	.LASF12
 1093 0097 04       		.uleb128 0x4
 1094 0098 A6010000 		.4byte	.LASF13
 1095 009c 03       		.byte	0x3
 1096 009d 25       		.byte	0x25
 1097 009e 3E000000 		.4byte	0x3e
 1098 00a2 04       		.uleb128 0x4
 1099 00a3 D7000000 		.4byte	.LASF14
 1100 00a7 03       		.byte	0x3
 1101 00a8 26       		.byte	0x26
 1102 00a9 3E000000 		.4byte	0x3e
 1103 00ad 04       		.uleb128 0x4
 1104 00ae 54020000 		.4byte	.LASF15
 1105 00b2 03       		.byte	0x3
 1106 00b3 27       		.byte	0x27
 1107 00b4 3E000000 		.4byte	0x3e
 1108 00b8 04       		.uleb128 0x4
 1109 00b9 AB000000 		.4byte	.LASF16
 1110 00bd 03       		.byte	0x3
 1111 00be 28       		.byte	0x28
 1112 00bf 3E000000 		.4byte	0x3e
 1113 00c3 04       		.uleb128 0x4
 1114 00c4 6B020000 		.4byte	.LASF17
 1115 00c8 03       		.byte	0x3
ARM GAS  C:\Users\Rob\AppData\Local\Temp\ccqQMFGN.s 			page 21


 1116 00c9 29       		.byte	0x29
 1117 00ca 70000000 		.4byte	0x70
 1118 00ce 04       		.uleb128 0x4
 1119 00cf A0010000 		.4byte	.LASF18
 1120 00d3 03       		.byte	0x3
 1121 00d4 2A       		.byte	0x2a
 1122 00d5 5E000000 		.4byte	0x5e
 1123 00d9 04       		.uleb128 0x4
 1124 00da BA010000 		.4byte	.LASF19
 1125 00de 03       		.byte	0x3
 1126 00df 2C       		.byte	0x2c
 1127 00e0 70000000 		.4byte	0x70
 1128 00e4 04       		.uleb128 0x4
 1129 00e5 53030000 		.4byte	.LASF20
 1130 00e9 03       		.byte	0x3
 1131 00ea 2E       		.byte	0x2e
 1132 00eb 70000000 		.4byte	0x70
 1133 00ef 04       		.uleb128 0x4
 1134 00f0 0E010000 		.4byte	.LASF21
 1135 00f4 03       		.byte	0x3
 1136 00f5 2F       		.byte	0x2f
 1137 00f6 5E000000 		.4byte	0x5e
 1138 00fa 04       		.uleb128 0x4
 1139 00fb E5020000 		.4byte	.LASF22
 1140 00ff 04       		.byte	0x4
 1141 0100 23       		.byte	0x23
 1142 0101 05010000 		.4byte	0x105
 1143 0105 05       		.uleb128 0x5
 1144 0106 E5020000 		.4byte	.LASF22
 1145 010a 48       		.byte	0x48
 1146 010b 05       		.byte	0x5
 1147 010c 57       		.byte	0x57
 1148 010d 2A020000 		.4byte	0x22a
 1149 0111 06       		.uleb128 0x6
 1150 0112 D6020000 		.4byte	.LASF23
 1151 0116 05       		.byte	0x5
 1152 0117 58       		.byte	0x58
 1153 0118 4F020000 		.4byte	0x24f
 1154 011c 02       		.byte	0x2
 1155 011d 23       		.byte	0x23
 1156 011e 00       		.uleb128 0
 1157 011f 06       		.uleb128 0x6
 1158 0120 5C020000 		.4byte	.LASF24
 1159 0124 05       		.byte	0x5
 1160 0125 5A       		.byte	0x5a
 1161 0126 4F020000 		.4byte	0x24f
 1162 012a 02       		.byte	0x2
 1163 012b 23       		.byte	0x23
 1164 012c 04       		.uleb128 0x4
 1165 012d 06       		.uleb128 0x6
 1166 012e 3F000000 		.4byte	.LASF25
 1167 0132 05       		.byte	0x5
 1168 0133 5C       		.byte	0x5c
 1169 0134 C3000000 		.4byte	0xc3
 1170 0138 02       		.byte	0x2
 1171 0139 23       		.byte	0x23
 1172 013a 08       		.uleb128 0x8
ARM GAS  C:\Users\Rob\AppData\Local\Temp\ccqQMFGN.s 			page 22


 1173 013b 06       		.uleb128 0x6
 1174 013c F4030000 		.4byte	.LASF26
 1175 0140 05       		.byte	0x5
 1176 0141 5D       		.byte	0x5d
 1177 0142 13030000 		.4byte	0x313
 1178 0146 02       		.byte	0x2
 1179 0147 23       		.byte	0x23
 1180 0148 0C       		.uleb128 0xc
 1181 0149 06       		.uleb128 0x6
 1182 014a E0000000 		.4byte	.LASF27
 1183 014e 05       		.byte	0x5
 1184 014f 5F       		.byte	0x5f
 1185 0150 4F020000 		.4byte	0x24f
 1186 0154 02       		.byte	0x2
 1187 0155 23       		.byte	0x23
 1188 0156 10       		.uleb128 0x10
 1189 0157 06       		.uleb128 0x6
 1190 0158 FE010000 		.4byte	.LASF28
 1191 015c 05       		.byte	0x5
 1192 015d 60       		.byte	0x60
 1193 015e 4F020000 		.4byte	0x24f
 1194 0162 02       		.byte	0x2
 1195 0163 23       		.byte	0x23
 1196 0164 14       		.uleb128 0x14
 1197 0165 06       		.uleb128 0x6
 1198 0166 CC030000 		.4byte	.LASF29
 1199 016a 05       		.byte	0x5
 1200 016b 67       		.byte	0x67
 1201 016c 41050000 		.4byte	0x541
 1202 0170 02       		.byte	0x2
 1203 0171 23       		.byte	0x23
 1204 0172 18       		.uleb128 0x18
 1205 0173 06       		.uleb128 0x6
 1206 0174 AE020000 		.4byte	.LASF30
 1207 0178 05       		.byte	0x5
 1208 0179 72       		.byte	0x72
 1209 017a A2000000 		.4byte	0xa2
 1210 017e 02       		.byte	0x2
 1211 017f 23       		.byte	0x23
 1212 0180 1C       		.uleb128 0x1c
 1213 0181 06       		.uleb128 0x6
 1214 0182 DD020000 		.4byte	.LASF31
 1215 0186 05       		.byte	0x5
 1216 0187 76       		.byte	0x76
 1217 0188 97000000 		.4byte	0x97
 1218 018c 02       		.byte	0x2
 1219 018d 23       		.byte	0x23
 1220 018e 1D       		.uleb128 0x1d
 1221 018f 06       		.uleb128 0x6
 1222 0190 A6030000 		.4byte	.LASF32
 1223 0194 05       		.byte	0x5
 1224 0195 7B       		.byte	0x7b
 1225 0196 AD000000 		.4byte	0xad
 1226 019a 02       		.byte	0x2
 1227 019b 23       		.byte	0x23
 1228 019c 1E       		.uleb128 0x1e
 1229 019d 06       		.uleb128 0x6
ARM GAS  C:\Users\Rob\AppData\Local\Temp\ccqQMFGN.s 			page 23


 1230 019e B6020000 		.4byte	.LASF33
 1231 01a2 05       		.byte	0x5
 1232 01a3 81       		.byte	0x81
 1233 01a4 B8000000 		.4byte	0xb8
 1234 01a8 02       		.byte	0x2
 1235 01a9 23       		.byte	0x23
 1236 01aa 1F       		.uleb128 0x1f
 1237 01ab 06       		.uleb128 0x6
 1238 01ac 71030000 		.4byte	.LASF34
 1239 01b0 05       		.byte	0x5
 1240 01b1 88       		.byte	0x88
 1241 01b2 F6030000 		.4byte	0x3f6
 1242 01b6 02       		.byte	0x2
 1243 01b7 23       		.byte	0x23
 1244 01b8 20       		.uleb128 0x20
 1245 01b9 07       		.uleb128 0x7
 1246 01ba 705F7500 		.ascii	"p_u\000"
 1247 01be 05       		.byte	0x5
 1248 01bf AD       		.byte	0xad
 1249 01c0 0C050000 		.4byte	0x50c
 1250 01c4 02       		.byte	0x2
 1251 01c5 23       		.byte	0x23
 1252 01c6 24       		.uleb128 0x24
 1253 01c7 06       		.uleb128 0x6
 1254 01c8 FA030000 		.4byte	.LASF35
 1255 01cc 05       		.byte	0x5
 1256 01cd B2       		.byte	0xb2
 1257 01ce 77020000 		.4byte	0x277
 1258 01d2 02       		.byte	0x2
 1259 01d3 23       		.byte	0x23
 1260 01d4 28       		.uleb128 0x28
 1261 01d5 06       		.uleb128 0x6
 1262 01d6 7F030000 		.4byte	.LASF36
 1263 01da 05       		.byte	0x5
 1264 01db B8       		.byte	0xb8
 1265 01dc 55020000 		.4byte	0x255
 1266 01e0 02       		.byte	0x2
 1267 01e1 23       		.byte	0x23
 1268 01e2 2C       		.uleb128 0x2c
 1269 01e3 06       		.uleb128 0x6
 1270 01e4 00000000 		.4byte	.LASF37
 1271 01e8 05       		.byte	0x5
 1272 01e9 BC       		.byte	0xbc
 1273 01ea CE000000 		.4byte	0xce
 1274 01ee 02       		.byte	0x2
 1275 01ef 23       		.byte	0x23
 1276 01f0 34       		.uleb128 0x34
 1277 01f1 06       		.uleb128 0x6
 1278 01f2 F5020000 		.4byte	.LASF38
 1279 01f6 05       		.byte	0x5
 1280 01f7 C2       		.byte	0xc2
 1281 01f8 D9000000 		.4byte	0xd9
 1282 01fc 02       		.byte	0x2
 1283 01fd 23       		.byte	0x23
 1284 01fe 38       		.uleb128 0x38
 1285 01ff 06       		.uleb128 0x6
 1286 0200 8F020000 		.4byte	.LASF39
ARM GAS  C:\Users\Rob\AppData\Local\Temp\ccqQMFGN.s 			page 24


 1287 0204 05       		.byte	0x5
 1288 0205 C9       		.byte	0xc9
 1289 0206 53050000 		.4byte	0x553
 1290 020a 02       		.byte	0x2
 1291 020b 23       		.byte	0x23
 1292 020c 3C       		.uleb128 0x3c
 1293 020d 06       		.uleb128 0x6
 1294 020e 5D030000 		.4byte	.LASF40
 1295 0212 05       		.byte	0x5
 1296 0213 CD       		.byte	0xcd
 1297 0214 C3000000 		.4byte	0xc3
 1298 0218 02       		.byte	0x2
 1299 0219 23       		.byte	0x23
 1300 021a 40       		.uleb128 0x40
 1301 021b 06       		.uleb128 0x6
 1302 021c 93000000 		.4byte	.LASF41
 1303 0220 05       		.byte	0x5
 1304 0221 D3       		.byte	0xd3
 1305 0222 8D020000 		.4byte	0x28d
 1306 0226 02       		.byte	0x2
 1307 0227 23       		.byte	0x23
 1308 0228 44       		.uleb128 0x44
 1309 0229 00       		.byte	0
 1310 022a 08       		.uleb128 0x8
 1311 022b 08       		.byte	0x8
 1312 022c 04       		.byte	0x4
 1313 022d 5A       		.byte	0x5a
 1314 022e 4F020000 		.4byte	0x24f
 1315 0232 06       		.uleb128 0x6
 1316 0233 D6020000 		.4byte	.LASF23
 1317 0237 04       		.byte	0x4
 1318 0238 5B       		.byte	0x5b
 1319 0239 4F020000 		.4byte	0x24f
 1320 023d 02       		.byte	0x2
 1321 023e 23       		.byte	0x23
 1322 023f 00       		.uleb128 0
 1323 0240 06       		.uleb128 0x6
 1324 0241 5C020000 		.4byte	.LASF24
 1325 0245 04       		.byte	0x4
 1326 0246 5D       		.byte	0x5d
 1327 0247 4F020000 		.4byte	0x24f
 1328 024b 02       		.byte	0x2
 1329 024c 23       		.byte	0x23
 1330 024d 04       		.uleb128 0x4
 1331 024e 00       		.byte	0
 1332 024f 09       		.uleb128 0x9
 1333 0250 04       		.byte	0x4
 1334 0251 FA000000 		.4byte	0xfa
 1335 0255 04       		.uleb128 0x4
 1336 0256 24020000 		.4byte	.LASF42
 1337 025a 04       		.byte	0x4
 1338 025b 5F       		.byte	0x5f
 1339 025c 2A020000 		.4byte	0x22a
 1340 0260 08       		.uleb128 0x8
 1341 0261 04       		.byte	0x4
 1342 0262 04       		.byte	0x4
 1343 0263 64       		.byte	0x64
ARM GAS  C:\Users\Rob\AppData\Local\Temp\ccqQMFGN.s 			page 25


 1344 0264 77020000 		.4byte	0x277
 1345 0268 06       		.uleb128 0x6
 1346 0269 D6020000 		.4byte	.LASF23
 1347 026d 04       		.byte	0x4
 1348 026e 66       		.byte	0x66
 1349 026f 4F020000 		.4byte	0x24f
 1350 0273 02       		.byte	0x2
 1351 0274 23       		.byte	0x23
 1352 0275 00       		.uleb128 0
 1353 0276 00       		.byte	0
 1354 0277 04       		.uleb128 0x4
 1355 0278 AE010000 		.4byte	.LASF43
 1356 027c 04       		.byte	0x4
 1357 027d 69       		.byte	0x69
 1358 027e 60020000 		.4byte	0x260
 1359 0282 04       		.uleb128 0x4
 1360 0283 F8000000 		.4byte	.LASF44
 1361 0287 06       		.byte	0x6
 1362 0288 A0       		.byte	0xa0
 1363 0289 8D020000 		.4byte	0x28d
 1364 028d 0A       		.uleb128 0xa
 1365 028e 04       		.byte	0x4
 1366 028f 05       		.uleb128 0x5
 1367 0290 78030000 		.4byte	.LASF45
 1368 0294 24       		.byte	0x24
 1369 0295 06       		.byte	0x6
 1370 0296 B3       		.byte	0xb3
 1371 0297 13030000 		.4byte	0x313
 1372 029b 07       		.uleb128 0x7
 1373 029c 723800   		.ascii	"r8\000"
 1374 029f 06       		.byte	0x6
 1375 02a0 B4       		.byte	0xb4
 1376 02a1 82020000 		.4byte	0x282
 1377 02a5 02       		.byte	0x2
 1378 02a6 23       		.byte	0x23
 1379 02a7 00       		.uleb128 0
 1380 02a8 07       		.uleb128 0x7
 1381 02a9 723900   		.ascii	"r9\000"
 1382 02ac 06       		.byte	0x6
 1383 02ad B5       		.byte	0xb5
 1384 02ae 82020000 		.4byte	0x282
 1385 02b2 02       		.byte	0x2
 1386 02b3 23       		.byte	0x23
 1387 02b4 04       		.uleb128 0x4
 1388 02b5 07       		.uleb128 0x7
 1389 02b6 72313000 		.ascii	"r10\000"
 1390 02ba 06       		.byte	0x6
 1391 02bb B6       		.byte	0xb6
 1392 02bc 82020000 		.4byte	0x282
 1393 02c0 02       		.byte	0x2
 1394 02c1 23       		.byte	0x23
 1395 02c2 08       		.uleb128 0x8
 1396 02c3 07       		.uleb128 0x7
 1397 02c4 72313100 		.ascii	"r11\000"
 1398 02c8 06       		.byte	0x6
 1399 02c9 B7       		.byte	0xb7
 1400 02ca 82020000 		.4byte	0x282
ARM GAS  C:\Users\Rob\AppData\Local\Temp\ccqQMFGN.s 			page 26


 1401 02ce 02       		.byte	0x2
 1402 02cf 23       		.byte	0x23
 1403 02d0 0C       		.uleb128 0xc
 1404 02d1 07       		.uleb128 0x7
 1405 02d2 723400   		.ascii	"r4\000"
 1406 02d5 06       		.byte	0x6
 1407 02d6 B8       		.byte	0xb8
 1408 02d7 82020000 		.4byte	0x282
 1409 02db 02       		.byte	0x2
 1410 02dc 23       		.byte	0x23
 1411 02dd 10       		.uleb128 0x10
 1412 02de 07       		.uleb128 0x7
 1413 02df 723500   		.ascii	"r5\000"
 1414 02e2 06       		.byte	0x6
 1415 02e3 B9       		.byte	0xb9
 1416 02e4 82020000 		.4byte	0x282
 1417 02e8 02       		.byte	0x2
 1418 02e9 23       		.byte	0x23
 1419 02ea 14       		.uleb128 0x14
 1420 02eb 07       		.uleb128 0x7
 1421 02ec 723600   		.ascii	"r6\000"
 1422 02ef 06       		.byte	0x6
 1423 02f0 BA       		.byte	0xba
 1424 02f1 82020000 		.4byte	0x282
 1425 02f5 02       		.byte	0x2
 1426 02f6 23       		.byte	0x23
 1427 02f7 18       		.uleb128 0x18
 1428 02f8 07       		.uleb128 0x7
 1429 02f9 723700   		.ascii	"r7\000"
 1430 02fc 06       		.byte	0x6
 1431 02fd BB       		.byte	0xbb
 1432 02fe 82020000 		.4byte	0x282
 1433 0302 02       		.byte	0x2
 1434 0303 23       		.byte	0x23
 1435 0304 1C       		.uleb128 0x1c
 1436 0305 07       		.uleb128 0x7
 1437 0306 6C7200   		.ascii	"lr\000"
 1438 0309 06       		.byte	0x6
 1439 030a BC       		.byte	0xbc
 1440 030b 82020000 		.4byte	0x282
 1441 030f 02       		.byte	0x2
 1442 0310 23       		.byte	0x23
 1443 0311 20       		.uleb128 0x20
 1444 0312 00       		.byte	0
 1445 0313 05       		.uleb128 0x5
 1446 0314 80010000 		.4byte	.LASF46
 1447 0318 04       		.byte	0x4
 1448 0319 06       		.byte	0x6
 1449 031a C6       		.byte	0xc6
 1450 031b 2E030000 		.4byte	0x32e
 1451 031f 07       		.uleb128 0x7
 1452 0320 72313300 		.ascii	"r13\000"
 1453 0324 06       		.byte	0x6
 1454 0325 C7       		.byte	0xc7
 1455 0326 2E030000 		.4byte	0x32e
 1456 032a 02       		.byte	0x2
 1457 032b 23       		.byte	0x23
ARM GAS  C:\Users\Rob\AppData\Local\Temp\ccqQMFGN.s 			page 27


 1458 032c 00       		.uleb128 0
 1459 032d 00       		.byte	0
 1460 032e 09       		.uleb128 0x9
 1461 032f 04       		.byte	0x4
 1462 0330 8F020000 		.4byte	0x28f
 1463 0334 04       		.uleb128 0x4
 1464 0335 68030000 		.4byte	.LASF47
 1465 0339 07       		.byte	0x7
 1466 033a 51       		.byte	0x51
 1467 033b 3F030000 		.4byte	0x33f
 1468 033f 09       		.uleb128 0x9
 1469 0340 04       		.byte	0x4
 1470 0341 45030000 		.4byte	0x345
 1471 0345 0B       		.uleb128 0xb
 1472 0346 01       		.byte	0x1
 1473 0347 51030000 		.4byte	0x351
 1474 034b 0C       		.uleb128 0xc
 1475 034c 8D020000 		.4byte	0x28d
 1476 0350 00       		.byte	0
 1477 0351 04       		.uleb128 0x4
 1478 0352 1E030000 		.4byte	.LASF48
 1479 0356 07       		.byte	0x7
 1480 0357 56       		.byte	0x56
 1481 0358 5C030000 		.4byte	0x35c
 1482 035c 05       		.uleb128 0x5
 1483 035d 1E030000 		.4byte	.LASF48
 1484 0361 14       		.byte	0x14
 1485 0362 07       		.byte	0x7
 1486 0363 5D       		.byte	0x5d
 1487 0364 AF030000 		.4byte	0x3af
 1488 0368 06       		.uleb128 0x6
 1489 0369 21010000 		.4byte	.LASF49
 1490 036d 07       		.byte	0x7
 1491 036e 5E       		.byte	0x5e
 1492 036f AF030000 		.4byte	0x3af
 1493 0373 02       		.byte	0x2
 1494 0374 23       		.byte	0x23
 1495 0375 00       		.uleb128 0
 1496 0376 06       		.uleb128 0x6
 1497 0377 01010000 		.4byte	.LASF50
 1498 037b 07       		.byte	0x7
 1499 037c 60       		.byte	0x60
 1500 037d AF030000 		.4byte	0x3af
 1501 0381 02       		.byte	0x2
 1502 0382 23       		.byte	0x23
 1503 0383 04       		.uleb128 0x4
 1504 0384 06       		.uleb128 0x6
 1505 0385 E3010000 		.4byte	.LASF51
 1506 0389 07       		.byte	0x7
 1507 038a 62       		.byte	0x62
 1508 038b E4000000 		.4byte	0xe4
 1509 038f 02       		.byte	0x2
 1510 0390 23       		.byte	0x23
 1511 0391 08       		.uleb128 0x8
 1512 0392 06       		.uleb128 0x6
 1513 0393 EB010000 		.4byte	.LASF52
 1514 0397 07       		.byte	0x7
ARM GAS  C:\Users\Rob\AppData\Local\Temp\ccqQMFGN.s 			page 28


 1515 0398 63       		.byte	0x63
 1516 0399 34030000 		.4byte	0x334
 1517 039d 02       		.byte	0x2
 1518 039e 23       		.byte	0x23
 1519 039f 0C       		.uleb128 0xc
 1520 03a0 06       		.uleb128 0x6
 1521 03a1 8A030000 		.4byte	.LASF53
 1522 03a5 07       		.byte	0x7
 1523 03a6 65       		.byte	0x65
 1524 03a7 8D020000 		.4byte	0x28d
 1525 03ab 02       		.byte	0x2
 1526 03ac 23       		.byte	0x23
 1527 03ad 10       		.uleb128 0x10
 1528 03ae 00       		.byte	0
 1529 03af 09       		.uleb128 0x9
 1530 03b0 04       		.byte	0x4
 1531 03b1 51030000 		.4byte	0x351
 1532 03b5 08       		.uleb128 0x8
 1533 03b6 10       		.byte	0x10
 1534 03b7 07       		.byte	0x7
 1535 03b8 6F       		.byte	0x6f
 1536 03b9 F6030000 		.4byte	0x3f6
 1537 03bd 06       		.uleb128 0x6
 1538 03be 21010000 		.4byte	.LASF49
 1539 03c2 07       		.byte	0x7
 1540 03c3 70       		.byte	0x70
 1541 03c4 AF030000 		.4byte	0x3af
 1542 03c8 02       		.byte	0x2
 1543 03c9 23       		.byte	0x23
 1544 03ca 00       		.uleb128 0
 1545 03cb 06       		.uleb128 0x6
 1546 03cc 01010000 		.4byte	.LASF50
 1547 03d0 07       		.byte	0x7
 1548 03d1 72       		.byte	0x72
 1549 03d2 AF030000 		.4byte	0x3af
 1550 03d6 02       		.byte	0x2
 1551 03d7 23       		.byte	0x23
 1552 03d8 04       		.uleb128 0x4
 1553 03d9 06       		.uleb128 0x6
 1554 03da E3010000 		.4byte	.LASF51
 1555 03de 07       		.byte	0x7
 1556 03df 74       		.byte	0x74
 1557 03e0 E4000000 		.4byte	0xe4
 1558 03e4 02       		.byte	0x2
 1559 03e5 23       		.byte	0x23
 1560 03e6 08       		.uleb128 0x8
 1561 03e7 06       		.uleb128 0x6
 1562 03e8 D3030000 		.4byte	.LASF54
 1563 03ec 07       		.byte	0x7
 1564 03ed 75       		.byte	0x75
 1565 03ee F6030000 		.4byte	0x3f6
 1566 03f2 02       		.byte	0x2
 1567 03f3 23       		.byte	0x23
 1568 03f4 0C       		.uleb128 0xc
 1569 03f5 00       		.byte	0
 1570 03f6 0D       		.uleb128 0xd
 1571 03f7 E4000000 		.4byte	0xe4
ARM GAS  C:\Users\Rob\AppData\Local\Temp\ccqQMFGN.s 			page 29


 1572 03fb 04       		.uleb128 0x4
 1573 03fc E5030000 		.4byte	.LASF55
 1574 0400 07       		.byte	0x7
 1575 0401 76       		.byte	0x76
 1576 0402 B5030000 		.4byte	0x3b5
 1577 0406 08       		.uleb128 0x8
 1578 0407 1C       		.byte	0x1c
 1579 0408 08       		.byte	0x8
 1580 0409 57       		.byte	0x57
 1581 040a 63040000 		.4byte	0x463
 1582 040e 06       		.uleb128 0x6
 1583 040f 16030000 		.4byte	.LASF56
 1584 0413 08       		.byte	0x8
 1585 0414 58       		.byte	0x58
 1586 0415 55020000 		.4byte	0x255
 1587 0419 02       		.byte	0x2
 1588 041a 23       		.byte	0x23
 1589 041b 00       		.uleb128 0
 1590 041c 06       		.uleb128 0x6
 1591 041d C8020000 		.4byte	.LASF57
 1592 0421 08       		.byte	0x8
 1593 0422 59       		.byte	0x59
 1594 0423 C3000000 		.4byte	0xc3
 1595 0427 02       		.byte	0x2
 1596 0428 23       		.byte	0x23
 1597 0429 08       		.uleb128 0x8
 1598 042a 06       		.uleb128 0x6
 1599 042b 16020000 		.4byte	.LASF58
 1600 042f 08       		.byte	0x8
 1601 0430 5B       		.byte	0x5b
 1602 0431 13030000 		.4byte	0x313
 1603 0435 02       		.byte	0x2
 1604 0436 23       		.byte	0x23
 1605 0437 0C       		.uleb128 0xc
 1606 0438 06       		.uleb128 0x6
 1607 0439 F0000000 		.4byte	.LASF59
 1608 043d 08       		.byte	0x8
 1609 043e 5E       		.byte	0x5e
 1610 043f 4F020000 		.4byte	0x24f
 1611 0443 02       		.byte	0x2
 1612 0444 23       		.byte	0x23
 1613 0445 10       		.uleb128 0x10
 1614 0446 06       		.uleb128 0x6
 1615 0447 41020000 		.4byte	.LASF60
 1616 044b 08       		.byte	0x8
 1617 044c 5F       		.byte	0x5f
 1618 044d 4F020000 		.4byte	0x24f
 1619 0451 02       		.byte	0x2
 1620 0452 23       		.byte	0x23
 1621 0453 14       		.uleb128 0x14
 1622 0454 06       		.uleb128 0x6
 1623 0455 37020000 		.4byte	.LASF61
 1624 0459 08       		.byte	0x8
 1625 045a 62       		.byte	0x62
 1626 045b 4F020000 		.4byte	0x24f
 1627 045f 02       		.byte	0x2
 1628 0460 23       		.byte	0x23
ARM GAS  C:\Users\Rob\AppData\Local\Temp\ccqQMFGN.s 			page 30


 1629 0461 18       		.uleb128 0x18
 1630 0462 00       		.byte	0
 1631 0463 04       		.uleb128 0x4
 1632 0464 AD030000 		.4byte	.LASF62
 1633 0468 08       		.byte	0x8
 1634 0469 64       		.byte	0x64
 1635 046a 06040000 		.4byte	0x406
 1636 046e 05       		.uleb128 0x5
 1637 046f 91030000 		.4byte	.LASF63
 1638 0473 0C       		.byte	0xc
 1639 0474 09       		.byte	0x9
 1640 0475 25       		.byte	0x25
 1641 0476 97040000 		.4byte	0x497
 1642 047a 06       		.uleb128 0x6
 1643 047b E8000000 		.4byte	.LASF64
 1644 047f 09       		.byte	0x9
 1645 0480 26       		.byte	0x26
 1646 0481 55020000 		.4byte	0x255
 1647 0485 02       		.byte	0x2
 1648 0486 23       		.byte	0x23
 1649 0487 00       		.uleb128 0
 1650 0488 06       		.uleb128 0x6
 1651 0489 7A010000 		.4byte	.LASF65
 1652 048d 09       		.byte	0x9
 1653 048e 28       		.byte	0x28
 1654 048f EF000000 		.4byte	0xef
 1655 0493 02       		.byte	0x2
 1656 0494 23       		.byte	0x23
 1657 0495 08       		.uleb128 0x8
 1658 0496 00       		.byte	0
 1659 0497 04       		.uleb128 0x4
 1660 0498 91030000 		.4byte	.LASF63
 1661 049c 09       		.byte	0x9
 1662 049d 29       		.byte	0x29
 1663 049e 6E040000 		.4byte	0x46e
 1664 04a2 08       		.uleb128 0x8
 1665 04a3 0C       		.byte	0xc
 1666 04a4 0A       		.byte	0xa
 1667 04a5 3D       		.byte	0x3d
 1668 04a6 B9040000 		.4byte	0x4b9
 1669 04aa 06       		.uleb128 0x6
 1670 04ab DE030000 		.4byte	.LASF66
 1671 04af 0A       		.byte	0xa
 1672 04b0 3E       		.byte	0x3e
 1673 04b1 97040000 		.4byte	0x497
 1674 04b5 02       		.byte	0x2
 1675 04b6 23       		.byte	0x23
 1676 04b7 00       		.uleb128 0
 1677 04b8 00       		.byte	0
 1678 04b9 04       		.uleb128 0x4
 1679 04ba 3C030000 		.4byte	.LASF67
 1680 04be 0A       		.byte	0xa
 1681 04bf 3F       		.byte	0x3f
 1682 04c0 A2040000 		.4byte	0x4a2
 1683 04c4 05       		.uleb128 0x5
 1684 04c5 D0010000 		.4byte	.LASF68
 1685 04c9 10       		.byte	0x10
ARM GAS  C:\Users\Rob\AppData\Local\Temp\ccqQMFGN.s 			page 31


 1686 04ca 0B       		.byte	0xb
 1687 04cb 25       		.byte	0x25
 1688 04cc FB040000 		.4byte	0x4fb
 1689 04d0 06       		.uleb128 0x6
 1690 04d1 9B000000 		.4byte	.LASF69
 1691 04d5 0B       		.byte	0xb
 1692 04d6 26       		.byte	0x26
 1693 04d7 55020000 		.4byte	0x255
 1694 04db 02       		.byte	0x2
 1695 04dc 23       		.byte	0x23
 1696 04dd 00       		.uleb128 0
 1697 04de 06       		.uleb128 0x6
 1698 04df EC030000 		.4byte	.LASF70
 1699 04e3 0B       		.byte	0xb
 1700 04e4 28       		.byte	0x28
 1701 04e5 4F020000 		.4byte	0x24f
 1702 04e9 02       		.byte	0x2
 1703 04ea 23       		.byte	0x23
 1704 04eb 08       		.uleb128 0x8
 1705 04ec 06       		.uleb128 0x6
 1706 04ed 4C030000 		.4byte	.LASF71
 1707 04f1 0B       		.byte	0xb
 1708 04f2 2A       		.byte	0x2a
 1709 04f3 FB040000 		.4byte	0x4fb
 1710 04f7 02       		.byte	0x2
 1711 04f8 23       		.byte	0x23
 1712 04f9 0C       		.uleb128 0xc
 1713 04fa 00       		.byte	0
 1714 04fb 09       		.uleb128 0x9
 1715 04fc 04       		.byte	0x4
 1716 04fd C4040000 		.4byte	0x4c4
 1717 0501 04       		.uleb128 0x4
 1718 0502 D0010000 		.4byte	.LASF68
 1719 0506 0B       		.byte	0xb
 1720 0507 2C       		.byte	0x2c
 1721 0508 C4040000 		.4byte	0x4c4
 1722 050c 0E       		.uleb128 0xe
 1723 050d 04       		.byte	0x4
 1724 050e 05       		.byte	0x5
 1725 050f 8F       		.byte	0x8f
 1726 0510 41050000 		.4byte	0x541
 1727 0514 0F       		.uleb128 0xf
 1728 0515 06000000 		.4byte	.LASF72
 1729 0519 05       		.byte	0x5
 1730 051a 96       		.byte	0x96
 1731 051b CE000000 		.4byte	0xce
 1732 051f 0F       		.uleb128 0xf
 1733 0520 36000000 		.4byte	.LASF73
 1734 0524 05       		.byte	0x5
 1735 0525 9D       		.byte	0x9d
 1736 0526 CE000000 		.4byte	0xce
 1737 052a 0F       		.uleb128 0xf
 1738 052b C5030000 		.4byte	.LASF74
 1739 052f 05       		.byte	0x5
 1740 0530 A4       		.byte	0xa4
 1741 0531 8D020000 		.4byte	0x28d
 1742 0535 0F       		.uleb128 0xf
ARM GAS  C:\Users\Rob\AppData\Local\Temp\ccqQMFGN.s 			page 32


 1743 0536 CF020000 		.4byte	.LASF75
 1744 053a 05       		.byte	0x5
 1745 053b AB       		.byte	0xab
 1746 053c D9000000 		.4byte	0xd9
 1747 0540 00       		.byte	0
 1748 0541 09       		.uleb128 0x9
 1749 0542 04       		.byte	0x4
 1750 0543 47050000 		.4byte	0x547
 1751 0547 10       		.uleb128 0x10
 1752 0548 4C050000 		.4byte	0x54c
 1753 054c 03       		.uleb128 0x3
 1754 054d 01       		.byte	0x1
 1755 054e 08       		.byte	0x8
 1756 054f 37030000 		.4byte	.LASF76
 1757 0553 09       		.uleb128 0x9
 1758 0554 04       		.byte	0x4
 1759 0555 01050000 		.4byte	0x501
 1760 0559 05       		.uleb128 0x5
 1761 055a EC020000 		.4byte	.LASF77
 1762 055e 10       		.byte	0x10
 1763 055f 0C       		.byte	0xc
 1764 0560 3B       		.byte	0x3b
 1765 0561 9E050000 		.4byte	0x59e
 1766 0565 06       		.uleb128 0x6
 1767 0566 75010000 		.4byte	.LASF78
 1768 056a 0C       		.byte	0xc
 1769 056b 3C       		.byte	0x3c
 1770 056c 41050000 		.4byte	0x541
 1771 0570 02       		.byte	0x2
 1772 0571 23       		.byte	0x23
 1773 0572 00       		.uleb128 0
 1774 0573 06       		.uleb128 0x6
 1775 0574 31020000 		.4byte	.LASF79
 1776 0578 0C       		.byte	0xc
 1777 0579 3D       		.byte	0x3d
 1778 057a A0050000 		.4byte	0x5a0
 1779 057e 02       		.byte	0x2
 1780 057f 23       		.byte	0x23
 1781 0580 04       		.uleb128 0x4
 1782 0581 06       		.uleb128 0x6
 1783 0582 6C010000 		.4byte	.LASF80
 1784 0586 0C       		.byte	0xc
 1785 0587 3E       		.byte	0x3e
 1786 0588 A0050000 		.4byte	0x5a0
 1787 058c 02       		.byte	0x2
 1788 058d 23       		.byte	0x23
 1789 058e 08       		.uleb128 0x8
 1790 058f 06       		.uleb128 0x6
 1791 0590 63020000 		.4byte	.LASF81
 1792 0594 0C       		.byte	0xc
 1793 0595 3F       		.byte	0x3f
 1794 0596 A0050000 		.4byte	0x5a0
 1795 059a 02       		.byte	0x2
 1796 059b 23       		.byte	0x23
 1797 059c 0C       		.uleb128 0xc
 1798 059d 00       		.byte	0
 1799 059e 11       		.uleb128 0x11
ARM GAS  C:\Users\Rob\AppData\Local\Temp\ccqQMFGN.s 			page 33


 1800 059f 01       		.byte	0x1
 1801 05a0 09       		.uleb128 0x9
 1802 05a1 04       		.byte	0x4
 1803 05a2 9E050000 		.4byte	0x59e
 1804 05a6 12       		.uleb128 0x12
 1805 05a7 29010000 		.4byte	.LASF104
 1806 05ab 01       		.byte	0x1
 1807 05ac D9       		.byte	0xd9
 1808 05ad 01       		.byte	0x1
 1809 05ae 01       		.byte	0x1
 1810 05af 13       		.uleb128 0x13
 1811 05b0 B5000000 		.4byte	.LASF105
 1812 05b4 01       		.byte	0x1
 1813 05b5 90       		.byte	0x90
 1814 05b6 01       		.byte	0x1
 1815 05b7 01       		.byte	0x1
 1816 05b8 DC050000 		.4byte	0x5dc
 1817 05bc 14       		.uleb128 0x14
 1818 05bd 6900     		.ascii	"i\000"
 1819 05bf 01       		.byte	0x1
 1820 05c0 91       		.byte	0x91
 1821 05c1 29000000 		.4byte	0x29
 1822 05c5 15       		.uleb128 0x15
 1823 05c6 CB000000 		.4byte	.LASF82
 1824 05ca 01       		.byte	0x1
 1825 05cb 92       		.byte	0x92
 1826 05cc E4000000 		.4byte	0xe4
 1827 05d0 14       		.uleb128 0x14
 1828 05d1 6D736700 		.ascii	"msg\000"
 1829 05d5 01       		.byte	0x1
 1830 05d6 93       		.byte	0x93
 1831 05d7 CE000000 		.4byte	0xce
 1832 05db 00       		.byte	0
 1833 05dc 16       		.uleb128 0x16
 1834 05dd 9B030000 		.4byte	.LASF83
 1835 05e1 01       		.byte	0x1
 1836 05e2 CC       		.byte	0xcc
 1837 05e3 01       		.byte	0x1
 1838 05e4 00000000 		.4byte	.LFB13
 1839 05e8 10000000 		.4byte	.LFE13
 1840 05ec 00000000 		.4byte	.LLST0
 1841 05f0 16       		.uleb128 0x16
 1842 05f1 0D000000 		.4byte	.LASF84
 1843 05f5 01       		.byte	0x1
 1844 05f6 80       		.byte	0x80
 1845 05f7 01       		.byte	0x1
 1846 05f8 00000000 		.4byte	.LFB10
 1847 05fc 10000000 		.4byte	.LFE10
 1848 0600 20000000 		.4byte	.LLST1
 1849 0604 16       		.uleb128 0x16
 1850 0605 F3010000 		.4byte	.LASF85
 1851 0609 01       		.byte	0x1
 1852 060a 48       		.byte	0x48
 1853 060b 01       		.byte	0x1
 1854 060c 00000000 		.4byte	.LFB7
 1855 0610 10000000 		.4byte	.LFE7
 1856 0614 40000000 		.4byte	.LLST2
ARM GAS  C:\Users\Rob\AppData\Local\Temp\ccqQMFGN.s 			page 34


 1857 0618 17       		.uleb128 0x17
 1858 0619 D6010000 		.4byte	.LASF106
 1859 061d 01       		.byte	0x1
 1860 061e FB       		.byte	0xfb
 1861 061f 01       		.byte	0x1
 1862 0620 00000000 		.4byte	.LFB17
 1863 0624 E4000000 		.4byte	.LFE17
 1864 0628 60000000 		.4byte	.LLST3
 1865 062c 3F060000 		.4byte	0x63f
 1866 0630 18       		.uleb128 0x18
 1867 0631 9B010000 		.4byte	.LASF94
 1868 0635 01       		.byte	0x1
 1869 0636 FC       		.byte	0xfc
 1870 0637 B9040000 		.4byte	0x4b9
 1871 063b 02       		.byte	0x2
 1872 063c 91       		.byte	0x91
 1873 063d 6C       		.sleb128 -20
 1874 063e 00       		.byte	0
 1875 063f 19       		.uleb128 0x19
 1876 0640 1C020000 		.4byte	.LASF86
 1877 0644 01       		.byte	0x1
 1878 0645 F5       		.byte	0xf5
 1879 0646 01       		.byte	0x1
 1880 0647 CE000000 		.4byte	0xce
 1881 064b 00000000 		.4byte	.LFB16
 1882 064f 1A000000 		.4byte	.LFE16
 1883 0653 8C000000 		.4byte	.LLST4
 1884 0657 69060000 		.4byte	0x669
 1885 065b 1A       		.uleb128 0x1a
 1886 065c 7000     		.ascii	"p\000"
 1887 065e 01       		.byte	0x1
 1888 065f F5       		.byte	0xf5
 1889 0660 8D020000 		.4byte	0x28d
 1890 0664 AC000000 		.4byte	.LLST5
 1891 0668 00       		.byte	0
 1892 0669 19       		.uleb128 0x19
 1893 066a A3000000 		.4byte	.LASF87
 1894 066e 01       		.byte	0x1
 1895 066f D1       		.byte	0xd1
 1896 0670 01       		.byte	0x1
 1897 0671 CE000000 		.4byte	0xce
 1898 0675 00000000 		.4byte	.LFB14
 1899 0679 18000000 		.4byte	.LFE14
 1900 067d CA000000 		.4byte	.LLST6
 1901 0681 93060000 		.4byte	0x693
 1902 0685 1A       		.uleb128 0x1a
 1903 0686 7000     		.ascii	"p\000"
 1904 0688 01       		.byte	0x1
 1905 0689 D1       		.byte	0xd1
 1906 068a 8D020000 		.4byte	0x28d
 1907 068e EA000000 		.4byte	.LLST7
 1908 0692 00       		.byte	0
 1909 0693 19       		.uleb128 0x19
 1910 0694 06020000 		.4byte	.LASF88
 1911 0698 01       		.byte	0x1
 1912 0699 4D       		.byte	0x4d
 1913 069a 01       		.byte	0x1
ARM GAS  C:\Users\Rob\AppData\Local\Temp\ccqQMFGN.s 			page 35


 1914 069b CE000000 		.4byte	0xce
 1915 069f 00000000 		.4byte	.LFB8
 1916 06a3 18000000 		.4byte	.LFE8
 1917 06a7 FD000000 		.4byte	.LLST8
 1918 06ab BD060000 		.4byte	0x6bd
 1919 06af 1A       		.uleb128 0x1a
 1920 06b0 7000     		.ascii	"p\000"
 1921 06b2 01       		.byte	0x1
 1922 06b3 4D       		.byte	0x4d
 1923 06b4 8D020000 		.4byte	0x28d
 1924 06b8 1D010000 		.4byte	.LLST9
 1925 06bc 00       		.byte	0
 1926 06bd 19       		.uleb128 0x19
 1927 06be 0E020000 		.4byte	.LASF89
 1928 06c2 01       		.byte	0x1
 1929 06c3 85       		.byte	0x85
 1930 06c4 01       		.byte	0x1
 1931 06c5 CE000000 		.4byte	0xce
 1932 06c9 00000000 		.4byte	.LFB11
 1933 06cd 24000000 		.4byte	.LFE11
 1934 06d1 3B010000 		.4byte	.LLST10
 1935 06d5 E7060000 		.4byte	0x6e7
 1936 06d9 1A       		.uleb128 0x1a
 1937 06da 7000     		.ascii	"p\000"
 1938 06dc 01       		.byte	0x1
 1939 06dd 85       		.byte	0x85
 1940 06de 8D020000 		.4byte	0x28d
 1941 06e2 5B010000 		.4byte	.LLST11
 1942 06e6 00       		.byte	0
 1943 06e7 16       		.uleb128 0x16
 1944 06e8 00030000 		.4byte	.LASF90
 1945 06ec 01       		.byte	0x1
 1946 06ed 54       		.byte	0x54
 1947 06ee 01       		.byte	0x1
 1948 06ef 00000000 		.4byte	.LFB9
 1949 06f3 2C010000 		.4byte	.LFE9
 1950 06f7 6E010000 		.4byte	.LLST12
 1951 06fb 1B       		.uleb128 0x1b
 1952 06fc A6050000 		.4byte	0x5a6
 1953 0700 00000000 		.4byte	.LFB15
 1954 0704 90000000 		.4byte	.LFE15
 1955 0708 A6010000 		.4byte	.LLST13
 1956 070c 20070000 		.4byte	0x720
 1957 0710 1C       		.uleb128 0x1c
 1958 0711 A6050000 		.4byte	0x5a6
 1959 0715 52000000 		.4byte	.LBB4
 1960 0719 90000000 		.4byte	.LBE4
 1961 071d 01       		.byte	0x1
 1962 071e D9       		.byte	0xd9
 1963 071f 00       		.byte	0
 1964 0720 1B       		.uleb128 0x1b
 1965 0721 AF050000 		.4byte	0x5af
 1966 0725 00000000 		.4byte	.LFB12
 1967 0729 38010000 		.4byte	.LFE12
 1968 072d D2010000 		.4byte	.LLST14
 1969 0731 7C070000 		.4byte	0x77c
 1970 0735 1D       		.uleb128 0x1d
ARM GAS  C:\Users\Rob\AppData\Local\Temp\ccqQMFGN.s 			page 36


 1971 0736 BC050000 		.4byte	0x5bc
 1972 073a 1D       		.uleb128 0x1d
 1973 073b C5050000 		.4byte	0x5c5
 1974 073f 1E       		.uleb128 0x1e
 1975 0740 D0050000 		.4byte	0x5d0
 1976 0744 FE010000 		.4byte	.LLST15
 1977 0748 1F       		.uleb128 0x1f
 1978 0749 AF050000 		.4byte	0x5af
 1979 074d 44000000 		.4byte	.LBB8
 1980 0751 38010000 		.4byte	.LBE8
 1981 0755 01       		.byte	0x1
 1982 0756 90       		.byte	0x90
 1983 0757 20       		.uleb128 0x20
 1984 0758 44000000 		.4byte	.LBB9
 1985 075c 38010000 		.4byte	.LBE9
 1986 0760 1D       		.uleb128 0x1d
 1987 0761 BC050000 		.4byte	0x5bc
 1988 0765 21       		.uleb128 0x21
 1989 0766 C5050000 		.4byte	0x5c5
 1990 076a 05       		.byte	0x5
 1991 076b 76       		.byte	0x76
 1992 076c 90A10F   		.sleb128 250000
 1993 076f 9F       		.byte	0x9f
 1994 0770 1E       		.uleb128 0x1e
 1995 0771 D0050000 		.4byte	0x5d0
 1996 0775 11020000 		.4byte	.LLST16
 1997 0779 00       		.byte	0
 1998 077a 00       		.byte	0
 1999 077b 00       		.byte	0
 2000 077c 22       		.uleb128 0x22
 2001 077d 18000000 		.4byte	.LASF91
 2002 0781 07       		.byte	0x7
 2003 0782 D4       		.byte	0xd4
 2004 0783 FB030000 		.4byte	0x3fb
 2005 0787 01       		.byte	0x1
 2006 0788 01       		.byte	0x1
 2007 0789 22       		.uleb128 0x22
 2008 078a B7030000 		.4byte	.LASF92
 2009 078e 08       		.byte	0x8
 2010 078f 68       		.byte	0x68
 2011 0790 63040000 		.4byte	0x463
 2012 0794 01       		.byte	0x1
 2013 0795 01       		.byte	0x1
 2014 0796 23       		.uleb128 0x23
 2015 0797 4F020000 		.4byte	0x24f
 2016 079b A6070000 		.4byte	0x7a6
 2017 079f 24       		.uleb128 0x24
 2018 07a0 30000000 		.4byte	0x30
 2019 07a4 04       		.byte	0x4
 2020 07a5 00       		.byte	0
 2021 07a6 22       		.uleb128 0x22
 2022 07a7 C0020000 		.4byte	.LASF93
 2023 07ab 0C       		.byte	0xc
 2024 07ac A5       		.byte	0xa5
 2025 07ad 96070000 		.4byte	0x796
 2026 07b1 01       		.byte	0x1
 2027 07b2 01       		.byte	0x1
ARM GAS  C:\Users\Rob\AppData\Local\Temp\ccqQMFGN.s 			page 37


 2028 07b3 23       		.uleb128 0x23
 2029 07b4 8D020000 		.4byte	0x28d
 2030 07b8 BE070000 		.4byte	0x7be
 2031 07bc 25       		.uleb128 0x25
 2032 07bd 00       		.byte	0
 2033 07be 26       		.uleb128 0x26
 2034 07bf 776100   		.ascii	"wa\000"
 2035 07c2 0C       		.byte	0xc
 2036 07c3 A7       		.byte	0xa7
 2037 07c4 CA070000 		.4byte	0x7ca
 2038 07c8 01       		.byte	0x1
 2039 07c9 01       		.byte	0x1
 2040 07ca 10       		.uleb128 0x10
 2041 07cb B3070000 		.4byte	0x7b3
 2042 07cf 18       		.uleb128 0x18
 2043 07d0 09010000 		.4byte	.LASF95
 2044 07d4 01       		.byte	0x1
 2045 07d5 3B       		.byte	0x3b
 2046 07d6 97040000 		.4byte	0x497
 2047 07da 05       		.byte	0x5
 2048 07db 03       		.byte	0x3
 2049 07dc 00000000 		.4byte	sem1
 2050 07e0 22       		.uleb128 0x22
 2051 07e1 36010000 		.4byte	.LASF96
 2052 07e5 01       		.byte	0x1
 2053 07e6 6E       		.byte	0x6e
 2054 07e7 ED070000 		.4byte	0x7ed
 2055 07eb 01       		.byte	0x1
 2056 07ec 01       		.byte	0x1
 2057 07ed 10       		.uleb128 0x10
 2058 07ee 59050000 		.4byte	0x559
 2059 07f2 22       		.uleb128 0x22
 2060 07f3 3F010000 		.4byte	.LASF97
 2061 07f7 01       		.byte	0x1
 2062 07f8 B8       		.byte	0xb8
 2063 07f9 ED070000 		.4byte	0x7ed
 2064 07fd 01       		.byte	0x1
 2065 07fe 01       		.byte	0x1
 2066 07ff 22       		.uleb128 0x22
 2067 0800 48010000 		.4byte	.LASF98
 2068 0804 01       		.byte	0x1
 2069 0805 E5       		.byte	0xe5
 2070 0806 ED070000 		.4byte	0x7ed
 2071 080a 01       		.byte	0x1
 2072 080b 01       		.byte	0x1
 2073 080c 27       		.uleb128 0x27
 2074 080d 51010000 		.4byte	.LASF99
 2075 0811 01       		.byte	0x1
 2076 0812 1901     		.2byte	0x119
 2077 0814 ED070000 		.4byte	0x7ed
 2078 0818 01       		.byte	0x1
 2079 0819 01       		.byte	0x1
 2080 081a 22       		.uleb128 0x22
 2081 081b 18000000 		.4byte	.LASF91
 2082 081f 07       		.byte	0x7
 2083 0820 D4       		.byte	0xd4
 2084 0821 FB030000 		.4byte	0x3fb
ARM GAS  C:\Users\Rob\AppData\Local\Temp\ccqQMFGN.s 			page 38


 2085 0825 01       		.byte	0x1
 2086 0826 01       		.byte	0x1
 2087 0827 22       		.uleb128 0x22
 2088 0828 B7030000 		.4byte	.LASF92
 2089 082c 08       		.byte	0x8
 2090 082d 68       		.byte	0x68
 2091 082e 63040000 		.4byte	0x463
 2092 0832 01       		.byte	0x1
 2093 0833 01       		.byte	0x1
 2094 0834 22       		.uleb128 0x22
 2095 0835 C0020000 		.4byte	.LASF93
 2096 0839 0C       		.byte	0xc
 2097 083a A5       		.byte	0xa5
 2098 083b 96070000 		.4byte	0x796
 2099 083f 01       		.byte	0x1
 2100 0840 01       		.byte	0x1
 2101 0841 26       		.uleb128 0x26
 2102 0842 776100   		.ascii	"wa\000"
 2103 0845 0C       		.byte	0xc
 2104 0846 A7       		.byte	0xa7
 2105 0847 4D080000 		.4byte	0x84d
 2106 084b 01       		.byte	0x1
 2107 084c 01       		.byte	0x1
 2108 084d 10       		.uleb128 0x10
 2109 084e B3070000 		.4byte	0x7b3
 2110 0852 28       		.uleb128 0x28
 2111 0853 36010000 		.4byte	.LASF96
 2112 0857 01       		.byte	0x1
 2113 0858 6E       		.byte	0x6e
 2114 0859 ED070000 		.4byte	0x7ed
 2115 085d 01       		.byte	0x1
 2116 085e 05       		.byte	0x5
 2117 085f 03       		.byte	0x3
 2118 0860 00000000 		.4byte	testsem1
 2119 0864 28       		.uleb128 0x28
 2120 0865 3F010000 		.4byte	.LASF97
 2121 0869 01       		.byte	0x1
 2122 086a B8       		.byte	0xb8
 2123 086b ED070000 		.4byte	0x7ed
 2124 086f 01       		.byte	0x1
 2125 0870 05       		.byte	0x5
 2126 0871 03       		.byte	0x3
 2127 0872 00000000 		.4byte	testsem2
 2128 0876 28       		.uleb128 0x28
 2129 0877 48010000 		.4byte	.LASF98
 2130 087b 01       		.byte	0x1
 2131 087c E5       		.byte	0xe5
 2132 087d ED070000 		.4byte	0x7ed
 2133 0881 01       		.byte	0x1
 2134 0882 05       		.byte	0x5
 2135 0883 03       		.byte	0x3
 2136 0884 00000000 		.4byte	testsem3
 2137 0888 29       		.uleb128 0x29
 2138 0889 51010000 		.4byte	.LASF99
 2139 088d 01       		.byte	0x1
 2140 088e 1901     		.2byte	0x119
 2141 0890 ED070000 		.4byte	0x7ed
ARM GAS  C:\Users\Rob\AppData\Local\Temp\ccqQMFGN.s 			page 39


 2142 0894 01       		.byte	0x1
 2143 0895 05       		.byte	0x5
 2144 0896 03       		.byte	0x3
 2145 0897 00000000 		.4byte	testsem4
 2146 089b 23       		.uleb128 0x23
 2147 089c AB080000 		.4byte	0x8ab
 2148 08a0 AB080000 		.4byte	0x8ab
 2149 08a4 24       		.uleb128 0x24
 2150 08a5 30000000 		.4byte	0x30
 2151 08a9 04       		.byte	0x4
 2152 08aa 00       		.byte	0
 2153 08ab 09       		.uleb128 0x9
 2154 08ac 04       		.byte	0x4
 2155 08ad ED070000 		.4byte	0x7ed
 2156 08b1 29       		.uleb128 0x29
 2157 08b2 49020000 		.4byte	.LASF100
 2158 08b6 01       		.byte	0x1
 2159 08b7 2401     		.2byte	0x124
 2160 08b9 C4080000 		.4byte	0x8c4
 2161 08bd 01       		.byte	0x1
 2162 08be 05       		.byte	0x5
 2163 08bf 03       		.byte	0x3
 2164 08c0 00000000 		.4byte	patternsem
 2165 08c4 10       		.uleb128 0x10
 2166 08c5 9B080000 		.4byte	0x89b
 2167 08c9 00       		.byte	0
 2168              		.section	.debug_abbrev,"",%progbits
 2169              	.Ldebug_abbrev0:
 2170 0000 01       		.uleb128 0x1
 2171 0001 11       		.uleb128 0x11
 2172 0002 01       		.byte	0x1
 2173 0003 25       		.uleb128 0x25
 2174 0004 0E       		.uleb128 0xe
 2175 0005 13       		.uleb128 0x13
 2176 0006 0B       		.uleb128 0xb
 2177 0007 03       		.uleb128 0x3
 2178 0008 0E       		.uleb128 0xe
 2179 0009 1B       		.uleb128 0x1b
 2180 000a 0E       		.uleb128 0xe
 2181 000b 11       		.uleb128 0x11
 2182 000c 01       		.uleb128 0x1
 2183 000d 52       		.uleb128 0x52
 2184 000e 01       		.uleb128 0x1
 2185 000f 55       		.uleb128 0x55
 2186 0010 06       		.uleb128 0x6
 2187 0011 10       		.uleb128 0x10
 2188 0012 06       		.uleb128 0x6
 2189 0013 00       		.byte	0
 2190 0014 00       		.byte	0
 2191 0015 02       		.uleb128 0x2
 2192 0016 24       		.uleb128 0x24
 2193 0017 00       		.byte	0
 2194 0018 0B       		.uleb128 0xb
 2195 0019 0B       		.uleb128 0xb
 2196 001a 3E       		.uleb128 0x3e
 2197 001b 0B       		.uleb128 0xb
 2198 001c 03       		.uleb128 0x3
ARM GAS  C:\Users\Rob\AppData\Local\Temp\ccqQMFGN.s 			page 40


 2199 001d 08       		.uleb128 0x8
 2200 001e 00       		.byte	0
 2201 001f 00       		.byte	0
 2202 0020 03       		.uleb128 0x3
 2203 0021 24       		.uleb128 0x24
 2204 0022 00       		.byte	0
 2205 0023 0B       		.uleb128 0xb
 2206 0024 0B       		.uleb128 0xb
 2207 0025 3E       		.uleb128 0x3e
 2208 0026 0B       		.uleb128 0xb
 2209 0027 03       		.uleb128 0x3
 2210 0028 0E       		.uleb128 0xe
 2211 0029 00       		.byte	0
 2212 002a 00       		.byte	0
 2213 002b 04       		.uleb128 0x4
 2214 002c 16       		.uleb128 0x16
 2215 002d 00       		.byte	0
 2216 002e 03       		.uleb128 0x3
 2217 002f 0E       		.uleb128 0xe
 2218 0030 3A       		.uleb128 0x3a
 2219 0031 0B       		.uleb128 0xb
 2220 0032 3B       		.uleb128 0x3b
 2221 0033 0B       		.uleb128 0xb
 2222 0034 49       		.uleb128 0x49
 2223 0035 13       		.uleb128 0x13
 2224 0036 00       		.byte	0
 2225 0037 00       		.byte	0
 2226 0038 05       		.uleb128 0x5
 2227 0039 13       		.uleb128 0x13
 2228 003a 01       		.byte	0x1
 2229 003b 03       		.uleb128 0x3
 2230 003c 0E       		.uleb128 0xe
 2231 003d 0B       		.uleb128 0xb
 2232 003e 0B       		.uleb128 0xb
 2233 003f 3A       		.uleb128 0x3a
 2234 0040 0B       		.uleb128 0xb
 2235 0041 3B       		.uleb128 0x3b
 2236 0042 0B       		.uleb128 0xb
 2237 0043 01       		.uleb128 0x1
 2238 0044 13       		.uleb128 0x13
 2239 0045 00       		.byte	0
 2240 0046 00       		.byte	0
 2241 0047 06       		.uleb128 0x6
 2242 0048 0D       		.uleb128 0xd
 2243 0049 00       		.byte	0
 2244 004a 03       		.uleb128 0x3
 2245 004b 0E       		.uleb128 0xe
 2246 004c 3A       		.uleb128 0x3a
 2247 004d 0B       		.uleb128 0xb
 2248 004e 3B       		.uleb128 0x3b
 2249 004f 0B       		.uleb128 0xb
 2250 0050 49       		.uleb128 0x49
 2251 0051 13       		.uleb128 0x13
 2252 0052 38       		.uleb128 0x38
 2253 0053 0A       		.uleb128 0xa
 2254 0054 00       		.byte	0
 2255 0055 00       		.byte	0
ARM GAS  C:\Users\Rob\AppData\Local\Temp\ccqQMFGN.s 			page 41


 2256 0056 07       		.uleb128 0x7
 2257 0057 0D       		.uleb128 0xd
 2258 0058 00       		.byte	0
 2259 0059 03       		.uleb128 0x3
 2260 005a 08       		.uleb128 0x8
 2261 005b 3A       		.uleb128 0x3a
 2262 005c 0B       		.uleb128 0xb
 2263 005d 3B       		.uleb128 0x3b
 2264 005e 0B       		.uleb128 0xb
 2265 005f 49       		.uleb128 0x49
 2266 0060 13       		.uleb128 0x13
 2267 0061 38       		.uleb128 0x38
 2268 0062 0A       		.uleb128 0xa
 2269 0063 00       		.byte	0
 2270 0064 00       		.byte	0
 2271 0065 08       		.uleb128 0x8
 2272 0066 13       		.uleb128 0x13
 2273 0067 01       		.byte	0x1
 2274 0068 0B       		.uleb128 0xb
 2275 0069 0B       		.uleb128 0xb
 2276 006a 3A       		.uleb128 0x3a
 2277 006b 0B       		.uleb128 0xb
 2278 006c 3B       		.uleb128 0x3b
 2279 006d 0B       		.uleb128 0xb
 2280 006e 01       		.uleb128 0x1
 2281 006f 13       		.uleb128 0x13
 2282 0070 00       		.byte	0
 2283 0071 00       		.byte	0
 2284 0072 09       		.uleb128 0x9
 2285 0073 0F       		.uleb128 0xf
 2286 0074 00       		.byte	0
 2287 0075 0B       		.uleb128 0xb
 2288 0076 0B       		.uleb128 0xb
 2289 0077 49       		.uleb128 0x49
 2290 0078 13       		.uleb128 0x13
 2291 0079 00       		.byte	0
 2292 007a 00       		.byte	0
 2293 007b 0A       		.uleb128 0xa
 2294 007c 0F       		.uleb128 0xf
 2295 007d 00       		.byte	0
 2296 007e 0B       		.uleb128 0xb
 2297 007f 0B       		.uleb128 0xb
 2298 0080 00       		.byte	0
 2299 0081 00       		.byte	0
 2300 0082 0B       		.uleb128 0xb
 2301 0083 15       		.uleb128 0x15
 2302 0084 01       		.byte	0x1
 2303 0085 27       		.uleb128 0x27
 2304 0086 0C       		.uleb128 0xc
 2305 0087 01       		.uleb128 0x1
 2306 0088 13       		.uleb128 0x13
 2307 0089 00       		.byte	0
 2308 008a 00       		.byte	0
 2309 008b 0C       		.uleb128 0xc
 2310 008c 05       		.uleb128 0x5
 2311 008d 00       		.byte	0
 2312 008e 49       		.uleb128 0x49
ARM GAS  C:\Users\Rob\AppData\Local\Temp\ccqQMFGN.s 			page 42


 2313 008f 13       		.uleb128 0x13
 2314 0090 00       		.byte	0
 2315 0091 00       		.byte	0
 2316 0092 0D       		.uleb128 0xd
 2317 0093 35       		.uleb128 0x35
 2318 0094 00       		.byte	0
 2319 0095 49       		.uleb128 0x49
 2320 0096 13       		.uleb128 0x13
 2321 0097 00       		.byte	0
 2322 0098 00       		.byte	0
 2323 0099 0E       		.uleb128 0xe
 2324 009a 17       		.uleb128 0x17
 2325 009b 01       		.byte	0x1
 2326 009c 0B       		.uleb128 0xb
 2327 009d 0B       		.uleb128 0xb
 2328 009e 3A       		.uleb128 0x3a
 2329 009f 0B       		.uleb128 0xb
 2330 00a0 3B       		.uleb128 0x3b
 2331 00a1 0B       		.uleb128 0xb
 2332 00a2 01       		.uleb128 0x1
 2333 00a3 13       		.uleb128 0x13
 2334 00a4 00       		.byte	0
 2335 00a5 00       		.byte	0
 2336 00a6 0F       		.uleb128 0xf
 2337 00a7 0D       		.uleb128 0xd
 2338 00a8 00       		.byte	0
 2339 00a9 03       		.uleb128 0x3
 2340 00aa 0E       		.uleb128 0xe
 2341 00ab 3A       		.uleb128 0x3a
 2342 00ac 0B       		.uleb128 0xb
 2343 00ad 3B       		.uleb128 0x3b
 2344 00ae 0B       		.uleb128 0xb
 2345 00af 49       		.uleb128 0x49
 2346 00b0 13       		.uleb128 0x13
 2347 00b1 00       		.byte	0
 2348 00b2 00       		.byte	0
 2349 00b3 10       		.uleb128 0x10
 2350 00b4 26       		.uleb128 0x26
 2351 00b5 00       		.byte	0
 2352 00b6 49       		.uleb128 0x49
 2353 00b7 13       		.uleb128 0x13
 2354 00b8 00       		.byte	0
 2355 00b9 00       		.byte	0
 2356 00ba 11       		.uleb128 0x11
 2357 00bb 15       		.uleb128 0x15
 2358 00bc 00       		.byte	0
 2359 00bd 27       		.uleb128 0x27
 2360 00be 0C       		.uleb128 0xc
 2361 00bf 00       		.byte	0
 2362 00c0 00       		.byte	0
 2363 00c1 12       		.uleb128 0x12
 2364 00c2 2E       		.uleb128 0x2e
 2365 00c3 00       		.byte	0
 2366 00c4 03       		.uleb128 0x3
 2367 00c5 0E       		.uleb128 0xe
 2368 00c6 3A       		.uleb128 0x3a
 2369 00c7 0B       		.uleb128 0xb
ARM GAS  C:\Users\Rob\AppData\Local\Temp\ccqQMFGN.s 			page 43


 2370 00c8 3B       		.uleb128 0x3b
 2371 00c9 0B       		.uleb128 0xb
 2372 00ca 27       		.uleb128 0x27
 2373 00cb 0C       		.uleb128 0xc
 2374 00cc 20       		.uleb128 0x20
 2375 00cd 0B       		.uleb128 0xb
 2376 00ce 00       		.byte	0
 2377 00cf 00       		.byte	0
 2378 00d0 13       		.uleb128 0x13
 2379 00d1 2E       		.uleb128 0x2e
 2380 00d2 01       		.byte	0x1
 2381 00d3 03       		.uleb128 0x3
 2382 00d4 0E       		.uleb128 0xe
 2383 00d5 3A       		.uleb128 0x3a
 2384 00d6 0B       		.uleb128 0xb
 2385 00d7 3B       		.uleb128 0x3b
 2386 00d8 0B       		.uleb128 0xb
 2387 00d9 27       		.uleb128 0x27
 2388 00da 0C       		.uleb128 0xc
 2389 00db 20       		.uleb128 0x20
 2390 00dc 0B       		.uleb128 0xb
 2391 00dd 01       		.uleb128 0x1
 2392 00de 13       		.uleb128 0x13
 2393 00df 00       		.byte	0
 2394 00e0 00       		.byte	0
 2395 00e1 14       		.uleb128 0x14
 2396 00e2 34       		.uleb128 0x34
 2397 00e3 00       		.byte	0
 2398 00e4 03       		.uleb128 0x3
 2399 00e5 08       		.uleb128 0x8
 2400 00e6 3A       		.uleb128 0x3a
 2401 00e7 0B       		.uleb128 0xb
 2402 00e8 3B       		.uleb128 0x3b
 2403 00e9 0B       		.uleb128 0xb
 2404 00ea 49       		.uleb128 0x49
 2405 00eb 13       		.uleb128 0x13
 2406 00ec 00       		.byte	0
 2407 00ed 00       		.byte	0
 2408 00ee 15       		.uleb128 0x15
 2409 00ef 34       		.uleb128 0x34
 2410 00f0 00       		.byte	0
 2411 00f1 03       		.uleb128 0x3
 2412 00f2 0E       		.uleb128 0xe
 2413 00f3 3A       		.uleb128 0x3a
 2414 00f4 0B       		.uleb128 0xb
 2415 00f5 3B       		.uleb128 0x3b
 2416 00f6 0B       		.uleb128 0xb
 2417 00f7 49       		.uleb128 0x49
 2418 00f8 13       		.uleb128 0x13
 2419 00f9 00       		.byte	0
 2420 00fa 00       		.byte	0
 2421 00fb 16       		.uleb128 0x16
 2422 00fc 2E       		.uleb128 0x2e
 2423 00fd 00       		.byte	0
 2424 00fe 03       		.uleb128 0x3
 2425 00ff 0E       		.uleb128 0xe
 2426 0100 3A       		.uleb128 0x3a
ARM GAS  C:\Users\Rob\AppData\Local\Temp\ccqQMFGN.s 			page 44


 2427 0101 0B       		.uleb128 0xb
 2428 0102 3B       		.uleb128 0x3b
 2429 0103 0B       		.uleb128 0xb
 2430 0104 27       		.uleb128 0x27
 2431 0105 0C       		.uleb128 0xc
 2432 0106 11       		.uleb128 0x11
 2433 0107 01       		.uleb128 0x1
 2434 0108 12       		.uleb128 0x12
 2435 0109 01       		.uleb128 0x1
 2436 010a 40       		.uleb128 0x40
 2437 010b 06       		.uleb128 0x6
 2438 010c 00       		.byte	0
 2439 010d 00       		.byte	0
 2440 010e 17       		.uleb128 0x17
 2441 010f 2E       		.uleb128 0x2e
 2442 0110 01       		.byte	0x1
 2443 0111 03       		.uleb128 0x3
 2444 0112 0E       		.uleb128 0xe
 2445 0113 3A       		.uleb128 0x3a
 2446 0114 0B       		.uleb128 0xb
 2447 0115 3B       		.uleb128 0x3b
 2448 0116 0B       		.uleb128 0xb
 2449 0117 27       		.uleb128 0x27
 2450 0118 0C       		.uleb128 0xc
 2451 0119 11       		.uleb128 0x11
 2452 011a 01       		.uleb128 0x1
 2453 011b 12       		.uleb128 0x12
 2454 011c 01       		.uleb128 0x1
 2455 011d 40       		.uleb128 0x40
 2456 011e 06       		.uleb128 0x6
 2457 011f 01       		.uleb128 0x1
 2458 0120 13       		.uleb128 0x13
 2459 0121 00       		.byte	0
 2460 0122 00       		.byte	0
 2461 0123 18       		.uleb128 0x18
 2462 0124 34       		.uleb128 0x34
 2463 0125 00       		.byte	0
 2464 0126 03       		.uleb128 0x3
 2465 0127 0E       		.uleb128 0xe
 2466 0128 3A       		.uleb128 0x3a
 2467 0129 0B       		.uleb128 0xb
 2468 012a 3B       		.uleb128 0x3b
 2469 012b 0B       		.uleb128 0xb
 2470 012c 49       		.uleb128 0x49
 2471 012d 13       		.uleb128 0x13
 2472 012e 02       		.uleb128 0x2
 2473 012f 0A       		.uleb128 0xa
 2474 0130 00       		.byte	0
 2475 0131 00       		.byte	0
 2476 0132 19       		.uleb128 0x19
 2477 0133 2E       		.uleb128 0x2e
 2478 0134 01       		.byte	0x1
 2479 0135 03       		.uleb128 0x3
 2480 0136 0E       		.uleb128 0xe
 2481 0137 3A       		.uleb128 0x3a
 2482 0138 0B       		.uleb128 0xb
 2483 0139 3B       		.uleb128 0x3b
ARM GAS  C:\Users\Rob\AppData\Local\Temp\ccqQMFGN.s 			page 45


 2484 013a 0B       		.uleb128 0xb
 2485 013b 27       		.uleb128 0x27
 2486 013c 0C       		.uleb128 0xc
 2487 013d 49       		.uleb128 0x49
 2488 013e 13       		.uleb128 0x13
 2489 013f 11       		.uleb128 0x11
 2490 0140 01       		.uleb128 0x1
 2491 0141 12       		.uleb128 0x12
 2492 0142 01       		.uleb128 0x1
 2493 0143 40       		.uleb128 0x40
 2494 0144 06       		.uleb128 0x6
 2495 0145 01       		.uleb128 0x1
 2496 0146 13       		.uleb128 0x13
 2497 0147 00       		.byte	0
 2498 0148 00       		.byte	0
 2499 0149 1A       		.uleb128 0x1a
 2500 014a 05       		.uleb128 0x5
 2501 014b 00       		.byte	0
 2502 014c 03       		.uleb128 0x3
 2503 014d 08       		.uleb128 0x8
 2504 014e 3A       		.uleb128 0x3a
 2505 014f 0B       		.uleb128 0xb
 2506 0150 3B       		.uleb128 0x3b
 2507 0151 0B       		.uleb128 0xb
 2508 0152 49       		.uleb128 0x49
 2509 0153 13       		.uleb128 0x13
 2510 0154 02       		.uleb128 0x2
 2511 0155 06       		.uleb128 0x6
 2512 0156 00       		.byte	0
 2513 0157 00       		.byte	0
 2514 0158 1B       		.uleb128 0x1b
 2515 0159 2E       		.uleb128 0x2e
 2516 015a 01       		.byte	0x1
 2517 015b 31       		.uleb128 0x31
 2518 015c 13       		.uleb128 0x13
 2519 015d 11       		.uleb128 0x11
 2520 015e 01       		.uleb128 0x1
 2521 015f 12       		.uleb128 0x12
 2522 0160 01       		.uleb128 0x1
 2523 0161 40       		.uleb128 0x40
 2524 0162 06       		.uleb128 0x6
 2525 0163 01       		.uleb128 0x1
 2526 0164 13       		.uleb128 0x13
 2527 0165 00       		.byte	0
 2528 0166 00       		.byte	0
 2529 0167 1C       		.uleb128 0x1c
 2530 0168 1D       		.uleb128 0x1d
 2531 0169 00       		.byte	0
 2532 016a 31       		.uleb128 0x31
 2533 016b 13       		.uleb128 0x13
 2534 016c 11       		.uleb128 0x11
 2535 016d 01       		.uleb128 0x1
 2536 016e 12       		.uleb128 0x12
 2537 016f 01       		.uleb128 0x1
 2538 0170 58       		.uleb128 0x58
 2539 0171 0B       		.uleb128 0xb
 2540 0172 59       		.uleb128 0x59
ARM GAS  C:\Users\Rob\AppData\Local\Temp\ccqQMFGN.s 			page 46


 2541 0173 0B       		.uleb128 0xb
 2542 0174 00       		.byte	0
 2543 0175 00       		.byte	0
 2544 0176 1D       		.uleb128 0x1d
 2545 0177 34       		.uleb128 0x34
 2546 0178 00       		.byte	0
 2547 0179 31       		.uleb128 0x31
 2548 017a 13       		.uleb128 0x13
 2549 017b 00       		.byte	0
 2550 017c 00       		.byte	0
 2551 017d 1E       		.uleb128 0x1e
 2552 017e 34       		.uleb128 0x34
 2553 017f 00       		.byte	0
 2554 0180 31       		.uleb128 0x31
 2555 0181 13       		.uleb128 0x13
 2556 0182 02       		.uleb128 0x2
 2557 0183 06       		.uleb128 0x6
 2558 0184 00       		.byte	0
 2559 0185 00       		.byte	0
 2560 0186 1F       		.uleb128 0x1f
 2561 0187 1D       		.uleb128 0x1d
 2562 0188 01       		.byte	0x1
 2563 0189 31       		.uleb128 0x31
 2564 018a 13       		.uleb128 0x13
 2565 018b 11       		.uleb128 0x11
 2566 018c 01       		.uleb128 0x1
 2567 018d 12       		.uleb128 0x12
 2568 018e 01       		.uleb128 0x1
 2569 018f 58       		.uleb128 0x58
 2570 0190 0B       		.uleb128 0xb
 2571 0191 59       		.uleb128 0x59
 2572 0192 0B       		.uleb128 0xb
 2573 0193 00       		.byte	0
 2574 0194 00       		.byte	0
 2575 0195 20       		.uleb128 0x20
 2576 0196 0B       		.uleb128 0xb
 2577 0197 01       		.byte	0x1
 2578 0198 11       		.uleb128 0x11
 2579 0199 01       		.uleb128 0x1
 2580 019a 12       		.uleb128 0x12
 2581 019b 01       		.uleb128 0x1
 2582 019c 00       		.byte	0
 2583 019d 00       		.byte	0
 2584 019e 21       		.uleb128 0x21
 2585 019f 34       		.uleb128 0x34
 2586 01a0 00       		.byte	0
 2587 01a1 31       		.uleb128 0x31
 2588 01a2 13       		.uleb128 0x13
 2589 01a3 02       		.uleb128 0x2
 2590 01a4 0A       		.uleb128 0xa
 2591 01a5 00       		.byte	0
 2592 01a6 00       		.byte	0
 2593 01a7 22       		.uleb128 0x22
 2594 01a8 34       		.uleb128 0x34
 2595 01a9 00       		.byte	0
 2596 01aa 03       		.uleb128 0x3
 2597 01ab 0E       		.uleb128 0xe
ARM GAS  C:\Users\Rob\AppData\Local\Temp\ccqQMFGN.s 			page 47


 2598 01ac 3A       		.uleb128 0x3a
 2599 01ad 0B       		.uleb128 0xb
 2600 01ae 3B       		.uleb128 0x3b
 2601 01af 0B       		.uleb128 0xb
 2602 01b0 49       		.uleb128 0x49
 2603 01b1 13       		.uleb128 0x13
 2604 01b2 3F       		.uleb128 0x3f
 2605 01b3 0C       		.uleb128 0xc
 2606 01b4 3C       		.uleb128 0x3c
 2607 01b5 0C       		.uleb128 0xc
 2608 01b6 00       		.byte	0
 2609 01b7 00       		.byte	0
 2610 01b8 23       		.uleb128 0x23
 2611 01b9 01       		.uleb128 0x1
 2612 01ba 01       		.byte	0x1
 2613 01bb 49       		.uleb128 0x49
 2614 01bc 13       		.uleb128 0x13
 2615 01bd 01       		.uleb128 0x1
 2616 01be 13       		.uleb128 0x13
 2617 01bf 00       		.byte	0
 2618 01c0 00       		.byte	0
 2619 01c1 24       		.uleb128 0x24
 2620 01c2 21       		.uleb128 0x21
 2621 01c3 00       		.byte	0
 2622 01c4 49       		.uleb128 0x49
 2623 01c5 13       		.uleb128 0x13
 2624 01c6 2F       		.uleb128 0x2f
 2625 01c7 0B       		.uleb128 0xb
 2626 01c8 00       		.byte	0
 2627 01c9 00       		.byte	0
 2628 01ca 25       		.uleb128 0x25
 2629 01cb 21       		.uleb128 0x21
 2630 01cc 00       		.byte	0
 2631 01cd 00       		.byte	0
 2632 01ce 00       		.byte	0
 2633 01cf 26       		.uleb128 0x26
 2634 01d0 34       		.uleb128 0x34
 2635 01d1 00       		.byte	0
 2636 01d2 03       		.uleb128 0x3
 2637 01d3 08       		.uleb128 0x8
 2638 01d4 3A       		.uleb128 0x3a
 2639 01d5 0B       		.uleb128 0xb
 2640 01d6 3B       		.uleb128 0x3b
 2641 01d7 0B       		.uleb128 0xb
 2642 01d8 49       		.uleb128 0x49
 2643 01d9 13       		.uleb128 0x13
 2644 01da 3F       		.uleb128 0x3f
 2645 01db 0C       		.uleb128 0xc
 2646 01dc 3C       		.uleb128 0x3c
 2647 01dd 0C       		.uleb128 0xc
 2648 01de 00       		.byte	0
 2649 01df 00       		.byte	0
 2650 01e0 27       		.uleb128 0x27
 2651 01e1 34       		.uleb128 0x34
 2652 01e2 00       		.byte	0
 2653 01e3 03       		.uleb128 0x3
 2654 01e4 0E       		.uleb128 0xe
ARM GAS  C:\Users\Rob\AppData\Local\Temp\ccqQMFGN.s 			page 48


 2655 01e5 3A       		.uleb128 0x3a
 2656 01e6 0B       		.uleb128 0xb
 2657 01e7 3B       		.uleb128 0x3b
 2658 01e8 05       		.uleb128 0x5
 2659 01e9 49       		.uleb128 0x49
 2660 01ea 13       		.uleb128 0x13
 2661 01eb 3F       		.uleb128 0x3f
 2662 01ec 0C       		.uleb128 0xc
 2663 01ed 3C       		.uleb128 0x3c
 2664 01ee 0C       		.uleb128 0xc
 2665 01ef 00       		.byte	0
 2666 01f0 00       		.byte	0
 2667 01f1 28       		.uleb128 0x28
 2668 01f2 34       		.uleb128 0x34
 2669 01f3 00       		.byte	0
 2670 01f4 03       		.uleb128 0x3
 2671 01f5 0E       		.uleb128 0xe
 2672 01f6 3A       		.uleb128 0x3a
 2673 01f7 0B       		.uleb128 0xb
 2674 01f8 3B       		.uleb128 0x3b
 2675 01f9 0B       		.uleb128 0xb
 2676 01fa 49       		.uleb128 0x49
 2677 01fb 13       		.uleb128 0x13
 2678 01fc 3F       		.uleb128 0x3f
 2679 01fd 0C       		.uleb128 0xc
 2680 01fe 02       		.uleb128 0x2
 2681 01ff 0A       		.uleb128 0xa
 2682 0200 00       		.byte	0
 2683 0201 00       		.byte	0
 2684 0202 29       		.uleb128 0x29
 2685 0203 34       		.uleb128 0x34
 2686 0204 00       		.byte	0
 2687 0205 03       		.uleb128 0x3
 2688 0206 0E       		.uleb128 0xe
 2689 0207 3A       		.uleb128 0x3a
 2690 0208 0B       		.uleb128 0xb
 2691 0209 3B       		.uleb128 0x3b
 2692 020a 05       		.uleb128 0x5
 2693 020b 49       		.uleb128 0x49
 2694 020c 13       		.uleb128 0x13
 2695 020d 3F       		.uleb128 0x3f
 2696 020e 0C       		.uleb128 0xc
 2697 020f 02       		.uleb128 0x2
 2698 0210 0A       		.uleb128 0xa
 2699 0211 00       		.byte	0
 2700 0212 00       		.byte	0
 2701 0213 00       		.byte	0
 2702              		.section	.debug_loc,"",%progbits
 2703              	.Ldebug_loc0:
 2704              	.LLST0:
 2705 0000 00000000 		.4byte	.LFB13
 2706 0004 02000000 		.4byte	.LCFI0
 2707 0008 0200     		.2byte	0x2
 2708 000a 7D       		.byte	0x7d
 2709 000b 00       		.sleb128 0
 2710 000c 02000000 		.4byte	.LCFI0
 2711 0010 10000000 		.4byte	.LFE13
ARM GAS  C:\Users\Rob\AppData\Local\Temp\ccqQMFGN.s 			page 49


 2712 0014 0200     		.2byte	0x2
 2713 0016 7D       		.byte	0x7d
 2714 0017 08       		.sleb128 8
 2715 0018 00000000 		.4byte	0
 2716 001c 00000000 		.4byte	0
 2717              	.LLST1:
 2718 0020 00000000 		.4byte	.LFB10
 2719 0024 02000000 		.4byte	.LCFI1
 2720 0028 0200     		.2byte	0x2
 2721 002a 7D       		.byte	0x7d
 2722 002b 00       		.sleb128 0
 2723 002c 02000000 		.4byte	.LCFI1
 2724 0030 10000000 		.4byte	.LFE10
 2725 0034 0200     		.2byte	0x2
 2726 0036 7D       		.byte	0x7d
 2727 0037 08       		.sleb128 8
 2728 0038 00000000 		.4byte	0
 2729 003c 00000000 		.4byte	0
 2730              	.LLST2:
 2731 0040 00000000 		.4byte	.LFB7
 2732 0044 02000000 		.4byte	.LCFI2
 2733 0048 0200     		.2byte	0x2
 2734 004a 7D       		.byte	0x7d
 2735 004b 00       		.sleb128 0
 2736 004c 02000000 		.4byte	.LCFI2
 2737 0050 10000000 		.4byte	.LFE7
 2738 0054 0200     		.2byte	0x2
 2739 0056 7D       		.byte	0x7d
 2740 0057 08       		.sleb128 8
 2741 0058 00000000 		.4byte	0
 2742 005c 00000000 		.4byte	0
 2743              	.LLST3:
 2744 0060 00000000 		.4byte	.LFB17
 2745 0064 02000000 		.4byte	.LCFI3
 2746 0068 0200     		.2byte	0x2
 2747 006a 7D       		.byte	0x7d
 2748 006b 00       		.sleb128 0
 2749 006c 02000000 		.4byte	.LCFI3
 2750 0070 04000000 		.4byte	.LCFI4
 2751 0074 0200     		.2byte	0x2
 2752 0076 7D       		.byte	0x7d
 2753 0077 04       		.sleb128 4
 2754 0078 04000000 		.4byte	.LCFI4
 2755 007c E4000000 		.4byte	.LFE17
 2756 0080 0200     		.2byte	0x2
 2757 0082 7D       		.byte	0x7d
 2758 0083 20       		.sleb128 32
 2759 0084 00000000 		.4byte	0
 2760 0088 00000000 		.4byte	0
 2761              	.LLST4:
 2762 008c 00000000 		.4byte	.LFB16
 2763 0090 02000000 		.4byte	.LCFI5
 2764 0094 0200     		.2byte	0x2
 2765 0096 7D       		.byte	0x7d
 2766 0097 00       		.sleb128 0
 2767 0098 02000000 		.4byte	.LCFI5
 2768 009c 1A000000 		.4byte	.LFE16
ARM GAS  C:\Users\Rob\AppData\Local\Temp\ccqQMFGN.s 			page 50


 2769 00a0 0200     		.2byte	0x2
 2770 00a2 7D       		.byte	0x7d
 2771 00a3 08       		.sleb128 8
 2772 00a4 00000000 		.4byte	0
 2773 00a8 00000000 		.4byte	0
 2774              	.LLST5:
 2775 00ac 02000000 		.4byte	.LVL0
 2776 00b0 0A000000 		.4byte	.LVL1
 2777 00b4 0100     		.2byte	0x1
 2778 00b6 50       		.byte	0x50
 2779 00b7 14000000 		.4byte	.LVL2
 2780 00bb 17000000 		.4byte	.LVL3-1
 2781 00bf 0100     		.2byte	0x1
 2782 00c1 50       		.byte	0x50
 2783 00c2 00000000 		.4byte	0
 2784 00c6 00000000 		.4byte	0
 2785              	.LLST6:
 2786 00ca 00000000 		.4byte	.LFB14
 2787 00ce 02000000 		.4byte	.LCFI6
 2788 00d2 0200     		.2byte	0x2
 2789 00d4 7D       		.byte	0x7d
 2790 00d5 00       		.sleb128 0
 2791 00d6 02000000 		.4byte	.LCFI6
 2792 00da 18000000 		.4byte	.LFE14
 2793 00de 0200     		.2byte	0x2
 2794 00e0 7D       		.byte	0x7d
 2795 00e1 08       		.sleb128 8
 2796 00e2 00000000 		.4byte	0
 2797 00e6 00000000 		.4byte	0
 2798              	.LLST7:
 2799 00ea 02000000 		.4byte	.LVL4
 2800 00ee 06000000 		.4byte	.LVL5
 2801 00f2 0100     		.2byte	0x1
 2802 00f4 50       		.byte	0x50
 2803 00f5 00000000 		.4byte	0
 2804 00f9 00000000 		.4byte	0
 2805              	.LLST8:
 2806 00fd 00000000 		.4byte	.LFB8
 2807 0101 02000000 		.4byte	.LCFI7
 2808 0105 0200     		.2byte	0x2
 2809 0107 7D       		.byte	0x7d
 2810 0108 00       		.sleb128 0
 2811 0109 02000000 		.4byte	.LCFI7
 2812 010d 18000000 		.4byte	.LFE8
 2813 0111 0200     		.2byte	0x2
 2814 0113 7D       		.byte	0x7d
 2815 0114 08       		.sleb128 8
 2816 0115 00000000 		.4byte	0
 2817 0119 00000000 		.4byte	0
 2818              	.LLST9:
 2819 011d 02000000 		.4byte	.LVL6
 2820 0121 06000000 		.4byte	.LVL7
 2821 0125 0100     		.2byte	0x1
 2822 0127 50       		.byte	0x50
 2823 0128 06000000 		.4byte	.LVL7
 2824 012c 12000000 		.4byte	.LVL8
 2825 0130 0100     		.2byte	0x1
ARM GAS  C:\Users\Rob\AppData\Local\Temp\ccqQMFGN.s 			page 51


 2826 0132 54       		.byte	0x54
 2827 0133 00000000 		.4byte	0
 2828 0137 00000000 		.4byte	0
 2829              	.LLST10:
 2830 013b 00000000 		.4byte	.LFB11
 2831 013f 02000000 		.4byte	.LCFI8
 2832 0143 0200     		.2byte	0x2
 2833 0145 7D       		.byte	0x7d
 2834 0146 00       		.sleb128 0
 2835 0147 02000000 		.4byte	.LCFI8
 2836 014b 24000000 		.4byte	.LFE11
 2837 014f 0200     		.2byte	0x2
 2838 0151 7D       		.byte	0x7d
 2839 0152 08       		.sleb128 8
 2840 0153 00000000 		.4byte	0
 2841 0157 00000000 		.4byte	0
 2842              	.LLST11:
 2843 015b 02000000 		.4byte	.LVL9
 2844 015f 04000000 		.4byte	.LVL10
 2845 0163 0100     		.2byte	0x1
 2846 0165 50       		.byte	0x50
 2847 0166 00000000 		.4byte	0
 2848 016a 00000000 		.4byte	0
 2849              	.LLST12:
 2850 016e 00000000 		.4byte	.LFB9
 2851 0172 02000000 		.4byte	.LCFI9
 2852 0176 0200     		.2byte	0x2
 2853 0178 7D       		.byte	0x7d
 2854 0179 00       		.sleb128 0
 2855 017a 02000000 		.4byte	.LCFI9
 2856 017e 08000000 		.4byte	.LCFI10
 2857 0182 0200     		.2byte	0x2
 2858 0184 7D       		.byte	0x7d
 2859 0185 14       		.sleb128 20
 2860 0186 08000000 		.4byte	.LCFI10
 2861 018a 16000000 		.4byte	.LCFI11
 2862 018e 0200     		.2byte	0x2
 2863 0190 7D       		.byte	0x7d
 2864 0191 1C       		.sleb128 28
 2865 0192 16000000 		.4byte	.LCFI11
 2866 0196 2C010000 		.4byte	.LFE9
 2867 019a 0200     		.2byte	0x2
 2868 019c 7D       		.byte	0x7d
 2869 019d 28       		.sleb128 40
 2870 019e 00000000 		.4byte	0
 2871 01a2 00000000 		.4byte	0
 2872              	.LLST13:
 2873 01a6 00000000 		.4byte	.LFB15
 2874 01aa 02000000 		.4byte	.LCFI12
 2875 01ae 0200     		.2byte	0x2
 2876 01b0 7D       		.byte	0x7d
 2877 01b1 00       		.sleb128 0
 2878 01b2 02000000 		.4byte	.LCFI12
 2879 01b6 06000000 		.4byte	.LCFI13
 2880 01ba 0200     		.2byte	0x2
 2881 01bc 7D       		.byte	0x7d
 2882 01bd 08       		.sleb128 8
ARM GAS  C:\Users\Rob\AppData\Local\Temp\ccqQMFGN.s 			page 52


 2883 01be 06000000 		.4byte	.LCFI13
 2884 01c2 90000000 		.4byte	.LFE15
 2885 01c6 0200     		.2byte	0x2
 2886 01c8 7D       		.byte	0x7d
 2887 01c9 10       		.sleb128 16
 2888 01ca 00000000 		.4byte	0
 2889 01ce 00000000 		.4byte	0
 2890              	.LLST14:
 2891 01d2 00000000 		.4byte	.LFB12
 2892 01d6 02000000 		.4byte	.LCFI14
 2893 01da 0200     		.2byte	0x2
 2894 01dc 7D       		.byte	0x7d
 2895 01dd 00       		.sleb128 0
 2896 01de 02000000 		.4byte	.LCFI14
 2897 01e2 08000000 		.4byte	.LCFI15
 2898 01e6 0200     		.2byte	0x2
 2899 01e8 7D       		.byte	0x7d
 2900 01e9 10       		.sleb128 16
 2901 01ea 08000000 		.4byte	.LCFI15
 2902 01ee 38010000 		.4byte	.LFE12
 2903 01f2 0200     		.2byte	0x2
 2904 01f4 7D       		.byte	0x7d
 2905 01f5 18       		.sleb128 24
 2906 01f6 00000000 		.4byte	0
 2907 01fa 00000000 		.4byte	0
 2908              	.LLST15:
 2909 01fe 0E000000 		.4byte	.LVL11
 2910 0202 16000000 		.4byte	.LVL12
 2911 0206 0100     		.2byte	0x1
 2912 0208 50       		.byte	0x50
 2913 0209 00000000 		.4byte	0
 2914 020d 00000000 		.4byte	0
 2915              	.LLST16:
 2916 0211 6A000000 		.4byte	.LVL13
 2917 0215 6D000000 		.4byte	.LVL14-1
 2918 0219 0100     		.2byte	0x1
 2919 021b 50       		.byte	0x50
 2920 021c 6D000000 		.4byte	.LVL14-1
 2921 0220 72000000 		.4byte	.LVL15
 2922 0224 0100     		.2byte	0x1
 2923 0226 55       		.byte	0x55
 2924 0227 B6000000 		.4byte	.LVL17
 2925 022b BE000000 		.4byte	.LVL18
 2926 022f 0100     		.2byte	0x1
 2927 0231 50       		.byte	0x50
 2928 0232 00000000 		.4byte	0
 2929 0236 00000000 		.4byte	0
 2930              		.section	.debug_aranges,"",%progbits
 2931 0000 6C000000 		.4byte	0x6c
 2932 0004 0200     		.2byte	0x2
 2933 0006 00000000 		.4byte	.Ldebug_info0
 2934 000a 04       		.byte	0x4
 2935 000b 00       		.byte	0
 2936 000c 0000     		.2byte	0
 2937 000e 0000     		.2byte	0
 2938 0010 00000000 		.4byte	.LFB13
 2939 0014 10000000 		.4byte	.LFE13-.LFB13
ARM GAS  C:\Users\Rob\AppData\Local\Temp\ccqQMFGN.s 			page 53


 2940 0018 00000000 		.4byte	.LFB10
 2941 001c 10000000 		.4byte	.LFE10-.LFB10
 2942 0020 00000000 		.4byte	.LFB7
 2943 0024 10000000 		.4byte	.LFE7-.LFB7
 2944 0028 00000000 		.4byte	.LFB17
 2945 002c E4000000 		.4byte	.LFE17-.LFB17
 2946 0030 00000000 		.4byte	.LFB16
 2947 0034 1A000000 		.4byte	.LFE16-.LFB16
 2948 0038 00000000 		.4byte	.LFB14
 2949 003c 18000000 		.4byte	.LFE14-.LFB14
 2950 0040 00000000 		.4byte	.LFB8
 2951 0044 18000000 		.4byte	.LFE8-.LFB8
 2952 0048 00000000 		.4byte	.LFB11
 2953 004c 24000000 		.4byte	.LFE11-.LFB11
 2954 0050 00000000 		.4byte	.LFB9
 2955 0054 2C010000 		.4byte	.LFE9-.LFB9
 2956 0058 00000000 		.4byte	.LFB15
 2957 005c 90000000 		.4byte	.LFE15-.LFB15
 2958 0060 00000000 		.4byte	.LFB12
 2959 0064 38010000 		.4byte	.LFE12-.LFB12
 2960 0068 00000000 		.4byte	0
 2961 006c 00000000 		.4byte	0
 2962              		.section	.debug_ranges,"",%progbits
 2963              	.Ldebug_ranges0:
 2964 0000 00000000 		.4byte	.LFB13
 2965 0004 10000000 		.4byte	.LFE13
 2966 0008 00000000 		.4byte	.LFB10
 2967 000c 10000000 		.4byte	.LFE10
 2968 0010 00000000 		.4byte	.LFB7
 2969 0014 10000000 		.4byte	.LFE7
 2970 0018 00000000 		.4byte	.LFB17
 2971 001c E4000000 		.4byte	.LFE17
 2972 0020 00000000 		.4byte	.LFB16
 2973 0024 1A000000 		.4byte	.LFE16
 2974 0028 00000000 		.4byte	.LFB14
 2975 002c 18000000 		.4byte	.LFE14
 2976 0030 00000000 		.4byte	.LFB8
 2977 0034 18000000 		.4byte	.LFE8
 2978 0038 00000000 		.4byte	.LFB11
 2979 003c 24000000 		.4byte	.LFE11
 2980 0040 00000000 		.4byte	.LFB9
 2981 0044 2C010000 		.4byte	.LFE9
 2982 0048 00000000 		.4byte	.LFB15
 2983 004c 90000000 		.4byte	.LFE15
 2984 0050 00000000 		.4byte	.LFB12
 2985 0054 38010000 		.4byte	.LFE12
 2986 0058 00000000 		.4byte	0
 2987 005c 00000000 		.4byte	0
 2988              		.section	.debug_line,"",%progbits
 2989              	.Ldebug_line0:
 2990 0000 81020000 		.section	.debug_str,"MS",%progbits,1
 2990      02001701 
 2990      00000201 
 2990      FB0E0D00 
 2990      01010101 
 2991              	.LASF37:
 2992 0000 705F6D73 		.ascii	"p_msg\000"
ARM GAS  C:\Users\Rob\AppData\Local\Temp\ccqQMFGN.s 			page 54


 2992      6700
 2993              	.LASF72:
 2994 0006 7264796D 		.ascii	"rdymsg\000"
 2994      736700
 2995              	.LASF84:
 2996 000d 73656D32 		.ascii	"sem2_setup\000"
 2996      5F736574 
 2996      757000
 2997              	.LASF91:
 2998 0018 76746C69 		.ascii	"vtlist\000"
 2998      737400
 2999              	.LASF11:
 3000 001f 6C6F6E67 		.ascii	"long long unsigned int\000"
 3000      206C6F6E 
 3000      6720756E 
 3000      7369676E 
 3000      65642069 
 3001              	.LASF73:
 3002 0036 65786974 		.ascii	"exitcode\000"
 3002      636F6465 
 3002      00
 3003              	.LASF25:
 3004 003f 705F7072 		.ascii	"p_prio\000"
 3004      696F00
 3005              	.LASF103:
 3006 0046 433A5C55 		.ascii	"C:\\Users\\Rob\\Projects\\ECE411Practicum\\src\\vir"
 3006      73657273 
 3006      5C526F62 
 3006      5C50726F 
 3006      6A656374 
 3007 0073 756C656E 		.ascii	"ulent\000"
 3007      7400
 3008              	.LASF10:
 3009 0079 6C6F6E67 		.ascii	"long long int\000"
 3009      206C6F6E 
 3009      6720696E 
 3009      7400
 3010              	.LASF1:
 3011 0087 7369676E 		.ascii	"signed char\000"
 3011      65642063 
 3011      68617200 
 3012              	.LASF41:
 3013 0093 705F6D70 		.ascii	"p_mpool\000"
 3013      6F6F6C00 
 3014              	.LASF69:
 3015 009b 6D5F7175 		.ascii	"m_queue\000"
 3015      65756500 
 3016              	.LASF87:
 3017 00a3 74687265 		.ascii	"thread3\000"
 3017      61643300 
 3018              	.LASF16:
 3019 00ab 74736C69 		.ascii	"tslices_t\000"
 3019      6365735F 
 3019      7400
 3020              	.LASF105:
 3021 00b5 73656D32 		.ascii	"sem2_execute\000"
 3021      5F657865 
ARM GAS  C:\Users\Rob\AppData\Local\Temp\ccqQMFGN.s 			page 55


 3021      63757465 
 3021      00
 3022              	.LASF7:
 3023 00c2 6C6F6E67 		.ascii	"long int\000"
 3023      20696E74 
 3023      00
 3024              	.LASF82:
 3025 00cb 74617267 		.ascii	"target_time\000"
 3025      65745F74 
 3025      696D6500 
 3026              	.LASF14:
 3027 00d7 74737461 		.ascii	"tstate_t\000"
 3027      74655F74 
 3027      00
 3028              	.LASF27:
 3029 00e0 705F6E65 		.ascii	"p_newer\000"
 3029      77657200 
 3030              	.LASF64:
 3031 00e8 735F7175 		.ascii	"s_queue\000"
 3031      65756500 
 3032              	.LASF59:
 3033 00f0 725F6E65 		.ascii	"r_newer\000"
 3033      77657200 
 3034              	.LASF44:
 3035 00f8 72656761 		.ascii	"regarm_t\000"
 3035      726D5F74 
 3035      00
 3036              	.LASF50:
 3037 0101 76745F70 		.ascii	"vt_prev\000"
 3037      72657600 
 3038              	.LASF95:
 3039 0109 73656D31 		.ascii	"sem1\000"
 3039      00
 3040              	.LASF21:
 3041 010e 636E745F 		.ascii	"cnt_t\000"
 3041      7400
 3042              	.LASF0:
 3043 0114 756E7369 		.ascii	"unsigned int\000"
 3043      676E6564 
 3043      20696E74 
 3043      00
 3044              	.LASF49:
 3045 0121 76745F6E 		.ascii	"vt_next\000"
 3045      65787400 
 3046              	.LASF104:
 3047 0129 73656D33 		.ascii	"sem3_execute\000"
 3047      5F657865 
 3047      63757465 
 3047      00
 3048              	.LASF96:
 3049 0136 74657374 		.ascii	"testsem1\000"
 3049      73656D31 
 3049      00
 3050              	.LASF97:
 3051 013f 74657374 		.ascii	"testsem2\000"
 3051      73656D32 
 3051      00
ARM GAS  C:\Users\Rob\AppData\Local\Temp\ccqQMFGN.s 			page 56


 3052              	.LASF98:
 3053 0148 74657374 		.ascii	"testsem3\000"
 3053      73656D33 
 3053      00
 3054              	.LASF99:
 3055 0151 74657374 		.ascii	"testsem4\000"
 3055      73656D34 
 3055      00
 3056              	.LASF9:
 3057 015a 6C6F6E67 		.ascii	"long unsigned int\000"
 3057      20756E73 
 3057      69676E65 
 3057      6420696E 
 3057      7400
 3058              	.LASF80:
 3059 016c 74656172 		.ascii	"teardown\000"
 3059      646F776E 
 3059      00
 3060              	.LASF78:
 3061 0175 6E616D65 		.ascii	"name\000"
 3061      00
 3062              	.LASF65:
 3063 017a 735F636E 		.ascii	"s_cnt\000"
 3063      7400
 3064              	.LASF46:
 3065 0180 636F6E74 		.ascii	"context\000"
 3065      65787400 
 3066              	.LASF4:
 3067 0188 73686F72 		.ascii	"short unsigned int\000"
 3067      7420756E 
 3067      7369676E 
 3067      65642069 
 3067      6E7400
 3068              	.LASF94:
 3069 019b 6273656D 		.ascii	"bsem\000"
 3069      00
 3070              	.LASF18:
 3071 01a0 6D73675F 		.ascii	"msg_t\000"
 3071      7400
 3072              	.LASF13:
 3073 01a6 746D6F64 		.ascii	"tmode_t\000"
 3073      655F7400 
 3074              	.LASF43:
 3075 01ae 54687265 		.ascii	"ThreadsList\000"
 3075      6164734C 
 3075      69737400 
 3076              	.LASF19:
 3077 01ba 6576656E 		.ascii	"eventmask_t\000"
 3077      746D6173 
 3077      6B5F7400 
 3078              	.LASF3:
 3079 01c6 73686F72 		.ascii	"short int\000"
 3079      7420696E 
 3079      7400
 3080              	.LASF68:
 3081 01d0 4D757465 		.ascii	"Mutex\000"
 3081      7800
ARM GAS  C:\Users\Rob\AppData\Local\Temp\ccqQMFGN.s 			page 57


 3082              	.LASF106:
 3083 01d6 73656D34 		.ascii	"sem4_execute\000"
 3083      5F657865 
 3083      63757465 
 3083      00
 3084              	.LASF51:
 3085 01e3 76745F74 		.ascii	"vt_time\000"
 3085      696D6500 
 3086              	.LASF52:
 3087 01eb 76745F66 		.ascii	"vt_func\000"
 3087      756E6300 
 3088              	.LASF85:
 3089 01f3 73656D31 		.ascii	"sem1_setup\000"
 3089      5F736574 
 3089      757000
 3090              	.LASF28:
 3091 01fe 705F6F6C 		.ascii	"p_older\000"
 3091      64657200 
 3092              	.LASF88:
 3093 0206 74687265 		.ascii	"thread1\000"
 3093      61643100 
 3094              	.LASF89:
 3095 020e 74687265 		.ascii	"thread2\000"
 3095      61643200 
 3096              	.LASF58:
 3097 0216 725F6374 		.ascii	"r_ctx\000"
 3097      7800
 3098              	.LASF86:
 3099 021c 74687265 		.ascii	"thread4\000"
 3099      61643400 
 3100              	.LASF42:
 3101 0224 54687265 		.ascii	"ThreadsQueue\000"
 3101      61647351 
 3101      75657565 
 3101      00
 3102              	.LASF79:
 3103 0231 73657475 		.ascii	"setup\000"
 3103      7000
 3104              	.LASF61:
 3105 0237 725F6375 		.ascii	"r_current\000"
 3105      7272656E 
 3105      7400
 3106              	.LASF60:
 3107 0241 725F6F6C 		.ascii	"r_older\000"
 3107      64657200 
 3108              	.LASF100:
 3109 0249 70617474 		.ascii	"patternsem\000"
 3109      65726E73 
 3109      656D00
 3110              	.LASF15:
 3111 0254 74726566 		.ascii	"trefs_t\000"
 3111      735F7400 
 3112              	.LASF24:
 3113 025c 705F7072 		.ascii	"p_prev\000"
 3113      657600
 3114              	.LASF81:
 3115 0263 65786563 		.ascii	"execute\000"
ARM GAS  C:\Users\Rob\AppData\Local\Temp\ccqQMFGN.s 			page 58


 3115      75746500 
 3116              	.LASF17:
 3117 026b 74707269 		.ascii	"tprio_t\000"
 3117      6F5F7400 
 3118              	.LASF12:
 3119 0273 5F426F6F 		.ascii	"_Bool\000"
 3119      6C00
 3120              	.LASF6:
 3121 0279 696E7433 		.ascii	"int32_t\000"
 3121      325F7400 
 3122              	.LASF2:
 3123 0281 756E7369 		.ascii	"unsigned char\000"
 3123      676E6564 
 3123      20636861 
 3123      7200
 3124              	.LASF39:
 3125 028f 705F6D74 		.ascii	"p_mtxlist\000"
 3125      786C6973 
 3125      7400
 3126              	.LASF102:
 3127 0299 2E2E2F2E 		.ascii	"../../test/testsem.c\000"
 3127      2E2F7465 
 3127      73742F74 
 3127      65737473 
 3127      656D2E63 
 3128              	.LASF30:
 3129 02ae 705F7374 		.ascii	"p_state\000"
 3129      61746500 
 3130              	.LASF33:
 3131 02b6 705F7072 		.ascii	"p_preempt\000"
 3131      65656D70 
 3131      7400
 3132              	.LASF93:
 3133 02c0 74687265 		.ascii	"threads\000"
 3133      61647300 
 3134              	.LASF57:
 3135 02c8 725F7072 		.ascii	"r_prio\000"
 3135      696F00
 3136              	.LASF75:
 3137 02cf 65776D61 		.ascii	"ewmask\000"
 3137      736B00
 3138              	.LASF23:
 3139 02d6 705F6E65 		.ascii	"p_next\000"
 3139      787400
 3140              	.LASF31:
 3141 02dd 705F666C 		.ascii	"p_flags\000"
 3141      61677300 
 3142              	.LASF22:
 3143 02e5 54687265 		.ascii	"Thread\000"
 3143      616400
 3144              	.LASF77:
 3145 02ec 74657374 		.ascii	"testcase\000"
 3145      63617365 
 3145      00
 3146              	.LASF38:
 3147 02f5 705F6570 		.ascii	"p_epending\000"
 3147      656E6469 
ARM GAS  C:\Users\Rob\AppData\Local\Temp\ccqQMFGN.s 			page 59


 3147      6E6700
 3148              	.LASF90:
 3149 0300 73656D31 		.ascii	"sem1_execute\000"
 3149      5F657865 
 3149      63757465 
 3149      00
 3150              	.LASF8:
 3151 030d 75696E74 		.ascii	"uint32_t\000"
 3151      33325F74 
 3151      00
 3152              	.LASF56:
 3153 0316 725F7175 		.ascii	"r_queue\000"
 3153      65756500 
 3154              	.LASF48:
 3155 031e 56697274 		.ascii	"VirtualTimer\000"
 3155      75616C54 
 3155      696D6572 
 3155      00
 3156              	.LASF101:
 3157 032b 474E5520 		.ascii	"GNU C 4.6.2\000"
 3157      4320342E 
 3157      362E3200 
 3158              	.LASF76:
 3159 0337 63686172 		.ascii	"char\000"
 3159      00
 3160              	.LASF67:
 3161 033c 42696E61 		.ascii	"BinarySemaphore\000"
 3161      72795365 
 3161      6D617068 
 3161      6F726500 
 3162              	.LASF71:
 3163 034c 6D5F6E65 		.ascii	"m_next\000"
 3163      787400
 3164              	.LASF20:
 3165 0353 73797374 		.ascii	"systime_t\000"
 3165      696D655F 
 3165      7400
 3166              	.LASF40:
 3167 035d 705F7265 		.ascii	"p_realprio\000"
 3167      616C7072 
 3167      696F00
 3168              	.LASF47:
 3169 0368 76746675 		.ascii	"vtfunc_t\000"
 3169      6E635F74 
 3169      00
 3170              	.LASF34:
 3171 0371 705F7469 		.ascii	"p_time\000"
 3171      6D6500
 3172              	.LASF45:
 3173 0378 696E7463 		.ascii	"intctx\000"
 3173      747800
 3174              	.LASF36:
 3175 037f 705F6D73 		.ascii	"p_msgqueue\000"
 3175      67717565 
 3175      756500
 3176              	.LASF53:
 3177 038a 76745F70 		.ascii	"vt_par\000"
ARM GAS  C:\Users\Rob\AppData\Local\Temp\ccqQMFGN.s 			page 60


 3177      617200
 3178              	.LASF63:
 3179 0391 53656D61 		.ascii	"Semaphore\000"
 3179      70686F72 
 3179      6500
 3180              	.LASF83:
 3181 039b 73656D33 		.ascii	"sem3_setup\000"
 3181      5F736574 
 3181      757000
 3182              	.LASF32:
 3183 03a6 705F7265 		.ascii	"p_refs\000"
 3183      667300
 3184              	.LASF62:
 3185 03ad 52656164 		.ascii	"ReadyList\000"
 3185      794C6973 
 3185      7400
 3186              	.LASF92:
 3187 03b7 726C6973 		.ascii	"rlist\000"
 3187      7400
 3188              	.LASF5:
 3189 03bd 75696E74 		.ascii	"uint8_t\000"
 3189      385F7400 
 3190              	.LASF74:
 3191 03c5 77746F62 		.ascii	"wtobjp\000"
 3191      6A7000
 3192              	.LASF29:
 3193 03cc 705F6E61 		.ascii	"p_name\000"
 3193      6D6500
 3194              	.LASF54:
 3195 03d3 76745F73 		.ascii	"vt_systime\000"
 3195      79737469 
 3195      6D6500
 3196              	.LASF66:
 3197 03de 62735F73 		.ascii	"bs_sem\000"
 3197      656D00
 3198              	.LASF55:
 3199 03e5 56544C69 		.ascii	"VTList\000"
 3199      737400
 3200              	.LASF70:
 3201 03ec 6D5F6F77 		.ascii	"m_owner\000"
 3201      6E657200 
 3202              	.LASF26:
 3203 03f4 705F6374 		.ascii	"p_ctx\000"
 3203      7800
 3204              	.LASF35:
 3205 03fa 705F7761 		.ascii	"p_waiting\000"
 3205      6974696E 
 3205      6700
 3206              		.ident	"GCC: (GNU) 4.6.2"
ARM GAS  C:\Users\Rob\AppData\Local\Temp\ccqQMFGN.s 			page 61


DEFINED SYMBOLS
                            *ABS*:00000000 testsem.c
C:\Users\Rob\AppData\Local\Temp\ccqQMFGN.s:17     .text.sem3_setup:00000000 $t
C:\Users\Rob\AppData\Local\Temp\ccqQMFGN.s:22     .text.sem3_setup:00000000 sem3_setup
C:\Users\Rob\AppData\Local\Temp\ccqQMFGN.s:42     .text.sem3_setup:0000000c $d
C:\Users\Rob\AppData\Local\Temp\ccqQMFGN.s:47     .text.sem2_setup:00000000 $t
C:\Users\Rob\AppData\Local\Temp\ccqQMFGN.s:52     .text.sem2_setup:00000000 sem2_setup
C:\Users\Rob\AppData\Local\Temp\ccqQMFGN.s:71     .text.sem2_setup:0000000c $d
C:\Users\Rob\AppData\Local\Temp\ccqQMFGN.s:76     .text.sem1_setup:00000000 $t
C:\Users\Rob\AppData\Local\Temp\ccqQMFGN.s:81     .text.sem1_setup:00000000 sem1_setup
C:\Users\Rob\AppData\Local\Temp\ccqQMFGN.s:100    .text.sem1_setup:0000000c $d
C:\Users\Rob\AppData\Local\Temp\ccqQMFGN.s:105    .text.sem4_execute:00000000 $t
C:\Users\Rob\AppData\Local\Temp\ccqQMFGN.s:110    .text.sem4_execute:00000000 sem4_execute
C:\Users\Rob\AppData\Local\Temp\ccqQMFGN.s:252    .text.sem4_execute:000000d4 $d
C:\Users\Rob\AppData\Local\Temp\ccqQMFGN.s:265    .text.thread4:00000000 thread4
C:\Users\Rob\AppData\Local\Temp\ccqQMFGN.s:260    .text.thread4:00000000 $t
C:\Users\Rob\AppData\Local\Temp\ccqQMFGN.s:305    .text.thread3:00000000 $t
C:\Users\Rob\AppData\Local\Temp\ccqQMFGN.s:310    .text.thread3:00000000 thread3
C:\Users\Rob\AppData\Local\Temp\ccqQMFGN.s:337    .text.thread3:00000014 $d
C:\Users\Rob\AppData\Local\Temp\ccqQMFGN.s:342    .text.thread1:00000000 $t
C:\Users\Rob\AppData\Local\Temp\ccqQMFGN.s:347    .text.thread1:00000000 thread1
C:\Users\Rob\AppData\Local\Temp\ccqQMFGN.s:374    .text.thread1:00000014 $d
C:\Users\Rob\AppData\Local\Temp\ccqQMFGN.s:379    .text.thread2:00000000 $t
C:\Users\Rob\AppData\Local\Temp\ccqQMFGN.s:384    .text.thread2:00000000 thread2
C:\Users\Rob\AppData\Local\Temp\ccqQMFGN.s:420    .text.thread2:0000001c $d
C:\Users\Rob\AppData\Local\Temp\ccqQMFGN.s:426    .text.sem1_execute:00000000 $t
C:\Users\Rob\AppData\Local\Temp\ccqQMFGN.s:431    .text.sem1_execute:00000000 sem1_execute
C:\Users\Rob\AppData\Local\Temp\ccqQMFGN.s:604    .text.sem1_execute:00000100 $d
C:\Users\Rob\AppData\Local\Temp\ccqQMFGN.s:619    .text.sem3_execute:00000000 $t
C:\Users\Rob\AppData\Local\Temp\ccqQMFGN.s:624    .text.sem3_execute:00000000 sem3_execute
C:\Users\Rob\AppData\Local\Temp\ccqQMFGN.s:710    .text.sem3_execute:0000007c $d
C:\Users\Rob\AppData\Local\Temp\ccqQMFGN.s:721    .text.sem2_execute:00000000 $t
C:\Users\Rob\AppData\Local\Temp\ccqQMFGN.s:726    .text.sem2_execute:00000000 sem2_execute
C:\Users\Rob\AppData\Local\Temp\ccqQMFGN.s:901    .text.sem2_execute:00000110 $d
C:\Users\Rob\AppData\Local\Temp\ccqQMFGN.s:970    .rodata.patternsem:00000000 patternsem
C:\Users\Rob\AppData\Local\Temp\ccqQMFGN.s:952    .rodata.testsem4:00000000 testsem4
C:\Users\Rob\AppData\Local\Temp\ccqQMFGN.s:943    .rodata.testsem3:00000000 testsem3
C:\Users\Rob\AppData\Local\Temp\ccqQMFGN.s:934    .rodata.testsem2:00000000 testsem2
C:\Users\Rob\AppData\Local\Temp\ccqQMFGN.s:925    .rodata.testsem1:00000000 testsem1
C:\Users\Rob\AppData\Local\Temp\ccqQMFGN.s:922    .rodata.testsem1:00000000 $d
C:\Users\Rob\AppData\Local\Temp\ccqQMFGN.s:931    .rodata.testsem2:00000000 $d
C:\Users\Rob\AppData\Local\Temp\ccqQMFGN.s:940    .rodata.testsem3:00000000 $d
C:\Users\Rob\AppData\Local\Temp\ccqQMFGN.s:949    .rodata.testsem4:00000000 $d
C:\Users\Rob\AppData\Local\Temp\ccqQMFGN.s:958    .data.sem1:00000000 $d
C:\Users\Rob\AppData\Local\Temp\ccqQMFGN.s:962    .data.sem1:00000000 sem1
C:\Users\Rob\AppData\Local\Temp\ccqQMFGN.s:967    .rodata.patternsem:00000000 $d
C:\Users\Rob\AppData\Local\Temp\ccqQMFGN.s:977    .rodata.str1.4:00000000 $d
                     .debug_frame:00000010 $d
C:\Users\Rob\AppData\Local\Temp\ccqQMFGN.s:259    .text.sem4_execute:000000e4 $t
C:\Users\Rob\AppData\Local\Temp\ccqQMFGN.s:341    .text.thread3:00000018 $t
C:\Users\Rob\AppData\Local\Temp\ccqQMFGN.s:378    .text.thread1:00000018 $t
C:\Users\Rob\AppData\Local\Temp\ccqQMFGN.s:425    .text.thread2:00000024 $t
C:\Users\Rob\AppData\Local\Temp\ccqQMFGN.s:618    .text.sem1_execute:0000012c $t
C:\Users\Rob\AppData\Local\Temp\ccqQMFGN.s:921    .text.sem2_execute:00000138 $t

UNDEFINED SYMBOLS
chSemInit
ARM GAS  C:\Users\Rob\AppData\Local\Temp\ccqQMFGN.s 			page 62


chSemReset
_test_assert
chThdCreateStatic
chSemWait
chSchRescheduleS
chSemSignalI
rlist
wa
threads
chSemSignal
test_emit_token
chThdSleep
test_wait_threads
_test_assert_sequence
chSemAddCounterI
chSemSignalWait
chSemWaitTimeout
test_wait_tick
_test_assert_time_window
vtlist
