ARM GAS  C:\Users\Rob\AppData\Local\Temp\ccAwpbdX.s 			page 1


   1              		.cpu cortex-m0
   2              		.fpu softvfp
   3              		.eabi_attribute 20, 1
   4              		.eabi_attribute 21, 1
   5              		.eabi_attribute 23, 3
   6              		.eabi_attribute 24, 1
   7              		.eabi_attribute 25, 1
   8              		.eabi_attribute 26, 1
   9              		.eabi_attribute 30, 2
  10              		.eabi_attribute 18, 4
  11              		.code	16
  12              		.file	"test.c"
  13              		.text
  14              	.Ltext0:
  15              		.cfi_sections	.debug_frame
  16              		.section	.text.tmr,"ax",%progbits
  17              		.align	2
  18              		.p2align 4,,15
  19              		.code	16
  20              		.thumb_func
  21              		.type	tmr, %function
  22              	tmr:
  23              	.LFB54:
  24              		.file 1 "../../test/test.c"
  25              		.loc 1 261 0
  26              		.cfi_startproc
  27              	.LVL0:
  28              		.loc 1 264 0
  29 0000 014B     		ldr	r3, .L2
  30 0002 0122     		mov	r2, #1
  31 0004 1A70     		strb	r2, [r3]
  32              		.loc 1 265 0
  33              		@ sp needed for prologue
  34 0006 7047     		bx	lr
  35              	.L3:
  36              		.align	2
  37              	.L2:
  38 0008 00000000 		.word	.LANCHOR0
  39              		.cfi_endproc
  40              	.LFE54:
  41              		.size	tmr, .-tmr
  42 000c C046C046 		.section	.text.print_line,"ax",%progbits
  43              		.align	2
  44              		.p2align 4,,15
  45              		.code	16
  46              		.thumb_func
  47              		.type	print_line, %function
  48              	print_line:
  49              	.LFB57:
  50              		.loc 1 300 0
  51              		.cfi_startproc
  52 0000 38B5     		push	{r3, r4, r5, lr}
  53              	.LCFI0:
  54              		.cfi_def_cfa_offset 16
  55              		.cfi_offset 3, -16
  56              		.cfi_offset 4, -12
  57              		.cfi_offset 5, -8
ARM GAS  C:\Users\Rob\AppData\Local\Temp\ccAwpbdX.s 			page 2


  58              		.cfi_offset 14, -4
  59              	.LVL1:
  60 0002 084D     		ldr	r5, .L8
  61              		.loc 1 300 0
  62 0004 4C24     		mov	r4, #76
  63              	.LVL2:
  64              	.L5:
  65              		.loc 1 304 0 discriminator 2
  66 0006 2868     		ldr	r0, [r5]
  67 0008 2D21     		mov	r1, #45
  68 000a 0368     		ldr	r3, [r0]
  69 000c 013C     		sub	r4, r4, #1
  70 000e 9B68     		ldr	r3, [r3, #8]
  71 0010 9847     		blx	r3
  72              		.loc 1 303 0 discriminator 2
  73 0012 002C     		cmp	r4, #0
  74 0014 F7D1     		bne	.L5
  75              		.loc 1 305 0
  76 0016 2868     		ldr	r0, [r5]
  77 0018 0349     		ldr	r1, .L8+4
  78 001a 0368     		ldr	r3, [r0]
  79 001c 0222     		mov	r2, #2
  80 001e 1B68     		ldr	r3, [r3]
  81 0020 9847     		blx	r3
  82              		.loc 1 306 0
  83              		@ sp needed for prologue
  84 0022 38BD     		pop	{r3, r4, r5, pc}
  85              	.L9:
  86              		.align	2
  87              	.L8:
  88 0024 00000000 		.word	.LANCHOR1
  89 0028 00000000 		.word	.LC2
  90              		.cfi_endproc
  91              	.LFE57:
  92              		.size	print_line, .-print_line
  93              		.global	__aeabi_uidivmod
  94              		.global	__aeabi_uidiv
  95 002c C046C046 		.section	.text.test_printn,"ax",%progbits
  96              		.align	2
  97              		.p2align 4,,15
  98              		.global	test_printn
  99              		.code	16
 100              		.thumb_func
 101              		.type	test_printn, %function
 102              	test_printn:
 103              	.LFB40:
 104              		.loc 1 91 0
 105              		.cfi_startproc
 106 0000 F0B5     		push	{r4, r5, r6, r7, lr}
 107              	.LCFI1:
 108              		.cfi_def_cfa_offset 20
 109              		.cfi_offset 4, -20
 110              		.cfi_offset 5, -16
 111              		.cfi_offset 6, -12
 112              		.cfi_offset 7, -8
 113              		.cfi_offset 14, -4
 114              	.LVL3:
ARM GAS  C:\Users\Rob\AppData\Local\Temp\ccAwpbdX.s 			page 3


 115 0002 85B0     		sub	sp, sp, #20
 116              	.LCFI2:
 117              		.cfi_def_cfa_offset 40
 118              		.loc 1 94 0
 119 0004 061E     		sub	r6, r0, #0
 120 0006 22D0     		beq	.L16
 121              		.loc 1 97 0
 122 0008 6F46     		mov	r7, sp
 123 000a 6D46     		mov	r5, sp
 124              	.LVL4:
 125              	.L11:
 126              		.loc 1 99 0
 127 000c 301C     		mov	r0, r6
 128 000e 0A21     		mov	r1, #10
 129 0010 FFF7FEFF 		bl	__aeabi_uidivmod
 130 0014 0C1C     		mov	r4, r1
 131 0016 3034     		add	r4, r4, #48
 132 0018 301C     		mov	r0, r6
 133 001a E4B2     		uxtb	r4, r4
 134 001c 0A21     		mov	r1, #10
 135 001e 2C70     		strb	r4, [r5]
 136 0020 FFF7FEFF 		bl	__aeabi_uidiv
 137 0024 0135     		add	r5, r5, #1
 138              	.LVL5:
 139              		.loc 1 98 0
 140 0026 061E     		sub	r6, r0, #0
 141 0028 F0D1     		bne	.L11
 142              		.loc 1 100 0
 143 002a BD42     		cmp	r5, r7
 144 002c 0DD9     		bls	.L10
 145              		.loc 1 91 0
 146 002e 6F46     		mov	r7, sp
 147 0030 0137     		add	r7, r7, #1
 148 0032 0A4E     		ldr	r6, .L18
 149 0034 02E0     		b	.L13
 150              	.LVL6:
 151              	.L17:
 152 0036 AB1E     		sub	r3, r5, #2
 153              		.loc 1 100 0
 154 0038 1C78     		ldrb	r4, [r3]
 155 003a 013D     		sub	r5, r5, #1
 156              	.L13:
 157              		.loc 1 101 0
 158 003c 3068     		ldr	r0, [r6]
 159 003e 211C     		mov	r1, r4
 160 0040 0368     		ldr	r3, [r0]
 161 0042 9B68     		ldr	r3, [r3, #8]
 162 0044 9847     		blx	r3
 163              		.loc 1 100 0
 164 0046 BD42     		cmp	r5, r7
 165 0048 F5D1     		bne	.L17
 166              	.L10:
 167              		.loc 1 103 0
 168 004a 05B0     		add	sp, sp, #20
 169              		@ sp needed for prologue
 170 004c F0BD     		pop	{r4, r5, r6, r7, pc}
 171              	.LVL7:
ARM GAS  C:\Users\Rob\AppData\Local\Temp\ccAwpbdX.s 			page 4


 172              	.L16:
 173              	.LBB24:
 174              	.LBB25:
 175              		.loc 1 95 0
 176 004e 034B     		ldr	r3, .L18
 177 0050 3021     		mov	r1, #48
 178 0052 1868     		ldr	r0, [r3]
 179              	.LVL8:
 180 0054 0368     		ldr	r3, [r0]
 181 0056 9B68     		ldr	r3, [r3, #8]
 182 0058 9847     		blx	r3
 183 005a F6E7     		b	.L10
 184              	.L19:
 185              		.align	2
 186              	.L18:
 187 005c 00000000 		.word	.LANCHOR1
 188              	.LBE25:
 189              	.LBE24:
 190              		.cfi_endproc
 191              	.LFE40:
 192              		.size	test_printn, .-test_printn
 193              		.section	.text.test_print,"ax",%progbits
 194              		.align	2
 195              		.p2align 4,,15
 196              		.global	test_print
 197              		.code	16
 198              		.thumb_func
 199              		.type	test_print, %function
 200              	test_print:
 201              	.LFB41:
 202              		.loc 1 110 0
 203              		.cfi_startproc
 204 0000 38B5     		push	{r3, r4, r5, lr}
 205              	.LCFI3:
 206              		.cfi_def_cfa_offset 16
 207              		.cfi_offset 3, -16
 208              		.cfi_offset 4, -12
 209              		.cfi_offset 5, -8
 210              		.cfi_offset 14, -4
 211              	.LVL9:
 212              		.loc 1 112 0
 213 0002 0178     		ldrb	r1, [r0]
 214 0004 0029     		cmp	r1, #0
 215 0006 09D0     		beq	.L20
 216 0008 054D     		ldr	r5, .L24
 217 000a 041C     		mov	r4, r0
 218              	.LVL10:
 219              	.L22:
 220              		.loc 1 113 0
 221 000c 2868     		ldr	r0, [r5]
 222 000e 0134     		add	r4, r4, #1
 223 0010 0368     		ldr	r3, [r0]
 224 0012 9B68     		ldr	r3, [r3, #8]
 225 0014 9847     		blx	r3
 226              		.loc 1 112 0
 227 0016 2178     		ldrb	r1, [r4]
 228 0018 0029     		cmp	r1, #0
ARM GAS  C:\Users\Rob\AppData\Local\Temp\ccAwpbdX.s 			page 5


 229 001a F7D1     		bne	.L22
 230              	.L20:
 231              		.loc 1 114 0
 232              		@ sp needed for prologue
 233 001c 38BD     		pop	{r3, r4, r5, pc}
 234              	.L25:
 235 001e C046     		.align	2
 236              	.L24:
 237 0020 00000000 		.word	.LANCHOR1
 238              		.cfi_endproc
 239              	.LFE41:
 240              		.size	test_print, .-test_print
 241 0024 C046C046 		.section	.text.test_println,"ax",%progbits
 241      C046C046 
 241      C046C046 
 242              		.align	2
 243              		.p2align 4,,15
 244              		.global	test_println
 245              		.code	16
 246              		.thumb_func
 247              		.type	test_println, %function
 248              	test_println:
 249              	.LFB42:
 250              		.loc 1 121 0
 251              		.cfi_startproc
 252 0000 08B5     		push	{r3, lr}
 253              	.LCFI4:
 254              		.cfi_def_cfa_offset 8
 255              		.cfi_offset 3, -8
 256              		.cfi_offset 14, -4
 257              	.LVL11:
 258              		.loc 1 123 0
 259 0002 FFF7FEFF 		bl	test_print
 260              	.LVL12:
 261              		.loc 1 124 0
 262 0006 044B     		ldr	r3, .L27
 263 0008 0449     		ldr	r1, .L27+4
 264 000a 1868     		ldr	r0, [r3]
 265 000c 0222     		mov	r2, #2
 266 000e 0368     		ldr	r3, [r0]
 267              		.loc 1 125 0
 268              		@ sp needed for prologue
 269              		.loc 1 124 0
 270 0010 1B68     		ldr	r3, [r3]
 271 0012 9847     		blx	r3
 272              		.loc 1 125 0
 273 0014 08BD     		pop	{r3, pc}
 274              	.L28:
 275 0016 C046     		.align	2
 276              	.L27:
 277 0018 00000000 		.word	.LANCHOR1
 278 001c 00000000 		.word	.LC2
 279              		.cfi_endproc
 280              	.LFE42:
 281              		.size	test_println, .-test_println
 282              		.section	.text.test_emit_token,"ax",%progbits
 283              		.align	2
ARM GAS  C:\Users\Rob\AppData\Local\Temp\ccAwpbdX.s 			page 6


 284              		.p2align 4,,15
 285              		.global	test_emit_token
 286              		.code	16
 287              		.thumb_func
 288              		.type	test_emit_token, %function
 289              	test_emit_token:
 290              	.LFB45:
 291              		.loc 1 147 0
 292              		.cfi_startproc
 293              	.LVL13:
 294              		.loc 1 149 0
 295              	@ 149 "../../test/test.c" 1
 296 0000 72B6     		cpsid   i
 297              	@ 0 "" 2
 298              		.loc 1 150 0
 299              		.code	16
 300 0002 034B     		ldr	r3, .L30
 301 0004 1A68     		ldr	r2, [r3]
 302 0006 1070     		strb	r0, [r2]
 303 0008 0132     		add	r2, r2, #1
 304 000a 1A60     		str	r2, [r3]
 305              		.loc 1 151 0
 306              	@ 151 "../../test/test.c" 1
 307 000c 62B6     		cpsie   i
 308              	@ 0 "" 2
 309              		.loc 1 152 0
 310              		.code	16
 311              		@ sp needed for prologue
 312 000e 7047     		bx	lr
 313              	.L31:
 314              		.align	2
 315              	.L30:
 316 0010 00000000 		.word	.LANCHOR2
 317              		.cfi_endproc
 318              	.LFE45:
 319              		.size	test_emit_token, .-test_emit_token
 320 0014 C046C046 		.section	.text._test_fail,"ax",%progbits
 320      C046C046 
 320      C046C046 
 321              		.align	2
 322              		.p2align 4,,15
 323              		.global	_test_fail
 324              		.code	16
 325              		.thumb_func
 326              		.type	_test_fail, %function
 327              	_test_fail:
 328              	.LFB46:
 329              		.loc 1 157 0
 330              		.cfi_startproc
 331              	.LVL14:
 332              		.loc 1 159 0
 333 0000 044A     		ldr	r2, .L33
 334 0002 0123     		mov	r3, #1
 335 0004 1370     		strb	r3, [r2]
 336              		.loc 1 160 0
 337 0006 044A     		ldr	r2, .L33+4
 338              		.loc 1 163 0
ARM GAS  C:\Users\Rob\AppData\Local\Temp\ccAwpbdX.s 			page 7


 339              		@ sp needed for prologue
 340              		.loc 1 160 0
 341 0008 1370     		strb	r3, [r2]
 342              		.loc 1 161 0
 343 000a 044B     		ldr	r3, .L33+8
 344 000c 1860     		str	r0, [r3]
 345              		.loc 1 163 0
 346 000e 0120     		mov	r0, #1
 347              	.LVL15:
 348 0010 7047     		bx	lr
 349              	.L34:
 350 0012 C046     		.align	2
 351              	.L33:
 352 0014 00000000 		.word	.LANCHOR3
 353 0018 00000000 		.word	.LANCHOR4
 354 001c 00000000 		.word	.LANCHOR5
 355              		.cfi_endproc
 356              	.LFE46:
 357              		.size	_test_fail, .-_test_fail
 358              		.section	.text._test_assert,"ax",%progbits
 359              		.align	2
 360              		.p2align 4,,15
 361              		.global	_test_assert
 362              		.code	16
 363              		.thumb_func
 364              		.type	_test_assert, %function
 365              	_test_assert:
 366              	.LFB47:
 367              		.loc 1 165 0
 368              		.cfi_startproc
 369 0000 00B5     		push	{lr}
 370              	.LCFI5:
 371              		.cfi_def_cfa_offset 4
 372              		.cfi_offset 14, -4
 373              	.LVL16:
 374              		.loc 1 165 0
 375 0002 031C     		mov	r3, r0
 376              		.loc 1 169 0
 377 0004 0020     		mov	r0, #0
 378              	.LVL17:
 379              		.loc 1 167 0
 380 0006 0029     		cmp	r1, #0
 381 0008 07D1     		bne	.L36
 382              	.LVL18:
 383              	.LBB26:
 384              	.LBB27:
 385              		.loc 1 159 0
 386 000a 0449     		ldr	r1, .L38
 387              	.LVL19:
 388 000c 0122     		mov	r2, #1
 389 000e 0A70     		strb	r2, [r1]
 390              		.loc 1 160 0
 391 0010 0349     		ldr	r1, .L38+4
 392              	.LBE27:
 393              	.LBE26:
 394              		.loc 1 168 0
 395 0012 0120     		mov	r0, #1
ARM GAS  C:\Users\Rob\AppData\Local\Temp\ccAwpbdX.s 			page 8


 396              	.LBB29:
 397              	.LBB28:
 398              		.loc 1 160 0
 399 0014 0A70     		strb	r2, [r1]
 400              		.loc 1 161 0
 401 0016 034A     		ldr	r2, .L38+8
 402 0018 1360     		str	r3, [r2]
 403              	.LVL20:
 404              	.L36:
 405              	.LBE28:
 406              	.LBE29:
 407              		.loc 1 170 0
 408              		@ sp needed for prologue
 409 001a 00BD     		pop	{pc}
 410              	.L39:
 411              		.align	2
 412              	.L38:
 413 001c 00000000 		.word	.LANCHOR3
 414 0020 00000000 		.word	.LANCHOR4
 415 0024 00000000 		.word	.LANCHOR5
 416              		.cfi_endproc
 417              	.LFE47:
 418              		.size	_test_assert, .-_test_assert
 419 0028 C046C046 		.section	.text._test_assert_sequence,"ax",%progbits
 419      C046C046 
 420              		.align	2
 421              		.p2align 4,,15
 422              		.global	_test_assert_sequence
 423              		.code	16
 424              		.thumb_func
 425              		.type	_test_assert_sequence, %function
 426              	_test_assert_sequence:
 427              	.LFB48:
 428              		.loc 1 172 0
 429              		.cfi_startproc
 430 0000 F0B5     		push	{r4, r5, r6, r7, lr}
 431              	.LCFI6:
 432              		.cfi_def_cfa_offset 20
 433              		.cfi_offset 4, -20
 434              		.cfi_offset 5, -16
 435              		.cfi_offset 6, -12
 436              		.cfi_offset 7, -8
 437              		.cfi_offset 14, -4
 438              	.LVL21:
 439              		.loc 1 181 0
 440 0002 0E4E     		ldr	r6, .L47
 441              		.loc 1 173 0
 442 0004 0E4F     		ldr	r7, .L47+4
 443              		.loc 1 181 0
 444 0006 3568     		ldr	r5, [r6]
 445              		.loc 1 173 0
 446 0008 3B1C     		mov	r3, r7
 447              		.loc 1 174 0
 448 000a 05E0     		b	.L41
 449              	.LVL22:
 450              	.L43:
 451              		.loc 1 175 0
ARM GAS  C:\Users\Rob\AppData\Local\Temp\ccAwpbdX.s 			page 9


 452 000c 1C78     		ldrb	r4, [r3]
 453 000e 0A78     		ldrb	r2, [r1]
 454 0010 0133     		add	r3, r3, #1
 455              	.LVL23:
 456 0012 0131     		add	r1, r1, #1
 457              	.LVL24:
 458 0014 9442     		cmp	r4, r2
 459 0016 07D1     		bne	.L46
 460              	.LVL25:
 461              	.L41:
 462              		.loc 1 174 0 discriminator 1
 463 0018 AB42     		cmp	r3, r5
 464 001a F7D3     		bcc	.L43
 465              		.loc 1 178 0
 466 001c 0B78     		ldrb	r3, [r1]
 467              	.LVL26:
 468 001e 002B     		cmp	r3, #0
 469 0020 02D1     		bne	.L46
 470              	.LBB30:
 471              	.LBB31:
 472              		.loc 1 132 0
 473 0022 3760     		str	r7, [r6]
 474              	.LBE31:
 475              	.LBE30:
 476              		.loc 1 181 0
 477 0024 0020     		mov	r0, #0
 478              	.LVL27:
 479 0026 07E0     		b	.L42
 480              	.LVL28:
 481              	.L46:
 482              	.LBB32:
 483              	.LBB33:
 484              		.loc 1 159 0
 485 0028 064A     		ldr	r2, .L47+8
 486 002a 0123     		mov	r3, #1
 487 002c 1370     		strb	r3, [r2]
 488              		.loc 1 160 0
 489 002e 064A     		ldr	r2, .L47+12
 490 0030 1370     		strb	r3, [r2]
 491              		.loc 1 161 0
 492 0032 064B     		ldr	r3, .L47+16
 493 0034 1860     		str	r0, [r3]
 494              	.LBE33:
 495              	.LBE32:
 496              		.loc 1 179 0
 497 0036 0120     		mov	r0, #1
 498              	.LVL29:
 499              	.L42:
 500              		.loc 1 182 0
 501              		@ sp needed for prologue
 502 0038 F0BD     		pop	{r4, r5, r6, r7, pc}
 503              	.L48:
 504 003a C046     		.align	2
 505              	.L47:
 506 003c 00000000 		.word	.LANCHOR2
 507 0040 00000000 		.word	.LANCHOR6
 508 0044 00000000 		.word	.LANCHOR3
ARM GAS  C:\Users\Rob\AppData\Local\Temp\ccAwpbdX.s 			page 10


 509 0048 00000000 		.word	.LANCHOR4
 510 004c 00000000 		.word	.LANCHOR5
 511              		.cfi_endproc
 512              	.LFE48:
 513              		.size	_test_assert_sequence, .-_test_assert_sequence
 514              		.section	.text._test_assert_time_window,"ax",%progbits
 515              		.align	2
 516              		.p2align 4,,15
 517              		.global	_test_assert_time_window
 518              		.code	16
 519              		.thumb_func
 520              		.type	_test_assert_time_window, %function
 521              	_test_assert_time_window:
 522              	.LFB49:
 523              		.loc 1 184 0
 524              		.cfi_startproc
 525 0000 10B5     		push	{r4, lr}
 526              	.LCFI7:
 527              		.cfi_def_cfa_offset 8
 528              		.cfi_offset 4, -8
 529              		.cfi_offset 14, -4
 530              	.LVL30:
 531              		.loc 1 184 0
 532 0002 041C     		mov	r4, r0
 533              		.loc 1 186 0
 534 0004 081C     		mov	r0, r1
 535              	.LVL31:
 536 0006 111C     		mov	r1, r2
 537              	.LVL32:
 538 0008 FFF7FEFF 		bl	chTimeIsWithin
 539              	.LVL33:
 540              	.LBB34:
 541              	.LBB35:
 542              		.loc 1 169 0
 543 000c 0023     		mov	r3, #0
 544              		.loc 1 167 0
 545 000e 0028     		cmp	r0, #0
 546 0010 07D1     		bne	.L50
 547              	.LVL34:
 548              	.LBB36:
 549              	.LBB37:
 550              		.loc 1 159 0
 551 0012 054A     		ldr	r2, .L52
 552 0014 0123     		mov	r3, #1
 553 0016 1370     		strb	r3, [r2]
 554              		.loc 1 160 0
 555 0018 044A     		ldr	r2, .L52+4
 556 001a 1370     		strb	r3, [r2]
 557              		.loc 1 161 0
 558 001c 044B     		ldr	r3, .L52+8
 559 001e 1C60     		str	r4, [r3]
 560              		.loc 1 168 0
 561 0020 0123     		mov	r3, #1
 562              	.LVL35:
 563              	.L50:
 564              	.LBE37:
 565              	.LBE36:
ARM GAS  C:\Users\Rob\AppData\Local\Temp\ccAwpbdX.s 			page 11


 566              	.LBE35:
 567              	.LBE34:
 568              		.loc 1 187 0
 569 0022 181C     		mov	r0, r3
 570              	.LVL36:
 571              		@ sp needed for prologue
 572              	.LVL37:
 573 0024 10BD     		pop	{r4, pc}
 574              	.L53:
 575 0026 C046     		.align	2
 576              	.L52:
 577 0028 00000000 		.word	.LANCHOR3
 578 002c 00000000 		.word	.LANCHOR4
 579 0030 00000000 		.word	.LANCHOR5
 580              		.cfi_endproc
 581              	.LFE49:
 582              		.size	_test_assert_time_window, .-_test_assert_time_window
 583 0034 C046C046 		.section	.text.test_terminate_threads,"ax",%progbits
 583      C046C046 
 583      C046C046 
 584              		.align	2
 585              		.p2align 4,,15
 586              		.global	test_terminate_threads
 587              		.code	16
 588              		.thumb_func
 589              		.type	test_terminate_threads, %function
 590              	test_terminate_threads:
 591              	.LFB50:
 592              		.loc 1 196 0
 593              		.cfi_startproc
 594 0000 38B5     		push	{r3, r4, r5, lr}
 595              	.LCFI8:
 596              		.cfi_def_cfa_offset 16
 597              		.cfi_offset 3, -16
 598              		.cfi_offset 4, -12
 599              		.cfi_offset 5, -8
 600              		.cfi_offset 14, -4
 601              	.LVL38:
 602              		.loc 1 196 0
 603 0002 054C     		ldr	r4, .L58
 604 0004 251C     		mov	r5, r4
 605 0006 1435     		add	r5, r5, #20
 606              	.LVL39:
 607              	.L56:
 608              		.loc 1 200 0
 609 0008 01CC     		ldmia	r4!, {r0}
 610 000a 0028     		cmp	r0, #0
 611 000c 01D0     		beq	.L55
 612              		.loc 1 201 0
 613 000e FFF7FEFF 		bl	chThdTerminate
 614              	.L55:
 615              		.loc 1 199 0
 616 0012 AC42     		cmp	r4, r5
 617 0014 F8D1     		bne	.L56
 618              		.loc 1 202 0
 619              		@ sp needed for prologue
 620 0016 38BD     		pop	{r3, r4, r5, pc}
ARM GAS  C:\Users\Rob\AppData\Local\Temp\ccAwpbdX.s 			page 12


 621              	.L59:
 622              		.align	2
 623              	.L58:
 624 0018 00000000 		.word	.LANCHOR7
 625              		.cfi_endproc
 626              	.LFE50:
 627              		.size	test_terminate_threads, .-test_terminate_threads
 628 001c C046C046 		.section	.text.test_wait_threads,"ax",%progbits
 629              		.align	2
 630              		.p2align 4,,15
 631              		.global	test_wait_threads
 632              		.code	16
 633              		.thumb_func
 634              		.type	test_wait_threads, %function
 635              	test_wait_threads:
 636              	.LFB51:
 637              		.loc 1 207 0
 638              		.cfi_startproc
 639 0000 70B5     		push	{r4, r5, r6, lr}
 640              	.LCFI9:
 641              		.cfi_def_cfa_offset 16
 642              		.cfi_offset 4, -16
 643              		.cfi_offset 5, -12
 644              		.cfi_offset 6, -8
 645              		.cfi_offset 14, -4
 646              	.LVL40:
 647              		.loc 1 207 0
 648 0002 074C     		ldr	r4, .L64
 649              		.loc 1 213 0
 650 0004 0026     		mov	r6, #0
 651              		.loc 1 207 0
 652 0006 251C     		mov	r5, r4
 653 0008 1435     		add	r5, r5, #20
 654              	.LVL41:
 655              	.L62:
 656              		.loc 1 211 0
 657 000a 2068     		ldr	r0, [r4]
 658 000c 0028     		cmp	r0, #0
 659 000e 02D0     		beq	.L61
 660              		.loc 1 212 0
 661 0010 FFF7FEFF 		bl	chThdWait
 662              		.loc 1 213 0
 663 0014 2660     		str	r6, [r4]
 664              	.L61:
 665 0016 0434     		add	r4, r4, #4
 666              		.loc 1 210 0
 667 0018 AC42     		cmp	r4, r5
 668 001a F6D1     		bne	.L62
 669              		.loc 1 215 0
 670              		@ sp needed for prologue
 671 001c 70BD     		pop	{r4, r5, r6, pc}
 672              	.L65:
 673 001e C046     		.align	2
 674              	.L64:
 675 0020 00000000 		.word	.LANCHOR7
 676              		.cfi_endproc
 677              	.LFE51:
ARM GAS  C:\Users\Rob\AppData\Local\Temp\ccAwpbdX.s 			page 13


 678              		.size	test_wait_threads, .-test_wait_threads
 679 0024 C046C046 		.section	.text.test_cpu_pulse,"ax",%progbits
 679      C046C046 
 679      C046C046 
 680              		.align	2
 681              		.p2align 4,,15
 682              		.global	test_cpu_pulse
 683              		.code	16
 684              		.thumb_func
 685              		.type	test_cpu_pulse, %function
 686              	test_cpu_pulse:
 687              	.LFB52:
 688              		.loc 1 224 0
 689              		.cfi_startproc
 690 0000 70B5     		push	{r4, r5, r6, lr}
 691              	.LCFI10:
 692              		.cfi_def_cfa_offset 16
 693              		.cfi_offset 4, -16
 694              		.cfi_offset 5, -12
 695              		.cfi_offset 6, -8
 696              		.cfi_offset 14, -4
 697              	.LVL42:
 698              		.loc 1 227 0
 699 0002 124B     		ldr	r3, .L73
 700              		.loc 1 228 0
 701 0004 FA21     		mov	r1, #250
 702              		.loc 1 227 0
 703 0006 9D69     		ldr	r5, [r3, #24]
 704              		.loc 1 228 0
 705 0008 114B     		ldr	r3, .L73+4
 706 000a 8900     		lsl	r1, r1, #2
 707 000c 5843     		mul	r0, r3
 708              	.LVL43:
 709 000e 0138     		sub	r0, r0, #1
 710 0010 FFF7FEFF 		bl	__aeabi_uidiv
 711              		.loc 1 227 0
 712 0014 2C6A     		ldr	r4, [r5, #32]
 713              	.LVL44:
 714              		.loc 1 236 0
 715 0016 0022     		mov	r2, #0
 716              		.loc 1 228 0
 717 0018 661C     		add	r6, r4, #1
 718 001a 3618     		add	r6, r6, r0
 719              	.LVL45:
 720 001c 08E0     		b	.L69
 721              	.LVL46:
 722              	.L72:
 723              		.loc 1 235 0 discriminator 1
 724 001e 101C     		mov	r0, r2
 725 0020 B342     		cmp	r3, r6
 726 0022 8941     		sbc	r1, r1, r1
 727 0024 A342     		cmp	r3, r4
 728 0026 5041     		adc	r0, r0, r2
 729 0028 4942     		neg	r1, r1
 730 002a 031C     		mov	r3, r0
 731              	.LVL47:
 732 002c 0B40     		and	r3, r1
ARM GAS  C:\Users\Rob\AppData\Local\Temp\ccAwpbdX.s 			page 14


 733              		.loc 1 236 0 discriminator 1
 734 002e 0BD0     		beq	.L71
 735              	.L69:
 736              		.loc 1 230 0
 737 0030 2B6A     		ldr	r3, [r5, #32]
 738              	.LVL48:
 739              		.loc 1 235 0
 740 0032 B442     		cmp	r4, r6
 741 0034 F3D3     		bcc	.L72
 742              		.loc 1 236 0 discriminator 2
 743 0036 B342     		cmp	r3, r6
 744 0038 8041     		sbc	r0, r0, r0
 745 003a 4042     		neg	r0, r0
 746 003c 111C     		mov	r1, r2
 747 003e A342     		cmp	r3, r4
 748 0040 5141     		adc	r1, r1, r2
 749              		.loc 1 235 0 discriminator 2
 750 0042 031C     		mov	r3, r0
 751              	.LVL49:
 752 0044 0B43     		orr	r3, r1
 753              		.loc 1 236 0 discriminator 2
 754 0046 F3D1     		bne	.L69
 755              	.L71:
 756              		.loc 1 237 0
 757              		@ sp needed for prologue
 758              	.LVL50:
 759              	.LVL51:
 760 0048 70BD     		pop	{r4, r5, r6, pc}
 761              	.L74:
 762 004a C046     		.align	2
 763              	.L73:
 764 004c 00000000 		.word	rlist
 765 0050 A0860100 		.word	100000
 766              		.cfi_endproc
 767              	.LFE52:
 768              		.size	test_cpu_pulse, .-test_cpu_pulse
 769 0054 C046C046 		.section	.text.test_wait_tick,"ax",%progbits
 769      C046C046 
 769      C046C046 
 770              		.align	2
 771              		.p2align 4,,15
 772              		.global	test_wait_tick
 773              		.code	16
 774              		.thumb_func
 775              		.type	test_wait_tick, %function
 776              	test_wait_tick:
 777              	.LFB53:
 778              		.loc 1 245 0
 779              		.cfi_startproc
 780 0000 08B5     		push	{r3, lr}
 781              	.LCFI11:
 782              		.cfi_def_cfa_offset 8
 783              		.cfi_offset 3, -8
 784              		.cfi_offset 14, -4
 785              		.loc 1 247 0
 786 0002 0120     		mov	r0, #1
 787 0004 FFF7FEFF 		bl	chThdSleep
ARM GAS  C:\Users\Rob\AppData\Local\Temp\ccAwpbdX.s 			page 15


 788              		.loc 1 248 0
 789 0008 014B     		ldr	r3, .L76
 790              		.loc 1 249 0
 791              		@ sp needed for prologue
 792              		.loc 1 248 0
 793 000a D868     		ldr	r0, [r3, #12]
 794              		.loc 1 249 0
 795 000c 08BD     		pop	{r3, pc}
 796              	.L77:
 797 000e C046     		.align	2
 798              	.L76:
 799 0010 00000000 		.word	vtlist
 800              		.cfi_endproc
 801              	.LFE53:
 802              		.size	test_wait_tick, .-test_wait_tick
 803 0014 C046C046 		.section	.text.test_start_timer,"ax",%progbits
 803      C046C046 
 803      C046C046 
 804              		.align	2
 805              		.p2align 4,,15
 806              		.global	test_start_timer
 807              		.code	16
 808              		.thumb_func
 809              		.type	test_start_timer, %function
 810              	test_start_timer:
 811              	.LFB55:
 812              		.loc 1 272 0
 813              		.cfi_startproc
 814 0000 08B5     		push	{r3, lr}
 815              	.LCFI12:
 816              		.cfi_def_cfa_offset 8
 817              		.cfi_offset 3, -8
 818              		.cfi_offset 14, -4
 819              	.LVL52:
 820              		.loc 1 275 0
 821 0002 094B     		ldr	r3, .L79
 822 0004 0022     		mov	r2, #0
 823 0006 1A70     		strb	r2, [r3]
 824              		.loc 1 276 0
 825              	@ 276 "../../test/test.c" 1
 826 0008 72B6     		cpsid   i
 827              	@ 0 "" 2
 828              		.loc 1 274 0
 829              		.code	16
 830 000a 084B     		ldr	r3, .L79+4
 831 000c FA21     		mov	r1, #250
 832 000e 5843     		mul	r0, r3
 833              	.LVL53:
 834 0010 8900     		lsl	r1, r1, #2
 835 0012 0138     		sub	r0, r0, #1
 836 0014 FFF7FEFF 		bl	__aeabi_uidiv
 837              		.loc 1 276 0
 838 0018 054A     		ldr	r2, .L79+8
 839              		.loc 1 274 0
 840 001a 411C     		add	r1, r0, #1
 841              		.loc 1 276 0
 842 001c 0023     		mov	r3, #0
ARM GAS  C:\Users\Rob\AppData\Local\Temp\ccAwpbdX.s 			page 16


 843 001e 0548     		ldr	r0, .L79+12
 844 0020 FFF7FEFF 		bl	chVTSetI
 845              	@ 276 "../../test/test.c" 1
 846 0024 62B6     		cpsie   i
 847              	@ 0 "" 2
 848              		.loc 1 277 0
 849              		.code	16
 850              		@ sp needed for prologue
 851 0026 08BD     		pop	{r3, pc}
 852              	.L80:
 853              		.align	2
 854              	.L79:
 855 0028 00000000 		.word	.LANCHOR0
 856 002c A0860100 		.word	100000
 857 0030 00000000 		.word	tmr
 858 0034 00000000 		.word	.LANCHOR8
 859              		.cfi_endproc
 860              	.LFE55:
 861              		.size	test_start_timer, .-test_start_timer
 862 0038 C046C046 		.section	.text.TestThread,"ax",%progbits
 862      C046C046 
 863              		.align	2
 864              		.p2align 4,,15
 865              		.global	TestThread
 866              		.code	16
 867              		.thumb_func
 868              		.type	TestThread, %function
 869              	TestThread:
 870              	.LFB58:
 871              		.loc 1 314 0
 872              		.cfi_startproc
 873 0000 F0B5     		push	{r4, r5, r6, r7, lr}
 874              	.LCFI13:
 875              		.cfi_def_cfa_offset 20
 876              		.cfi_offset 4, -20
 877              		.cfi_offset 5, -16
 878              		.cfi_offset 6, -12
 879              		.cfi_offset 7, -8
 880              		.cfi_offset 14, -4
 881 0002 5F46     		mov	r7, fp
 882 0004 5646     		mov	r6, sl
 883 0006 4D46     		mov	r5, r9
 884 0008 4446     		mov	r4, r8
 885 000a F0B4     		push	{r4, r5, r6, r7}
 886              	.LCFI14:
 887              		.cfi_def_cfa_offset 36
 888              		.cfi_offset 8, -36
 889              		.cfi_offset 9, -32
 890              		.cfi_offset 10, -28
 891              		.cfi_offset 11, -24
 892              	.LVL54:
 893              		.loc 1 317 0
 894 000c 684E     		ldr	r6, .L98
 895              		.loc 1 314 0
 896 000e 83B0     		sub	sp, sp, #12
 897              	.LCFI15:
 898              		.cfi_def_cfa_offset 48
ARM GAS  C:\Users\Rob\AppData\Local\Temp\ccAwpbdX.s 			page 17


 899              		.loc 1 317 0
 900 0010 3060     		str	r0, [r6]
 901              		.loc 1 318 0
 902 0012 6848     		ldr	r0, .L98+4
 903              	.LVL55:
 904 0014 FFF7FEFF 		bl	test_println
 905              	.LVL56:
 906              		.loc 1 319 0
 907 0018 6748     		ldr	r0, .L98+8
 908 001a FFF7FEFF 		bl	test_println
 909              		.loc 1 320 0
 910 001e 6748     		ldr	r0, .L98+12
 911 0020 FFF7FEFF 		bl	test_println
 912              		.loc 1 321 0
 913 0024 6648     		ldr	r0, .L98+16
 914 0026 FFF7FEFF 		bl	test_print
 915              		.loc 1 322 0
 916 002a 6648     		ldr	r0, .L98+20
 917 002c FFF7FEFF 		bl	test_println
 918              		.loc 1 323 0
 919 0030 6548     		ldr	r0, .L98+24
 920 0032 FFF7FEFF 		bl	test_print
 921              		.loc 1 324 0
 922 0036 6548     		ldr	r0, .L98+28
 923 0038 FFF7FEFF 		bl	test_println
 924              		.loc 1 326 0
 925 003c 6448     		ldr	r0, .L98+32
 926 003e FFF7FEFF 		bl	test_print
 927              		.loc 1 327 0
 928 0042 6448     		ldr	r0, .L98+36
 929 0044 FFF7FEFF 		bl	test_println
 930              		.loc 1 329 0
 931 0048 6348     		ldr	r0, .L98+40
 932 004a FFF7FEFF 		bl	test_print
 933              		.loc 1 330 0
 934 004e 6348     		ldr	r0, .L98+44
 935 0050 FFF7FEFF 		bl	test_println
 936              		.loc 1 332 0
 937 0054 6248     		ldr	r0, .L98+48
 938 0056 FFF7FEFF 		bl	test_print
 939              		.loc 1 333 0
 940 005a 6248     		ldr	r0, .L98+52
 941 005c FFF7FEFF 		bl	test_println
 942              		.loc 1 336 0
 943 0060 6148     		ldr	r0, .L98+56
 944 0062 FFF7FEFF 		bl	test_print
 945              		.loc 1 337 0
 946 0066 6148     		ldr	r0, .L98+60
 947 0068 FFF7FEFF 		bl	test_println
 948              		.loc 1 340 0
 949 006c 6048     		ldr	r0, .L98+64
 950 006e FFF7FEFF 		bl	test_print
 951              		.loc 1 341 0
 952 0072 6048     		ldr	r0, .L98+68
 953 0074 FFF7FEFF 		bl	test_println
 954              		.loc 1 344 0
 955 0078 5F48     		ldr	r0, .L98+72
ARM GAS  C:\Users\Rob\AppData\Local\Temp\ccAwpbdX.s 			page 18


 956 007a FFF7FEFF 		bl	test_print
 957              		.loc 1 345 0
 958 007e 5F48     		ldr	r0, .L98+76
 959 0080 FFF7FEFF 		bl	test_println
 960              		.loc 1 347 0
 961 0084 4B48     		ldr	r0, .L98+4
 962 0086 FFF7FEFF 		bl	test_println
 963              		.loc 1 349 0
 964 008a 5D4A     		ldr	r2, .L98+80
 965 008c 0023     		mov	r3, #0
 966 008e 1370     		strb	r3, [r2]
 967              	.LVL57:
 968 0090 5C4B     		ldr	r3, .L98+84
 969 0092 5D4F     		ldr	r7, .L98+88
 970 0094 0433     		add	r3, r3, #4
 971 0096 0193     		str	r3, [sp, #4]
 972              		.loc 1 350 0
 973 0098 0023     		mov	r3, #0
 974 009a 0093     		str	r3, [sp]
 975              	.LBB38:
 976              	.LBB39:
 977              		.loc 1 138 0
 978 009c 9846     		mov	r8, r3
 979              	.LBE39:
 980              	.LBE38:
 981              	.LBB43:
 982              	.LBB44:
 983              	.LBB45:
 984              	.LBB46:
 985              		.loc 1 132 0
 986 009e 5B4B     		ldr	r3, .L98+92
 987 00a0 9B46     		mov	fp, r3
 988              	.LVL58:
 989              	.L82:
 990              	.LBE46:
 991              	.LBE45:
 992              	.LBE44:
 993              	.LBE43:
 994              		.loc 1 351 0 discriminator 1
 995 00a2 009A     		ldr	r2, [sp]
 996              	.LBB53:
 997              	.LBB40:
 998              		.loc 1 138 0 discriminator 1
 999 00a4 0023     		mov	r3, #0
 1000              	.LBE40:
 1001              	.LBE53:
 1002              		.loc 1 351 0 discriminator 1
 1003 00a6 0132     		add	r2, r2, #1
 1004 00a8 0092     		str	r2, [sp]
 1005              	.LBB54:
 1006              	.LBB41:
 1007              		.loc 1 138 0 discriminator 1
 1008 00aa 9A46     		mov	sl, r3
 1009              	.L95:
 1010              	.LVL59:
 1011              	.LBE41:
 1012              	.LBE54:
ARM GAS  C:\Users\Rob\AppData\Local\Temp\ccAwpbdX.s 			page 19


 1013              		.loc 1 353 0 discriminator 1
 1014 00ac 3B68     		ldr	r3, [r7]
 1015 00ae 002B     		cmp	r3, #0
 1016 00b0 59D0     		beq	.L96
 1017              	.L89:
 1018              		.loc 1 354 0
 1019 00b2 FFF7FEFF 		bl	print_line
 1020              		.loc 1 355 0
 1021 00b6 5648     		ldr	r0, .L98+96
 1022 00b8 FFF7FEFF 		bl	test_print
 1023              		.loc 1 356 0
 1024 00bc 0098     		ldr	r0, [sp]
 1025 00be FFF7FEFF 		bl	test_printn
 1026              		.loc 1 357 0
 1027 00c2 5448     		ldr	r0, .L98+100
 1028 00c4 FFF7FEFF 		bl	test_print
 1029              		.loc 1 358 0
 1030 00c8 0122     		mov	r2, #1
 1031 00ca 9244     		add	sl, sl, r2
 1032              	.LVL60:
 1033 00cc 5046     		mov	r0, sl
 1034 00ce FFF7FEFF 		bl	test_printn
 1035              		.loc 1 359 0
 1036 00d2 5148     		ldr	r0, .L98+104
 1037 00d4 FFF7FEFF 		bl	test_print
 1038              		.loc 1 360 0
 1039 00d8 3B68     		ldr	r3, [r7]
 1040 00da 1868     		ldr	r0, [r3]
 1041 00dc FFF7FEFF 		bl	test_print
 1042              		.loc 1 361 0
 1043 00e0 4E48     		ldr	r0, .L98+108
 1044 00e2 FFF7FEFF 		bl	test_println
 1045              		.loc 1 363 0
 1046 00e6 4E48     		ldr	r0, .L98+112
 1047 00e8 FFF7FEFF 		bl	chThdSleep
 1048              	.LBB55:
 1049              	.LBB51:
 1050              		.loc 1 287 0
 1051 00ec 4D4A     		ldr	r2, .L98+116
 1052              	.LBB49:
 1053              	.LBB47:
 1054              		.loc 1 132 0
 1055 00ee 4E4C     		ldr	r4, .L98+120
 1056 00f0 5B46     		mov	r3, fp
 1057              	.LBE47:
 1058              	.LBE49:
 1059              		.loc 1 287 0
 1060 00f2 9146     		mov	r9, r2
 1061              	.LBB50:
 1062              	.LBB48:
 1063              		.loc 1 132 0
 1064 00f4 2360     		str	r3, [r4]
 1065              	.LBE48:
 1066              	.LBE50:
 1067              		.loc 1 287 0
 1068 00f6 4246     		mov	r2, r8
 1069 00f8 4B46     		mov	r3, r9
ARM GAS  C:\Users\Rob\AppData\Local\Temp\ccAwpbdX.s 			page 20


 1070 00fa 1A70     		strb	r2, [r3]
 1071              		.loc 1 289 0
 1072 00fc 4B4B     		ldr	r3, .L98+124
 1073              	.LBE51:
 1074              	.LBE55:
 1075              		.loc 1 365 0
 1076 00fe 20CF     		ldmia	r7!, {r5}
 1077              	.LVL61:
 1078              	.LBB56:
 1079              	.LBB52:
 1080              		.loc 1 289 0
 1081 0100 4246     		mov	r2, r8
 1082 0102 1A60     		str	r2, [r3]
 1083              	.LVL62:
 1084 0104 5A60     		str	r2, [r3, #4]
 1085              	.LVL63:
 1086 0106 9A60     		str	r2, [r3, #8]
 1087              	.LVL64:
 1088 0108 DA60     		str	r2, [r3, #12]
 1089              	.LVL65:
 1090 010a 1A61     		str	r2, [r3, #16]
 1091              	.LVL66:
 1092              		.loc 1 291 0
 1093 010c 6B68     		ldr	r3, [r5, #4]
 1094 010e 002B     		cmp	r3, #0
 1095 0110 00D0     		beq	.L83
 1096              		.loc 1 292 0
 1097 0112 9847     		blx	r3
 1098              	.LVL67:
 1099              	.L83:
 1100              		.loc 1 293 0
 1101 0114 EB68     		ldr	r3, [r5, #12]
 1102 0116 9847     		blx	r3
 1103              		.loc 1 294 0
 1104 0118 AB68     		ldr	r3, [r5, #8]
 1105 011a 002B     		cmp	r3, #0
 1106 011c 00D0     		beq	.L84
 1107              		.loc 1 295 0
 1108 011e 9847     		blx	r3
 1109              	.L84:
 1110              		.loc 1 297 0
 1111 0120 FFF7FEFF 		bl	test_wait_threads
 1112              	.LBE52:
 1113              	.LBE56:
 1114              		.loc 1 366 0
 1115 0124 4A46     		mov	r2, r9
 1116 0126 1378     		ldrb	r3, [r2]
 1117 0128 002B     		cmp	r3, #0
 1118 012a 39D0     		beq	.L85
 1119              		.loc 1 367 0
 1120 012c 4048     		ldr	r0, .L98+128
 1121 012e FFF7FEFF 		bl	test_print
 1122              		.loc 1 368 0
 1123 0132 404B     		ldr	r3, .L98+132
 1124 0134 1868     		ldr	r0, [r3]
 1125 0136 FFF7FEFF 		bl	test_printn
 1126              		.loc 1 369 0
ARM GAS  C:\Users\Rob\AppData\Local\Temp\ccAwpbdX.s 			page 21


 1127 013a 3F48     		ldr	r0, .L98+136
 1128 013c FFF7FEFF 		bl	test_print
 1129              	.LVL68:
 1130              	.LBB57:
 1131              	.LBB42:
 1132              		.loc 1 138 0
 1133 0140 2368     		ldr	r3, [r4]
 1134 0142 5B45     		cmp	r3, fp
 1135 0144 09D9     		bls	.L86
 1136 0146 5D46     		mov	r5, fp
 1137              	.LVL69:
 1138              	.L87:
 1139              		.loc 1 139 0
 1140 0148 3068     		ldr	r0, [r6]
 1141 014a 2978     		ldrb	r1, [r5]
 1142 014c 0368     		ldr	r3, [r0]
 1143 014e 0135     		add	r5, r5, #1
 1144              	.LVL70:
 1145 0150 9B68     		ldr	r3, [r3, #8]
 1146 0152 9847     		blx	r3
 1147              		.loc 1 138 0
 1148 0154 2368     		ldr	r3, [r4]
 1149 0156 9D42     		cmp	r5, r3
 1150 0158 F6D3     		bcc	.L87
 1151              	.LVL71:
 1152              	.L86:
 1153              	.LBE42:
 1154              	.LBE57:
 1155              		.loc 1 371 0
 1156 015a 3848     		ldr	r0, .L98+140
 1157 015c FFF7FEFF 		bl	test_println
 1158              	.LVL72:
 1159              		.loc 1 353 0
 1160 0160 3B68     		ldr	r3, [r7]
 1161 0162 002B     		cmp	r3, #0
 1162 0164 A5D1     		bne	.L89
 1163              	.LVL73:
 1164              	.L96:
 1165              		.loc 1 351 0
 1166 0166 019B     		ldr	r3, [sp, #4]
 1167 0168 80CB     		ldmia	r3!, {r7}
 1168 016a 0193     		str	r3, [sp, #4]
 1169 016c 002F     		cmp	r7, #0
 1170 016e 98D1     		bne	.L82
 1171              		.loc 1 379 0
 1172 0170 FFF7FEFF 		bl	print_line
 1173              		.loc 1 380 0
 1174 0174 0F48     		ldr	r0, .L98+4
 1175 0176 FFF7FEFF 		bl	test_println
 1176              		.loc 1 381 0
 1177 017a 3148     		ldr	r0, .L98+144
 1178 017c FFF7FEFF 		bl	test_print
 1179              		.loc 1 382 0
 1180 0180 1F4A     		ldr	r2, .L98+80
 1181 0182 1378     		ldrb	r3, [r2]
 1182 0184 002B     		cmp	r3, #0
 1183 0186 0FD1     		bne	.L97
ARM GAS  C:\Users\Rob\AppData\Local\Temp\ccAwpbdX.s 			page 22


 1184              		.loc 1 385 0
 1185 0188 2E48     		ldr	r0, .L98+148
 1186 018a FFF7FEFF 		bl	test_println
 1187              	.L93:
 1188              		.loc 1 387 0
 1189 018e 1C4B     		ldr	r3, .L98+80
 1190              		.loc 1 388 0
 1191 0190 03B0     		add	sp, sp, #12
 1192              	.LVL74:
 1193              		.loc 1 387 0
 1194 0192 1878     		ldrb	r0, [r3]
 1195              		.loc 1 388 0
 1196              		@ sp needed for prologue
 1197              	.LVL75:
 1198 0194 3CBC     		pop	{r2, r3, r4, r5}
 1199 0196 9046     		mov	r8, r2
 1200 0198 9946     		mov	r9, r3
 1201 019a A246     		mov	sl, r4
 1202 019c AB46     		mov	fp, r5
 1203 019e F0BD     		pop	{r4, r5, r6, r7, pc}
 1204              	.LVL76:
 1205              	.L85:
 1206              		.loc 1 374 0
 1207 01a0 2948     		ldr	r0, .L98+152
 1208 01a2 FFF7FEFF 		bl	test_println
 1209 01a6 81E7     		b	.L95
 1210              	.LVL77:
 1211              	.L97:
 1212              		.loc 1 383 0
 1213 01a8 2848     		ldr	r0, .L98+156
 1214 01aa FFF7FEFF 		bl	test_println
 1215 01ae EEE7     		b	.L93
 1216              	.L99:
 1217              		.align	2
 1218              	.L98:
 1219 01b0 00000000 		.word	.LANCHOR1
 1220 01b4 04000000 		.word	.LC38
 1221 01b8 08000000 		.word	.LC40
 1222 01bc 24000000 		.word	.LC42
 1223 01c0 28000000 		.word	.LC44
 1224 01c4 3C000000 		.word	.LC46
 1225 01c8 4C000000 		.word	.LC48
 1226 01cc 60000000 		.word	.LC50
 1227 01d0 78000000 		.word	.LC52
 1228 01d4 8C000000 		.word	.LC54
 1229 01d8 98000000 		.word	.LC56
 1230 01dc AC000000 		.word	.LC58
 1231 01e0 B4000000 		.word	.LC60
 1232 01e4 C8000000 		.word	.LC62
 1233 01e8 D4000000 		.word	.LC64
 1234 01ec E8000000 		.word	.LC66
 1235 01f0 00010000 		.word	.LC68
 1236 01f4 14010000 		.word	.LC70
 1237 01f8 2C010000 		.word	.LC72
 1238 01fc 40010000 		.word	.LC74
 1239 0200 00000000 		.word	.LANCHOR4
 1240 0204 00000000 		.word	.LANCHOR9
ARM GAS  C:\Users\Rob\AppData\Local\Temp\ccAwpbdX.s 			page 23


 1241 0208 00000000 		.word	patternthd
 1242 020c 00000000 		.word	.LANCHOR6
 1243 0210 58010000 		.word	.LC79
 1244 0214 68010000 		.word	.LC81
 1245 0218 6C010000 		.word	.LC83
 1246 021c 70010000 		.word	.LC85
 1247 0220 204E0000 		.word	20000
 1248 0224 00000000 		.word	.LANCHOR3
 1249 0228 00000000 		.word	.LANCHOR2
 1250 022c 00000000 		.word	.LANCHOR7
 1251 0230 74010000 		.word	.LC90
 1252 0234 00000000 		.word	.LANCHOR5
 1253 0238 8C010000 		.word	.LC93
 1254 023c 90010000 		.word	.LC95
 1255 0240 A8010000 		.word	.LC99
 1256 0244 C0010000 		.word	.LC103
 1257 0248 94010000 		.word	.LC97
 1258 024c B8010000 		.word	.LC101
 1259              		.cfi_endproc
 1260              	.LFE58:
 1261              		.size	TestThread, .-TestThread
 1262              		.global	test_timer_done
 1263              		.global	wa
 1264              		.global	threads
 1265              		.global	test
 1266              		.section	.bss.test,"aw",%nobits
 1267              		.align	3
 1268              		.type	test, %object
 1269              		.size	test, 1520
 1270              	test:
 1271 0000 00000000 		.space	1520
 1271      00000000 
 1271      00000000 
 1271      00000000 
 1271      00000000 
 1272              		.section	.bss.failpoint,"aw",%nobits
 1273              		.align	2
 1274              		.set	.LANCHOR5,. + 0
 1275              		.type	failpoint, %object
 1276              		.size	failpoint, 4
 1277              	failpoint:
 1278 0000 00000000 		.space	4
 1279              		.section	.bss.local_fail,"aw",%nobits
 1280              		.set	.LANCHOR3,. + 0
 1281              		.type	local_fail, %object
 1282              		.size	local_fail, 1
 1283              	local_fail:
 1284 0000 00       		.space	1
 1285              		.section	.bss.test_timer_done,"aw",%nobits
 1286              		.set	.LANCHOR0,. + 0
 1287              		.type	test_timer_done, %object
 1288              		.size	test_timer_done, 1
 1289              	test_timer_done:
 1290 0000 00       		.space	1
 1291              		.section	.rodata.wa,"a",%progbits
 1292              		.align	2
 1293              		.type	wa, %object
ARM GAS  C:\Users\Rob\AppData\Local\Temp\ccAwpbdX.s 			page 24


 1294              		.size	wa, 20
 1295              	wa:
 1296 0000 00000000 		.word	test
 1297 0004 30010000 		.word	test+304
 1298 0008 60020000 		.word	test+608
 1299 000c 90030000 		.word	test+912
 1300 0010 C0040000 		.word	test+1216
 1301              		.section	.bss.tokp,"aw",%nobits
 1302              		.align	2
 1303              		.set	.LANCHOR2,. + 0
 1304              		.type	tokp, %object
 1305              		.size	tokp, 4
 1306              	tokp:
 1307 0000 00000000 		.space	4
 1308              		.section	.bss.global_fail,"aw",%nobits
 1309              		.set	.LANCHOR4,. + 0
 1310              		.type	global_fail, %object
 1311              		.size	global_fail, 1
 1312              	global_fail:
 1313 0000 00       		.space	1
 1314              		.section	.rodata.str1.4,"aMS",%progbits,1
 1315              		.align	2
 1316              	.LC2:
 1317 0000 0D0A00   		.ascii	"\015\012\000"
 1318 0003 00       		.space	1
 1319              	.LC38:
 1320 0004 00       		.ascii	"\000"
 1321 0005 000000   		.space	3
 1322              	.LC40:
 1323 0008 2A2A2A20 		.ascii	"*** ChibiOS/RT test suite\000"
 1323      43686962 
 1323      694F532F 
 1323      52542074 
 1323      65737420 
 1324 0022 0000     		.space	2
 1325              	.LC42:
 1326 0024 2A2A2A00 		.ascii	"***\000"
 1327              	.LC44:
 1328 0028 2A2A2A20 		.ascii	"*** Kernel:       \000"
 1328      4B65726E 
 1328      656C3A20 
 1328      20202020 
 1328      202000
 1329 003b 00       		.space	1
 1330              	.LC46:
 1331 003c 322E372E 		.ascii	"2.7.0unstable\000"
 1331      30756E73 
 1331      7461626C 
 1331      6500
 1332 004a 0000     		.space	2
 1333              	.LC48:
 1334 004c 2A2A2A20 		.ascii	"*** Compiled:     \000"
 1334      436F6D70 
 1334      696C6564 
 1334      3A202020 
 1334      202000
 1335 005f 00       		.space	1
ARM GAS  C:\Users\Rob\AppData\Local\Temp\ccAwpbdX.s 			page 25


 1336              	.LC50:
 1337 0060 4F637420 		.ascii	"Oct 21 2013 - 15:01:12\000"
 1337      32312032 
 1337      30313320 
 1337      2D203135 
 1337      3A30313A 
 1338 0077 00       		.space	1
 1339              	.LC52:
 1340 0078 2A2A2A20 		.ascii	"*** Compiler:     \000"
 1340      436F6D70 
 1340      696C6572 
 1340      3A202020 
 1340      202000
 1341 008b 00       		.space	1
 1342              	.LC54:
 1343 008c 47434320 		.ascii	"GCC 4.6.2\000"
 1343      342E362E 
 1343      3200
 1344 0096 0000     		.space	2
 1345              	.LC56:
 1346 0098 2A2A2A20 		.ascii	"*** Architecture: \000"
 1346      41726368 
 1346      69746563 
 1346      74757265 
 1346      3A2000
 1347 00ab 00       		.space	1
 1348              	.LC58:
 1349 00ac 41524D76 		.ascii	"ARMv6-M\000"
 1349      362D4D00 
 1350              	.LC60:
 1351 00b4 2A2A2A20 		.ascii	"*** Core Variant: \000"
 1351      436F7265 
 1351      20566172 
 1351      69616E74 
 1351      3A2000
 1352 00c7 00       		.space	1
 1353              	.LC62:
 1354 00c8 436F7274 		.ascii	"Cortex-M0\000"
 1354      65782D4D 
 1354      3000
 1355 00d2 0000     		.space	2
 1356              	.LC64:
 1357 00d4 2A2A2A20 		.ascii	"*** Port Info:    \000"
 1357      506F7274 
 1357      20496E66 
 1357      6F3A2020 
 1357      202000
 1358 00e7 00       		.space	1
 1359              	.LC66:
 1360 00e8 50726565 		.ascii	"Preemption through NMI\000"
 1360      6D707469 
 1360      6F6E2074 
 1360      68726F75 
 1360      6768204E 
 1361 00ff 00       		.space	1
 1362              	.LC68:
 1363 0100 2A2A2A20 		.ascii	"*** Platform:     \000"
ARM GAS  C:\Users\Rob\AppData\Local\Temp\ccAwpbdX.s 			page 26


 1363      506C6174 
 1363      666F726D 
 1363      3A202020 
 1363      202000
 1364 0113 00       		.space	1
 1365              	.LC70:
 1366 0114 53544D33 		.ascii	"STM32F05x Entry Level\000"
 1366      32463035 
 1366      7820456E 
 1366      74727920 
 1366      4C657665 
 1367 012a 0000     		.space	2
 1368              	.LC72:
 1369 012c 2A2A2A20 		.ascii	"*** Test Board:   \000"
 1369      54657374 
 1369      20426F61 
 1369      72643A20 
 1369      202000
 1370 013f 00       		.space	1
 1371              	.LC74:
 1372 0140 53542053 		.ascii	"ST STM32F0-Discovery\000"
 1372      544D3332 
 1372      46302D44 
 1372      6973636F 
 1372      76657279 
 1373 0155 000000   		.space	3
 1374              	.LC79:
 1375 0158 2D2D2D20 		.ascii	"--- Test Case \000"
 1375      54657374 
 1375      20436173 
 1375      652000
 1376 0167 00       		.space	1
 1377              	.LC81:
 1378 0168 2E00     		.ascii	".\000"
 1379 016a 0000     		.space	2
 1380              	.LC83:
 1381 016c 202800   		.ascii	" (\000"
 1382 016f 00       		.space	1
 1383              	.LC85:
 1384 0170 2900     		.ascii	")\000"
 1385 0172 0000     		.space	2
 1386              	.LC90:
 1387 0174 2D2D2D20 		.ascii	"--- Result: FAILURE (#\000"
 1387      52657375 
 1387      6C743A20 
 1387      4641494C 
 1387      55524520 
 1388 018b 00       		.space	1
 1389              	.LC93:
 1390 018c 205B00   		.ascii	" [\000"
 1391 018f 00       		.space	1
 1392              	.LC95:
 1393 0190 5D2900   		.ascii	"])\000"
 1394 0193 00       		.space	1
 1395              	.LC97:
 1396 0194 2D2D2D20 		.ascii	"--- Result: SUCCESS\000"
 1396      52657375 
ARM GAS  C:\Users\Rob\AppData\Local\Temp\ccAwpbdX.s 			page 27


 1396      6C743A20 
 1396      53554343 
 1396      45535300 
 1397              	.LC99:
 1398 01a8 46696E61 		.ascii	"Final result: \000"
 1398      6C207265 
 1398      73756C74 
 1398      3A2000
 1399 01b7 00       		.space	1
 1400              	.LC101:
 1401 01b8 4641494C 		.ascii	"FAILURE\000"
 1401      55524500 
 1402              	.LC103:
 1403 01c0 53554343 		.ascii	"SUCCESS\000"
 1403      45535300 
 1404              		.section	.bss.vt,"aw",%nobits
 1405              		.align	2
 1406              		.set	.LANCHOR8,. + 0
 1407              		.type	vt, %object
 1408              		.size	vt, 20
 1409              	vt:
 1410 0000 00000000 		.space	20
 1410      00000000 
 1410      00000000 
 1410      00000000 
 1410      00000000 
 1411              		.section	.bss.threads,"aw",%nobits
 1412              		.align	2
 1413              		.set	.LANCHOR7,. + 0
 1414              		.type	threads, %object
 1415              		.size	threads, 20
 1416              	threads:
 1417 0000 00000000 		.space	20
 1417      00000000 
 1417      00000000 
 1417      00000000 
 1417      00000000 
 1418              		.section	.rodata.patterns,"a",%progbits
 1419              		.align	2
 1420              		.set	.LANCHOR9,. + 0
 1421              		.type	patterns, %object
 1422              		.size	patterns, 48
 1423              	patterns:
 1424 0000 00000000 		.word	patternthd
 1425 0004 00000000 		.word	patternsem
 1426 0008 00000000 		.word	patternmtx
 1427 000c 00000000 		.word	patternmsg
 1428 0010 00000000 		.word	patternmbox
 1429 0014 00000000 		.word	patternevt
 1430 0018 00000000 		.word	patternheap
 1431 001c 00000000 		.word	patternpools
 1432 0020 00000000 		.word	patterndyn
 1433 0024 00000000 		.word	patternqueues
 1434 0028 00000000 		.word	patternbmk
 1435 002c 00000000 		.word	0
 1436              		.section	.bss.chp,"aw",%nobits
 1437              		.align	2
ARM GAS  C:\Users\Rob\AppData\Local\Temp\ccAwpbdX.s 			page 28


 1438              		.set	.LANCHOR1,. + 0
 1439              		.type	chp, %object
 1440              		.size	chp, 4
 1441              	chp:
 1442 0000 00000000 		.space	4
 1443              		.section	.bss.tokens_buffer,"aw",%nobits
 1444              		.align	2
 1445              		.set	.LANCHOR6,. + 0
 1446              		.type	tokens_buffer, %object
 1447              		.size	tokens_buffer, 16
 1448              	tokens_buffer:
 1449 0000 00000000 		.space	16
 1449      00000000 
 1449      00000000 
 1449      00000000 
 1450              		.text
 1451              	.Letext0:
 1452              		.file 2 "c:\\yagarto\\bin\\../lib/gcc/arm-none-eabi/4.6.2/include/stddef.h"
 1453              		.file 3 "c:/yagarto/lib/gcc/../../arm-none-eabi/sys-include/stdint.h"
 1454              		.file 4 "../../os/ports/GCC/ARMCMx/chtypes.h"
 1455              		.file 5 "../../os/kernel/include/chlists.h"
 1456              		.file 6 "../../os/kernel/include/chthreads.h"
 1457              		.file 7 "../../os/ports/GCC/ARMCMx/chcore_v6m.h"
 1458              		.file 8 "../../os/kernel/include/chvt.h"
 1459              		.file 9 "../../os/kernel/include/chschd.h"
 1460              		.file 10 "../../os/kernel/include/chmtx.h"
 1461              		.file 11 "../../os/kernel/include/chstreams.h"
 1462              		.file 12 "../../test/test.h"
 1463              		.file 13 "../../test/testthd.h"
 1464              		.file 14 "../../test/testsem.h"
 1465              		.file 15 "../../test/testmtx.h"
 1466              		.file 16 "../../test/testmsg.h"
 1467              		.file 17 "../../test/testmbox.h"
 1468              		.file 18 "../../test/testevt.h"
 1469              		.file 19 "../../test/testheap.h"
 1470              		.file 20 "../../test/testpools.h"
 1471              		.file 21 "../../test/testdyn.h"
 1472              		.file 22 "../../test/testqueues.h"
 1473              		.file 23 "../../test/testbmk.h"