ARM GAS  C:\Users\Rob\AppData\Local\Temp\ccR9Ca4b.s 			page 1


   1              		.cpu cortex-m0
   2              		.fpu softvfp
   3              		.eabi_attribute 20, 1
   4              		.eabi_attribute 21, 1
   5              		.eabi_attribute 23, 3
   6              		.eabi_attribute 24, 1
   7              		.eabi_attribute 25, 1
   8              		.eabi_attribute 26, 1
   9              		.eabi_attribute 30, 2
  10              		.eabi_attribute 18, 4
  11              		.code	16
  12              		.file	"testmtx.c"
  13              		.text
  14              	.Ltext0:
  15              		.cfi_sections	.debug_frame
  16              		.section	.text.mtx8_execute,"ax",%progbits
  17              		.align	2
  18              		.p2align 4,,15
  19              		.code	16
  20              		.thumb_func
  21              		.type	mtx8_execute, %function
  22              	mtx8_execute:
  23              	.LFB36:
  24              		.file 1 "../../test/testmtx.c"
  25              		.loc 1 595 0
  26              		.cfi_startproc
  27 0000 F0B5     		push	{r4, r5, r6, r7, lr}
  28              	.LCFI0:
  29              		.cfi_def_cfa_offset 20
  30              		.cfi_offset 4, -20
  31              		.cfi_offset 5, -16
  32              		.cfi_offset 6, -12
  33              		.cfi_offset 7, -8
  34              		.cfi_offset 14, -4
  35              		.loc 1 597 0
  36 0002 194B     		ldr	r3, .L2
  37              		.loc 1 598 0
  38 0004 194E     		ldr	r6, .L2+4
  39              		.loc 1 597 0
  40 0006 9B69     		ldr	r3, [r3, #24]
  41              		.loc 1 598 0
  42 0008 9827     		mov	r7, #152
  43              		.loc 1 597 0
  44 000a 9D68     		ldr	r5, [r3, #8]
  45              	.LVL0:
  46              		.loc 1 598 0
  47 000c 184B     		ldr	r3, .L2+8
  48              		.loc 1 595 0
  49 000e 83B0     		sub	sp, sp, #12
  50              	.LCFI1:
  51              		.cfi_def_cfa_offset 32
  52              		.loc 1 598 0
  53 0010 7F00     		lsl	r7, r7, #1
  54 0012 6A1C     		add	r2, r5, #1
  55 0014 391C     		mov	r1, r7
  56 0016 3068     		ldr	r0, [r6]
  57 0018 0093     		str	r3, [sp]
ARM GAS  C:\Users\Rob\AppData\Local\Temp\ccR9Ca4b.s 			page 2


  58 001a 164B     		ldr	r3, .L2+12
  59 001c FFF7FEFF 		bl	chThdCreateStatic
  60              	.LVL1:
  61 0020 154C     		ldr	r4, .L2+16
  62              		.loc 1 599 0
  63 0022 164B     		ldr	r3, .L2+20
  64              		.loc 1 598 0
  65 0024 2060     		str	r0, [r4]
  66              		.loc 1 599 0
  67 0026 AA1C     		add	r2, r5, #2
  68 0028 391C     		mov	r1, r7
  69 002a 7068     		ldr	r0, [r6, #4]
  70 002c 0093     		str	r3, [sp]
  71 002e 144B     		ldr	r3, .L2+24
  72 0030 FFF7FEFF 		bl	chThdCreateStatic
  73              		.loc 1 600 0
  74 0034 134B     		ldr	r3, .L2+28
  75 0036 EA1C     		add	r2, r5, #3
  76 0038 391C     		mov	r1, r7
  77              		.loc 1 599 0
  78 003a 6060     		str	r0, [r4, #4]
  79              		.loc 1 600 0
  80 003c B068     		ldr	r0, [r6, #8]
  81 003e 0093     		str	r3, [sp]
  82 0040 114B     		ldr	r3, .L2+32
  83 0042 FFF7FEFF 		bl	chThdCreateStatic
  84 0046 A060     		str	r0, [r4, #8]
  85              		.loc 1 601 0
  86 0048 104C     		ldr	r4, .L2+36
  87 004a 201C     		mov	r0, r4
  88 004c FFF7FEFF 		bl	chCondSignal
  89              		.loc 1 602 0
  90 0050 201C     		mov	r0, r4
  91 0052 FFF7FEFF 		bl	chCondSignal
  92              		.loc 1 603 0
  93 0056 FFF7FEFF 		bl	test_wait_threads
  94              		.loc 1 604 0
  95 005a 0D49     		ldr	r1, .L2+40
  96 005c 0120     		mov	r0, #1
  97 005e FFF7FEFF 		bl	_test_assert_sequence
  98              		.loc 1 605 0
  99 0062 03B0     		add	sp, sp, #12
 100              		@ sp needed for prologue
 101              	.LVL2:
 102 0064 F0BD     		pop	{r4, r5, r6, r7, pc}
 103              	.L3:
 104 0066 C046     		.align	2
 105              	.L2:
 106 0068 00000000 		.word	rlist
 107 006c 00000000 		.word	wa
 108 0070 00000000 		.word	.LC3
 109 0074 00000000 		.word	thread11
 110 0078 00000000 		.word	threads
 111 007c 04000000 		.word	.LC7
 112 0080 00000000 		.word	thread10
 113 0084 08000000 		.word	.LC10
 114 0088 00000000 		.word	thread12
ARM GAS  C:\Users\Rob\AppData\Local\Temp\ccR9Ca4b.s 			page 3


 115 008c 00000000 		.word	.LANCHOR0
 116 0090 0C000000 		.word	.LC13
 117              		.cfi_endproc
 118              	.LFE36:
 119              		.size	mtx8_execute, .-mtx8_execute
 120 0094 C046C046 		.section	.text.thread12,"ax",%progbits
 120      C046C046 
 120      C046C046 
 121              		.align	2
 122              		.p2align 4,,15
 123              		.code	16
 124              		.thumb_func
 125              		.type	thread12, %function
 126              	thread12:
 127              	.LFB35:
 128              		.loc 1 587 0
 129              		.cfi_startproc
 130 0000 10B5     		push	{r4, lr}
 131              	.LCFI2:
 132              		.cfi_def_cfa_offset 8
 133              		.cfi_offset 4, -8
 134              		.cfi_offset 14, -4
 135              	.LVL3:
 136              		.loc 1 587 0
 137 0002 041C     		mov	r4, r0
 138              		.loc 1 589 0
 139 0004 0448     		ldr	r0, .L5
 140              	.LVL4:
 141 0006 FFF7FEFF 		bl	chMtxLock
 142              		.loc 1 590 0
 143 000a 2078     		ldrb	r0, [r4]
 144 000c FFF7FEFF 		bl	test_emit_token
 145              		.loc 1 593 0
 146              		@ sp needed for prologue
 147              		.loc 1 591 0
 148 0010 FFF7FEFF 		bl	chMtxUnlock
 149              		.loc 1 593 0
 150 0014 0020     		mov	r0, #0
 151              	.LVL5:
 152 0016 10BD     		pop	{r4, pc}
 153              	.L6:
 154              		.align	2
 155              	.L5:
 156 0018 00000000 		.word	.LANCHOR1
 157              		.cfi_endproc
 158              	.LFE35:
 159              		.size	thread12, .-thread12
 160 001c C046C046 		.section	.text.thread1,"ax",%progbits
 161              		.align	2
 162              		.p2align 4,,15
 163              		.code	16
 164              		.thumb_func
 165              		.type	thread1, %function
 166              	thread1:
 167              	.LFB8:
 168              		.loc 1 89 0
 169              		.cfi_startproc
ARM GAS  C:\Users\Rob\AppData\Local\Temp\ccR9Ca4b.s 			page 4


 170 0000 10B5     		push	{r4, lr}
 171              	.LCFI3:
 172              		.cfi_def_cfa_offset 8
 173              		.cfi_offset 4, -8
 174              		.cfi_offset 14, -4
 175              	.LVL6:
 176              		.loc 1 89 0
 177 0002 041C     		mov	r4, r0
 178              		.loc 1 91 0
 179 0004 0448     		ldr	r0, .L8
 180              	.LVL7:
 181 0006 FFF7FEFF 		bl	chMtxLock
 182              		.loc 1 92 0
 183 000a 2078     		ldrb	r0, [r4]
 184 000c FFF7FEFF 		bl	test_emit_token
 185              		.loc 1 95 0
 186              		@ sp needed for prologue
 187              		.loc 1 93 0
 188 0010 FFF7FEFF 		bl	chMtxUnlock
 189              		.loc 1 95 0
 190 0014 0020     		mov	r0, #0
 191              	.LVL8:
 192 0016 10BD     		pop	{r4, pc}
 193              	.L9:
 194              		.align	2
 195              	.L8:
 196 0018 00000000 		.word	.LANCHOR2
 197              		.cfi_endproc
 198              	.LFE8:
 199              		.size	thread1, .-thread1
 200 001c C046C046 		.section	.text.thread10,"ax",%progbits
 201              		.align	2
 202              		.p2align 4,,15
 203              		.code	16
 204              		.thumb_func
 205              		.type	thread10, %function
 206              	thread10:
 207              	.LFB29:
 208              		.loc 1 484 0
 209              		.cfi_startproc
 210 0000 10B5     		push	{r4, lr}
 211              	.LCFI4:
 212              		.cfi_def_cfa_offset 8
 213              		.cfi_offset 4, -8
 214              		.cfi_offset 14, -4
 215              	.LVL9:
 216              		.loc 1 484 0
 217 0002 041C     		mov	r4, r0
 218              		.loc 1 486 0
 219 0004 0648     		ldr	r0, .L11
 220              	.LVL10:
 221 0006 FFF7FEFF 		bl	chMtxLock
 222              		.loc 1 487 0
 223 000a 0648     		ldr	r0, .L11+4
 224 000c FFF7FEFF 		bl	chCondWait
 225              		.loc 1 488 0
 226 0010 2078     		ldrb	r0, [r4]
ARM GAS  C:\Users\Rob\AppData\Local\Temp\ccR9Ca4b.s 			page 5


 227 0012 FFF7FEFF 		bl	test_emit_token
 228              		.loc 1 491 0
 229              		@ sp needed for prologue
 230              		.loc 1 489 0
 231 0016 FFF7FEFF 		bl	chMtxUnlock
 232              		.loc 1 491 0
 233 001a 0020     		mov	r0, #0
 234              	.LVL11:
 235 001c 10BD     		pop	{r4, pc}
 236              	.L12:
 237 001e C046     		.align	2
 238              	.L11:
 239 0020 00000000 		.word	.LANCHOR2
 240 0024 00000000 		.word	.LANCHOR0
 241              		.cfi_endproc
 242              	.LFE29:
 243              		.size	thread10, .-thread10
 244 0028 C046C046 		.section	.text.thread11,"ax",%progbits
 244      C046C046 
 245              		.align	2
 246              		.p2align 4,,15
 247              		.code	16
 248              		.thumb_func
 249              		.type	thread11, %function
 250              	thread11:
 251              	.LFB34:
 252              		.loc 1 572 0
 253              		.cfi_startproc
 254 0000 10B5     		push	{r4, lr}
 255              	.LCFI5:
 256              		.cfi_def_cfa_offset 8
 257              		.cfi_offset 4, -8
 258              		.cfi_offset 14, -4
 259              	.LVL12:
 260              		.loc 1 572 0
 261 0002 041C     		mov	r4, r0
 262              		.loc 1 574 0
 263 0004 0948     		ldr	r0, .L14
 264              	.LVL13:
 265 0006 FFF7FEFF 		bl	chMtxLock
 266              		.loc 1 575 0
 267 000a 0948     		ldr	r0, .L14+4
 268 000c FFF7FEFF 		bl	chMtxLock
 269              		.loc 1 577 0
 270 0010 0121     		mov	r1, #1
 271 0012 4942     		neg	r1, r1
 272 0014 0748     		ldr	r0, .L14+8
 273 0016 FFF7FEFF 		bl	chCondWaitTimeout
 274              		.loc 1 581 0
 275 001a 2078     		ldrb	r0, [r4]
 276 001c FFF7FEFF 		bl	test_emit_token
 277              		.loc 1 585 0
 278              		@ sp needed for prologue
 279              		.loc 1 582 0
 280 0020 FFF7FEFF 		bl	chMtxUnlock
 281              		.loc 1 583 0
 282 0024 FFF7FEFF 		bl	chMtxUnlock
ARM GAS  C:\Users\Rob\AppData\Local\Temp\ccR9Ca4b.s 			page 6


 283              		.loc 1 585 0
 284 0028 0020     		mov	r0, #0
 285              	.LVL14:
 286 002a 10BD     		pop	{r4, pc}
 287              	.L15:
 288              		.align	2
 289              	.L14:
 290 002c 00000000 		.word	.LANCHOR1
 291 0030 00000000 		.word	.LANCHOR2
 292 0034 00000000 		.word	.LANCHOR0
 293              		.cfi_endproc
 294              	.LFE34:
 295              		.size	thread11, .-thread11
 296 0038 C046C046 		.section	.text.mtx8_setup,"ax",%progbits
 296      C046C046 
 297              		.align	2
 298              		.p2align 4,,15
 299              		.code	16
 300              		.thumb_func
 301              		.type	mtx8_setup, %function
 302              	mtx8_setup:
 303              	.LFB33:
 304              		.loc 1 565 0
 305              		.cfi_startproc
 306 0000 08B5     		push	{r3, lr}
 307              	.LCFI6:
 308              		.cfi_def_cfa_offset 8
 309              		.cfi_offset 3, -8
 310              		.cfi_offset 14, -4
 311              		.loc 1 567 0
 312 0002 0548     		ldr	r0, .L17
 313 0004 FFF7FEFF 		bl	chCondInit
 314              		.loc 1 568 0
 315 0008 0448     		ldr	r0, .L17+4
 316 000a FFF7FEFF 		bl	chMtxInit
 317              		.loc 1 569 0
 318 000e 0448     		ldr	r0, .L17+8
 319 0010 FFF7FEFF 		bl	chMtxInit
 320              		.loc 1 570 0
 321              		@ sp needed for prologue
 322 0014 08BD     		pop	{r3, pc}
 323              	.L18:
 324 0016 C046     		.align	2
 325              	.L17:
 326 0018 00000000 		.word	.LANCHOR0
 327 001c 00000000 		.word	.LANCHOR2
 328 0020 00000000 		.word	.LANCHOR1
 329              		.cfi_endproc
 330              	.LFE33:
 331              		.size	mtx8_setup, .-mtx8_setup
 332 0024 C046C046 		.section	.text.mtx7_setup,"ax",%progbits
 332      C046C046 
 332      C046C046 
 333              		.align	2
 334              		.p2align 4,,15
 335              		.code	16
 336              		.thumb_func
ARM GAS  C:\Users\Rob\AppData\Local\Temp\ccR9Ca4b.s 			page 7


 337              		.type	mtx7_setup, %function
 338              	mtx7_setup:
 339              	.LFB31:
 340              		.loc 1 530 0
 341              		.cfi_startproc
 342 0000 08B5     		push	{r3, lr}
 343              	.LCFI7:
 344              		.cfi_def_cfa_offset 8
 345              		.cfi_offset 3, -8
 346              		.cfi_offset 14, -4
 347              		.loc 1 532 0
 348 0002 0348     		ldr	r0, .L20
 349 0004 FFF7FEFF 		bl	chCondInit
 350              		.loc 1 533 0
 351 0008 0248     		ldr	r0, .L20+4
 352 000a FFF7FEFF 		bl	chMtxInit
 353              		.loc 1 534 0
 354              		@ sp needed for prologue
 355 000e 08BD     		pop	{r3, pc}
 356              	.L21:
 357              		.align	2
 358              	.L20:
 359 0010 00000000 		.word	.LANCHOR0
 360 0014 00000000 		.word	.LANCHOR2
 361              		.cfi_endproc
 362              	.LFE31:
 363              		.size	mtx7_setup, .-mtx7_setup
 364 0018 C046C046 		.section	.text.mtx6_setup,"ax",%progbits
 364      C046C046 
 365              		.align	2
 366              		.p2align 4,,15
 367              		.code	16
 368              		.thumb_func
 369              		.type	mtx6_setup, %function
 370              	mtx6_setup:
 371              	.LFB28:
 372              		.loc 1 478 0
 373              		.cfi_startproc
 374 0000 08B5     		push	{r3, lr}
 375              	.LCFI8:
 376              		.cfi_def_cfa_offset 8
 377              		.cfi_offset 3, -8
 378              		.cfi_offset 14, -4
 379              		.loc 1 480 0
 380 0002 0348     		ldr	r0, .L23
 381 0004 FFF7FEFF 		bl	chCondInit
 382              		.loc 1 481 0
 383 0008 0248     		ldr	r0, .L23+4
 384 000a FFF7FEFF 		bl	chMtxInit
 385              		.loc 1 482 0
 386              		@ sp needed for prologue
 387 000e 08BD     		pop	{r3, pc}
 388              	.L24:
 389              		.align	2
 390              	.L23:
 391 0010 00000000 		.word	.LANCHOR0
 392 0014 00000000 		.word	.LANCHOR2
ARM GAS  C:\Users\Rob\AppData\Local\Temp\ccR9Ca4b.s 			page 8


 393              		.cfi_endproc
 394              	.LFE28:
 395              		.size	mtx6_setup, .-mtx6_setup
 396 0018 C046C046 		.section	.text.mtx5_setup,"ax",%progbits
 396      C046C046 
 397              		.align	2
 398              		.p2align 4,,15
 399              		.code	16
 400              		.thumb_func
 401              		.type	mtx5_setup, %function
 402              	mtx5_setup:
 403              	.LFB26:
 404              		.loc 1 428 0
 405              		.cfi_startproc
 406 0000 08B5     		push	{r3, lr}
 407              	.LCFI9:
 408              		.cfi_def_cfa_offset 8
 409              		.cfi_offset 3, -8
 410              		.cfi_offset 14, -4
 411              		.loc 1 430 0
 412 0002 0248     		ldr	r0, .L26
 413 0004 FFF7FEFF 		bl	chMtxInit
 414              		.loc 1 431 0
 415              		@ sp needed for prologue
 416 0008 08BD     		pop	{r3, pc}
 417              	.L27:
 418 000a C046     		.align	2
 419              	.L26:
 420 000c 00000000 		.word	.LANCHOR2
 421              		.cfi_endproc
 422              	.LFE26:
 423              		.size	mtx5_setup, .-mtx5_setup
 424              		.section	.text.mtx4_setup,"ax",%progbits
 425              		.align	2
 426              		.p2align 4,,15
 427              		.code	16
 428              		.thumb_func
 429              		.type	mtx4_setup, %function
 430              	mtx4_setup:
 431              	.LFB22:
 432              		.loc 1 341 0
 433              		.cfi_startproc
 434 0000 08B5     		push	{r3, lr}
 435              	.LCFI10:
 436              		.cfi_def_cfa_offset 8
 437              		.cfi_offset 3, -8
 438              		.cfi_offset 14, -4
 439              		.loc 1 343 0
 440 0002 0348     		ldr	r0, .L29
 441 0004 FFF7FEFF 		bl	chMtxInit
 442              		.loc 1 344 0
 443 0008 0248     		ldr	r0, .L29+4
 444 000a FFF7FEFF 		bl	chMtxInit
 445              		.loc 1 345 0
 446              		@ sp needed for prologue
 447 000e 08BD     		pop	{r3, pc}
 448              	.L30:
ARM GAS  C:\Users\Rob\AppData\Local\Temp\ccR9Ca4b.s 			page 9


 449              		.align	2
 450              	.L29:
 451 0010 00000000 		.word	.LANCHOR2
 452 0014 00000000 		.word	.LANCHOR1
 453              		.cfi_endproc
 454              	.LFE22:
 455              		.size	mtx4_setup, .-mtx4_setup
 456 0018 C046C046 		.section	.text.mtx3_setup,"ax",%progbits
 456      C046C046 
 457              		.align	2
 458              		.p2align 4,,15
 459              		.code	16
 460              		.thumb_func
 461              		.type	mtx3_setup, %function
 462              	mtx3_setup:
 463              	.LFB15:
 464              		.loc 1 241 0
 465              		.cfi_startproc
 466 0000 08B5     		push	{r3, lr}
 467              	.LCFI11:
 468              		.cfi_def_cfa_offset 8
 469              		.cfi_offset 3, -8
 470              		.cfi_offset 14, -4
 471              		.loc 1 243 0
 472 0002 0348     		ldr	r0, .L32
 473 0004 FFF7FEFF 		bl	chMtxInit
 474              		.loc 1 244 0
 475 0008 0248     		ldr	r0, .L32+4
 476 000a FFF7FEFF 		bl	chMtxInit
 477              		.loc 1 245 0
 478              		@ sp needed for prologue
 479 000e 08BD     		pop	{r3, pc}
 480              	.L33:
 481              		.align	2
 482              	.L32:
 483 0010 00000000 		.word	.LANCHOR2
 484 0014 00000000 		.word	.LANCHOR1
 485              		.cfi_endproc
 486              	.LFE15:
 487              		.size	mtx3_setup, .-mtx3_setup
 488 0018 C046C046 		.section	.text.mtx2_setup,"ax",%progbits
 488      C046C046 
 489              		.align	2
 490              		.p2align 4,,15
 491              		.code	16
 492              		.thumb_func
 493              		.type	mtx2_setup, %function
 494              	mtx2_setup:
 495              	.LFB10:
 496              		.loc 1 151 0
 497              		.cfi_startproc
 498 0000 08B5     		push	{r3, lr}
 499              	.LCFI12:
 500              		.cfi_def_cfa_offset 8
 501              		.cfi_offset 3, -8
 502              		.cfi_offset 14, -4
 503              		.loc 1 153 0
ARM GAS  C:\Users\Rob\AppData\Local\Temp\ccR9Ca4b.s 			page 10


 504 0002 0248     		ldr	r0, .L35
 505 0004 FFF7FEFF 		bl	chMtxInit
 506              		.loc 1 154 0
 507              		@ sp needed for prologue
 508 0008 08BD     		pop	{r3, pc}
 509              	.L36:
 510 000a C046     		.align	2
 511              	.L35:
 512 000c 00000000 		.word	.LANCHOR2
 513              		.cfi_endproc
 514              	.LFE10:
 515              		.size	mtx2_setup, .-mtx2_setup
 516              		.section	.text.mtx1_setup,"ax",%progbits
 517              		.align	2
 518              		.p2align 4,,15
 519              		.code	16
 520              		.thumb_func
 521              		.type	mtx1_setup, %function
 522              	mtx1_setup:
 523              	.LFB7:
 524              		.loc 1 84 0
 525              		.cfi_startproc
 526 0000 08B5     		push	{r3, lr}
 527              	.LCFI13:
 528              		.cfi_def_cfa_offset 8
 529              		.cfi_offset 3, -8
 530              		.cfi_offset 14, -4
 531              		.loc 1 86 0
 532 0002 0248     		ldr	r0, .L38
 533 0004 FFF7FEFF 		bl	chMtxInit
 534              		.loc 1 87 0
 535              		@ sp needed for prologue
 536 0008 08BD     		pop	{r3, pc}
 537              	.L39:
 538 000a C046     		.align	2
 539              	.L38:
 540 000c 00000000 		.word	.LANCHOR2
 541              		.cfi_endproc
 542              	.LFE7:
 543              		.size	mtx1_setup, .-mtx1_setup
 544              		.section	.text.mtx7_execute,"ax",%progbits
 545              		.align	2
 546              		.p2align 4,,15
 547              		.code	16
 548              		.thumb_func
 549              		.type	mtx7_execute, %function
 550              	mtx7_execute:
 551              	.LFB32:
 552              		.loc 1 536 0
 553              		.cfi_startproc
 554 0000 F0B5     		push	{r4, r5, r6, r7, lr}
 555              	.LCFI14:
 556              		.cfi_def_cfa_offset 20
 557              		.cfi_offset 4, -20
 558              		.cfi_offset 5, -16
 559              		.cfi_offset 6, -12
 560              		.cfi_offset 7, -8
ARM GAS  C:\Users\Rob\AppData\Local\Temp\ccR9Ca4b.s 			page 11


 561              		.cfi_offset 14, -4
 562 0002 4746     		mov	r7, r8
 563 0004 80B4     		push	{r7}
 564              	.LCFI15:
 565              		.cfi_def_cfa_offset 24
 566              		.cfi_offset 8, -24
 567              		.loc 1 538 0
 568 0006 224B     		ldr	r3, .L41
 569              		.loc 1 539 0
 570 0008 224E     		ldr	r6, .L41+4
 571              		.loc 1 538 0
 572 000a 9B69     		ldr	r3, [r3, #24]
 573              		.loc 1 539 0
 574 000c 9827     		mov	r7, #152
 575              		.loc 1 538 0
 576 000e 9D68     		ldr	r5, [r3, #8]
 577              	.LVL15:
 578              		.loc 1 539 0
 579 0010 214B     		ldr	r3, .L41+8
 580              		.loc 1 536 0
 581 0012 82B0     		sub	sp, sp, #8
 582              	.LCFI16:
 583              		.cfi_def_cfa_offset 32
 584              		.loc 1 539 0
 585 0014 9846     		mov	r8, r3
 586 0016 214B     		ldr	r3, .L41+12
 587 0018 7F00     		lsl	r7, r7, #1
 588 001a 6A1C     		add	r2, r5, #1
 589 001c 391C     		mov	r1, r7
 590 001e 3068     		ldr	r0, [r6]
 591 0020 0093     		str	r3, [sp]
 592 0022 4346     		mov	r3, r8
 593 0024 FFF7FEFF 		bl	chThdCreateStatic
 594              	.LVL16:
 595 0028 1D4C     		ldr	r4, .L41+16
 596              		.loc 1 540 0
 597 002a 1E4B     		ldr	r3, .L41+20
 598              		.loc 1 539 0
 599 002c 2060     		str	r0, [r4]
 600              		.loc 1 540 0
 601 002e AA1C     		add	r2, r5, #2
 602 0030 391C     		mov	r1, r7
 603 0032 7068     		ldr	r0, [r6, #4]
 604 0034 0093     		str	r3, [sp]
 605 0036 4346     		mov	r3, r8
 606 0038 FFF7FEFF 		bl	chThdCreateStatic
 607              		.loc 1 541 0
 608 003c 1A4B     		ldr	r3, .L41+24
 609              		.loc 1 540 0
 610 003e 6060     		str	r0, [r4, #4]
 611              		.loc 1 541 0
 612 0040 EA1C     		add	r2, r5, #3
 613 0042 391C     		mov	r1, r7
 614 0044 B068     		ldr	r0, [r6, #8]
 615 0046 0093     		str	r3, [sp]
 616 0048 4346     		mov	r3, r8
 617 004a FFF7FEFF 		bl	chThdCreateStatic
ARM GAS  C:\Users\Rob\AppData\Local\Temp\ccR9Ca4b.s 			page 12


 618              		.loc 1 542 0
 619 004e 174B     		ldr	r3, .L41+28
 620              		.loc 1 541 0
 621 0050 A060     		str	r0, [r4, #8]
 622              		.loc 1 542 0
 623 0052 2A1D     		add	r2, r5, #4
 624 0054 391C     		mov	r1, r7
 625 0056 F068     		ldr	r0, [r6, #12]
 626 0058 0093     		str	r3, [sp]
 627 005a 4346     		mov	r3, r8
 628 005c FFF7FEFF 		bl	chThdCreateStatic
 629              		.loc 1 543 0
 630 0060 134B     		ldr	r3, .L41+32
 631 0062 6A1D     		add	r2, r5, #5
 632 0064 391C     		mov	r1, r7
 633              		.loc 1 542 0
 634 0066 E060     		str	r0, [r4, #12]
 635              		.loc 1 543 0
 636 0068 3069     		ldr	r0, [r6, #16]
 637 006a 0093     		str	r3, [sp]
 638 006c 4346     		mov	r3, r8
 639 006e FFF7FEFF 		bl	chThdCreateStatic
 640 0072 2061     		str	r0, [r4, #16]
 641              		.loc 1 544 0
 642 0074 0F48     		ldr	r0, .L41+36
 643 0076 FFF7FEFF 		bl	chCondBroadcast
 644              		.loc 1 545 0
 645 007a FFF7FEFF 		bl	test_wait_threads
 646              		.loc 1 546 0
 647 007e 0E49     		ldr	r1, .L41+40
 648 0080 0120     		mov	r0, #1
 649 0082 FFF7FEFF 		bl	_test_assert_sequence
 650              		.loc 1 547 0
 651 0086 02B0     		add	sp, sp, #8
 652              		@ sp needed for prologue
 653              	.LVL17:
 654 0088 04BC     		pop	{r2}
 655 008a 9046     		mov	r8, r2
 656 008c F0BD     		pop	{r4, r5, r6, r7, pc}
 657              	.L42:
 658 008e C046     		.align	2
 659              	.L41:
 660 0090 00000000 		.word	rlist
 661 0094 00000000 		.word	wa
 662 0098 00000000 		.word	thread10
 663 009c 10000000 		.word	.LC39
 664 00a0 00000000 		.word	threads
 665 00a4 14000000 		.word	.LC42
 666 00a8 04000000 		.word	.LC7
 667 00ac 08000000 		.word	.LC10
 668 00b0 00000000 		.word	.LC3
 669 00b4 00000000 		.word	.LANCHOR0
 670 00b8 18000000 		.word	.LC48
 671              		.cfi_endproc
 672              	.LFE32:
 673              		.size	mtx7_execute, .-mtx7_execute
 674 00bc C046C046 		.section	.text.mtx6_execute,"ax",%progbits
ARM GAS  C:\Users\Rob\AppData\Local\Temp\ccR9Ca4b.s 			page 13


 675              		.align	2
 676              		.p2align 4,,15
 677              		.code	16
 678              		.thumb_func
 679              		.type	mtx6_execute, %function
 680              	mtx6_execute:
 681              	.LFB30:
 682              		.loc 1 493 0
 683              		.cfi_startproc
 684 0000 F0B5     		push	{r4, r5, r6, r7, lr}
 685              	.LCFI17:
 686              		.cfi_def_cfa_offset 20
 687              		.cfi_offset 4, -20
 688              		.cfi_offset 5, -16
 689              		.cfi_offset 6, -12
 690              		.cfi_offset 7, -8
 691              		.cfi_offset 14, -4
 692 0002 4746     		mov	r7, r8
 693 0004 80B4     		push	{r7}
 694              	.LCFI18:
 695              		.cfi_def_cfa_offset 24
 696              		.cfi_offset 8, -24
 697              		.loc 1 495 0
 698 0006 2A4B     		ldr	r3, .L44
 699              		.loc 1 496 0
 700 0008 2A4E     		ldr	r6, .L44+4
 701              		.loc 1 495 0
 702 000a 9B69     		ldr	r3, [r3, #24]
 703              		.loc 1 496 0
 704 000c 9827     		mov	r7, #152
 705              		.loc 1 495 0
 706 000e 9D68     		ldr	r5, [r3, #8]
 707              	.LVL18:
 708              		.loc 1 496 0
 709 0010 294B     		ldr	r3, .L44+8
 710              		.loc 1 493 0
 711 0012 82B0     		sub	sp, sp, #8
 712              	.LCFI19:
 713              		.cfi_def_cfa_offset 32
 714              		.loc 1 496 0
 715 0014 9846     		mov	r8, r3
 716 0016 294B     		ldr	r3, .L44+12
 717 0018 7F00     		lsl	r7, r7, #1
 718 001a 6A1C     		add	r2, r5, #1
 719 001c 0093     		str	r3, [sp]
 720 001e 391C     		mov	r1, r7
 721 0020 4346     		mov	r3, r8
 722 0022 3068     		ldr	r0, [r6]
 723 0024 FFF7FEFF 		bl	chThdCreateStatic
 724              	.LVL19:
 725 0028 254C     		ldr	r4, .L44+16
 726              		.loc 1 497 0
 727 002a 264B     		ldr	r3, .L44+20
 728              		.loc 1 496 0
 729 002c 2060     		str	r0, [r4]
 730              		.loc 1 497 0
 731 002e AA1C     		add	r2, r5, #2
ARM GAS  C:\Users\Rob\AppData\Local\Temp\ccR9Ca4b.s 			page 14


 732 0030 0093     		str	r3, [sp]
 733 0032 391C     		mov	r1, r7
 734 0034 4346     		mov	r3, r8
 735 0036 7068     		ldr	r0, [r6, #4]
 736 0038 FFF7FEFF 		bl	chThdCreateStatic
 737              		.loc 1 498 0
 738 003c 224B     		ldr	r3, .L44+24
 739              		.loc 1 497 0
 740 003e 6060     		str	r0, [r4, #4]
 741              		.loc 1 498 0
 742 0040 EA1C     		add	r2, r5, #3
 743 0042 0093     		str	r3, [sp]
 744 0044 391C     		mov	r1, r7
 745 0046 4346     		mov	r3, r8
 746 0048 B068     		ldr	r0, [r6, #8]
 747 004a FFF7FEFF 		bl	chThdCreateStatic
 748              		.loc 1 499 0
 749 004e 1F4B     		ldr	r3, .L44+28
 750              		.loc 1 498 0
 751 0050 A060     		str	r0, [r4, #8]
 752              		.loc 1 499 0
 753 0052 2A1D     		add	r2, r5, #4
 754 0054 0093     		str	r3, [sp]
 755 0056 391C     		mov	r1, r7
 756 0058 4346     		mov	r3, r8
 757 005a F068     		ldr	r0, [r6, #12]
 758 005c FFF7FEFF 		bl	chThdCreateStatic
 759              		.loc 1 500 0
 760 0060 1B4B     		ldr	r3, .L44+32
 761              		.loc 1 499 0
 762 0062 E060     		str	r0, [r4, #12]
 763              		.loc 1 500 0
 764 0064 6A1D     		add	r2, r5, #5
 765 0066 0093     		str	r3, [sp]
 766 0068 3069     		ldr	r0, [r6, #16]
 767 006a 391C     		mov	r1, r7
 768 006c 4346     		mov	r3, r8
 769 006e FFF7FEFF 		bl	chThdCreateStatic
 770 0072 2061     		str	r0, [r4, #16]
 771              		.loc 1 501 0
 772              	@ 501 "../../test/testmtx.c" 1
 773 0074 72B6     		cpsid   i
 774              	@ 0 "" 2
 775              		.loc 1 502 0
 776              		.code	16
 777 0076 174C     		ldr	r4, .L44+36
 778 0078 201C     		mov	r0, r4
 779 007a FFF7FEFF 		bl	chCondSignalI
 780              		.loc 1 503 0
 781 007e 201C     		mov	r0, r4
 782 0080 FFF7FEFF 		bl	chCondSignalI
 783              		.loc 1 504 0
 784 0084 201C     		mov	r0, r4
 785 0086 FFF7FEFF 		bl	chCondSignalI
 786              		.loc 1 505 0
 787 008a 201C     		mov	r0, r4
 788 008c FFF7FEFF 		bl	chCondSignalI
ARM GAS  C:\Users\Rob\AppData\Local\Temp\ccR9Ca4b.s 			page 15


 789              		.loc 1 506 0
 790 0090 201C     		mov	r0, r4
 791 0092 FFF7FEFF 		bl	chCondSignalI
 792              		.loc 1 507 0
 793 0096 FFF7FEFF 		bl	chSchRescheduleS
 794              		.loc 1 508 0
 795              	@ 508 "../../test/testmtx.c" 1
 796 009a 62B6     		cpsie   i
 797              	@ 0 "" 2
 798              		.loc 1 509 0
 799              		.code	16
 800 009c FFF7FEFF 		bl	test_wait_threads
 801              		.loc 1 510 0
 802 00a0 0D49     		ldr	r1, .L44+40
 803 00a2 0120     		mov	r0, #1
 804 00a4 FFF7FEFF 		bl	_test_assert_sequence
 805              		.loc 1 511 0
 806 00a8 02B0     		add	sp, sp, #8
 807              		@ sp needed for prologue
 808              	.LVL20:
 809 00aa 04BC     		pop	{r2}
 810 00ac 9046     		mov	r8, r2
 811 00ae F0BD     		pop	{r4, r5, r6, r7, pc}
 812              	.L45:
 813              		.align	2
 814              	.L44:
 815 00b0 00000000 		.word	rlist
 816 00b4 00000000 		.word	wa
 817 00b8 00000000 		.word	thread10
 818 00bc 10000000 		.word	.LC39
 819 00c0 00000000 		.word	threads
 820 00c4 14000000 		.word	.LC42
 821 00c8 04000000 		.word	.LC7
 822 00cc 08000000 		.word	.LC10
 823 00d0 00000000 		.word	.LC3
 824 00d4 00000000 		.word	.LANCHOR0
 825 00d8 18000000 		.word	.LC48
 826              		.cfi_endproc
 827              	.LFE30:
 828              		.size	mtx6_execute, .-mtx6_execute
 829 00dc C046C046 		.section	.text.mtx1_execute,"ax",%progbits
 830              		.align	2
 831              		.p2align 4,,15
 832              		.code	16
 833              		.thumb_func
 834              		.type	mtx1_execute, %function
 835              	mtx1_execute:
 836              	.LFB9:
 837              		.loc 1 97 0
 838              		.cfi_startproc
 839 0000 F0B5     		push	{r4, r5, r6, r7, lr}
 840              	.LCFI20:
 841              		.cfi_def_cfa_offset 20
 842              		.cfi_offset 4, -20
 843              		.cfi_offset 5, -16
 844              		.cfi_offset 6, -12
 845              		.cfi_offset 7, -8
ARM GAS  C:\Users\Rob\AppData\Local\Temp\ccR9Ca4b.s 			page 16


 846              		.cfi_offset 14, -4
 847 0002 4746     		mov	r7, r8
 848 0004 80B4     		push	{r7}
 849              	.LCFI21:
 850              		.cfi_def_cfa_offset 24
 851              		.cfi_offset 8, -24
 852              		.loc 1 99 0
 853 0006 294E     		ldr	r6, .L49
 854              		.loc 1 97 0
 855 0008 82B0     		sub	sp, sp, #8
 856              	.LCFI22:
 857              		.cfi_def_cfa_offset 32
 858              		.loc 1 99 0
 859 000a B369     		ldr	r3, [r6, #24]
 860              		.loc 1 100 0
 861 000c 2848     		ldr	r0, .L49+4
 862              		.loc 1 99 0
 863 000e 9F68     		ldr	r7, [r3, #8]
 864              	.LVL21:
 865              		.loc 1 100 0
 866 0010 FFF7FEFF 		bl	chMtxLock
 867              	.LVL22:
 868              		.loc 1 101 0
 869 0014 274B     		ldr	r3, .L49+8
 870 0016 284D     		ldr	r5, .L49+12
 871 0018 9846     		mov	r8, r3
 872 001a 284B     		ldr	r3, .L49+16
 873 001c 9821     		mov	r1, #152
 874 001e 7A1C     		add	r2, r7, #1
 875 0020 0093     		str	r3, [sp]
 876 0022 4900     		lsl	r1, r1, #1
 877 0024 4346     		mov	r3, r8
 878 0026 2868     		ldr	r0, [r5]
 879 0028 FFF7FEFF 		bl	chThdCreateStatic
 880 002c 244C     		ldr	r4, .L49+20
 881              		.loc 1 102 0
 882 002e 254B     		ldr	r3, .L49+24
 883 0030 9821     		mov	r1, #152
 884              		.loc 1 101 0
 885 0032 2060     		str	r0, [r4]
 886              		.loc 1 102 0
 887 0034 BA1C     		add	r2, r7, #2
 888 0036 0093     		str	r3, [sp]
 889 0038 4900     		lsl	r1, r1, #1
 890 003a 4346     		mov	r3, r8
 891 003c 6868     		ldr	r0, [r5, #4]
 892 003e FFF7FEFF 		bl	chThdCreateStatic
 893              		.loc 1 103 0
 894 0042 214B     		ldr	r3, .L49+28
 895 0044 9821     		mov	r1, #152
 896              		.loc 1 102 0
 897 0046 6060     		str	r0, [r4, #4]
 898              		.loc 1 103 0
 899 0048 FA1C     		add	r2, r7, #3
 900 004a 0093     		str	r3, [sp]
 901 004c 4900     		lsl	r1, r1, #1
 902 004e 4346     		mov	r3, r8
ARM GAS  C:\Users\Rob\AppData\Local\Temp\ccR9Ca4b.s 			page 17


 903 0050 A868     		ldr	r0, [r5, #8]
 904 0052 FFF7FEFF 		bl	chThdCreateStatic
 905              		.loc 1 104 0
 906 0056 1D4B     		ldr	r3, .L49+32
 907 0058 9821     		mov	r1, #152
 908              		.loc 1 103 0
 909 005a A060     		str	r0, [r4, #8]
 910              		.loc 1 104 0
 911 005c 3A1D     		add	r2, r7, #4
 912 005e 0093     		str	r3, [sp]
 913 0060 4900     		lsl	r1, r1, #1
 914 0062 4346     		mov	r3, r8
 915 0064 E868     		ldr	r0, [r5, #12]
 916 0066 FFF7FEFF 		bl	chThdCreateStatic
 917              		.loc 1 105 0
 918 006a 194B     		ldr	r3, .L49+36
 919 006c 9821     		mov	r1, #152
 920 006e 7A1D     		add	r2, r7, #5
 921 0070 4900     		lsl	r1, r1, #1
 922              		.loc 1 104 0
 923 0072 E060     		str	r0, [r4, #12]
 924              		.loc 1 105 0
 925 0074 0093     		str	r3, [sp]
 926 0076 2869     		ldr	r0, [r5, #16]
 927 0078 4346     		mov	r3, r8
 928 007a FFF7FEFF 		bl	chThdCreateStatic
 929 007e 2061     		str	r0, [r4, #16]
 930              		.loc 1 106 0
 931 0080 FFF7FEFF 		bl	chMtxUnlock
 932              		.loc 1 107 0
 933 0084 FFF7FEFF 		bl	test_wait_threads
 934              		.loc 1 108 0
 935 0088 B369     		ldr	r3, [r6, #24]
 936 008a 0120     		mov	r0, #1
 937 008c 9968     		ldr	r1, [r3, #8]
 938 008e CF1B     		sub	r7, r1, r7
 939              	.LVL23:
 940 0090 7942     		neg	r1, r7
 941 0092 7941     		adc	r1, r1, r7
 942 0094 FFF7FEFF 		bl	_test_assert
 943 0098 0028     		cmp	r0, #0
 944 009a 03D1     		bne	.L46
 945              		.loc 1 109 0
 946 009c 0220     		mov	r0, #2
 947 009e 0D49     		ldr	r1, .L49+40
 948 00a0 FFF7FEFF 		bl	_test_assert_sequence
 949              	.L46:
 950              		.loc 1 110 0
 951 00a4 02B0     		add	sp, sp, #8
 952              		@ sp needed for prologue
 953 00a6 04BC     		pop	{r2}
 954 00a8 9046     		mov	r8, r2
 955 00aa F0BD     		pop	{r4, r5, r6, r7, pc}
 956              	.L50:
 957              		.align	2
 958              	.L49:
 959 00ac 00000000 		.word	rlist
ARM GAS  C:\Users\Rob\AppData\Local\Temp\ccR9Ca4b.s 			page 18


 960 00b0 00000000 		.word	.LANCHOR2
 961 00b4 00000000 		.word	thread1
 962 00b8 00000000 		.word	wa
 963 00bc 10000000 		.word	.LC39
 964 00c0 00000000 		.word	threads
 965 00c4 14000000 		.word	.LC42
 966 00c8 04000000 		.word	.LC7
 967 00cc 08000000 		.word	.LC10
 968 00d0 00000000 		.word	.LC3
 969 00d4 18000000 		.word	.LC48
 970              		.cfi_endproc
 971              	.LFE9:
 972              		.size	mtx1_execute, .-mtx1_execute
 973 00d8 C046C046 		.section	.text.mtx5_execute,"ax",%progbits
 973      C046C046 
 974              		.align	2
 975              		.p2align 4,,15
 976              		.code	16
 977              		.thumb_func
 978              		.type	mtx5_execute, %function
 979              	mtx5_execute:
 980              	.LFB27:
 981              		.loc 1 433 0
 982              		.cfi_startproc
 983 0000 70B5     		push	{r4, r5, r6, lr}
 984              	.LCFI23:
 985              		.cfi_def_cfa_offset 16
 986              		.cfi_offset 4, -16
 987              		.cfi_offset 5, -12
 988              		.cfi_offset 6, -8
 989              		.cfi_offset 14, -4
 990              		.loc 1 437 0
 991 0002 264D     		ldr	r5, .L54
 992              		.loc 1 439 0
 993 0004 264C     		ldr	r4, .L54+4
 994              		.loc 1 437 0
 995 0006 AB69     		ldr	r3, [r5, #24]
 996              		.loc 1 439 0
 997 0008 201C     		mov	r0, r4
 998              		.loc 1 437 0
 999 000a 9E68     		ldr	r6, [r3, #8]
 1000              	.LVL24:
 1001              		.loc 1 439 0
 1002 000c FFF7FEFF 		bl	chMtxTryLock
 1003              	.LVL25:
 1004 0010 011C     		mov	r1, r0
 1005              	.LVL26:
 1006              		.loc 1 440 0
 1007 0012 0120     		mov	r0, #1
 1008              	.LVL27:
 1009 0014 FFF7FEFF 		bl	_test_assert
 1010              	.LVL28:
 1011 0018 0028     		cmp	r0, #0
 1012 001a 00D0     		beq	.L53
 1013              	.LVL29:
 1014              	.L51:
 1015              		.loc 1 457 0
ARM GAS  C:\Users\Rob\AppData\Local\Temp\ccR9Ca4b.s 			page 19


 1016              		@ sp needed for prologue
 1017 001c 70BD     		pop	{r4, r5, r6, pc}
 1018              	.LVL30:
 1019              	.L53:
 1020              		.loc 1 442 0
 1021 001e 201C     		mov	r0, r4
 1022 0020 FFF7FEFF 		bl	chMtxTryLock
 1023              	.LVL31:
 1024              		.loc 1 443 0
 1025 0024 4142     		neg	r1, r0
 1026 0026 4141     		adc	r1, r1, r0
 1027              	.LVL32:
 1028 0028 0220     		mov	r0, #2
 1029 002a FFF7FEFF 		bl	_test_assert
 1030 002e 0028     		cmp	r0, #0
 1031 0030 F4D1     		bne	.L51
 1032              		.loc 1 445 0
 1033              	@ 445 "../../test/testmtx.c" 1
 1034 0032 72B6     		cpsid   i
 1035              	@ 0 "" 2
 1036              		.loc 1 446 0
 1037              		.code	16
 1038 0034 FFF7FEFF 		bl	chMtxUnlockS
 1039              		.loc 1 447 0
 1040              	@ 447 "../../test/testmtx.c" 1
 1041 0038 62B6     		cpsie   i
 1042              	@ 0 "" 2
 1043              		.loc 1 449 0
 1044              		.code	16
 1045 003a 2168     		ldr	r1, [r4]
 1046 003c 0320     		mov	r0, #3
 1047 003e 091B     		sub	r1, r1, r4
 1048 0040 4B42     		neg	r3, r1
 1049 0042 5941     		adc	r1, r1, r3
 1050 0044 FFF7FEFF 		bl	_test_assert
 1051 0048 0028     		cmp	r0, #0
 1052 004a E7D1     		bne	.L51
 1053              		.loc 1 450 0
 1054 004c A168     		ldr	r1, [r4, #8]
 1055 004e 0420     		mov	r0, #4
 1056 0050 4B42     		neg	r3, r1
 1057 0052 5941     		adc	r1, r1, r3
 1058 0054 FFF7FEFF 		bl	_test_assert
 1059 0058 0028     		cmp	r0, #0
 1060 005a DFD1     		bne	.L51
 1061              		.loc 1 451 0
 1062 005c AB69     		ldr	r3, [r5, #24]
 1063 005e 0520     		mov	r0, #5
 1064 0060 9968     		ldr	r1, [r3, #8]
 1065 0062 891B     		sub	r1, r1, r6
 1066 0064 4E42     		neg	r6, r1
 1067 0066 7141     		adc	r1, r1, r6
 1068              	.LVL33:
 1069 0068 FFF7FEFF 		bl	_test_assert
 1070 006c 0028     		cmp	r0, #0
 1071 006e D5D1     		bne	.L51
 1072              		.loc 1 453 0
ARM GAS  C:\Users\Rob\AppData\Local\Temp\ccR9Ca4b.s 			page 20


 1073 0070 201C     		mov	r0, r4
 1074 0072 FFF7FEFF 		bl	chMtxLock
 1075              		.loc 1 454 0
 1076 0076 FFF7FEFF 		bl	chMtxUnlockAll
 1077              		.loc 1 455 0
 1078 007a 2168     		ldr	r1, [r4]
 1079 007c 0620     		mov	r0, #6
 1080 007e 091B     		sub	r1, r1, r4
 1081 0080 4B42     		neg	r3, r1
 1082 0082 5941     		adc	r1, r1, r3
 1083 0084 FFF7FEFF 		bl	_test_assert
 1084 0088 0028     		cmp	r0, #0
 1085 008a C7D1     		bne	.L51
 1086              		.loc 1 456 0
 1087 008c A168     		ldr	r1, [r4, #8]
 1088 008e 0720     		mov	r0, #7
 1089 0090 4B42     		neg	r3, r1
 1090 0092 5941     		adc	r1, r1, r3
 1091 0094 FFF7FEFF 		bl	_test_assert
 1092 0098 C0E7     		b	.L51
 1093              	.L55:
 1094 009a C046     		.align	2
 1095              	.L54:
 1096 009c 00000000 		.word	rlist
 1097 00a0 00000000 		.word	.LANCHOR2
 1098              		.cfi_endproc
 1099              	.LFE27:
 1100              		.size	mtx5_execute, .-mtx5_execute
 1101 00a4 C046C046 		.section	.text.mtx4_execute,"ax",%progbits
 1101      C046C046 
 1101      C046C046 
 1102              		.align	2
 1103              		.p2align 4,,15
 1104              		.code	16
 1105              		.thumb_func
 1106              		.type	mtx4_execute, %function
 1107              	mtx4_execute:
 1108              	.LFB25:
 1109              		.loc 1 365 0
 1110              		.cfi_startproc
 1111 0000 F0B5     		push	{r4, r5, r6, r7, lr}
 1112              	.LCFI24:
 1113              		.cfi_def_cfa_offset 20
 1114              		.cfi_offset 4, -20
 1115              		.cfi_offset 5, -16
 1116              		.cfi_offset 6, -12
 1117              		.cfi_offset 7, -8
 1118              		.cfi_offset 14, -4
 1119 0002 5F46     		mov	r7, fp
 1120 0004 5646     		mov	r6, sl
 1121 0006 4D46     		mov	r5, r9
 1122 0008 4446     		mov	r4, r8
 1123 000a F0B4     		push	{r4, r5, r6, r7}
 1124              	.LCFI25:
 1125              		.cfi_def_cfa_offset 36
 1126              		.cfi_offset 8, -36
 1127              		.cfi_offset 9, -32
ARM GAS  C:\Users\Rob\AppData\Local\Temp\ccR9Ca4b.s 			page 21


 1128              		.cfi_offset 10, -28
 1129              		.cfi_offset 11, -24
 1130              		.loc 1 368 0
 1131 000c 854C     		ldr	r4, .L59
 1132              		.loc 1 371 0
 1133 000e 864E     		ldr	r6, .L59+4
 1134              		.loc 1 368 0
 1135 0010 A369     		ldr	r3, [r4, #24]
 1136              		.loc 1 365 0
 1137 0012 85B0     		sub	sp, sp, #20
 1138              	.LCFI26:
 1139              		.cfi_def_cfa_offset 56
 1140              		.loc 1 368 0
 1141 0014 9F68     		ldr	r7, [r3, #8]
 1142              	.LVL34:
 1143              		.loc 1 371 0
 1144 0016 9821     		mov	r1, #152
 1145              		.loc 1 369 0
 1146 0018 7B1C     		add	r3, r7, #1
 1147 001a 9846     		mov	r8, r3
 1148              	.LVL35:
 1149              		.loc 1 370 0
 1150 001c BB1C     		add	r3, r7, #2
 1151              	.LVL36:
 1152 001e 9A46     		mov	sl, r3
 1153              	.LVL37:
 1154              		.loc 1 371 0
 1155 0020 3368     		ldr	r3, [r6]
 1156              	.LVL38:
 1157 0022 4900     		lsl	r1, r1, #1
 1158 0024 0293     		str	r3, [sp, #8]
 1159 0026 814B     		ldr	r3, .L59+8
 1160 0028 4246     		mov	r2, r8
 1161 002a 9B46     		mov	fp, r3
 1162 002c 804B     		ldr	r3, .L59+12
 1163 002e 0298     		ldr	r0, [sp, #8]
 1164 0030 0093     		str	r3, [sp]
 1165 0032 5B46     		mov	r3, fp
 1166 0034 FFF7FEFF 		bl	chThdCreateStatic
 1167              	.LVL39:
 1168              		.loc 1 372 0
 1169 0038 7668     		ldr	r6, [r6, #4]
 1170              		.loc 1 371 0
 1171 003a 7E4D     		ldr	r5, .L59+16
 1172              		.loc 1 372 0
 1173 003c 0396     		str	r6, [sp, #12]
 1174 003e 7E4B     		ldr	r3, .L59+20
 1175 0040 7E4E     		ldr	r6, .L59+24
 1176 0042 9821     		mov	r1, #152
 1177              		.loc 1 371 0
 1178 0044 2860     		str	r0, [r5]
 1179              		.loc 1 372 0
 1180 0046 4900     		lsl	r1, r1, #1
 1181 0048 0093     		str	r3, [sp]
 1182 004a 5246     		mov	r2, sl
 1183 004c 331C     		mov	r3, r6
 1184 004e 0398     		ldr	r0, [sp, #12]
ARM GAS  C:\Users\Rob\AppData\Local\Temp\ccR9Ca4b.s 			page 22


 1185 0050 FFF7FEFF 		bl	chThdCreateStatic
 1186              		.loc 1 373 0
 1187 0054 7A4B     		ldr	r3, .L59+28
 1188              		.loc 1 372 0
 1189 0056 6860     		str	r0, [r5, #4]
 1190              		.loc 1 373 0
 1191 0058 181C     		mov	r0, r3
 1192 005a 9946     		mov	r9, r3
 1193 005c FFF7FEFF 		bl	chMtxLock
 1194              		.loc 1 374 0
 1195 0060 A369     		ldr	r3, [r4, #24]
 1196 0062 0120     		mov	r0, #1
 1197 0064 9968     		ldr	r1, [r3, #8]
 1198 0066 C91B     		sub	r1, r1, r7
 1199 0068 4B42     		neg	r3, r1
 1200 006a 5941     		adc	r1, r1, r3
 1201 006c FFF7FEFF 		bl	_test_assert
 1202 0070 0028     		cmp	r0, #0
 1203 0072 06D0     		beq	.L58
 1204              	.LVL40:
 1205              	.L56:
 1206              		.loc 1 409 0
 1207 0074 05B0     		add	sp, sp, #20
 1208              		@ sp needed for prologue
 1209              	.LVL41:
 1210              	.LVL42:
 1211 0076 3CBC     		pop	{r2, r3, r4, r5}
 1212 0078 9046     		mov	r8, r2
 1213 007a 9946     		mov	r9, r3
 1214 007c A246     		mov	sl, r4
 1215 007e AB46     		mov	fp, r5
 1216 0080 F0BD     		pop	{r4, r5, r6, r7, pc}
 1217              	.LVL43:
 1218              	.L58:
 1219              		.loc 1 375 0
 1220 0082 7048     		ldr	r0, .L59+32
 1221 0084 FFF7FEFF 		bl	chThdSleep
 1222              		.loc 1 376 0
 1223 0088 A369     		ldr	r3, [r4, #24]
 1224 008a 0220     		mov	r0, #2
 1225 008c 9968     		ldr	r1, [r3, #8]
 1226 008e 4346     		mov	r3, r8
 1227 0090 C91A     		sub	r1, r1, r3
 1228 0092 4B42     		neg	r3, r1
 1229 0094 5941     		adc	r1, r1, r3
 1230 0096 FFF7FEFF 		bl	_test_assert
 1231 009a 0028     		cmp	r0, #0
 1232 009c EAD1     		bne	.L56
 1233              		.loc 1 377 0
 1234 009e 6A48     		ldr	r0, .L59+36
 1235 00a0 FFF7FEFF 		bl	chMtxLock
 1236              		.loc 1 378 0
 1237 00a4 A369     		ldr	r3, [r4, #24]
 1238 00a6 0320     		mov	r0, #3
 1239 00a8 9968     		ldr	r1, [r3, #8]
 1240 00aa 4346     		mov	r3, r8
 1241 00ac C91A     		sub	r1, r1, r3
ARM GAS  C:\Users\Rob\AppData\Local\Temp\ccR9Ca4b.s 			page 23


 1242 00ae 4B42     		neg	r3, r1
 1243 00b0 5941     		adc	r1, r1, r3
 1244 00b2 FFF7FEFF 		bl	_test_assert
 1245 00b6 0028     		cmp	r0, #0
 1246 00b8 DCD1     		bne	.L56
 1247              		.loc 1 379 0
 1248 00ba 6248     		ldr	r0, .L59+32
 1249 00bc FFF7FEFF 		bl	chThdSleep
 1250              		.loc 1 380 0
 1251 00c0 A369     		ldr	r3, [r4, #24]
 1252 00c2 0420     		mov	r0, #4
 1253 00c4 9968     		ldr	r1, [r3, #8]
 1254 00c6 5346     		mov	r3, sl
 1255 00c8 C91A     		sub	r1, r1, r3
 1256 00ca 4B42     		neg	r3, r1
 1257 00cc 5941     		adc	r1, r1, r3
 1258 00ce FFF7FEFF 		bl	_test_assert
 1259 00d2 0028     		cmp	r0, #0
 1260 00d4 CED1     		bne	.L56
 1261              		.loc 1 381 0
 1262 00d6 FFF7FEFF 		bl	chMtxUnlock
 1263              		.loc 1 382 0
 1264 00da A369     		ldr	r3, [r4, #24]
 1265 00dc 0520     		mov	r0, #5
 1266 00de 9968     		ldr	r1, [r3, #8]
 1267 00e0 4346     		mov	r3, r8
 1268 00e2 C91A     		sub	r1, r1, r3
 1269 00e4 4B42     		neg	r3, r1
 1270 00e6 5941     		adc	r1, r1, r3
 1271 00e8 FFF7FEFF 		bl	_test_assert
 1272 00ec 0028     		cmp	r0, #0
 1273 00ee C1D1     		bne	.L56
 1274              		.loc 1 383 0
 1275 00f0 5448     		ldr	r0, .L59+32
 1276 00f2 FFF7FEFF 		bl	chThdSleep
 1277              		.loc 1 384 0
 1278 00f6 A369     		ldr	r3, [r4, #24]
 1279 00f8 0620     		mov	r0, #6
 1280 00fa 9968     		ldr	r1, [r3, #8]
 1281 00fc 4346     		mov	r3, r8
 1282 00fe C91A     		sub	r1, r1, r3
 1283 0100 4B42     		neg	r3, r1
 1284 0102 5941     		adc	r1, r1, r3
 1285 0104 FFF7FEFF 		bl	_test_assert
 1286 0108 0028     		cmp	r0, #0
 1287 010a B3D1     		bne	.L56
 1288              		.loc 1 385 0
 1289 010c FFF7FEFF 		bl	chMtxUnlockAll
 1290              		.loc 1 386 0
 1291 0110 A369     		ldr	r3, [r4, #24]
 1292 0112 0720     		mov	r0, #7
 1293 0114 9968     		ldr	r1, [r3, #8]
 1294 0116 C91B     		sub	r1, r1, r7
 1295 0118 4B42     		neg	r3, r1
 1296 011a 5941     		adc	r1, r1, r3
 1297 011c FFF7FEFF 		bl	_test_assert
 1298 0120 0028     		cmp	r0, #0
ARM GAS  C:\Users\Rob\AppData\Local\Temp\ccR9Ca4b.s 			page 24


 1299 0122 A7D1     		bne	.L56
 1300              		.loc 1 387 0
 1301 0124 FFF7FEFF 		bl	test_wait_threads
 1302              		.loc 1 390 0
 1303 0128 484B     		ldr	r3, .L59+40
 1304 012a 9821     		mov	r1, #152
 1305 012c 0093     		str	r3, [sp]
 1306 012e 4900     		lsl	r1, r1, #1
 1307 0130 4246     		mov	r2, r8
 1308 0132 5B46     		mov	r3, fp
 1309 0134 0298     		ldr	r0, [sp, #8]
 1310 0136 FFF7FEFF 		bl	chThdCreateStatic
 1311              		.loc 1 391 0
 1312 013a 454B     		ldr	r3, .L59+44
 1313 013c 9821     		mov	r1, #152
 1314              		.loc 1 390 0
 1315 013e 2860     		str	r0, [r5]
 1316              		.loc 1 391 0
 1317 0140 4900     		lsl	r1, r1, #1
 1318 0142 0093     		str	r3, [sp]
 1319 0144 5246     		mov	r2, sl
 1320 0146 331C     		mov	r3, r6
 1321 0148 0398     		ldr	r0, [sp, #12]
 1322 014a FFF7FEFF 		bl	chThdCreateStatic
 1323 014e 6860     		str	r0, [r5, #4]
 1324              		.loc 1 392 0
 1325 0150 4846     		mov	r0, r9
 1326 0152 FFF7FEFF 		bl	chMtxLock
 1327              		.loc 1 393 0
 1328 0156 A369     		ldr	r3, [r4, #24]
 1329 0158 0820     		mov	r0, #8
 1330 015a 9968     		ldr	r1, [r3, #8]
 1331 015c C91B     		sub	r1, r1, r7
 1332 015e 4B42     		neg	r3, r1
 1333 0160 5941     		adc	r1, r1, r3
 1334 0162 FFF7FEFF 		bl	_test_assert
 1335 0166 0028     		cmp	r0, #0
 1336 0168 00D0     		beq	.LCB938
 1337 016a 83E7     		b	.L56	@long jump
 1338              	.LCB938:
 1339              		.loc 1 394 0
 1340 016c 3548     		ldr	r0, .L59+32
 1341 016e FFF7FEFF 		bl	chThdSleep
 1342              		.loc 1 395 0
 1343 0172 A369     		ldr	r3, [r4, #24]
 1344 0174 0920     		mov	r0, #9
 1345 0176 9968     		ldr	r1, [r3, #8]
 1346 0178 4346     		mov	r3, r8
 1347 017a C91A     		sub	r1, r1, r3
 1348 017c 4B42     		neg	r3, r1
 1349 017e 5941     		adc	r1, r1, r3
 1350 0180 FFF7FEFF 		bl	_test_assert
 1351 0184 0028     		cmp	r0, #0
 1352 0186 00D0     		beq	.LCB951
 1353 0188 74E7     		b	.L56	@long jump
 1354              	.LCB951:
 1355              		.loc 1 396 0
ARM GAS  C:\Users\Rob\AppData\Local\Temp\ccR9Ca4b.s 			page 25


 1356 018a 2F48     		ldr	r0, .L59+36
 1357 018c FFF7FEFF 		bl	chMtxLock
 1358              		.loc 1 397 0
 1359 0190 A369     		ldr	r3, [r4, #24]
 1360 0192 0A20     		mov	r0, #10
 1361 0194 9968     		ldr	r1, [r3, #8]
 1362 0196 4346     		mov	r3, r8
 1363 0198 C91A     		sub	r1, r1, r3
 1364 019a 4B42     		neg	r3, r1
 1365 019c 5941     		adc	r1, r1, r3
 1366 019e FFF7FEFF 		bl	_test_assert
 1367 01a2 0028     		cmp	r0, #0
 1368 01a4 00D0     		beq	.LCB964
 1369 01a6 65E7     		b	.L56	@long jump
 1370              	.LCB964:
 1371              		.loc 1 398 0
 1372 01a8 2648     		ldr	r0, .L59+32
 1373 01aa FFF7FEFF 		bl	chThdSleep
 1374              		.loc 1 399 0
 1375 01ae A369     		ldr	r3, [r4, #24]
 1376 01b0 0B20     		mov	r0, #11
 1377 01b2 9968     		ldr	r1, [r3, #8]
 1378 01b4 5346     		mov	r3, sl
 1379 01b6 C91A     		sub	r1, r1, r3
 1380 01b8 4B42     		neg	r3, r1
 1381 01ba 5941     		adc	r1, r1, r3
 1382 01bc FFF7FEFF 		bl	_test_assert
 1383 01c0 0028     		cmp	r0, #0
 1384 01c2 00D0     		beq	.LCB977
 1385 01c4 56E7     		b	.L56	@long jump
 1386              	.LCB977:
 1387              		.loc 1 400 0
 1388              	@ 400 "../../test/testmtx.c" 1
 1389 01c6 72B6     		cpsid   i
 1390              	@ 0 "" 2
 1391              		.loc 1 401 0
 1392              		.code	16
 1393 01c8 FFF7FEFF 		bl	chMtxUnlockS
 1394              		.loc 1 402 0
 1395              	@ 402 "../../test/testmtx.c" 1
 1396 01cc 62B6     		cpsie   i
 1397              	@ 0 "" 2
 1398              		.loc 1 403 0
 1399              		.code	16
 1400 01ce A369     		ldr	r3, [r4, #24]
 1401 01d0 0C20     		mov	r0, #12
 1402 01d2 9968     		ldr	r1, [r3, #8]
 1403 01d4 4346     		mov	r3, r8
 1404 01d6 C91A     		sub	r1, r1, r3
 1405 01d8 4B42     		neg	r3, r1
 1406 01da 5941     		adc	r1, r1, r3
 1407 01dc FFF7FEFF 		bl	_test_assert
 1408 01e0 0028     		cmp	r0, #0
 1409 01e2 00D0     		beq	.LCB991
 1410 01e4 46E7     		b	.L56	@long jump
 1411              	.LCB991:
 1412              		.loc 1 404 0
ARM GAS  C:\Users\Rob\AppData\Local\Temp\ccR9Ca4b.s 			page 26


 1413 01e6 1748     		ldr	r0, .L59+32
 1414 01e8 FFF7FEFF 		bl	chThdSleep
 1415              		.loc 1 405 0
 1416 01ec A369     		ldr	r3, [r4, #24]
 1417 01ee 0D20     		mov	r0, #13
 1418 01f0 9968     		ldr	r1, [r3, #8]
 1419 01f2 4346     		mov	r3, r8
 1420 01f4 C91A     		sub	r1, r1, r3
 1421 01f6 4B42     		neg	r3, r1
 1422 01f8 5941     		adc	r1, r1, r3
 1423 01fa FFF7FEFF 		bl	_test_assert
 1424 01fe 0028     		cmp	r0, #0
 1425 0200 00D0     		beq	.LCB1004
 1426 0202 37E7     		b	.L56	@long jump
 1427              	.LCB1004:
 1428              		.loc 1 406 0
 1429 0204 FFF7FEFF 		bl	chMtxUnlockAll
 1430              		.loc 1 407 0
 1431 0208 A369     		ldr	r3, [r4, #24]
 1432 020a 0E20     		mov	r0, #14
 1433 020c 9968     		ldr	r1, [r3, #8]
 1434 020e C91B     		sub	r1, r1, r7
 1435 0210 4F42     		neg	r7, r1
 1436 0212 7941     		adc	r1, r1, r7
 1437              	.LVL44:
 1438 0214 FFF7FEFF 		bl	_test_assert
 1439 0218 0028     		cmp	r0, #0
 1440 021a 00D0     		beq	.LCB1016
 1441 021c 2AE7     		b	.L56	@long jump
 1442              	.LCB1016:
 1443              		.loc 1 408 0
 1444 021e FFF7FEFF 		bl	test_wait_threads
 1445 0222 27E7     		b	.L56
 1446              	.L60:
 1447              		.align	2
 1448              	.L59:
 1449 0224 00000000 		.word	rlist
 1450 0228 00000000 		.word	wa
 1451 022c 00000000 		.word	thread4a
 1452 0230 08000000 		.word	.LC10
 1453 0234 00000000 		.word	threads
 1454 0238 00000000 		.word	.LC3
 1455 023c 00000000 		.word	thread4b
 1456 0240 00000000 		.word	.LANCHOR1
 1457 0244 10270000 		.word	10000
 1458 0248 00000000 		.word	.LANCHOR2
 1459 024c 14000000 		.word	.LC42
 1460 0250 04000000 		.word	.LC7
 1461              		.cfi_endproc
 1462              	.LFE25:
 1463              		.size	mtx4_execute, .-mtx4_execute
 1464 0254 C046C046 		.section	.text.thread4b,"ax",%progbits
 1464      C046C046 
 1464      C046C046 
 1465              		.align	2
 1466              		.p2align 4,,15
 1467              		.code	16
ARM GAS  C:\Users\Rob\AppData\Local\Temp\ccR9Ca4b.s 			page 27


 1468              		.thumb_func
 1469              		.type	thread4b, %function
 1470              	thread4b:
 1471              	.LFB24:
 1472              		.loc 1 356 0
 1473              		.cfi_startproc
 1474 0000 08B5     		push	{r3, lr}
 1475              	.LCFI27:
 1476              		.cfi_def_cfa_offset 8
 1477              		.cfi_offset 3, -8
 1478              		.cfi_offset 14, -4
 1479              	.LVL45:
 1480              		.loc 1 359 0
 1481 0002 0548     		ldr	r0, .L62
 1482              	.LVL46:
 1483 0004 FFF7FEFF 		bl	chThdSleep
 1484              		.loc 1 360 0
 1485 0008 0448     		ldr	r0, .L62+4
 1486 000a FFF7FEFF 		bl	chMtxLock
 1487              		.loc 1 363 0
 1488              		@ sp needed for prologue
 1489              		.loc 1 361 0
 1490 000e FFF7FEFF 		bl	chMtxUnlock
 1491              		.loc 1 363 0
 1492 0012 0020     		mov	r0, #0
 1493 0014 08BD     		pop	{r3, pc}
 1494              	.L63:
 1495 0016 C046     		.align	2
 1496              	.L62:
 1497 0018 983A0000 		.word	15000
 1498 001c 00000000 		.word	.LANCHOR2
 1499              		.cfi_endproc
 1500              	.LFE24:
 1501              		.size	thread4b, .-thread4b
 1502              		.section	.text.thread4a,"ax",%progbits
 1503              		.align	2
 1504              		.p2align 4,,15
 1505              		.code	16
 1506              		.thumb_func
 1507              		.type	thread4a, %function
 1508              	thread4a:
 1509              	.LFB23:
 1510              		.loc 1 347 0
 1511              		.cfi_startproc
 1512 0000 08B5     		push	{r3, lr}
 1513              	.LCFI28:
 1514              		.cfi_def_cfa_offset 8
 1515              		.cfi_offset 3, -8
 1516              		.cfi_offset 14, -4
 1517              	.LVL47:
 1518              		.loc 1 350 0
 1519 0002 0548     		ldr	r0, .L65
 1520              	.LVL48:
 1521 0004 FFF7FEFF 		bl	chThdSleep
 1522              		.loc 1 351 0
 1523 0008 0448     		ldr	r0, .L65+4
 1524 000a FFF7FEFF 		bl	chMtxLock
ARM GAS  C:\Users\Rob\AppData\Local\Temp\ccR9Ca4b.s 			page 28


 1525              		.loc 1 354 0
 1526              		@ sp needed for prologue
 1527              		.loc 1 352 0
 1528 000e FFF7FEFF 		bl	chMtxUnlock
 1529              		.loc 1 354 0
 1530 0012 0020     		mov	r0, #0
 1531 0014 08BD     		pop	{r3, pc}
 1532              	.L66:
 1533 0016 C046     		.align	2
 1534              	.L65:
 1535 0018 88130000 		.word	5000
 1536 001c 00000000 		.word	.LANCHOR1
 1537              		.cfi_endproc
 1538              	.LFE23:
 1539              		.size	thread4a, .-thread4a
 1540              		.section	.text.mtx3_execute,"ax",%progbits
 1541              		.align	2
 1542              		.p2align 4,,15
 1543              		.code	16
 1544              		.thumb_func
 1545              		.type	mtx3_execute, %function
 1546              	mtx3_execute:
 1547              	.LFB21:
 1548              		.loc 1 308 0
 1549              		.cfi_startproc
 1550 0000 F0B5     		push	{r4, r5, r6, r7, lr}
 1551              	.LCFI29:
 1552              		.cfi_def_cfa_offset 20
 1553              		.cfi_offset 4, -20
 1554              		.cfi_offset 5, -16
 1555              		.cfi_offset 6, -12
 1556              		.cfi_offset 7, -8
 1557              		.cfi_offset 14, -4
 1558 0002 4746     		mov	r7, r8
 1559 0004 80B4     		push	{r7}
 1560              	.LCFI30:
 1561              		.cfi_def_cfa_offset 24
 1562              		.cfi_offset 8, -24
 1563 0006 82B0     		sub	sp, sp, #8
 1564              	.LCFI31:
 1565              		.cfi_def_cfa_offset 32
 1566              		.loc 1 311 0
 1567 0008 FFF7FEFF 		bl	test_wait_tick
 1568              		.loc 1 313 0
 1569 000c 294D     		ldr	r5, .L69
 1570              		.loc 1 312 0
 1571 000e 2A4B     		ldr	r3, .L69+4
 1572              		.loc 1 313 0
 1573 0010 2A4E     		ldr	r6, .L69+8
 1574              		.loc 1 312 0
 1575 0012 DA68     		ldr	r2, [r3, #12]
 1576              		.loc 1 313 0
 1577 0014 AB69     		ldr	r3, [r5, #24]
 1578              		.loc 1 312 0
 1579 0016 9046     		mov	r8, r2
 1580              	.LVL49:
 1581              		.loc 1 313 0
ARM GAS  C:\Users\Rob\AppData\Local\Temp\ccR9Ca4b.s 			page 29


 1582 0018 9A68     		ldr	r2, [r3, #8]
 1583              	.LVL50:
 1584 001a 9821     		mov	r1, #152
 1585 001c 0027     		mov	r7, #0
 1586 001e 053A     		sub	r2, r2, #5
 1587 0020 4900     		lsl	r1, r1, #1
 1588 0022 274B     		ldr	r3, .L69+12
 1589 0024 3068     		ldr	r0, [r6]
 1590 0026 0097     		str	r7, [sp]
 1591 0028 FFF7FEFF 		bl	chThdCreateStatic
 1592              		.loc 1 314 0
 1593 002c AB69     		ldr	r3, [r5, #24]
 1594              		.loc 1 313 0
 1595 002e 254C     		ldr	r4, .L69+16
 1596              		.loc 1 314 0
 1597 0030 9A68     		ldr	r2, [r3, #8]
 1598 0032 9821     		mov	r1, #152
 1599              		.loc 1 313 0
 1600 0034 2060     		str	r0, [r4]
 1601              		.loc 1 314 0
 1602 0036 043A     		sub	r2, r2, #4
 1603 0038 4900     		lsl	r1, r1, #1
 1604 003a 234B     		ldr	r3, .L69+20
 1605 003c 7068     		ldr	r0, [r6, #4]
 1606 003e 0097     		str	r7, [sp]
 1607 0040 FFF7FEFF 		bl	chThdCreateStatic
 1608              		.loc 1 315 0
 1609 0044 AB69     		ldr	r3, [r5, #24]
 1610 0046 9821     		mov	r1, #152
 1611 0048 9A68     		ldr	r2, [r3, #8]
 1612              		.loc 1 314 0
 1613 004a 6060     		str	r0, [r4, #4]
 1614              		.loc 1 315 0
 1615 004c 033A     		sub	r2, r2, #3
 1616 004e 4900     		lsl	r1, r1, #1
 1617 0050 1E4B     		ldr	r3, .L69+24
 1618 0052 B068     		ldr	r0, [r6, #8]
 1619 0054 0097     		str	r7, [sp]
 1620 0056 FFF7FEFF 		bl	chThdCreateStatic
 1621              		.loc 1 316 0
 1622 005a AB69     		ldr	r3, [r5, #24]
 1623 005c 9821     		mov	r1, #152
 1624 005e 9A68     		ldr	r2, [r3, #8]
 1625              		.loc 1 315 0
 1626 0060 A060     		str	r0, [r4, #8]
 1627              		.loc 1 316 0
 1628 0062 023A     		sub	r2, r2, #2
 1629 0064 4900     		lsl	r1, r1, #1
 1630 0066 1A4B     		ldr	r3, .L69+28
 1631 0068 F068     		ldr	r0, [r6, #12]
 1632 006a 0097     		str	r7, [sp]
 1633 006c FFF7FEFF 		bl	chThdCreateStatic
 1634              		.loc 1 317 0
 1635 0070 AB69     		ldr	r3, [r5, #24]
 1636 0072 9821     		mov	r1, #152
 1637 0074 9A68     		ldr	r2, [r3, #8]
 1638              		.loc 1 316 0
ARM GAS  C:\Users\Rob\AppData\Local\Temp\ccR9Ca4b.s 			page 30


 1639 0076 E060     		str	r0, [r4, #12]
 1640              		.loc 1 317 0
 1641 0078 4900     		lsl	r1, r1, #1
 1642 007a 013A     		sub	r2, r2, #1
 1643 007c 154B     		ldr	r3, .L69+32
 1644 007e 3069     		ldr	r0, [r6, #16]
 1645 0080 0097     		str	r7, [sp]
 1646 0082 FFF7FEFF 		bl	chThdCreateStatic
 1647 0086 2061     		str	r0, [r4, #16]
 1648              		.loc 1 318 0
 1649 0088 FFF7FEFF 		bl	test_wait_threads
 1650              		.loc 1 319 0
 1651 008c 0120     		mov	r0, #1
 1652 008e 1249     		ldr	r1, .L69+36
 1653 0090 FFF7FEFF 		bl	_test_assert_sequence
 1654 0094 0028     		cmp	r0, #0
 1655 0096 08D1     		bne	.L67
 1656              		.loc 1 320 0
 1657 0098 104B     		ldr	r3, .L69+40
 1658 009a 0220     		mov	r0, #2
 1659 009c 191C     		mov	r1, r3
 1660 009e 104B     		ldr	r3, .L69+44
 1661 00a0 4144     		add	r1, r1, r8
 1662 00a2 1A1C     		mov	r2, r3
 1663 00a4 4244     		add	r2, r2, r8
 1664 00a6 FFF7FEFF 		bl	_test_assert_time_window
 1665              	.L67:
 1666              		.loc 1 321 0
 1667 00aa 02B0     		add	sp, sp, #8
 1668              		@ sp needed for prologue
 1669              	.LVL51:
 1670 00ac 04BC     		pop	{r2}
 1671 00ae 9046     		mov	r8, r2
 1672 00b0 F0BD     		pop	{r4, r5, r6, r7, pc}
 1673              	.L70:
 1674 00b2 C046     		.align	2
 1675              	.L69:
 1676 00b4 00000000 		.word	rlist
 1677 00b8 00000000 		.word	vtlist
 1678 00bc 00000000 		.word	wa
 1679 00c0 00000000 		.word	thread3LL
 1680 00c4 00000000 		.word	threads
 1681 00c8 00000000 		.word	thread3L
 1682 00cc 00000000 		.word	thread3M
 1683 00d0 00000000 		.word	thread3H
 1684 00d4 00000000 		.word	thread3HH
 1685 00d8 18000000 		.word	.LC48
 1686 00dc F82A0000 		.word	11000
 1687 00e0 FD2A0000 		.word	11005
 1688              		.cfi_endproc
 1689              	.LFE21:
 1690              		.size	mtx3_execute, .-mtx3_execute
 1691 00e4 C046C046 		.section	.text.mtx2_execute,"ax",%progbits
 1691      C046C046 
 1691      C046C046 
 1692              		.align	2
 1693              		.p2align 4,,15
ARM GAS  C:\Users\Rob\AppData\Local\Temp\ccR9Ca4b.s 			page 31


 1694              		.code	16
 1695              		.thumb_func
 1696              		.type	mtx2_execute, %function
 1697              	mtx2_execute:
 1698              	.LFB14:
 1699              		.loc 1 190 0
 1700              		.cfi_startproc
 1701 0000 F0B5     		push	{r4, r5, r6, r7, lr}
 1702              	.LCFI32:
 1703              		.cfi_def_cfa_offset 20
 1704              		.cfi_offset 4, -20
 1705              		.cfi_offset 5, -16
 1706              		.cfi_offset 6, -12
 1707              		.cfi_offset 7, -8
 1708              		.cfi_offset 14, -4
 1709 0002 4746     		mov	r7, r8
 1710 0004 80B4     		push	{r7}
 1711              	.LCFI33:
 1712              		.cfi_def_cfa_offset 24
 1713              		.cfi_offset 8, -24
 1714 0006 82B0     		sub	sp, sp, #8
 1715              	.LCFI34:
 1716              		.cfi_def_cfa_offset 32
 1717              		.loc 1 193 0
 1718 0008 FFF7FEFF 		bl	test_wait_tick
 1719              		.loc 1 195 0
 1720 000c 1E4D     		ldr	r5, .L73
 1721              		.loc 1 194 0
 1722 000e 1F4B     		ldr	r3, .L73+4
 1723              		.loc 1 195 0
 1724 0010 1F4E     		ldr	r6, .L73+8
 1725              		.loc 1 194 0
 1726 0012 DA68     		ldr	r2, [r3, #12]
 1727              		.loc 1 195 0
 1728 0014 AB69     		ldr	r3, [r5, #24]
 1729              		.loc 1 194 0
 1730 0016 9046     		mov	r8, r2
 1731              	.LVL52:
 1732              		.loc 1 195 0
 1733 0018 9A68     		ldr	r2, [r3, #8]
 1734              	.LVL53:
 1735 001a 9821     		mov	r1, #152
 1736 001c 0027     		mov	r7, #0
 1737 001e 013A     		sub	r2, r2, #1
 1738 0020 4900     		lsl	r1, r1, #1
 1739 0022 1C4B     		ldr	r3, .L73+12
 1740 0024 3068     		ldr	r0, [r6]
 1741 0026 0097     		str	r7, [sp]
 1742 0028 FFF7FEFF 		bl	chThdCreateStatic
 1743              		.loc 1 196 0
 1744 002c AB69     		ldr	r3, [r5, #24]
 1745              		.loc 1 195 0
 1746 002e 1A4C     		ldr	r4, .L73+16
 1747              		.loc 1 196 0
 1748 0030 9A68     		ldr	r2, [r3, #8]
 1749 0032 9821     		mov	r1, #152
 1750              		.loc 1 195 0
ARM GAS  C:\Users\Rob\AppData\Local\Temp\ccR9Ca4b.s 			page 32


 1751 0034 2060     		str	r0, [r4]
 1752              		.loc 1 196 0
 1753 0036 023A     		sub	r2, r2, #2
 1754 0038 4900     		lsl	r1, r1, #1
 1755 003a 184B     		ldr	r3, .L73+20
 1756 003c 7068     		ldr	r0, [r6, #4]
 1757 003e 0097     		str	r7, [sp]
 1758 0040 FFF7FEFF 		bl	chThdCreateStatic
 1759              		.loc 1 197 0
 1760 0044 AB69     		ldr	r3, [r5, #24]
 1761 0046 9821     		mov	r1, #152
 1762 0048 9A68     		ldr	r2, [r3, #8]
 1763              		.loc 1 196 0
 1764 004a 6060     		str	r0, [r4, #4]
 1765              		.loc 1 197 0
 1766 004c 4900     		lsl	r1, r1, #1
 1767 004e 033A     		sub	r2, r2, #3
 1768 0050 134B     		ldr	r3, .L73+24
 1769 0052 B068     		ldr	r0, [r6, #8]
 1770 0054 0097     		str	r7, [sp]
 1771 0056 FFF7FEFF 		bl	chThdCreateStatic
 1772 005a A060     		str	r0, [r4, #8]
 1773              		.loc 1 198 0
 1774 005c FFF7FEFF 		bl	test_wait_threads
 1775              		.loc 1 199 0
 1776 0060 0120     		mov	r0, #1
 1777 0062 1049     		ldr	r1, .L73+28
 1778 0064 FFF7FEFF 		bl	_test_assert_sequence
 1779 0068 0028     		cmp	r0, #0
 1780 006a 08D1     		bne	.L71
 1781              		.loc 1 200 0
 1782 006c 0E4B     		ldr	r3, .L73+32
 1783 006e 0220     		mov	r0, #2
 1784 0070 191C     		mov	r1, r3
 1785 0072 0E4B     		ldr	r3, .L73+36
 1786 0074 4144     		add	r1, r1, r8
 1787 0076 1A1C     		mov	r2, r3
 1788 0078 4244     		add	r2, r2, r8
 1789 007a FFF7FEFF 		bl	_test_assert_time_window
 1790              	.L71:
 1791              		.loc 1 201 0
 1792 007e 02B0     		add	sp, sp, #8
 1793              		@ sp needed for prologue
 1794              	.LVL54:
 1795 0080 04BC     		pop	{r2}
 1796 0082 9046     		mov	r8, r2
 1797 0084 F0BD     		pop	{r4, r5, r6, r7, pc}
 1798              	.L74:
 1799 0086 C046     		.align	2
 1800              	.L73:
 1801 0088 00000000 		.word	rlist
 1802 008c 00000000 		.word	vtlist
 1803 0090 00000000 		.word	wa
 1804 0094 00000000 		.word	thread2H
 1805 0098 00000000 		.word	threads
 1806 009c 00000000 		.word	thread2M
 1807 00a0 00000000 		.word	thread2L
ARM GAS  C:\Users\Rob\AppData\Local\Temp\ccR9Ca4b.s 			page 33


 1808 00a4 0C000000 		.word	.LC13
 1809 00a8 10270000 		.word	10000
 1810 00ac 15270000 		.word	10005
 1811              		.cfi_endproc
 1812              	.LFE14:
 1813              		.size	mtx2_execute, .-mtx2_execute
 1814              		.section	.text.thread3HH,"ax",%progbits
 1815              		.align	2
 1816              		.p2align 4,,15
 1817              		.code	16
 1818              		.thumb_func
 1819              		.type	thread3HH, %function
 1820              	thread3HH:
 1821              	.LFB20:
 1822              		.loc 1 297 0
 1823              		.cfi_startproc
 1824 0000 08B5     		push	{r3, lr}
 1825              	.LCFI35:
 1826              		.cfi_def_cfa_offset 8
 1827              		.cfi_offset 3, -8
 1828              		.cfi_offset 14, -4
 1829              	.LVL55:
 1830              		.loc 1 300 0
 1831 0002 0848     		ldr	r0, .L76
 1832              	.LVL56:
 1833 0004 FFF7FEFF 		bl	chThdSleep
 1834              		.loc 1 301 0
 1835 0008 0748     		ldr	r0, .L76+4
 1836 000a FFF7FEFF 		bl	chMtxLock
 1837              		.loc 1 302 0
 1838 000e 0A20     		mov	r0, #10
 1839 0010 FFF7FEFF 		bl	test_cpu_pulse
 1840              		.loc 1 303 0
 1841 0014 FFF7FEFF 		bl	chMtxUnlock
 1842              		.loc 1 304 0
 1843 0018 4120     		mov	r0, #65
 1844 001a FFF7FEFF 		bl	test_emit_token
 1845              		.loc 1 306 0
 1846              		@ sp needed for prologue
 1847 001e 0020     		mov	r0, #0
 1848 0020 08BD     		pop	{r3, pc}
 1849              	.L77:
 1850 0022 C046     		.align	2
 1851              	.L76:
 1852 0024 88130000 		.word	5000
 1853 0028 00000000 		.word	.LANCHOR1
 1854              		.cfi_endproc
 1855              	.LFE20:
 1856              		.size	thread3HH, .-thread3HH
 1857 002c C046C046 		.section	.text.thread3H,"ax",%progbits
 1858              		.align	2
 1859              		.p2align 4,,15
 1860              		.code	16
 1861              		.thumb_func
 1862              		.type	thread3H, %function
 1863              	thread3H:
 1864              	.LFB19:
ARM GAS  C:\Users\Rob\AppData\Local\Temp\ccR9Ca4b.s 			page 34


 1865              		.loc 1 287 0
 1866              		.cfi_startproc
 1867 0000 08B5     		push	{r3, lr}
 1868              	.LCFI36:
 1869              		.cfi_def_cfa_offset 8
 1870              		.cfi_offset 3, -8
 1871              		.cfi_offset 14, -4
 1872              	.LVL57:
 1873              		.loc 1 290 0
 1874 0002 FA20     		mov	r0, #250
 1875              	.LVL58:
 1876 0004 0001     		lsl	r0, r0, #4
 1877 0006 FFF7FEFF 		bl	chThdSleep
 1878              		.loc 1 291 0
 1879 000a 1420     		mov	r0, #20
 1880 000c FFF7FEFF 		bl	test_cpu_pulse
 1881              		.loc 1 292 0
 1882 0010 4220     		mov	r0, #66
 1883 0012 FFF7FEFF 		bl	test_emit_token
 1884              		.loc 1 294 0
 1885              		@ sp needed for prologue
 1886 0016 0020     		mov	r0, #0
 1887 0018 08BD     		pop	{r3, pc}
 1888              		.cfi_endproc
 1889              	.LFE19:
 1890              		.size	thread3H, .-thread3H
 1891 001a C046C046 		.section	.text.thread3M,"ax",%progbits
 1891      C046
 1892              		.align	2
 1893              		.p2align 4,,15
 1894              		.code	16
 1895              		.thumb_func
 1896              		.type	thread3M, %function
 1897              	thread3M:
 1898              	.LFB18:
 1899              		.loc 1 275 0
 1900              		.cfi_startproc
 1901 0000 08B5     		push	{r3, lr}
 1902              	.LCFI37:
 1903              		.cfi_def_cfa_offset 8
 1904              		.cfi_offset 3, -8
 1905              		.cfi_offset 14, -4
 1906              	.LVL59:
 1907              		.loc 1 278 0
 1908 0002 FA20     		mov	r0, #250
 1909              	.LVL60:
 1910 0004 C000     		lsl	r0, r0, #3
 1911 0006 FFF7FEFF 		bl	chThdSleep
 1912              		.loc 1 279 0
 1913 000a 0648     		ldr	r0, .L80
 1914 000c FFF7FEFF 		bl	chMtxLock
 1915              		.loc 1 280 0
 1916 0010 0A20     		mov	r0, #10
 1917 0012 FFF7FEFF 		bl	test_cpu_pulse
 1918              		.loc 1 281 0
 1919 0016 FFF7FEFF 		bl	chMtxUnlock
 1920              		.loc 1 282 0
ARM GAS  C:\Users\Rob\AppData\Local\Temp\ccR9Ca4b.s 			page 35


 1921 001a 4320     		mov	r0, #67
 1922 001c FFF7FEFF 		bl	test_emit_token
 1923              		.loc 1 284 0
 1924              		@ sp needed for prologue
 1925 0020 0020     		mov	r0, #0
 1926 0022 08BD     		pop	{r3, pc}
 1927              	.L81:
 1928              		.align	2
 1929              	.L80:
 1930 0024 00000000 		.word	.LANCHOR1
 1931              		.cfi_endproc
 1932              	.LFE18:
 1933              		.size	thread3M, .-thread3M
 1934 0028 C046C046 		.section	.text.thread3L,"ax",%progbits
 1934      C046C046 
 1935              		.align	2
 1936              		.p2align 4,,15
 1937              		.code	16
 1938              		.thumb_func
 1939              		.type	thread3L, %function
 1940              	thread3L:
 1941              	.LFB17:
 1942              		.loc 1 259 0
 1943              		.cfi_startproc
 1944 0000 08B5     		push	{r3, lr}
 1945              	.LCFI38:
 1946              		.cfi_def_cfa_offset 8
 1947              		.cfi_offset 3, -8
 1948              		.cfi_offset 14, -4
 1949              	.LVL61:
 1950              		.loc 1 262 0
 1951 0002 FA20     		mov	r0, #250
 1952              	.LVL62:
 1953 0004 8000     		lsl	r0, r0, #2
 1954 0006 FFF7FEFF 		bl	chThdSleep
 1955              		.loc 1 263 0
 1956 000a 0C48     		ldr	r0, .L83
 1957 000c FFF7FEFF 		bl	chMtxLock
 1958              		.loc 1 264 0
 1959 0010 1420     		mov	r0, #20
 1960 0012 FFF7FEFF 		bl	test_cpu_pulse
 1961              		.loc 1 265 0
 1962 0016 0A48     		ldr	r0, .L83+4
 1963 0018 FFF7FEFF 		bl	chMtxLock
 1964              		.loc 1 266 0
 1965 001c 0A20     		mov	r0, #10
 1966 001e FFF7FEFF 		bl	test_cpu_pulse
 1967              		.loc 1 267 0
 1968 0022 FFF7FEFF 		bl	chMtxUnlock
 1969              		.loc 1 268 0
 1970 0026 0A20     		mov	r0, #10
 1971 0028 FFF7FEFF 		bl	test_cpu_pulse
 1972              		.loc 1 269 0
 1973 002c FFF7FEFF 		bl	chMtxUnlock
 1974              		.loc 1 270 0
 1975 0030 4420     		mov	r0, #68
 1976 0032 FFF7FEFF 		bl	test_emit_token
ARM GAS  C:\Users\Rob\AppData\Local\Temp\ccR9Ca4b.s 			page 36


 1977              		.loc 1 272 0
 1978              		@ sp needed for prologue
 1979 0036 0020     		mov	r0, #0
 1980 0038 08BD     		pop	{r3, pc}
 1981              	.L84:
 1982 003a C046     		.align	2
 1983              	.L83:
 1984 003c 00000000 		.word	.LANCHOR1
 1985 0040 00000000 		.word	.LANCHOR2
 1986              		.cfi_endproc
 1987              	.LFE17:
 1988              		.size	thread3L, .-thread3L
 1989 0044 C046C046 		.section	.text.thread3LL,"ax",%progbits
 1989      C046C046 
 1989      C046C046 
 1990              		.align	2
 1991              		.p2align 4,,15
 1992              		.code	16
 1993              		.thumb_func
 1994              		.type	thread3LL, %function
 1995              	thread3LL:
 1996              	.LFB16:
 1997              		.loc 1 248 0
 1998              		.cfi_startproc
 1999 0000 08B5     		push	{r3, lr}
 2000              	.LCFI39:
 2001              		.cfi_def_cfa_offset 8
 2002              		.cfi_offset 3, -8
 2003              		.cfi_offset 14, -4
 2004              	.LVL63:
 2005              		.loc 1 251 0
 2006 0002 0648     		ldr	r0, .L86
 2007              	.LVL64:
 2008 0004 FFF7FEFF 		bl	chMtxLock
 2009              		.loc 1 252 0
 2010 0008 1E20     		mov	r0, #30
 2011 000a FFF7FEFF 		bl	test_cpu_pulse
 2012              		.loc 1 253 0
 2013 000e FFF7FEFF 		bl	chMtxUnlock
 2014              		.loc 1 254 0
 2015 0012 4520     		mov	r0, #69
 2016 0014 FFF7FEFF 		bl	test_emit_token
 2017              		.loc 1 256 0
 2018              		@ sp needed for prologue
 2019 0018 0020     		mov	r0, #0
 2020 001a 08BD     		pop	{r3, pc}
 2021              	.L87:
 2022              		.align	2
 2023              	.L86:
 2024 001c 00000000 		.word	.LANCHOR2
 2025              		.cfi_endproc
 2026              	.LFE16:
 2027              		.size	thread3LL, .-thread3LL
 2028              		.section	.text.thread2L,"ax",%progbits
 2029              		.align	2
 2030              		.p2align 4,,15
 2031              		.code	16
ARM GAS  C:\Users\Rob\AppData\Local\Temp\ccR9Ca4b.s 			page 37


 2032              		.thumb_func
 2033              		.type	thread2L, %function
 2034              	thread2L:
 2035              	.LFB11:
 2036              		.loc 1 157 0
 2037              		.cfi_startproc
 2038 0000 08B5     		push	{r3, lr}
 2039              	.LCFI40:
 2040              		.cfi_def_cfa_offset 8
 2041              		.cfi_offset 3, -8
 2042              		.cfi_offset 14, -4
 2043              	.LVL65:
 2044              		.loc 1 160 0
 2045 0002 0848     		ldr	r0, .L89
 2046              	.LVL66:
 2047 0004 FFF7FEFF 		bl	chMtxLock
 2048              		.loc 1 161 0
 2049 0008 2820     		mov	r0, #40
 2050 000a FFF7FEFF 		bl	test_cpu_pulse
 2051              		.loc 1 162 0
 2052 000e FFF7FEFF 		bl	chMtxUnlock
 2053              		.loc 1 163 0
 2054 0012 0A20     		mov	r0, #10
 2055 0014 FFF7FEFF 		bl	test_cpu_pulse
 2056              		.loc 1 164 0
 2057 0018 4320     		mov	r0, #67
 2058 001a FFF7FEFF 		bl	test_emit_token
 2059              		.loc 1 166 0
 2060              		@ sp needed for prologue
 2061 001e 0020     		mov	r0, #0
 2062 0020 08BD     		pop	{r3, pc}
 2063              	.L90:
 2064 0022 C046     		.align	2
 2065              	.L89:
 2066 0024 00000000 		.word	.LANCHOR2
 2067              		.cfi_endproc
 2068              	.LFE11:
 2069              		.size	thread2L, .-thread2L
 2070 0028 C046C046 		.section	.text.thread2M,"ax",%progbits
 2070      C046C046 
 2071              		.align	2
 2072              		.p2align 4,,15
 2073              		.code	16
 2074              		.thumb_func
 2075              		.type	thread2M, %function
 2076              	thread2M:
 2077              	.LFB12:
 2078              		.loc 1 169 0
 2079              		.cfi_startproc
 2080 0000 08B5     		push	{r3, lr}
 2081              	.LCFI41:
 2082              		.cfi_def_cfa_offset 8
 2083              		.cfi_offset 3, -8
 2084              		.cfi_offset 14, -4
 2085              	.LVL67:
 2086              		.loc 1 172 0
 2087 0002 FA20     		mov	r0, #250
ARM GAS  C:\Users\Rob\AppData\Local\Temp\ccR9Ca4b.s 			page 38


 2088              	.LVL68:
 2089 0004 C000     		lsl	r0, r0, #3
 2090 0006 FFF7FEFF 		bl	chThdSleep
 2091              		.loc 1 173 0
 2092 000a 2820     		mov	r0, #40
 2093 000c FFF7FEFF 		bl	test_cpu_pulse
 2094              		.loc 1 174 0
 2095 0010 4220     		mov	r0, #66
 2096 0012 FFF7FEFF 		bl	test_emit_token
 2097              		.loc 1 176 0
 2098              		@ sp needed for prologue
 2099 0016 0020     		mov	r0, #0
 2100 0018 08BD     		pop	{r3, pc}
 2101              		.cfi_endproc
 2102              	.LFE12:
 2103              		.size	thread2M, .-thread2M
 2104 001a C046C046 		.section	.text.thread2H,"ax",%progbits
 2104      C046
 2105              		.align	2
 2106              		.p2align 4,,15
 2107              		.code	16
 2108              		.thumb_func
 2109              		.type	thread2H, %function
 2110              	thread2H:
 2111              	.LFB13:
 2112              		.loc 1 179 0
 2113              		.cfi_startproc
 2114 0000 08B5     		push	{r3, lr}
 2115              	.LCFI42:
 2116              		.cfi_def_cfa_offset 8
 2117              		.cfi_offset 3, -8
 2118              		.cfi_offset 14, -4
 2119              	.LVL69:
 2120              		.loc 1 182 0
 2121 0002 FA20     		mov	r0, #250
 2122              	.LVL70:
 2123 0004 0001     		lsl	r0, r0, #4
 2124 0006 FFF7FEFF 		bl	chThdSleep
 2125              		.loc 1 183 0
 2126 000a 0648     		ldr	r0, .L93
 2127 000c FFF7FEFF 		bl	chMtxLock
 2128              		.loc 1 184 0
 2129 0010 0A20     		mov	r0, #10
 2130 0012 FFF7FEFF 		bl	test_cpu_pulse
 2131              		.loc 1 185 0
 2132 0016 FFF7FEFF 		bl	chMtxUnlock
 2133              		.loc 1 186 0
 2134 001a 4120     		mov	r0, #65
 2135 001c FFF7FEFF 		bl	test_emit_token
 2136              		.loc 1 188 0
 2137              		@ sp needed for prologue
 2138 0020 0020     		mov	r0, #0
 2139 0022 08BD     		pop	{r3, pc}
 2140              	.L94:
 2141              		.align	2
 2142              	.L93:
 2143 0024 00000000 		.word	.LANCHOR2
ARM GAS  C:\Users\Rob\AppData\Local\Temp\ccR9Ca4b.s 			page 39


 2144              		.cfi_endproc
 2145              	.LFE13:
 2146              		.size	thread2H, .-thread2H
 2147              		.global	patternmtx
 2148              		.global	testmtx8
 2149              		.global	testmtx7
 2150              		.global	testmtx6
 2151              		.global	testmtx5
 2152              		.global	testmtx4
 2153              		.global	testmtx3
 2154              		.global	testmtx2
 2155              		.global	testmtx1
 2156 0028 C046C046 		.section	.rodata.testmtx5,"a",%progbits
 2156      C046C046 
 2157              		.align	2
 2158              		.type	testmtx5, %object
 2159              		.size	testmtx5, 16
 2160              	testmtx5:
 2161 0000 64000000 		.word	.LC115
 2162 0004 00000000 		.word	mtx5_setup
 2163 0008 00000000 		.word	0
 2164 000c 00000000 		.word	mtx5_execute
 2165              		.section	.rodata.testmtx6,"a",%progbits
 2166              		.align	2
 2167              		.type	testmtx6, %object
 2168              		.size	testmtx6, 16
 2169              	testmtx6:
 2170 0000 4C000000 		.word	.LC114
 2171 0004 00000000 		.word	mtx6_setup
 2172 0008 00000000 		.word	0
 2173 000c 00000000 		.word	mtx6_execute
 2174              		.section	.rodata.testmtx7,"a",%progbits
 2175              		.align	2
 2176              		.type	testmtx7, %object
 2177              		.size	testmtx7, 16
 2178              	testmtx7:
 2179 0000 34000000 		.word	.LC113
 2180 0004 00000000 		.word	mtx7_setup
 2181 0008 00000000 		.word	0
 2182 000c 00000000 		.word	mtx7_execute
 2183              		.section	.rodata.testmtx8,"a",%progbits
 2184              		.align	2
 2185              		.type	testmtx8, %object
 2186              		.size	testmtx8, 16
 2187              	testmtx8:
 2188 0000 20000000 		.word	.LC112
 2189 0004 00000000 		.word	mtx8_setup
 2190 0008 00000000 		.word	0
 2191 000c 00000000 		.word	mtx8_execute
 2192              		.section	.data.m1,"aw",%progbits
 2193              		.align	2
 2194              		.set	.LANCHOR2,. + 0
 2195              		.type	m1, %object
 2196              		.size	m1, 16
 2197              	m1:
 2198 0000 00000000 		.word	m1
 2199 0004 00000000 		.word	m1
ARM GAS  C:\Users\Rob\AppData\Local\Temp\ccR9Ca4b.s 			page 40


 2200 0008 00000000 		.word	0
 2201 000c 00000000 		.word	0
 2202              		.section	.data.m2,"aw",%progbits
 2203              		.align	2
 2204              		.set	.LANCHOR1,. + 0
 2205              		.type	m2, %object
 2206              		.size	m2, 16
 2207              	m2:
 2208 0000 00000000 		.word	m2
 2209 0004 00000000 		.word	m2
 2210 0008 00000000 		.word	0
 2211 000c 00000000 		.word	0
 2212              		.section	.rodata.str1.4,"aMS",%progbits,1
 2213              		.align	2
 2214              	.LC3:
 2215 0000 4100     		.ascii	"A\000"
 2216 0002 0000     		.space	2
 2217              	.LC7:
 2218 0004 4300     		.ascii	"C\000"
 2219 0006 0000     		.space	2
 2220              	.LC10:
 2221 0008 4200     		.ascii	"B\000"
 2222 000a 0000     		.space	2
 2223              	.LC13:
 2224 000c 41424300 		.ascii	"ABC\000"
 2225              	.LC39:
 2226 0010 4500     		.ascii	"E\000"
 2227 0012 0000     		.space	2
 2228              	.LC42:
 2229 0014 4400     		.ascii	"D\000"
 2230 0016 0000     		.space	2
 2231              	.LC48:
 2232 0018 41424344 		.ascii	"ABCDE\000"
 2232      4500
 2233 001e 0000     		.space	2
 2234              	.LC112:
 2235 0020 436F6E64 		.ascii	"CondVar, boost test\000"
 2235      5661722C 
 2235      20626F6F 
 2235      73742074 
 2235      65737400 
 2236              	.LC113:
 2237 0034 436F6E64 		.ascii	"CondVar, broadcast test\000"
 2237      5661722C 
 2237      2062726F 
 2237      61646361 
 2237      73742074 
 2238              	.LC114:
 2239 004c 436F6E64 		.ascii	"CondVar, signal test\000"
 2239      5661722C 
 2239      20736967 
 2239      6E616C20 
 2239      74657374 
 2240 0061 000000   		.space	3
 2241              	.LC115:
 2242 0064 4D757465 		.ascii	"Mutexes, status\000"
 2242      7865732C 
ARM GAS  C:\Users\Rob\AppData\Local\Temp\ccR9Ca4b.s 			page 41


 2242      20737461 
 2242      74757300 
 2243              	.LC116:
 2244 0074 4D757465 		.ascii	"Mutexes, priority return\000"
 2244      7865732C 
 2244      20707269 
 2244      6F726974 
 2244      79207265 
 2245 008d 000000   		.space	3
 2246              	.LC117:
 2247 0090 4D757465 		.ascii	"Mutexes, priority inheritance, complex case\000"
 2247      7865732C 
 2247      20707269 
 2247      6F726974 
 2247      7920696E 
 2248              	.LC118:
 2249 00bc 4D757465 		.ascii	"Mutexes, priority inheritance, simple case\000"
 2249      7865732C 
 2249      20707269 
 2249      6F726974 
 2249      7920696E 
 2250 00e7 00       		.space	1
 2251              	.LC119:
 2252 00e8 4D757465 		.ascii	"Mutexes, priority enqueuing test\000"
 2252      7865732C 
 2252      20707269 
 2252      6F726974 
 2252      7920656E 
 2253 0109 000000   		.section	.rodata.patternmtx,"a",%progbits
 2254              		.align	2
 2255              		.type	patternmtx, %object
 2256              		.size	patternmtx, 36
 2257              	patternmtx:
 2258 0000 00000000 		.word	testmtx1
 2259 0004 00000000 		.word	testmtx2
 2260 0008 00000000 		.word	testmtx3
 2261 000c 00000000 		.word	testmtx4
 2262 0010 00000000 		.word	testmtx5
 2263 0014 00000000 		.word	testmtx6
 2264 0018 00000000 		.word	testmtx7
 2265 001c 00000000 		.word	testmtx8
 2266 0020 00000000 		.word	0
 2267              		.section	.data.c1,"aw",%progbits
 2268              		.align	2
 2269              		.set	.LANCHOR0,. + 0
 2270              		.type	c1, %object
 2271              		.size	c1, 8
 2272              	c1:
 2273 0000 00000000 		.word	c1
 2274 0004 00000000 		.word	c1
 2275              		.section	.rodata.testmtx1,"a",%progbits
 2276              		.align	2
 2277              		.type	testmtx1, %object
 2278              		.size	testmtx1, 16
 2279              	testmtx1:
 2280 0000 E8000000 		.word	.LC119
 2281 0004 00000000 		.word	mtx1_setup
ARM GAS  C:\Users\Rob\AppData\Local\Temp\ccR9Ca4b.s 			page 42


 2282 0008 00000000 		.word	0
 2283 000c 00000000 		.word	mtx1_execute
 2284              		.section	.rodata.testmtx2,"a",%progbits
 2285              		.align	2
 2286              		.type	testmtx2, %object
 2287              		.size	testmtx2, 16
 2288              	testmtx2:
 2289 0000 BC000000 		.word	.LC118
 2290 0004 00000000 		.word	mtx2_setup
 2291 0008 00000000 		.word	0
 2292 000c 00000000 		.word	mtx2_execute
 2293              		.section	.rodata.testmtx3,"a",%progbits
 2294              		.align	2
 2295              		.type	testmtx3, %object
 2296              		.size	testmtx3, 16
 2297              	testmtx3:
 2298 0000 90000000 		.word	.LC117
 2299 0004 00000000 		.word	mtx3_setup
 2300 0008 00000000 		.word	0
 2301 000c 00000000 		.word	mtx3_execute
 2302              		.section	.rodata.testmtx4,"a",%progbits
 2303              		.align	2
 2304              		.type	testmtx4, %object
 2305              		.size	testmtx4, 16
 2306              	testmtx4:
 2307 0000 74000000 		.word	.LC116
 2308 0004 00000000 		.word	mtx4_setup
 2309 0008 00000000 		.word	0
 2310 000c 00000000 		.word	mtx4_execute
 2311              		.text
 2312              	.Letext0:
 2313              		.file 2 "c:/yagarto/lib/gcc/../../arm-none-eabi/sys-include/stdint.h"
 2314              		.file 3 "../../os/ports/GCC/ARMCMx/chtypes.h"
 2315              		.file 4 "../../os/kernel/include/chlists.h"
 2316              		.file 5 "../../os/kernel/include/chthreads.h"
 2317              		.file 6 "../../os/ports/GCC/ARMCMx/chcore_v6m.h"
 2318              		.file 7 "../../os/kernel/include/chvt.h"
 2319              		.file 8 "../../os/kernel/include/chschd.h"
 2320              		.file 9 "../../os/kernel/include/chmtx.h"
 2321              		.file 10 "../../os/kernel/include/chcond.h"
 2322              		.file 11 "../../test/test.h"