ARM GAS  C:\Users\Rob\AppData\Local\Temp\ccAwpbdX.s 			page 1


   1              		.cpu cortex-m0
   2              		.fpu softvfp
   3              		.eabi_attribute 20, 1
   4              		.eabi_attribute 21, 1
   5              		.eabi_attribute 23, 3
   6              		.eabi_attribute 24, 1
   7              		.eabi_attribute 25, 1
   8              		.eabi_attribute 26, 1
   9              		.eabi_attribute 30, 2
  10              		.eabi_attribute 18, 4
  11              		.code	16
  12              		.file	"test.c"
  13              		.text
  14              	.Ltext0:
  15              		.cfi_sections	.debug_frame
  16              		.section	.text.tmr,"ax",%progbits
  17              		.align	2
  18              		.p2align 4,,15
  19              		.code	16
  20              		.thumb_func
  21              		.type	tmr, %function
  22              	tmr:
  23              	.LFB54:
  24              		.file 1 "../../test/test.c"
  25              		.loc 1 261 0
  26              		.cfi_startproc
  27              	.LVL0:
  28              		.loc 1 264 0
  29 0000 014B     		ldr	r3, .L2
  30 0002 0122     		mov	r2, #1
  31 0004 1A70     		strb	r2, [r3]
  32              		.loc 1 265 0
  33              		@ sp needed for prologue
  34 0006 7047     		bx	lr
  35              	.L3:
  36              		.align	2
  37              	.L2:
  38 0008 00000000 		.word	.LANCHOR0
  39              		.cfi_endproc
  40              	.LFE54:
  41              		.size	tmr, .-tmr
  42 000c C046C046 		.section	.text.print_line,"ax",%progbits
  43              		.align	2
  44              		.p2align 4,,15
  45              		.code	16
  46              		.thumb_func
  47              		.type	print_line, %function
  48              	print_line:
  49              	.LFB57:
  50              		.loc 1 300 0
  51              		.cfi_startproc
  52 0000 38B5     		push	{r3, r4, r5, lr}
  53              	.LCFI0:
  54              		.cfi_def_cfa_offset 16
  55              		.cfi_offset 3, -16
  56              		.cfi_offset 4, -12
  57              		.cfi_offset 5, -8
ARM GAS  C:\Users\Rob\AppData\Local\Temp\ccAwpbdX.s 			page 2


  58              		.cfi_offset 14, -4
  59              	.LVL1:
  60 0002 084D     		ldr	r5, .L8
  61              		.loc 1 300 0
  62 0004 4C24     		mov	r4, #76
  63              	.LVL2:
  64              	.L5:
  65              		.loc 1 304 0 discriminator 2
  66 0006 2868     		ldr	r0, [r5]
  67 0008 2D21     		mov	r1, #45
  68 000a 0368     		ldr	r3, [r0]
  69 000c 013C     		sub	r4, r4, #1
  70 000e 9B68     		ldr	r3, [r3, #8]
  71 0010 9847     		blx	r3
  72              		.loc 1 303 0 discriminator 2
  73 0012 002C     		cmp	r4, #0
  74 0014 F7D1     		bne	.L5
  75              		.loc 1 305 0
  76 0016 2868     		ldr	r0, [r5]
  77 0018 0349     		ldr	r1, .L8+4
  78 001a 0368     		ldr	r3, [r0]
  79 001c 0222     		mov	r2, #2
  80 001e 1B68     		ldr	r3, [r3]
  81 0020 9847     		blx	r3
  82              		.loc 1 306 0
  83              		@ sp needed for prologue
  84 0022 38BD     		pop	{r3, r4, r5, pc}
  85              	.L9:
  86              		.align	2
  87              	.L8:
  88 0024 00000000 		.word	.LANCHOR1
  89 0028 00000000 		.word	.LC2
  90              		.cfi_endproc
  91              	.LFE57:
  92              		.size	print_line, .-print_line
  93              		.global	__aeabi_uidivmod
  94              		.global	__aeabi_uidiv
  95 002c C046C046 		.section	.text.test_printn,"ax",%progbits
  96              		.align	2
  97              		.p2align 4,,15
  98              		.global	test_printn
  99              		.code	16
 100              		.thumb_func
 101              		.type	test_printn, %function
 102              	test_printn:
 103              	.LFB40:
 104              		.loc 1 91 0
 105              		.cfi_startproc
 106 0000 F0B5     		push	{r4, r5, r6, r7, lr}
 107              	.LCFI1:
 108              		.cfi_def_cfa_offset 20
 109              		.cfi_offset 4, -20
 110              		.cfi_offset 5, -16
 111              		.cfi_offset 6, -12
 112              		.cfi_offset 7, -8
 113              		.cfi_offset 14, -4
 114              	.LVL3:
ARM GAS  C:\Users\Rob\AppData\Local\Temp\ccAwpbdX.s 			page 3


 115 0002 85B0     		sub	sp, sp, #20
 116              	.LCFI2:
 117              		.cfi_def_cfa_offset 40
 118              		.loc 1 94 0
 119 0004 061E     		sub	r6, r0, #0
 120 0006 22D0     		beq	.L16
 121              		.loc 1 97 0
 122 0008 6F46     		mov	r7, sp
 123 000a 6D46     		mov	r5, sp
 124              	.LVL4:
 125              	.L11:
 126              		.loc 1 99 0
 127 000c 301C     		mov	r0, r6
 128 000e 0A21     		mov	r1, #10
 129 0010 FFF7FEFF 		bl	__aeabi_uidivmod
 130 0014 0C1C     		mov	r4, r1
 131 0016 3034     		add	r4, r4, #48
 132 0018 301C     		mov	r0, r6
 133 001a E4B2     		uxtb	r4, r4
 134 001c 0A21     		mov	r1, #10
 135 001e 2C70     		strb	r4, [r5]
 136 0020 FFF7FEFF 		bl	__aeabi_uidiv
 137 0024 0135     		add	r5, r5, #1
 138              	.LVL5:
 139              		.loc 1 98 0
 140 0026 061E     		sub	r6, r0, #0
 141 0028 F0D1     		bne	.L11
 142              		.loc 1 100 0
 143 002a BD42     		cmp	r5, r7
 144 002c 0DD9     		bls	.L10
 145              		.loc 1 91 0
 146 002e 6F46     		mov	r7, sp
 147 0030 0137     		add	r7, r7, #1
 148 0032 0A4E     		ldr	r6, .L18
 149 0034 02E0     		b	.L13
 150              	.LVL6:
 151              	.L17:
 152 0036 AB1E     		sub	r3, r5, #2
 153              		.loc 1 100 0
 154 0038 1C78     		ldrb	r4, [r3]
 155 003a 013D     		sub	r5, r5, #1
 156              	.L13:
 157              		.loc 1 101 0
 158 003c 3068     		ldr	r0, [r6]
 159 003e 211C     		mov	r1, r4
 160 0040 0368     		ldr	r3, [r0]
 161 0042 9B68     		ldr	r3, [r3, #8]
 162 0044 9847     		blx	r3
 163              		.loc 1 100 0
 164 0046 BD42     		cmp	r5, r7
 165 0048 F5D1     		bne	.L17
 166              	.L10:
 167              		.loc 1 103 0
 168 004a 05B0     		add	sp, sp, #20
 169              		@ sp needed for prologue
 170 004c F0BD     		pop	{r4, r5, r6, r7, pc}
 171              	.LVL7:
ARM GAS  C:\Users\Rob\AppData\Local\Temp\ccAwpbdX.s 			page 4


 172              	.L16:
 173              	.LBB24:
 174              	.LBB25:
 175              		.loc 1 95 0
 176 004e 034B     		ldr	r3, .L18
 177 0050 3021     		mov	r1, #48
 178 0052 1868     		ldr	r0, [r3]
 179              	.LVL8:
 180 0054 0368     		ldr	r3, [r0]
 181 0056 9B68     		ldr	r3, [r3, #8]
 182 0058 9847     		blx	r3
 183 005a F6E7     		b	.L10
 184              	.L19:
 185              		.align	2
 186              	.L18:
 187 005c 00000000 		.word	.LANCHOR1
 188              	.LBE25:
 189              	.LBE24:
 190              		.cfi_endproc
 191              	.LFE40:
 192              		.size	test_printn, .-test_printn
 193              		.section	.text.test_print,"ax",%progbits
 194              		.align	2
 195              		.p2align 4,,15
 196              		.global	test_print
 197              		.code	16
 198              		.thumb_func
 199              		.type	test_print, %function
 200              	test_print:
 201              	.LFB41:
 202              		.loc 1 110 0
 203              		.cfi_startproc
 204 0000 38B5     		push	{r3, r4, r5, lr}
 205              	.LCFI3:
 206              		.cfi_def_cfa_offset 16
 207              		.cfi_offset 3, -16
 208              		.cfi_offset 4, -12
 209              		.cfi_offset 5, -8
 210              		.cfi_offset 14, -4
 211              	.LVL9:
 212              		.loc 1 112 0
 213 0002 0178     		ldrb	r1, [r0]
 214 0004 0029     		cmp	r1, #0
 215 0006 09D0     		beq	.L20
 216 0008 054D     		ldr	r5, .L24
 217 000a 041C     		mov	r4, r0
 218              	.LVL10:
 219              	.L22:
 220              		.loc 1 113 0
 221 000c 2868     		ldr	r0, [r5]
 222 000e 0134     		add	r4, r4, #1
 223 0010 0368     		ldr	r3, [r0]
 224 0012 9B68     		ldr	r3, [r3, #8]
 225 0014 9847     		blx	r3
 226              		.loc 1 112 0
 227 0016 2178     		ldrb	r1, [r4]
 228 0018 0029     		cmp	r1, #0
ARM GAS  C:\Users\Rob\AppData\Local\Temp\ccAwpbdX.s 			page 5


 229 001a F7D1     		bne	.L22
 230              	.L20:
 231              		.loc 1 114 0
 232              		@ sp needed for prologue
 233 001c 38BD     		pop	{r3, r4, r5, pc}
 234              	.L25:
 235 001e C046     		.align	2
 236              	.L24:
 237 0020 00000000 		.word	.LANCHOR1
 238              		.cfi_endproc
 239              	.LFE41:
 240              		.size	test_print, .-test_print
 241 0024 C046C046 		.section	.text.test_println,"ax",%progbits
 241      C046C046 
 241      C046C046 
 242              		.align	2
 243              		.p2align 4,,15
 244              		.global	test_println
 245              		.code	16
 246              		.thumb_func
 247              		.type	test_println, %function
 248              	test_println:
 249              	.LFB42:
 250              		.loc 1 121 0
 251              		.cfi_startproc
 252 0000 08B5     		push	{r3, lr}
 253              	.LCFI4:
 254              		.cfi_def_cfa_offset 8
 255              		.cfi_offset 3, -8
 256              		.cfi_offset 14, -4
 257              	.LVL11:
 258              		.loc 1 123 0
 259 0002 FFF7FEFF 		bl	test_print
 260              	.LVL12:
 261              		.loc 1 124 0
 262 0006 044B     		ldr	r3, .L27
 263 0008 0449     		ldr	r1, .L27+4
 264 000a 1868     		ldr	r0, [r3]
 265 000c 0222     		mov	r2, #2
 266 000e 0368     		ldr	r3, [r0]
 267              		.loc 1 125 0
 268              		@ sp needed for prologue
 269              		.loc 1 124 0
 270 0010 1B68     		ldr	r3, [r3]
 271 0012 9847     		blx	r3
 272              		.loc 1 125 0
 273 0014 08BD     		pop	{r3, pc}
 274              	.L28:
 275 0016 C046     		.align	2
 276              	.L27:
 277 0018 00000000 		.word	.LANCHOR1
 278 001c 00000000 		.word	.LC2
 279              		.cfi_endproc
 280              	.LFE42:
 281              		.size	test_println, .-test_println
 282              		.section	.text.test_emit_token,"ax",%progbits
 283              		.align	2
ARM GAS  C:\Users\Rob\AppData\Local\Temp\ccAwpbdX.s 			page 6


 284              		.p2align 4,,15
 285              		.global	test_emit_token
 286              		.code	16
 287              		.thumb_func
 288              		.type	test_emit_token, %function
 289              	test_emit_token:
 290              	.LFB45:
 291              		.loc 1 147 0
 292              		.cfi_startproc
 293              	.LVL13:
 294              		.loc 1 149 0
 295              	@ 149 "../../test/test.c" 1
 296 0000 72B6     		cpsid   i
 297              	@ 0 "" 2
 298              		.loc 1 150 0
 299              		.code	16
 300 0002 034B     		ldr	r3, .L30
 301 0004 1A68     		ldr	r2, [r3]
 302 0006 1070     		strb	r0, [r2]
 303 0008 0132     		add	r2, r2, #1
 304 000a 1A60     		str	r2, [r3]
 305              		.loc 1 151 0
 306              	@ 151 "../../test/test.c" 1
 307 000c 62B6     		cpsie   i
 308              	@ 0 "" 2
 309              		.loc 1 152 0
 310              		.code	16
 311              		@ sp needed for prologue
 312 000e 7047     		bx	lr
 313              	.L31:
 314              		.align	2
 315              	.L30:
 316 0010 00000000 		.word	.LANCHOR2
 317              		.cfi_endproc
 318              	.LFE45:
 319              		.size	test_emit_token, .-test_emit_token
 320 0014 C046C046 		.section	.text._test_fail,"ax",%progbits
 320      C046C046 
 320      C046C046 
 321              		.align	2
 322              		.p2align 4,,15
 323              		.global	_test_fail
 324              		.code	16
 325              		.thumb_func
 326              		.type	_test_fail, %function
 327              	_test_fail:
 328              	.LFB46:
 329              		.loc 1 157 0
 330              		.cfi_startproc
 331              	.LVL14:
 332              		.loc 1 159 0
 333 0000 044A     		ldr	r2, .L33
 334 0002 0123     		mov	r3, #1
 335 0004 1370     		strb	r3, [r2]
 336              		.loc 1 160 0
 337 0006 044A     		ldr	r2, .L33+4
 338              		.loc 1 163 0
ARM GAS  C:\Users\Rob\AppData\Local\Temp\ccAwpbdX.s 			page 7


 339              		@ sp needed for prologue
 340              		.loc 1 160 0
 341 0008 1370     		strb	r3, [r2]
 342              		.loc 1 161 0
 343 000a 044B     		ldr	r3, .L33+8
 344 000c 1860     		str	r0, [r3]
 345              		.loc 1 163 0
 346 000e 0120     		mov	r0, #1
 347              	.LVL15:
 348 0010 7047     		bx	lr
 349              	.L34:
 350 0012 C046     		.align	2
 351              	.L33:
 352 0014 00000000 		.word	.LANCHOR3
 353 0018 00000000 		.word	.LANCHOR4
 354 001c 00000000 		.word	.LANCHOR5
 355              		.cfi_endproc
 356              	.LFE46:
 357              		.size	_test_fail, .-_test_fail
 358              		.section	.text._test_assert,"ax",%progbits
 359              		.align	2
 360              		.p2align 4,,15
 361              		.global	_test_assert
 362              		.code	16
 363              		.thumb_func
 364              		.type	_test_assert, %function
 365              	_test_assert:
 366              	.LFB47:
 367              		.loc 1 165 0
 368              		.cfi_startproc
 369 0000 00B5     		push	{lr}
 370              	.LCFI5:
 371              		.cfi_def_cfa_offset 4
 372              		.cfi_offset 14, -4
 373              	.LVL16:
 374              		.loc 1 165 0
 375 0002 031C     		mov	r3, r0
 376              		.loc 1 169 0
 377 0004 0020     		mov	r0, #0
 378              	.LVL17:
 379              		.loc 1 167 0
 380 0006 0029     		cmp	r1, #0
 381 0008 07D1     		bne	.L36
 382              	.LVL18:
 383              	.LBB26:
 384              	.LBB27:
 385              		.loc 1 159 0
 386 000a 0449     		ldr	r1, .L38
 387              	.LVL19:
 388 000c 0122     		mov	r2, #1
 389 000e 0A70     		strb	r2, [r1]
 390              		.loc 1 160 0
 391 0010 0349     		ldr	r1, .L38+4
 392              	.LBE27:
 393              	.LBE26:
 394              		.loc 1 168 0
 395 0012 0120     		mov	r0, #1
ARM GAS  C:\Users\Rob\AppData\Local\Temp\ccAwpbdX.s 			page 8


 396              	.LBB29:
 397              	.LBB28:
 398              		.loc 1 160 0
 399 0014 0A70     		strb	r2, [r1]
 400              		.loc 1 161 0
 401 0016 034A     		ldr	r2, .L38+8
 402 0018 1360     		str	r3, [r2]
 403              	.LVL20:
 404              	.L36:
 405              	.LBE28:
 406              	.LBE29:
 407              		.loc 1 170 0
 408              		@ sp needed for prologue
 409 001a 00BD     		pop	{pc}
 410              	.L39:
 411              		.align	2
 412              	.L38:
 413 001c 00000000 		.word	.LANCHOR3
 414 0020 00000000 		.word	.LANCHOR4
 415 0024 00000000 		.word	.LANCHOR5
 416              		.cfi_endproc
 417              	.LFE47:
 418              		.size	_test_assert, .-_test_assert
 419 0028 C046C046 		.section	.text._test_assert_sequence,"ax",%progbits
 419      C046C046 
 420              		.align	2
 421              		.p2align 4,,15
 422              		.global	_test_assert_sequence
 423              		.code	16
 424              		.thumb_func
 425              		.type	_test_assert_sequence, %function
 426              	_test_assert_sequence:
 427              	.LFB48:
 428              		.loc 1 172 0
 429              		.cfi_startproc
 430 0000 F0B5     		push	{r4, r5, r6, r7, lr}
 431              	.LCFI6:
 432              		.cfi_def_cfa_offset 20
 433              		.cfi_offset 4, -20
 434              		.cfi_offset 5, -16
 435              		.cfi_offset 6, -12
 436              		.cfi_offset 7, -8
 437              		.cfi_offset 14, -4
 438              	.LVL21:
 439              		.loc 1 181 0
 440 0002 0E4E     		ldr	r6, .L47
 441              		.loc 1 173 0
 442 0004 0E4F     		ldr	r7, .L47+4
 443              		.loc 1 181 0
 444 0006 3568     		ldr	r5, [r6]
 445              		.loc 1 173 0
 446 0008 3B1C     		mov	r3, r7
 447              		.loc 1 174 0
 448 000a 05E0     		b	.L41
 449              	.LVL22:
 450              	.L43:
 451              		.loc 1 175 0
ARM GAS  C:\Users\Rob\AppData\Local\Temp\ccAwpbdX.s 			page 9


 452 000c 1C78     		ldrb	r4, [r3]
 453 000e 0A78     		ldrb	r2, [r1]
 454 0010 0133     		add	r3, r3, #1
 455              	.LVL23:
 456 0012 0131     		add	r1, r1, #1
 457              	.LVL24:
 458 0014 9442     		cmp	r4, r2
 459 0016 07D1     		bne	.L46
 460              	.LVL25:
 461              	.L41:
 462              		.loc 1 174 0 discriminator 1
 463 0018 AB42     		cmp	r3, r5
 464 001a F7D3     		bcc	.L43
 465              		.loc 1 178 0
 466 001c 0B78     		ldrb	r3, [r1]
 467              	.LVL26:
 468 001e 002B     		cmp	r3, #0
 469 0020 02D1     		bne	.L46
 470              	.LBB30:
 471              	.LBB31:
 472              		.loc 1 132 0
 473 0022 3760     		str	r7, [r6]
 474              	.LBE31:
 475              	.LBE30:
 476              		.loc 1 181 0
 477 0024 0020     		mov	r0, #0
 478              	.LVL27:
 479 0026 07E0     		b	.L42
 480              	.LVL28:
 481              	.L46:
 482              	.LBB32:
 483              	.LBB33:
 484              		.loc 1 159 0
 485 0028 064A     		ldr	r2, .L47+8
 486 002a 0123     		mov	r3, #1
 487 002c 1370     		strb	r3, [r2]
 488              		.loc 1 160 0
 489 002e 064A     		ldr	r2, .L47+12
 490 0030 1370     		strb	r3, [r2]
 491              		.loc 1 161 0
 492 0032 064B     		ldr	r3, .L47+16
 493 0034 1860     		str	r0, [r3]
 494              	.LBE33:
 495              	.LBE32:
 496              		.loc 1 179 0
 497 0036 0120     		mov	r0, #1
 498              	.LVL29:
 499              	.L42:
 500              		.loc 1 182 0
 501              		@ sp needed for prologue
 502 0038 F0BD     		pop	{r4, r5, r6, r7, pc}
 503              	.L48:
 504 003a C046     		.align	2
 505              	.L47:
 506 003c 00000000 		.word	.LANCHOR2
 507 0040 00000000 		.word	.LANCHOR6
 508 0044 00000000 		.word	.LANCHOR3
ARM GAS  C:\Users\Rob\AppData\Local\Temp\ccAwpbdX.s 			page 10


 509 0048 00000000 		.word	.LANCHOR4
 510 004c 00000000 		.word	.LANCHOR5
 511              		.cfi_endproc
 512              	.LFE48:
 513              		.size	_test_assert_sequence, .-_test_assert_sequence
 514              		.section	.text._test_assert_time_window,"ax",%progbits
 515              		.align	2
 516              		.p2align 4,,15
 517              		.global	_test_assert_time_window
 518              		.code	16
 519              		.thumb_func
 520              		.type	_test_assert_time_window, %function
 521              	_test_assert_time_window:
 522              	.LFB49:
 523              		.loc 1 184 0
 524              		.cfi_startproc
 525 0000 10B5     		push	{r4, lr}
 526              	.LCFI7:
 527              		.cfi_def_cfa_offset 8
 528              		.cfi_offset 4, -8
 529              		.cfi_offset 14, -4
 530              	.LVL30:
 531              		.loc 1 184 0
 532 0002 041C     		mov	r4, r0
 533              		.loc 1 186 0
 534 0004 081C     		mov	r0, r1
 535              	.LVL31:
 536 0006 111C     		mov	r1, r2
 537              	.LVL32:
 538 0008 FFF7FEFF 		bl	chTimeIsWithin
 539              	.LVL33:
 540              	.LBB34:
 541              	.LBB35:
 542              		.loc 1 169 0
 543 000c 0023     		mov	r3, #0
 544              		.loc 1 167 0
 545 000e 0028     		cmp	r0, #0
 546 0010 07D1     		bne	.L50
 547              	.LVL34:
 548              	.LBB36:
 549              	.LBB37:
 550              		.loc 1 159 0
 551 0012 054A     		ldr	r2, .L52
 552 0014 0123     		mov	r3, #1
 553 0016 1370     		strb	r3, [r2]
 554              		.loc 1 160 0
 555 0018 044A     		ldr	r2, .L52+4
 556 001a 1370     		strb	r3, [r2]
 557              		.loc 1 161 0
 558 001c 044B     		ldr	r3, .L52+8
 559 001e 1C60     		str	r4, [r3]
 560              		.loc 1 168 0
 561 0020 0123     		mov	r3, #1
 562              	.LVL35:
 563              	.L50:
 564              	.LBE37:
 565              	.LBE36:
ARM GAS  C:\Users\Rob\AppData\Local\Temp\ccAwpbdX.s 			page 11


 566              	.LBE35:
 567              	.LBE34:
 568              		.loc 1 187 0
 569 0022 181C     		mov	r0, r3
 570              	.LVL36:
 571              		@ sp needed for prologue
 572              	.LVL37:
 573 0024 10BD     		pop	{r4, pc}
 574              	.L53:
 575 0026 C046     		.align	2
 576              	.L52:
 577 0028 00000000 		.word	.LANCHOR3
 578 002c 00000000 		.word	.LANCHOR4
 579 0030 00000000 		.word	.LANCHOR5
 580              		.cfi_endproc
 581              	.LFE49:
 582              		.size	_test_assert_time_window, .-_test_assert_time_window
 583 0034 C046C046 		.section	.text.test_terminate_threads,"ax",%progbits
 583      C046C046 
 583      C046C046 
 584              		.align	2
 585              		.p2align 4,,15
 586              		.global	test_terminate_threads
 587              		.code	16
 588              		.thumb_func
 589              		.type	test_terminate_threads, %function
 590              	test_terminate_threads:
 591              	.LFB50:
 592              		.loc 1 196 0
 593              		.cfi_startproc
 594 0000 38B5     		push	{r3, r4, r5, lr}
 595              	.LCFI8:
 596              		.cfi_def_cfa_offset 16
 597              		.cfi_offset 3, -16
 598              		.cfi_offset 4, -12
 599              		.cfi_offset 5, -8
 600              		.cfi_offset 14, -4
 601              	.LVL38:
 602              		.loc 1 196 0
 603 0002 054C     		ldr	r4, .L58
 604 0004 251C     		mov	r5, r4
 605 0006 1435     		add	r5, r5, #20
 606              	.LVL39:
 607              	.L56:
 608              		.loc 1 200 0
 609 0008 01CC     		ldmia	r4!, {r0}
 610 000a 0028     		cmp	r0, #0
 611 000c 01D0     		beq	.L55
 612              		.loc 1 201 0
 613 000e FFF7FEFF 		bl	chThdTerminate
 614              	.L55:
 615              		.loc 1 199 0
 616 0012 AC42     		cmp	r4, r5
 617 0014 F8D1     		bne	.L56
 618              		.loc 1 202 0
 619              		@ sp needed for prologue
 620 0016 38BD     		pop	{r3, r4, r5, pc}
ARM GAS  C:\Users\Rob\AppData\Local\Temp\ccAwpbdX.s 			page 12


 621              	.L59:
 622              		.align	2
 623              	.L58:
 624 0018 00000000 		.word	.LANCHOR7
 625              		.cfi_endproc
 626              	.LFE50:
 627              		.size	test_terminate_threads, .-test_terminate_threads
 628 001c C046C046 		.section	.text.test_wait_threads,"ax",%progbits
 629              		.align	2
 630              		.p2align 4,,15
 631              		.global	test_wait_threads
 632              		.code	16
 633              		.thumb_func
 634              		.type	test_wait_threads, %function
 635              	test_wait_threads:
 636              	.LFB51:
 637              		.loc 1 207 0
 638              		.cfi_startproc
 639 0000 70B5     		push	{r4, r5, r6, lr}
 640              	.LCFI9:
 641              		.cfi_def_cfa_offset 16
 642              		.cfi_offset 4, -16
 643              		.cfi_offset 5, -12
 644              		.cfi_offset 6, -8
 645              		.cfi_offset 14, -4
 646              	.LVL40:
 647              		.loc 1 207 0
 648 0002 074C     		ldr	r4, .L64
 649              		.loc 1 213 0
 650 0004 0026     		mov	r6, #0
 651              		.loc 1 207 0
 652 0006 251C     		mov	r5, r4
 653 0008 1435     		add	r5, r5, #20
 654              	.LVL41:
 655              	.L62:
 656              		.loc 1 211 0
 657 000a 2068     		ldr	r0, [r4]
 658 000c 0028     		cmp	r0, #0
 659 000e 02D0     		beq	.L61
 660              		.loc 1 212 0
 661 0010 FFF7FEFF 		bl	chThdWait
 662              		.loc 1 213 0
 663 0014 2660     		str	r6, [r4]
 664              	.L61:
 665 0016 0434     		add	r4, r4, #4
 666              		.loc 1 210 0
 667 0018 AC42     		cmp	r4, r5
 668 001a F6D1     		bne	.L62
 669              		.loc 1 215 0
 670              		@ sp needed for prologue
 671 001c 70BD     		pop	{r4, r5, r6, pc}
 672              	.L65:
 673 001e C046     		.align	2
 674              	.L64:
 675 0020 00000000 		.word	.LANCHOR7
 676              		.cfi_endproc
 677              	.LFE51:
ARM GAS  C:\Users\Rob\AppData\Local\Temp\ccAwpbdX.s 			page 13


 678              		.size	test_wait_threads, .-test_wait_threads
 679 0024 C046C046 		.section	.text.test_cpu_pulse,"ax",%progbits
 679      C046C046 
 679      C046C046 
 680              		.align	2
 681              		.p2align 4,,15
 682              		.global	test_cpu_pulse
 683              		.code	16
 684              		.thumb_func
 685              		.type	test_cpu_pulse, %function
 686              	test_cpu_pulse:
 687              	.LFB52:
 688              		.loc 1 224 0
 689              		.cfi_startproc
 690 0000 70B5     		push	{r4, r5, r6, lr}
 691              	.LCFI10:
 692              		.cfi_def_cfa_offset 16
 693              		.cfi_offset 4, -16
 694              		.cfi_offset 5, -12
 695              		.cfi_offset 6, -8
 696              		.cfi_offset 14, -4
 697              	.LVL42:
 698              		.loc 1 227 0
 699 0002 124B     		ldr	r3, .L73
 700              		.loc 1 228 0
 701 0004 FA21     		mov	r1, #250
 702              		.loc 1 227 0
 703 0006 9D69     		ldr	r5, [r3, #24]
 704              		.loc 1 228 0
 705 0008 114B     		ldr	r3, .L73+4
 706 000a 8900     		lsl	r1, r1, #2
 707 000c 5843     		mul	r0, r3
 708              	.LVL43:
 709 000e 0138     		sub	r0, r0, #1
 710 0010 FFF7FEFF 		bl	__aeabi_uidiv
 711              		.loc 1 227 0
 712 0014 2C6A     		ldr	r4, [r5, #32]
 713              	.LVL44:
 714              		.loc 1 236 0
 715 0016 0022     		mov	r2, #0
 716              		.loc 1 228 0
 717 0018 661C     		add	r6, r4, #1
 718 001a 3618     		add	r6, r6, r0
 719              	.LVL45:
 720 001c 08E0     		b	.L69
 721              	.LVL46:
 722              	.L72:
 723              		.loc 1 235 0 discriminator 1
 724 001e 101C     		mov	r0, r2
 725 0020 B342     		cmp	r3, r6
 726 0022 8941     		sbc	r1, r1, r1
 727 0024 A342     		cmp	r3, r4
 728 0026 5041     		adc	r0, r0, r2
 729 0028 4942     		neg	r1, r1
 730 002a 031C     		mov	r3, r0
 731              	.LVL47:
 732 002c 0B40     		and	r3, r1
ARM GAS  C:\Users\Rob\AppData\Local\Temp\ccAwpbdX.s 			page 14


 733              		.loc 1 236 0 discriminator 1
 734 002e 0BD0     		beq	.L71
 735              	.L69:
 736              		.loc 1 230 0
 737 0030 2B6A     		ldr	r3, [r5, #32]
 738              	.LVL48:
 739              		.loc 1 235 0
 740 0032 B442     		cmp	r4, r6
 741 0034 F3D3     		bcc	.L72
 742              		.loc 1 236 0 discriminator 2
 743 0036 B342     		cmp	r3, r6
 744 0038 8041     		sbc	r0, r0, r0
 745 003a 4042     		neg	r0, r0
 746 003c 111C     		mov	r1, r2
 747 003e A342     		cmp	r3, r4
 748 0040 5141     		adc	r1, r1, r2
 749              		.loc 1 235 0 discriminator 2
 750 0042 031C     		mov	r3, r0
 751              	.LVL49:
 752 0044 0B43     		orr	r3, r1
 753              		.loc 1 236 0 discriminator 2
 754 0046 F3D1     		bne	.L69
 755              	.L71:
 756              		.loc 1 237 0
 757              		@ sp needed for prologue
 758              	.LVL50:
 759              	.LVL51:
 760 0048 70BD     		pop	{r4, r5, r6, pc}
 761              	.L74:
 762 004a C046     		.align	2
 763              	.L73:
 764 004c 00000000 		.word	rlist
 765 0050 A0860100 		.word	100000
 766              		.cfi_endproc
 767              	.LFE52:
 768              		.size	test_cpu_pulse, .-test_cpu_pulse
 769 0054 C046C046 		.section	.text.test_wait_tick,"ax",%progbits
 769      C046C046 
 769      C046C046 
 770              		.align	2
 771              		.p2align 4,,15
 772              		.global	test_wait_tick
 773              		.code	16
 774              		.thumb_func
 775              		.type	test_wait_tick, %function
 776              	test_wait_tick:
 777              	.LFB53:
 778              		.loc 1 245 0
 779              		.cfi_startproc
 780 0000 08B5     		push	{r3, lr}
 781              	.LCFI11:
 782              		.cfi_def_cfa_offset 8
 783              		.cfi_offset 3, -8
 784              		.cfi_offset 14, -4
 785              		.loc 1 247 0
 786 0002 0120     		mov	r0, #1
 787 0004 FFF7FEFF 		bl	chThdSleep
ARM GAS  C:\Users\Rob\AppData\Local\Temp\ccAwpbdX.s 			page 15


 788              		.loc 1 248 0
 789 0008 014B     		ldr	r3, .L76
 790              		.loc 1 249 0
 791              		@ sp needed for prologue
 792              		.loc 1 248 0
 793 000a D868     		ldr	r0, [r3, #12]
 794              		.loc 1 249 0
 795 000c 08BD     		pop	{r3, pc}
 796              	.L77:
 797 000e C046     		.align	2
 798              	.L76:
 799 0010 00000000 		.word	vtlist
 800              		.cfi_endproc
 801              	.LFE53:
 802              		.size	test_wait_tick, .-test_wait_tick
 803 0014 C046C046 		.section	.text.test_start_timer,"ax",%progbits
 803      C046C046 
 803      C046C046 
 804              		.align	2
 805              		.p2align 4,,15
 806              		.global	test_start_timer
 807              		.code	16
 808              		.thumb_func
 809              		.type	test_start_timer, %function
 810              	test_start_timer:
 811              	.LFB55:
 812              		.loc 1 272 0
 813              		.cfi_startproc
 814 0000 08B5     		push	{r3, lr}
 815              	.LCFI12:
 816              		.cfi_def_cfa_offset 8
 817              		.cfi_offset 3, -8
 818              		.cfi_offset 14, -4
 819              	.LVL52:
 820              		.loc 1 275 0
 821 0002 094B     		ldr	r3, .L79
 822 0004 0022     		mov	r2, #0
 823 0006 1A70     		strb	r2, [r3]
 824              		.loc 1 276 0
 825              	@ 276 "../../test/test.c" 1
 826 0008 72B6     		cpsid   i
 827              	@ 0 "" 2
 828              		.loc 1 274 0
 829              		.code	16
 830 000a 084B     		ldr	r3, .L79+4
 831 000c FA21     		mov	r1, #250
 832 000e 5843     		mul	r0, r3
 833              	.LVL53:
 834 0010 8900     		lsl	r1, r1, #2
 835 0012 0138     		sub	r0, r0, #1
 836 0014 FFF7FEFF 		bl	__aeabi_uidiv
 837              		.loc 1 276 0
 838 0018 054A     		ldr	r2, .L79+8
 839              		.loc 1 274 0
 840 001a 411C     		add	r1, r0, #1
 841              		.loc 1 276 0
 842 001c 0023     		mov	r3, #0
ARM GAS  C:\Users\Rob\AppData\Local\Temp\ccAwpbdX.s 			page 16


 843 001e 0548     		ldr	r0, .L79+12
 844 0020 FFF7FEFF 		bl	chVTSetI
 845              	@ 276 "../../test/test.c" 1
 846 0024 62B6     		cpsie   i
 847              	@ 0 "" 2
 848              		.loc 1 277 0
 849              		.code	16
 850              		@ sp needed for prologue
 851 0026 08BD     		pop	{r3, pc}
 852              	.L80:
 853              		.align	2
 854              	.L79:
 855 0028 00000000 		.word	.LANCHOR0
 856 002c A0860100 		.word	100000
 857 0030 00000000 		.word	tmr
 858 0034 00000000 		.word	.LANCHOR8
 859              		.cfi_endproc
 860              	.LFE55:
 861              		.size	test_start_timer, .-test_start_timer
 862 0038 C046C046 		.section	.text.TestThread,"ax",%progbits
 862      C046C046 
 863              		.align	2
 864              		.p2align 4,,15
 865              		.global	TestThread
 866              		.code	16
 867              		.thumb_func
 868              		.type	TestThread, %function
 869              	TestThread:
 870              	.LFB58:
 871              		.loc 1 314 0
 872              		.cfi_startproc
 873 0000 F0B5     		push	{r4, r5, r6, r7, lr}
 874              	.LCFI13:
 875              		.cfi_def_cfa_offset 20
 876              		.cfi_offset 4, -20
 877              		.cfi_offset 5, -16
 878              		.cfi_offset 6, -12
 879              		.cfi_offset 7, -8
 880              		.cfi_offset 14, -4
 881 0002 5F46     		mov	r7, fp
 882 0004 5646     		mov	r6, sl
 883 0006 4D46     		mov	r5, r9
 884 0008 4446     		mov	r4, r8
 885 000a F0B4     		push	{r4, r5, r6, r7}
 886              	.LCFI14:
 887              		.cfi_def_cfa_offset 36
 888              		.cfi_offset 8, -36
 889              		.cfi_offset 9, -32
 890              		.cfi_offset 10, -28
 891              		.cfi_offset 11, -24
 892              	.LVL54:
 893              		.loc 1 317 0
 894 000c 684E     		ldr	r6, .L98
 895              		.loc 1 314 0
 896 000e 83B0     		sub	sp, sp, #12
 897              	.LCFI15:
 898              		.cfi_def_cfa_offset 48
ARM GAS  C:\Users\Rob\AppData\Local\Temp\ccAwpbdX.s 			page 17


 899              		.loc 1 317 0
 900 0010 3060     		str	r0, [r6]
 901              		.loc 1 318 0
 902 0012 6848     		ldr	r0, .L98+4
 903              	.LVL55:
 904 0014 FFF7FEFF 		bl	test_println
 905              	.LVL56:
 906              		.loc 1 319 0
 907 0018 6748     		ldr	r0, .L98+8
 908 001a FFF7FEFF 		bl	test_println
 909              		.loc 1 320 0
 910 001e 6748     		ldr	r0, .L98+12
 911 0020 FFF7FEFF 		bl	test_println
 912              		.loc 1 321 0
 913 0024 6648     		ldr	r0, .L98+16
 914 0026 FFF7FEFF 		bl	test_print
 915              		.loc 1 322 0
 916 002a 6648     		ldr	r0, .L98+20
 917 002c FFF7FEFF 		bl	test_println
 918              		.loc 1 323 0
 919 0030 6548     		ldr	r0, .L98+24
 920 0032 FFF7FEFF 		bl	test_print
 921              		.loc 1 324 0
 922 0036 6548     		ldr	r0, .L98+28
 923 0038 FFF7FEFF 		bl	test_println
 924              		.loc 1 326 0
 925 003c 6448     		ldr	r0, .L98+32
 926 003e FFF7FEFF 		bl	test_print
 927              		.loc 1 327 0
 928 0042 6448     		ldr	r0, .L98+36
 929 0044 FFF7FEFF 		bl	test_println
 930              		.loc 1 329 0
 931 0048 6348     		ldr	r0, .L98+40
 932 004a FFF7FEFF 		bl	test_print
 933              		.loc 1 330 0
 934 004e 6348     		ldr	r0, .L98+44
 935 0050 FFF7FEFF 		bl	test_println
 936              		.loc 1 332 0
 937 0054 6248     		ldr	r0, .L98+48
 938 0056 FFF7FEFF 		bl	test_print
 939              		.loc 1 333 0
 940 005a 6248     		ldr	r0, .L98+52
 941 005c FFF7FEFF 		bl	test_println
 942              		.loc 1 336 0
 943 0060 6148     		ldr	r0, .L98+56
 944 0062 FFF7FEFF 		bl	test_print
 945              		.loc 1 337 0
 946 0066 6148     		ldr	r0, .L98+60
 947 0068 FFF7FEFF 		bl	test_println
 948              		.loc 1 340 0
 949 006c 6048     		ldr	r0, .L98+64
 950 006e FFF7FEFF 		bl	test_print
 951              		.loc 1 341 0
 952 0072 6048     		ldr	r0, .L98+68
 953 0074 FFF7FEFF 		bl	test_println
 954              		.loc 1 344 0
 955 0078 5F48     		ldr	r0, .L98+72
ARM GAS  C:\Users\Rob\AppData\Local\Temp\ccAwpbdX.s 			page 18


 956 007a FFF7FEFF 		bl	test_print
 957              		.loc 1 345 0
 958 007e 5F48     		ldr	r0, .L98+76
 959 0080 FFF7FEFF 		bl	test_println
 960              		.loc 1 347 0
 961 0084 4B48     		ldr	r0, .L98+4
 962 0086 FFF7FEFF 		bl	test_println
 963              		.loc 1 349 0
 964 008a 5D4A     		ldr	r2, .L98+80
 965 008c 0023     		mov	r3, #0
 966 008e 1370     		strb	r3, [r2]
 967              	.LVL57:
 968 0090 5C4B     		ldr	r3, .L98+84
 969 0092 5D4F     		ldr	r7, .L98+88
 970 0094 0433     		add	r3, r3, #4
 971 0096 0193     		str	r3, [sp, #4]
 972              		.loc 1 350 0
 973 0098 0023     		mov	r3, #0
 974 009a 0093     		str	r3, [sp]
 975              	.LBB38:
 976              	.LBB39:
 977              		.loc 1 138 0
 978 009c 9846     		mov	r8, r3
 979              	.LBE39:
 980              	.LBE38:
 981              	.LBB43:
 982              	.LBB44:
 983              	.LBB45:
 984              	.LBB46:
 985              		.loc 1 132 0
 986 009e 5B4B     		ldr	r3, .L98+92
 987 00a0 9B46     		mov	fp, r3
 988              	.LVL58:
 989              	.L82:
 990              	.LBE46:
 991              	.LBE45:
 992              	.LBE44:
 993              	.LBE43:
 994              		.loc 1 351 0 discriminator 1
 995 00a2 009A     		ldr	r2, [sp]
 996              	.LBB53:
 997              	.LBB40:
 998              		.loc 1 138 0 discriminator 1
 999 00a4 0023     		mov	r3, #0
 1000              	.LBE40:
 1001              	.LBE53:
 1002              		.loc 1 351 0 discriminator 1
 1003 00a6 0132     		add	r2, r2, #1
 1004 00a8 0092     		str	r2, [sp]
 1005              	.LBB54:
 1006              	.LBB41:
 1007              		.loc 1 138 0 discriminator 1
 1008 00aa 9A46     		mov	sl, r3
 1009              	.L95:
 1010              	.LVL59:
 1011              	.LBE41:
 1012              	.LBE54:
ARM GAS  C:\Users\Rob\AppData\Local\Temp\ccAwpbdX.s 			page 19


 1013              		.loc 1 353 0 discriminator 1
 1014 00ac 3B68     		ldr	r3, [r7]
 1015 00ae 002B     		cmp	r3, #0
 1016 00b0 59D0     		beq	.L96
 1017              	.L89:
 1018              		.loc 1 354 0
 1019 00b2 FFF7FEFF 		bl	print_line
 1020              		.loc 1 355 0
 1021 00b6 5648     		ldr	r0, .L98+96
 1022 00b8 FFF7FEFF 		bl	test_print
 1023              		.loc 1 356 0
 1024 00bc 0098     		ldr	r0, [sp]
 1025 00be FFF7FEFF 		bl	test_printn
 1026              		.loc 1 357 0
 1027 00c2 5448     		ldr	r0, .L98+100
 1028 00c4 FFF7FEFF 		bl	test_print
 1029              		.loc 1 358 0
 1030 00c8 0122     		mov	r2, #1
 1031 00ca 9244     		add	sl, sl, r2
 1032              	.LVL60:
 1033 00cc 5046     		mov	r0, sl
 1034 00ce FFF7FEFF 		bl	test_printn
 1035              		.loc 1 359 0
 1036 00d2 5148     		ldr	r0, .L98+104
 1037 00d4 FFF7FEFF 		bl	test_print
 1038              		.loc 1 360 0
 1039 00d8 3B68     		ldr	r3, [r7]
 1040 00da 1868     		ldr	r0, [r3]
 1041 00dc FFF7FEFF 		bl	test_print
 1042              		.loc 1 361 0
 1043 00e0 4E48     		ldr	r0, .L98+108
 1044 00e2 FFF7FEFF 		bl	test_println
 1045              		.loc 1 363 0
 1046 00e6 4E48     		ldr	r0, .L98+112
 1047 00e8 FFF7FEFF 		bl	chThdSleep
 1048              	.LBB55:
 1049              	.LBB51:
 1050              		.loc 1 287 0
 1051 00ec 4D4A     		ldr	r2, .L98+116
 1052              	.LBB49:
 1053              	.LBB47:
 1054              		.loc 1 132 0
 1055 00ee 4E4C     		ldr	r4, .L98+120
 1056 00f0 5B46     		mov	r3, fp
 1057              	.LBE47:
 1058              	.LBE49:
 1059              		.loc 1 287 0
 1060 00f2 9146     		mov	r9, r2
 1061              	.LBB50:
 1062              	.LBB48:
 1063              		.loc 1 132 0
 1064 00f4 2360     		str	r3, [r4]
 1065              	.LBE48:
 1066              	.LBE50:
 1067              		.loc 1 287 0
 1068 00f6 4246     		mov	r2, r8
 1069 00f8 4B46     		mov	r3, r9
ARM GAS  C:\Users\Rob\AppData\Local\Temp\ccAwpbdX.s 			page 20


 1070 00fa 1A70     		strb	r2, [r3]
 1071              		.loc 1 289 0
 1072 00fc 4B4B     		ldr	r3, .L98+124
 1073              	.LBE51:
 1074              	.LBE55:
 1075              		.loc 1 365 0
 1076 00fe 20CF     		ldmia	r7!, {r5}
 1077              	.LVL61:
 1078              	.LBB56:
 1079              	.LBB52:
 1080              		.loc 1 289 0
 1081 0100 4246     		mov	r2, r8
 1082 0102 1A60     		str	r2, [r3]
 1083              	.LVL62:
 1084 0104 5A60     		str	r2, [r3, #4]
 1085              	.LVL63:
 1086 0106 9A60     		str	r2, [r3, #8]
 1087              	.LVL64:
 1088 0108 DA60     		str	r2, [r3, #12]
 1089              	.LVL65:
 1090 010a 1A61     		str	r2, [r3, #16]
 1091              	.LVL66:
 1092              		.loc 1 291 0
 1093 010c 6B68     		ldr	r3, [r5, #4]
 1094 010e 002B     		cmp	r3, #0
 1095 0110 00D0     		beq	.L83
 1096              		.loc 1 292 0
 1097 0112 9847     		blx	r3
 1098              	.LVL67:
 1099              	.L83:
 1100              		.loc 1 293 0
 1101 0114 EB68     		ldr	r3, [r5, #12]
 1102 0116 9847     		blx	r3
 1103              		.loc 1 294 0
 1104 0118 AB68     		ldr	r3, [r5, #8]
 1105 011a 002B     		cmp	r3, #0
 1106 011c 00D0     		beq	.L84
 1107              		.loc 1 295 0
 1108 011e 9847     		blx	r3
 1109              	.L84:
 1110              		.loc 1 297 0
 1111 0120 FFF7FEFF 		bl	test_wait_threads
 1112              	.LBE52:
 1113              	.LBE56:
 1114              		.loc 1 366 0
 1115 0124 4A46     		mov	r2, r9
 1116 0126 1378     		ldrb	r3, [r2]
 1117 0128 002B     		cmp	r3, #0
 1118 012a 39D0     		beq	.L85
 1119              		.loc 1 367 0
 1120 012c 4048     		ldr	r0, .L98+128
 1121 012e FFF7FEFF 		bl	test_print
 1122              		.loc 1 368 0
 1123 0132 404B     		ldr	r3, .L98+132
 1124 0134 1868     		ldr	r0, [r3]
 1125 0136 FFF7FEFF 		bl	test_printn
 1126              		.loc 1 369 0
ARM GAS  C:\Users\Rob\AppData\Local\Temp\ccAwpbdX.s 			page 21


 1127 013a 3F48     		ldr	r0, .L98+136
 1128 013c FFF7FEFF 		bl	test_print
 1129              	.LVL68:
 1130              	.LBB57:
 1131              	.LBB42:
 1132              		.loc 1 138 0
 1133 0140 2368     		ldr	r3, [r4]
 1134 0142 5B45     		cmp	r3, fp
 1135 0144 09D9     		bls	.L86
 1136 0146 5D46     		mov	r5, fp
 1137              	.LVL69:
 1138              	.L87:
 1139              		.loc 1 139 0
 1140 0148 3068     		ldr	r0, [r6]
 1141 014a 2978     		ldrb	r1, [r5]
 1142 014c 0368     		ldr	r3, [r0]
 1143 014e 0135     		add	r5, r5, #1
 1144              	.LVL70:
 1145 0150 9B68     		ldr	r3, [r3, #8]
 1146 0152 9847     		blx	r3
 1147              		.loc 1 138 0
 1148 0154 2368     		ldr	r3, [r4]
 1149 0156 9D42     		cmp	r5, r3
 1150 0158 F6D3     		bcc	.L87
 1151              	.LVL71:
 1152              	.L86:
 1153              	.LBE42:
 1154              	.LBE57:
 1155              		.loc 1 371 0
 1156 015a 3848     		ldr	r0, .L98+140
 1157 015c FFF7FEFF 		bl	test_println
 1158              	.LVL72:
 1159              		.loc 1 353 0
 1160 0160 3B68     		ldr	r3, [r7]
 1161 0162 002B     		cmp	r3, #0
 1162 0164 A5D1     		bne	.L89
 1163              	.LVL73:
 1164              	.L96:
 1165              		.loc 1 351 0
 1166 0166 019B     		ldr	r3, [sp, #4]
 1167 0168 80CB     		ldmia	r3!, {r7}
 1168 016a 0193     		str	r3, [sp, #4]
 1169 016c 002F     		cmp	r7, #0
 1170 016e 98D1     		bne	.L82
 1171              		.loc 1 379 0
 1172 0170 FFF7FEFF 		bl	print_line
 1173              		.loc 1 380 0
 1174 0174 0F48     		ldr	r0, .L98+4
 1175 0176 FFF7FEFF 		bl	test_println
 1176              		.loc 1 381 0
 1177 017a 3148     		ldr	r0, .L98+144
 1178 017c FFF7FEFF 		bl	test_print
 1179              		.loc 1 382 0
 1180 0180 1F4A     		ldr	r2, .L98+80
 1181 0182 1378     		ldrb	r3, [r2]
 1182 0184 002B     		cmp	r3, #0
 1183 0186 0FD1     		bne	.L97
ARM GAS  C:\Users\Rob\AppData\Local\Temp\ccAwpbdX.s 			page 22


 1184              		.loc 1 385 0
 1185 0188 2E48     		ldr	r0, .L98+148
 1186 018a FFF7FEFF 		bl	test_println
 1187              	.L93:
 1188              		.loc 1 387 0
 1189 018e 1C4B     		ldr	r3, .L98+80
 1190              		.loc 1 388 0
 1191 0190 03B0     		add	sp, sp, #12
 1192              	.LVL74:
 1193              		.loc 1 387 0
 1194 0192 1878     		ldrb	r0, [r3]
 1195              		.loc 1 388 0
 1196              		@ sp needed for prologue
 1197              	.LVL75:
 1198 0194 3CBC     		pop	{r2, r3, r4, r5}
 1199 0196 9046     		mov	r8, r2
 1200 0198 9946     		mov	r9, r3
 1201 019a A246     		mov	sl, r4
 1202 019c AB46     		mov	fp, r5
 1203 019e F0BD     		pop	{r4, r5, r6, r7, pc}
 1204              	.LVL76:
 1205              	.L85:
 1206              		.loc 1 374 0
 1207 01a0 2948     		ldr	r0, .L98+152
 1208 01a2 FFF7FEFF 		bl	test_println
 1209 01a6 81E7     		b	.L95
 1210              	.LVL77:
 1211              	.L97:
 1212              		.loc 1 383 0
 1213 01a8 2848     		ldr	r0, .L98+156
 1214 01aa FFF7FEFF 		bl	test_println
 1215 01ae EEE7     		b	.L93
 1216              	.L99:
 1217              		.align	2
 1218              	.L98:
 1219 01b0 00000000 		.word	.LANCHOR1
 1220 01b4 04000000 		.word	.LC38
 1221 01b8 08000000 		.word	.LC40
 1222 01bc 24000000 		.word	.LC42
 1223 01c0 28000000 		.word	.LC44
 1224 01c4 3C000000 		.word	.LC46
 1225 01c8 4C000000 		.word	.LC48
 1226 01cc 60000000 		.word	.LC50
 1227 01d0 78000000 		.word	.LC52
 1228 01d4 8C000000 		.word	.LC54
 1229 01d8 98000000 		.word	.LC56
 1230 01dc AC000000 		.word	.LC58
 1231 01e0 B4000000 		.word	.LC60
 1232 01e4 C8000000 		.word	.LC62
 1233 01e8 D4000000 		.word	.LC64
 1234 01ec E8000000 		.word	.LC66
 1235 01f0 00010000 		.word	.LC68
 1236 01f4 14010000 		.word	.LC70
 1237 01f8 2C010000 		.word	.LC72
 1238 01fc 40010000 		.word	.LC74
 1239 0200 00000000 		.word	.LANCHOR4
 1240 0204 00000000 		.word	.LANCHOR9
ARM GAS  C:\Users\Rob\AppData\Local\Temp\ccAwpbdX.s 			page 23


 1241 0208 00000000 		.word	patternthd
 1242 020c 00000000 		.word	.LANCHOR6
 1243 0210 58010000 		.word	.LC79
 1244 0214 68010000 		.word	.LC81
 1245 0218 6C010000 		.word	.LC83
 1246 021c 70010000 		.word	.LC85
 1247 0220 204E0000 		.word	20000
 1248 0224 00000000 		.word	.LANCHOR3
 1249 0228 00000000 		.word	.LANCHOR2
 1250 022c 00000000 		.word	.LANCHOR7
 1251 0230 74010000 		.word	.LC90
 1252 0234 00000000 		.word	.LANCHOR5
 1253 0238 8C010000 		.word	.LC93
 1254 023c 90010000 		.word	.LC95
 1255 0240 A8010000 		.word	.LC99
 1256 0244 C0010000 		.word	.LC103
 1257 0248 94010000 		.word	.LC97
 1258 024c B8010000 		.word	.LC101
 1259              		.cfi_endproc
 1260              	.LFE58:
 1261              		.size	TestThread, .-TestThread
 1262              		.global	test_timer_done
 1263              		.global	wa
 1264              		.global	threads
 1265              		.global	test
 1266              		.section	.bss.test,"aw",%nobits
 1267              		.align	3
 1268              		.type	test, %object
 1269              		.size	test, 1520
 1270              	test:
 1271 0000 00000000 		.space	1520
 1271      00000000 
 1271      00000000 
 1271      00000000 
 1271      00000000 
 1272              		.section	.bss.failpoint,"aw",%nobits
 1273              		.align	2
 1274              		.set	.LANCHOR5,. + 0
 1275              		.type	failpoint, %object
 1276              		.size	failpoint, 4
 1277              	failpoint:
 1278 0000 00000000 		.space	4
 1279              		.section	.bss.local_fail,"aw",%nobits
 1280              		.set	.LANCHOR3,. + 0
 1281              		.type	local_fail, %object
 1282              		.size	local_fail, 1
 1283              	local_fail:
 1284 0000 00       		.space	1
 1285              		.section	.bss.test_timer_done,"aw",%nobits
 1286              		.set	.LANCHOR0,. + 0
 1287              		.type	test_timer_done, %object
 1288              		.size	test_timer_done, 1
 1289              	test_timer_done:
 1290 0000 00       		.space	1
 1291              		.section	.rodata.wa,"a",%progbits
 1292              		.align	2
 1293              		.type	wa, %object
ARM GAS  C:\Users\Rob\AppData\Local\Temp\ccAwpbdX.s 			page 24


 1294              		.size	wa, 20
 1295              	wa:
 1296 0000 00000000 		.word	test
 1297 0004 30010000 		.word	test+304
 1298 0008 60020000 		.word	test+608
 1299 000c 90030000 		.word	test+912
 1300 0010 C0040000 		.word	test+1216
 1301              		.section	.bss.tokp,"aw",%nobits
 1302              		.align	2
 1303              		.set	.LANCHOR2,. + 0
 1304              		.type	tokp, %object
 1305              		.size	tokp, 4
 1306              	tokp:
 1307 0000 00000000 		.space	4
 1308              		.section	.bss.global_fail,"aw",%nobits
 1309              		.set	.LANCHOR4,. + 0
 1310              		.type	global_fail, %object
 1311              		.size	global_fail, 1
 1312              	global_fail:
 1313 0000 00       		.space	1
 1314              		.section	.rodata.str1.4,"aMS",%progbits,1
 1315              		.align	2
 1316              	.LC2:
 1317 0000 0D0A00   		.ascii	"\015\012\000"
 1318 0003 00       		.space	1
 1319              	.LC38:
 1320 0004 00       		.ascii	"\000"
 1321 0005 000000   		.space	3
 1322              	.LC40:
 1323 0008 2A2A2A20 		.ascii	"*** ChibiOS/RT test suite\000"
 1323      43686962 
 1323      694F532F 
 1323      52542074 
 1323      65737420 
 1324 0022 0000     		.space	2
 1325              	.LC42:
 1326 0024 2A2A2A00 		.ascii	"***\000"
 1327              	.LC44:
 1328 0028 2A2A2A20 		.ascii	"*** Kernel:       \000"
 1328      4B65726E 
 1328      656C3A20 
 1328      20202020 
 1328      202000
 1329 003b 00       		.space	1
 1330              	.LC46:
 1331 003c 322E372E 		.ascii	"2.7.0unstable\000"
 1331      30756E73 
 1331      7461626C 
 1331      6500
 1332 004a 0000     		.space	2
 1333              	.LC48:
 1334 004c 2A2A2A20 		.ascii	"*** Compiled:     \000"
 1334      436F6D70 
 1334      696C6564 
 1334      3A202020 
 1334      202000
 1335 005f 00       		.space	1
ARM GAS  C:\Users\Rob\AppData\Local\Temp\ccAwpbdX.s 			page 25


 1336              	.LC50:
 1337 0060 4F637420 		.ascii	"Oct 21 2013 - 15:01:12\000"
 1337      32312032 
 1337      30313320 
 1337      2D203135 
 1337      3A30313A 
 1338 0077 00       		.space	1
 1339              	.LC52:
 1340 0078 2A2A2A20 		.ascii	"*** Compiler:     \000"
 1340      436F6D70 
 1340      696C6572 
 1340      3A202020 
 1340      202000
 1341 008b 00       		.space	1
 1342              	.LC54:
 1343 008c 47434320 		.ascii	"GCC 4.6.2\000"
 1343      342E362E 
 1343      3200
 1344 0096 0000     		.space	2
 1345              	.LC56:
 1346 0098 2A2A2A20 		.ascii	"*** Architecture: \000"
 1346      41726368 
 1346      69746563 
 1346      74757265 
 1346      3A2000
 1347 00ab 00       		.space	1
 1348              	.LC58:
 1349 00ac 41524D76 		.ascii	"ARMv6-M\000"
 1349      362D4D00 
 1350              	.LC60:
 1351 00b4 2A2A2A20 		.ascii	"*** Core Variant: \000"
 1351      436F7265 
 1351      20566172 
 1351      69616E74 
 1351      3A2000
 1352 00c7 00       		.space	1
 1353              	.LC62:
 1354 00c8 436F7274 		.ascii	"Cortex-M0\000"
 1354      65782D4D 
 1354      3000
 1355 00d2 0000     		.space	2
 1356              	.LC64:
 1357 00d4 2A2A2A20 		.ascii	"*** Port Info:    \000"
 1357      506F7274 
 1357      20496E66 
 1357      6F3A2020 
 1357      202000
 1358 00e7 00       		.space	1
 1359              	.LC66:
 1360 00e8 50726565 		.ascii	"Preemption through NMI\000"
 1360      6D707469 
 1360      6F6E2074 
 1360      68726F75 
 1360      6768204E 
 1361 00ff 00       		.space	1
 1362              	.LC68:
 1363 0100 2A2A2A20 		.ascii	"*** Platform:     \000"
ARM GAS  C:\Users\Rob\AppData\Local\Temp\ccAwpbdX.s 			page 26


 1363      506C6174 
 1363      666F726D 
 1363      3A202020 
 1363      202000
 1364 0113 00       		.space	1
 1365              	.LC70:
 1366 0114 53544D33 		.ascii	"STM32F05x Entry Level\000"
 1366      32463035 
 1366      7820456E 
 1366      74727920 
 1366      4C657665 
 1367 012a 0000     		.space	2
 1368              	.LC72:
 1369 012c 2A2A2A20 		.ascii	"*** Test Board:   \000"
 1369      54657374 
 1369      20426F61 
 1369      72643A20 
 1369      202000
 1370 013f 00       		.space	1
 1371              	.LC74:
 1372 0140 53542053 		.ascii	"ST STM32F0-Discovery\000"
 1372      544D3332 
 1372      46302D44 
 1372      6973636F 
 1372      76657279 
 1373 0155 000000   		.space	3
 1374              	.LC79:
 1375 0158 2D2D2D20 		.ascii	"--- Test Case \000"
 1375      54657374 
 1375      20436173 
 1375      652000
 1376 0167 00       		.space	1
 1377              	.LC81:
 1378 0168 2E00     		.ascii	".\000"
 1379 016a 0000     		.space	2
 1380              	.LC83:
 1381 016c 202800   		.ascii	" (\000"
 1382 016f 00       		.space	1
 1383              	.LC85:
 1384 0170 2900     		.ascii	")\000"
 1385 0172 0000     		.space	2
 1386              	.LC90:
 1387 0174 2D2D2D20 		.ascii	"--- Result: FAILURE (#\000"
 1387      52657375 
 1387      6C743A20 
 1387      4641494C 
 1387      55524520 
 1388 018b 00       		.space	1
 1389              	.LC93:
 1390 018c 205B00   		.ascii	" [\000"
 1391 018f 00       		.space	1
 1392              	.LC95:
 1393 0190 5D2900   		.ascii	"])\000"
 1394 0193 00       		.space	1
 1395              	.LC97:
 1396 0194 2D2D2D20 		.ascii	"--- Result: SUCCESS\000"
 1396      52657375 
ARM GAS  C:\Users\Rob\AppData\Local\Temp\ccAwpbdX.s 			page 27


 1396      6C743A20 
 1396      53554343 
 1396      45535300 
 1397              	.LC99:
 1398 01a8 46696E61 		.ascii	"Final result: \000"
 1398      6C207265 
 1398      73756C74 
 1398      3A2000
 1399 01b7 00       		.space	1
 1400              	.LC101:
 1401 01b8 4641494C 		.ascii	"FAILURE\000"
 1401      55524500 
 1402              	.LC103:
 1403 01c0 53554343 		.ascii	"SUCCESS\000"
 1403      45535300 
 1404              		.section	.bss.vt,"aw",%nobits
 1405              		.align	2
 1406              		.set	.LANCHOR8,. + 0
 1407              		.type	vt, %object
 1408              		.size	vt, 20
 1409              	vt:
 1410 0000 00000000 		.space	20
 1410      00000000 
 1410      00000000 
 1410      00000000 
 1410      00000000 
 1411              		.section	.bss.threads,"aw",%nobits
 1412              		.align	2
 1413              		.set	.LANCHOR7,. + 0
 1414              		.type	threads, %object
 1415              		.size	threads, 20
 1416              	threads:
 1417 0000 00000000 		.space	20
 1417      00000000 
 1417      00000000 
 1417      00000000 
 1417      00000000 
 1418              		.section	.rodata.patterns,"a",%progbits
 1419              		.align	2
 1420              		.set	.LANCHOR9,. + 0
 1421              		.type	patterns, %object
 1422              		.size	patterns, 48
 1423              	patterns:
 1424 0000 00000000 		.word	patternthd
 1425 0004 00000000 		.word	patternsem
 1426 0008 00000000 		.word	patternmtx
 1427 000c 00000000 		.word	patternmsg
 1428 0010 00000000 		.word	patternmbox
 1429 0014 00000000 		.word	patternevt
 1430 0018 00000000 		.word	patternheap
 1431 001c 00000000 		.word	patternpools
 1432 0020 00000000 		.word	patterndyn
 1433 0024 00000000 		.word	patternqueues
 1434 0028 00000000 		.word	patternbmk
 1435 002c 00000000 		.word	0
 1436              		.section	.bss.chp,"aw",%nobits
 1437              		.align	2
ARM GAS  C:\Users\Rob\AppData\Local\Temp\ccAwpbdX.s 			page 28


 1438              		.set	.LANCHOR1,. + 0
 1439              		.type	chp, %object
 1440              		.size	chp, 4
 1441              	chp:
 1442 0000 00000000 		.space	4
 1443              		.section	.bss.tokens_buffer,"aw",%nobits
 1444              		.align	2
 1445              		.set	.LANCHOR6,. + 0
 1446              		.type	tokens_buffer, %object
 1447              		.size	tokens_buffer, 16
 1448              	tokens_buffer:
 1449 0000 00000000 		.space	16
 1449      00000000 
 1449      00000000 
 1449      00000000 
 1450              		.text
 1451              	.Letext0:
 1452              		.file 2 "c:\\yagarto\\bin\\../lib/gcc/arm-none-eabi/4.6.2/include/stddef.h"
 1453              		.file 3 "c:/yagarto/lib/gcc/../../arm-none-eabi/sys-include/stdint.h"
 1454              		.file 4 "../../os/ports/GCC/ARMCMx/chtypes.h"
 1455              		.file 5 "../../os/kernel/include/chlists.h"
 1456              		.file 6 "../../os/kernel/include/chthreads.h"
 1457              		.file 7 "../../os/ports/GCC/ARMCMx/chcore_v6m.h"
 1458              		.file 8 "../../os/kernel/include/chvt.h"
 1459              		.file 9 "../../os/kernel/include/chschd.h"
 1460              		.file 10 "../../os/kernel/include/chmtx.h"
 1461              		.file 11 "../../os/kernel/include/chstreams.h"
 1462              		.file 12 "../../test/test.h"
 1463              		.file 13 "../../test/testthd.h"
 1464              		.file 14 "../../test/testsem.h"
 1465              		.file 15 "../../test/testmtx.h"
 1466              		.file 16 "../../test/testmsg.h"
 1467              		.file 17 "../../test/testmbox.h"
 1468              		.file 18 "../../test/testevt.h"
 1469              		.file 19 "../../test/testheap.h"
 1470              		.file 20 "../../test/testpools.h"
 1471              		.file 21 "../../test/testdyn.h"
 1472              		.file 22 "../../test/testqueues.h"
 1473              		.file 23 "../../test/testbmk.h"
 1474              		.section	.debug_info,"",%progbits
 1475              	.Ldebug_info0:
 1476 0000 E80E0000 		.4byte	0xee8
 1477 0004 0200     		.2byte	0x2
 1478 0006 00000000 		.4byte	.Ldebug_abbrev0
 1479 000a 04       		.byte	0x4
 1480 000b 01       		.uleb128 0x1
 1481 000c 54040000 		.4byte	.LASF129
 1482 0010 01       		.byte	0x1
 1483 0011 52000000 		.4byte	.LASF130
 1484 0015 60040000 		.4byte	.LASF131
 1485 0019 00000000 		.4byte	0
 1486 001d 00000000 		.4byte	0
 1487 0021 C8000000 		.4byte	.Ldebug_ranges0+0xc8
 1488 0025 00000000 		.4byte	.Ldebug_line0
 1489 0029 02       		.uleb128 0x2
 1490 002a 04       		.byte	0x4
 1491 002b 05       		.byte	0x5
ARM GAS  C:\Users\Rob\AppData\Local\Temp\ccAwpbdX.s 			page 29


 1492 002c 696E7400 		.ascii	"int\000"
 1493 0030 03       		.uleb128 0x3
 1494 0031 C8010000 		.4byte	.LASF2
 1495 0035 02       		.byte	0x2
 1496 0036 D4       		.byte	0xd4
 1497 0037 3B000000 		.4byte	0x3b
 1498 003b 04       		.uleb128 0x4
 1499 003c 04       		.byte	0x4
 1500 003d 07       		.byte	0x7
 1501 003e B7000000 		.4byte	.LASF0
 1502 0042 04       		.uleb128 0x4
 1503 0043 01       		.byte	0x1
 1504 0044 06       		.byte	0x6
 1505 0045 E7040000 		.4byte	.LASF1
 1506 0049 03       		.uleb128 0x3
 1507 004a 72020000 		.4byte	.LASF3
 1508 004e 03       		.byte	0x3
 1509 004f 2A       		.byte	0x2a
 1510 0050 54000000 		.4byte	0x54
 1511 0054 04       		.uleb128 0x4
 1512 0055 01       		.byte	0x1
 1513 0056 08       		.byte	0x8
 1514 0057 65030000 		.4byte	.LASF4
 1515 005b 04       		.uleb128 0x4
 1516 005c 02       		.byte	0x2
 1517 005d 05       		.byte	0x5
 1518 005e 7E030000 		.4byte	.LASF5
 1519 0062 04       		.uleb128 0x4
 1520 0063 02       		.byte	0x2
 1521 0064 07       		.byte	0x7
 1522 0065 00050000 		.4byte	.LASF6
 1523 0069 03       		.uleb128 0x3
 1524 006a 4C040000 		.4byte	.LASF7
 1525 006e 03       		.byte	0x3
 1526 006f 4F       		.byte	0x4f
 1527 0070 74000000 		.4byte	0x74
 1528 0074 04       		.uleb128 0x4
 1529 0075 04       		.byte	0x4
 1530 0076 05       		.byte	0x5
 1531 0077 A5030000 		.4byte	.LASF8
 1532 007b 03       		.uleb128 0x3
 1533 007c 14010000 		.4byte	.LASF9
 1534 0080 03       		.byte	0x3
 1535 0081 50       		.byte	0x50
 1536 0082 86000000 		.4byte	0x86
 1537 0086 04       		.uleb128 0x4
 1538 0087 04       		.byte	0x4
 1539 0088 07       		.byte	0x7
 1540 0089 F1030000 		.4byte	.LASF10
 1541 008d 04       		.uleb128 0x4
 1542 008e 08       		.byte	0x8
 1543 008f 05       		.byte	0x5
 1544 0090 B0020000 		.4byte	.LASF11
 1545 0094 03       		.uleb128 0x3
 1546 0095 B5030000 		.4byte	.LASF12
 1547 0099 03       		.byte	0x3
 1548 009a 78       		.byte	0x78
ARM GAS  C:\Users\Rob\AppData\Local\Temp\ccAwpbdX.s 			page 30


 1549 009b 9F000000 		.4byte	0x9f
 1550 009f 04       		.uleb128 0x4
 1551 00a0 08       		.byte	0x8
 1552 00a1 07       		.byte	0x7
 1553 00a2 69010000 		.4byte	.LASF13
 1554 00a6 03       		.uleb128 0x3
 1555 00a7 D6010000 		.4byte	.LASF14
 1556 00ab 04       		.byte	0x4
 1557 00ac 24       		.byte	0x24
 1558 00ad B1000000 		.4byte	0xb1
 1559 00b1 04       		.uleb128 0x4
 1560 00b2 01       		.byte	0x1
 1561 00b3 02       		.byte	0x2
 1562 00b4 DD010000 		.4byte	.LASF15
 1563 00b8 03       		.uleb128 0x3
 1564 00b9 2E030000 		.4byte	.LASF16
 1565 00bd 04       		.byte	0x4
 1566 00be 25       		.byte	0x25
 1567 00bf 49000000 		.4byte	0x49
 1568 00c3 03       		.uleb128 0x3
 1569 00c4 52020000 		.4byte	.LASF17
 1570 00c8 04       		.byte	0x4
 1571 00c9 26       		.byte	0x26
 1572 00ca 49000000 		.4byte	0x49
 1573 00ce 03       		.uleb128 0x3
 1574 00cf E9030000 		.4byte	.LASF18
 1575 00d3 04       		.byte	0x4
 1576 00d4 27       		.byte	0x27
 1577 00d5 49000000 		.4byte	0x49
 1578 00d9 03       		.uleb128 0x3
 1579 00da 11030000 		.4byte	.LASF19
 1580 00de 04       		.byte	0x4
 1581 00df 28       		.byte	0x28
 1582 00e0 49000000 		.4byte	0x49
 1583 00e4 03       		.uleb128 0x3
 1584 00e5 49010000 		.4byte	.LASF20
 1585 00e9 04       		.byte	0x4
 1586 00ea 29       		.byte	0x29
 1587 00eb 7B000000 		.4byte	0x7b
 1588 00ef 03       		.uleb128 0x3
 1589 00f0 CC020000 		.4byte	.LASF21
 1590 00f4 04       		.byte	0x4
 1591 00f5 2A       		.byte	0x2a
 1592 00f6 69000000 		.4byte	0x69
 1593 00fa 03       		.uleb128 0x3
 1594 00fb 1D010000 		.4byte	.LASF22
 1595 00ff 04       		.byte	0x4
 1596 0100 2C       		.byte	0x2c
 1597 0101 7B000000 		.4byte	0x7b
 1598 0105 03       		.uleb128 0x3
 1599 0106 88000000 		.4byte	.LASF23
 1600 010a 04       		.byte	0x4
 1601 010b 2E       		.byte	0x2e
 1602 010c 7B000000 		.4byte	0x7b
 1603 0110 03       		.uleb128 0x3
 1604 0111 4B020000 		.4byte	.LASF24
 1605 0115 05       		.byte	0x5
ARM GAS  C:\Users\Rob\AppData\Local\Temp\ccAwpbdX.s 			page 31


 1606 0116 23       		.byte	0x23
 1607 0117 1B010000 		.4byte	0x11b
 1608 011b 05       		.uleb128 0x5
 1609 011c 4B020000 		.4byte	.LASF24
 1610 0120 48       		.byte	0x48
 1611 0121 06       		.byte	0x6
 1612 0122 57       		.byte	0x57
 1613 0123 40020000 		.4byte	0x240
 1614 0127 06       		.uleb128 0x6
 1615 0128 AE030000 		.4byte	.LASF25
 1616 012c 06       		.byte	0x6
 1617 012d 58       		.byte	0x58
 1618 012e 65020000 		.4byte	0x265
 1619 0132 02       		.byte	0x2
 1620 0133 23       		.byte	0x23
 1621 0134 00       		.uleb128 0
 1622 0135 06       		.uleb128 0x6
 1623 0136 E2030000 		.4byte	.LASF26
 1624 013a 06       		.byte	0x6
 1625 013b 5A       		.byte	0x5a
 1626 013c 65020000 		.4byte	0x265
 1627 0140 02       		.byte	0x2
 1628 0141 23       		.byte	0x23
 1629 0142 04       		.uleb128 0x4
 1630 0143 06       		.uleb128 0x6
 1631 0144 42010000 		.4byte	.LASF27
 1632 0148 06       		.byte	0x6
 1633 0149 5C       		.byte	0x5c
 1634 014a E4000000 		.4byte	0xe4
 1635 014e 02       		.byte	0x2
 1636 014f 23       		.byte	0x23
 1637 0150 08       		.uleb128 0x8
 1638 0151 06       		.uleb128 0x6
 1639 0152 BE030000 		.4byte	.LASF28
 1640 0156 06       		.byte	0x6
 1641 0157 5D       		.byte	0x5d
 1642 0158 34030000 		.4byte	0x334
 1643 015c 02       		.byte	0x2
 1644 015d 23       		.byte	0x23
 1645 015e 0C       		.uleb128 0xc
 1646 015f 06       		.uleb128 0x6
 1647 0160 AA010000 		.4byte	.LASF29
 1648 0164 06       		.byte	0x6
 1649 0165 5F       		.byte	0x5f
 1650 0166 65020000 		.4byte	0x265
 1651 016a 02       		.byte	0x2
 1652 016b 23       		.byte	0x23
 1653 016c 10       		.uleb128 0x10
 1654 016d 06       		.uleb128 0x6
 1655 016e 62020000 		.4byte	.LASF30
 1656 0172 06       		.byte	0x6
 1657 0173 60       		.byte	0x60
 1658 0174 65020000 		.4byte	0x265
 1659 0178 02       		.byte	0x2
 1660 0179 23       		.byte	0x23
 1661 017a 14       		.uleb128 0x14
 1662 017b 06       		.uleb128 0x6
ARM GAS  C:\Users\Rob\AppData\Local\Temp\ccAwpbdX.s 			page 32


 1663 017c FE010000 		.4byte	.LASF31
 1664 0180 06       		.byte	0x6
 1665 0181 67       		.byte	0x67
 1666 0182 0C050000 		.4byte	0x50c
 1667 0186 02       		.byte	0x2
 1668 0187 23       		.byte	0x23
 1669 0188 18       		.uleb128 0x18
 1670 0189 06       		.uleb128 0x6
 1671 018a 6A020000 		.4byte	.LASF32
 1672 018e 06       		.byte	0x6
 1673 018f 72       		.byte	0x72
 1674 0190 C3000000 		.4byte	0xc3
 1675 0194 02       		.byte	0x2
 1676 0195 23       		.byte	0x23
 1677 0196 1C       		.uleb128 0x1c
 1678 0197 06       		.uleb128 0x6
 1679 0198 F7020000 		.4byte	.LASF33
 1680 019c 06       		.byte	0x6
 1681 019d 76       		.byte	0x76
 1682 019e B8000000 		.4byte	0xb8
 1683 01a2 02       		.byte	0x2
 1684 01a3 23       		.byte	0x23
 1685 01a4 1D       		.uleb128 0x1d
 1686 01a5 06       		.uleb128 0x6
 1687 01a6 99040000 		.4byte	.LASF34
 1688 01aa 06       		.byte	0x6
 1689 01ab 7B       		.byte	0x7b
 1690 01ac CE000000 		.4byte	0xce
 1691 01b0 02       		.byte	0x2
 1692 01b1 23       		.byte	0x23
 1693 01b2 1E       		.uleb128 0x1e
 1694 01b3 06       		.uleb128 0x6
 1695 01b4 B3040000 		.4byte	.LASF35
 1696 01b8 06       		.byte	0x6
 1697 01b9 81       		.byte	0x81
 1698 01ba D9000000 		.4byte	0xd9
 1699 01be 02       		.byte	0x2
 1700 01bf 23       		.byte	0x23
 1701 01c0 1F       		.uleb128 0x1f
 1702 01c1 06       		.uleb128 0x6
 1703 01c2 42000000 		.4byte	.LASF36
 1704 01c6 06       		.byte	0x6
 1705 01c7 88       		.byte	0x88
 1706 01c8 17040000 		.4byte	0x417
 1707 01cc 02       		.byte	0x2
 1708 01cd 23       		.byte	0x23
 1709 01ce 20       		.uleb128 0x20
 1710 01cf 07       		.uleb128 0x7
 1711 01d0 705F7500 		.ascii	"p_u\000"
 1712 01d4 06       		.byte	0x6
 1713 01d5 AD       		.byte	0xad
 1714 01d6 D7040000 		.4byte	0x4d7
 1715 01da 02       		.byte	0x2
 1716 01db 23       		.byte	0x23
 1717 01dc 24       		.uleb128 0x24
 1718 01dd 06       		.uleb128 0x6
 1719 01de 27000000 		.4byte	.LASF37
ARM GAS  C:\Users\Rob\AppData\Local\Temp\ccAwpbdX.s 			page 33


 1720 01e2 06       		.byte	0x6
 1721 01e3 B2       		.byte	0xb2
 1722 01e4 8D020000 		.4byte	0x28d
 1723 01e8 02       		.byte	0x2
 1724 01e9 23       		.byte	0x23
 1725 01ea 28       		.uleb128 0x28
 1726 01eb 06       		.uleb128 0x6
 1727 01ec AC000000 		.4byte	.LASF38
 1728 01f0 06       		.byte	0x6
 1729 01f1 B8       		.byte	0xb8
 1730 01f2 6B020000 		.4byte	0x26b
 1731 01f6 02       		.byte	0x2
 1732 01f7 23       		.byte	0x23
 1733 01f8 2C       		.uleb128 0x2c
 1734 01f9 06       		.uleb128 0x6
 1735 01fa 28030000 		.4byte	.LASF39
 1736 01fe 06       		.byte	0x6
 1737 01ff BC       		.byte	0xbc
 1738 0200 EF000000 		.4byte	0xef
 1739 0204 02       		.byte	0x2
 1740 0205 23       		.byte	0x23
 1741 0206 34       		.uleb128 0x34
 1742 0207 06       		.uleb128 0x6
 1743 0208 92030000 		.4byte	.LASF40
 1744 020c 06       		.byte	0x6
 1745 020d C2       		.byte	0xc2
 1746 020e FA000000 		.4byte	0xfa
 1747 0212 02       		.byte	0x2
 1748 0213 23       		.byte	0x23
 1749 0214 38       		.uleb128 0x38
 1750 0215 06       		.uleb128 0x6
 1751 0216 8D020000 		.4byte	.LASF41
 1752 021a 06       		.byte	0x6
 1753 021b C9       		.byte	0xc9
 1754 021c 1E050000 		.4byte	0x51e
 1755 0220 02       		.byte	0x2
 1756 0221 23       		.byte	0x23
 1757 0222 3C       		.uleb128 0x3c
 1758 0223 06       		.uleb128 0x6
 1759 0224 73030000 		.4byte	.LASF42
 1760 0228 06       		.byte	0x6
 1761 0229 CD       		.byte	0xcd
 1762 022a E4000000 		.4byte	0xe4
 1763 022e 02       		.byte	0x2
 1764 022f 23       		.byte	0x23
 1765 0230 40       		.uleb128 0x40
 1766 0231 06       		.uleb128 0x6
 1767 0232 85020000 		.4byte	.LASF43
 1768 0236 06       		.byte	0x6
 1769 0237 D3       		.byte	0xd3
 1770 0238 A3020000 		.4byte	0x2a3
 1771 023c 02       		.byte	0x2
 1772 023d 23       		.byte	0x23
 1773 023e 44       		.uleb128 0x44
 1774 023f 00       		.byte	0
 1775 0240 08       		.uleb128 0x8
 1776 0241 08       		.byte	0x8
ARM GAS  C:\Users\Rob\AppData\Local\Temp\ccAwpbdX.s 			page 34


 1777 0242 05       		.byte	0x5
 1778 0243 5A       		.byte	0x5a
 1779 0244 65020000 		.4byte	0x265
 1780 0248 06       		.uleb128 0x6
 1781 0249 AE030000 		.4byte	.LASF25
 1782 024d 05       		.byte	0x5
 1783 024e 5B       		.byte	0x5b
 1784 024f 65020000 		.4byte	0x265
 1785 0253 02       		.byte	0x2
 1786 0254 23       		.byte	0x23
 1787 0255 00       		.uleb128 0
 1788 0256 06       		.uleb128 0x6
 1789 0257 E2030000 		.4byte	.LASF26
 1790 025b 05       		.byte	0x5
 1791 025c 5D       		.byte	0x5d
 1792 025d 65020000 		.4byte	0x265
 1793 0261 02       		.byte	0x2
 1794 0262 23       		.byte	0x23
 1795 0263 04       		.uleb128 0x4
 1796 0264 00       		.byte	0
 1797 0265 09       		.uleb128 0x9
 1798 0266 04       		.byte	0x4
 1799 0267 10010000 		.4byte	0x110
 1800 026b 03       		.uleb128 0x3
 1801 026c 31020000 		.4byte	.LASF44
 1802 0270 05       		.byte	0x5
 1803 0271 5F       		.byte	0x5f
 1804 0272 40020000 		.4byte	0x240
 1805 0276 08       		.uleb128 0x8
 1806 0277 04       		.byte	0x4
 1807 0278 05       		.byte	0x5
 1808 0279 64       		.byte	0x64
 1809 027a 8D020000 		.4byte	0x28d
 1810 027e 06       		.uleb128 0x6
 1811 027f AE030000 		.4byte	.LASF25
 1812 0283 05       		.byte	0x5
 1813 0284 66       		.byte	0x66
 1814 0285 65020000 		.4byte	0x265
 1815 0289 02       		.byte	0x2
 1816 028a 23       		.byte	0x23
 1817 028b 00       		.uleb128 0
 1818 028c 00       		.byte	0
 1819 028d 03       		.uleb128 0x3
 1820 028e 1B000000 		.4byte	.LASF45
 1821 0292 05       		.byte	0x5
 1822 0293 69       		.byte	0x69
 1823 0294 76020000 		.4byte	0x276
 1824 0298 03       		.uleb128 0x3
 1825 0299 49000000 		.4byte	.LASF46
 1826 029d 07       		.byte	0x7
 1827 029e A0       		.byte	0xa0
 1828 029f A3020000 		.4byte	0x2a3
 1829 02a3 0A       		.uleb128 0xa
 1830 02a4 04       		.byte	0x4
 1831 02a5 03       		.uleb128 0x3
 1832 02a6 19050000 		.4byte	.LASF47
 1833 02aa 07       		.byte	0x7
ARM GAS  C:\Users\Rob\AppData\Local\Temp\ccAwpbdX.s 			page 35


 1834 02ab A6       		.byte	0xa6
 1835 02ac 94000000 		.4byte	0x94
 1836 02b0 05       		.uleb128 0x5
 1837 02b1 5E030000 		.4byte	.LASF48
 1838 02b5 24       		.byte	0x24
 1839 02b6 07       		.byte	0x7
 1840 02b7 B3       		.byte	0xb3
 1841 02b8 34030000 		.4byte	0x334
 1842 02bc 07       		.uleb128 0x7
 1843 02bd 723800   		.ascii	"r8\000"
 1844 02c0 07       		.byte	0x7
 1845 02c1 B4       		.byte	0xb4
 1846 02c2 98020000 		.4byte	0x298
 1847 02c6 02       		.byte	0x2
 1848 02c7 23       		.byte	0x23
 1849 02c8 00       		.uleb128 0
 1850 02c9 07       		.uleb128 0x7
 1851 02ca 723900   		.ascii	"r9\000"
 1852 02cd 07       		.byte	0x7
 1853 02ce B5       		.byte	0xb5
 1854 02cf 98020000 		.4byte	0x298
 1855 02d3 02       		.byte	0x2
 1856 02d4 23       		.byte	0x23
 1857 02d5 04       		.uleb128 0x4
 1858 02d6 07       		.uleb128 0x7
 1859 02d7 72313000 		.ascii	"r10\000"
 1860 02db 07       		.byte	0x7
 1861 02dc B6       		.byte	0xb6
 1862 02dd 98020000 		.4byte	0x298
 1863 02e1 02       		.byte	0x2
 1864 02e2 23       		.byte	0x23
 1865 02e3 08       		.uleb128 0x8
 1866 02e4 07       		.uleb128 0x7
 1867 02e5 72313100 		.ascii	"r11\000"
 1868 02e9 07       		.byte	0x7
 1869 02ea B7       		.byte	0xb7
 1870 02eb 98020000 		.4byte	0x298
 1871 02ef 02       		.byte	0x2
 1872 02f0 23       		.byte	0x23
 1873 02f1 0C       		.uleb128 0xc
 1874 02f2 07       		.uleb128 0x7
 1875 02f3 723400   		.ascii	"r4\000"
 1876 02f6 07       		.byte	0x7
 1877 02f7 B8       		.byte	0xb8
 1878 02f8 98020000 		.4byte	0x298
 1879 02fc 02       		.byte	0x2
 1880 02fd 23       		.byte	0x23
 1881 02fe 10       		.uleb128 0x10
 1882 02ff 07       		.uleb128 0x7
 1883 0300 723500   		.ascii	"r5\000"
 1884 0303 07       		.byte	0x7
 1885 0304 B9       		.byte	0xb9
 1886 0305 98020000 		.4byte	0x298
 1887 0309 02       		.byte	0x2
 1888 030a 23       		.byte	0x23
 1889 030b 14       		.uleb128 0x14
 1890 030c 07       		.uleb128 0x7
ARM GAS  C:\Users\Rob\AppData\Local\Temp\ccAwpbdX.s 			page 36


 1891 030d 723600   		.ascii	"r6\000"
 1892 0310 07       		.byte	0x7
 1893 0311 BA       		.byte	0xba
 1894 0312 98020000 		.4byte	0x298
 1895 0316 02       		.byte	0x2
 1896 0317 23       		.byte	0x23
 1897 0318 18       		.uleb128 0x18
 1898 0319 07       		.uleb128 0x7
 1899 031a 723700   		.ascii	"r7\000"
 1900 031d 07       		.byte	0x7
 1901 031e BB       		.byte	0xbb
 1902 031f 98020000 		.4byte	0x298
 1903 0323 02       		.byte	0x2
 1904 0324 23       		.byte	0x23
 1905 0325 1C       		.uleb128 0x1c
 1906 0326 07       		.uleb128 0x7
 1907 0327 6C7200   		.ascii	"lr\000"
 1908 032a 07       		.byte	0x7
 1909 032b BC       		.byte	0xbc
 1910 032c 98020000 		.4byte	0x298
 1911 0330 02       		.byte	0x2
 1912 0331 23       		.byte	0x23
 1913 0332 20       		.uleb128 0x20
 1914 0333 00       		.byte	0
 1915 0334 05       		.uleb128 0x5
 1916 0335 D2020000 		.4byte	.LASF49
 1917 0339 04       		.byte	0x4
 1918 033a 07       		.byte	0x7
 1919 033b C6       		.byte	0xc6
 1920 033c 4F030000 		.4byte	0x34f
 1921 0340 07       		.uleb128 0x7
 1922 0341 72313300 		.ascii	"r13\000"
 1923 0345 07       		.byte	0x7
 1924 0346 C7       		.byte	0xc7
 1925 0347 4F030000 		.4byte	0x34f
 1926 034b 02       		.byte	0x2
 1927 034c 23       		.byte	0x23
 1928 034d 00       		.uleb128 0
 1929 034e 00       		.byte	0
 1930 034f 09       		.uleb128 0x9
 1931 0350 04       		.byte	0x4
 1932 0351 B0020000 		.4byte	0x2b0
 1933 0355 03       		.uleb128 0x3
 1934 0356 12000000 		.4byte	.LASF50
 1935 035a 08       		.byte	0x8
 1936 035b 51       		.byte	0x51
 1937 035c 60030000 		.4byte	0x360
 1938 0360 09       		.uleb128 0x9
 1939 0361 04       		.byte	0x4
 1940 0362 66030000 		.4byte	0x366
 1941 0366 0B       		.uleb128 0xb
 1942 0367 01       		.byte	0x1
 1943 0368 72030000 		.4byte	0x372
 1944 036c 0C       		.uleb128 0xc
 1945 036d A3020000 		.4byte	0x2a3
 1946 0371 00       		.byte	0
 1947 0372 03       		.uleb128 0x3
ARM GAS  C:\Users\Rob\AppData\Local\Temp\ccAwpbdX.s 			page 37


 1948 0373 CA030000 		.4byte	.LASF51
 1949 0377 08       		.byte	0x8
 1950 0378 56       		.byte	0x56
 1951 0379 7D030000 		.4byte	0x37d
 1952 037d 05       		.uleb128 0x5
 1953 037e CA030000 		.4byte	.LASF51
 1954 0382 14       		.byte	0x14
 1955 0383 08       		.byte	0x8
 1956 0384 5D       		.byte	0x5d
 1957 0385 D0030000 		.4byte	0x3d0
 1958 0389 06       		.uleb128 0x6
 1959 038a D8040000 		.4byte	.LASF52
 1960 038e 08       		.byte	0x8
 1961 038f 5E       		.byte	0x5e
 1962 0390 D0030000 		.4byte	0x3d0
 1963 0394 02       		.byte	0x2
 1964 0395 23       		.byte	0x23
 1965 0396 00       		.uleb128 0
 1966 0397 06       		.uleb128 0x6
 1967 0398 50050000 		.4byte	.LASF53
 1968 039c 08       		.byte	0x8
 1969 039d 60       		.byte	0x60
 1970 039e D0030000 		.4byte	0x3d0
 1971 03a2 02       		.byte	0x2
 1972 03a3 23       		.byte	0x23
 1973 03a4 04       		.uleb128 0x4
 1974 03a5 06       		.uleb128 0x6
 1975 03a6 0C010000 		.4byte	.LASF54
 1976 03aa 08       		.byte	0x8
 1977 03ab 62       		.byte	0x62
 1978 03ac 05010000 		.4byte	0x105
 1979 03b0 02       		.byte	0x2
 1980 03b1 23       		.byte	0x23
 1981 03b2 08       		.uleb128 0x8
 1982 03b3 06       		.uleb128 0x6
 1983 03b4 48050000 		.4byte	.LASF55
 1984 03b8 08       		.byte	0x8
 1985 03b9 63       		.byte	0x63
 1986 03ba 55030000 		.4byte	0x355
 1987 03be 02       		.byte	0x2
 1988 03bf 23       		.byte	0x23
 1989 03c0 0C       		.uleb128 0xc
 1990 03c1 06       		.uleb128 0x6
 1991 03c2 30010000 		.4byte	.LASF56
 1992 03c6 08       		.byte	0x8
 1993 03c7 65       		.byte	0x65
 1994 03c8 A3020000 		.4byte	0x2a3
 1995 03cc 02       		.byte	0x2
 1996 03cd 23       		.byte	0x23
 1997 03ce 10       		.uleb128 0x10
 1998 03cf 00       		.byte	0
 1999 03d0 09       		.uleb128 0x9
 2000 03d1 04       		.byte	0x4
 2001 03d2 72030000 		.4byte	0x372
 2002 03d6 08       		.uleb128 0x8
 2003 03d7 10       		.byte	0x10
 2004 03d8 08       		.byte	0x8
ARM GAS  C:\Users\Rob\AppData\Local\Temp\ccAwpbdX.s 			page 38


 2005 03d9 6F       		.byte	0x6f
 2006 03da 17040000 		.4byte	0x417
 2007 03de 06       		.uleb128 0x6
 2008 03df D8040000 		.4byte	.LASF52
 2009 03e3 08       		.byte	0x8
 2010 03e4 70       		.byte	0x70
 2011 03e5 D0030000 		.4byte	0x3d0
 2012 03e9 02       		.byte	0x2
 2013 03ea 23       		.byte	0x23
 2014 03eb 00       		.uleb128 0
 2015 03ec 06       		.uleb128 0x6
 2016 03ed 50050000 		.4byte	.LASF53
 2017 03f1 08       		.byte	0x8
 2018 03f2 72       		.byte	0x72
 2019 03f3 D0030000 		.4byte	0x3d0
 2020 03f7 02       		.byte	0x2
 2021 03f8 23       		.byte	0x23
 2022 03f9 04       		.uleb128 0x4
 2023 03fa 06       		.uleb128 0x6
 2024 03fb 0C010000 		.4byte	.LASF54
 2025 03ff 08       		.byte	0x8
 2026 0400 74       		.byte	0x74
 2027 0401 05010000 		.4byte	0x105
 2028 0405 02       		.byte	0x2
 2029 0406 23       		.byte	0x23
 2030 0407 08       		.uleb128 0x8
 2031 0408 06       		.uleb128 0x6
 2032 0409 A1000000 		.4byte	.LASF57
 2033 040d 08       		.byte	0x8
 2034 040e 75       		.byte	0x75
 2035 040f 17040000 		.4byte	0x417
 2036 0413 02       		.byte	0x2
 2037 0414 23       		.byte	0x23
 2038 0415 0C       		.uleb128 0xc
 2039 0416 00       		.byte	0
 2040 0417 0D       		.uleb128 0xd
 2041 0418 05010000 		.4byte	0x105
 2042 041c 03       		.uleb128 0x3
 2043 041d 5B020000 		.4byte	.LASF58
 2044 0421 08       		.byte	0x8
 2045 0422 76       		.byte	0x76
 2046 0423 D6030000 		.4byte	0x3d6
 2047 0427 08       		.uleb128 0x8
 2048 0428 1C       		.byte	0x1c
 2049 0429 09       		.byte	0x9
 2050 042a 57       		.byte	0x57
 2051 042b 84040000 		.4byte	0x484
 2052 042f 06       		.uleb128 0x6
 2053 0430 C4020000 		.4byte	.LASF59
 2054 0434 09       		.byte	0x9
 2055 0435 58       		.byte	0x58
 2056 0436 6B020000 		.4byte	0x26b
 2057 043a 02       		.byte	0x2
 2058 043b 23       		.byte	0x23
 2059 043c 00       		.uleb128 0
 2060 043d 06       		.uleb128 0x6
 2061 043e 29010000 		.4byte	.LASF60
ARM GAS  C:\Users\Rob\AppData\Local\Temp\ccAwpbdX.s 			page 39


 2062 0442 09       		.byte	0x9
 2063 0443 59       		.byte	0x59
 2064 0444 E4000000 		.4byte	0xe4
 2065 0448 02       		.byte	0x2
 2066 0449 23       		.byte	0x23
 2067 044a 08       		.uleb128 0x8
 2068 044b 06       		.uleb128 0x6
 2069 044c 13050000 		.4byte	.LASF61
 2070 0450 09       		.byte	0x9
 2071 0451 5B       		.byte	0x5b
 2072 0452 34030000 		.4byte	0x334
 2073 0456 02       		.byte	0x2
 2074 0457 23       		.byte	0x23
 2075 0458 0C       		.uleb128 0xc
 2076 0459 06       		.uleb128 0x6
 2077 045a 43020000 		.4byte	.LASF62
 2078 045e 09       		.byte	0x9
 2079 045f 5E       		.byte	0x5e
 2080 0460 65020000 		.4byte	0x265
 2081 0464 02       		.byte	0x2
 2082 0465 23       		.byte	0x23
 2083 0466 10       		.uleb128 0x10
 2084 0467 06       		.uleb128 0x6
 2085 0468 1B030000 		.4byte	.LASF63
 2086 046c 09       		.byte	0x9
 2087 046d 5F       		.byte	0x5f
 2088 046e 65020000 		.4byte	0x265
 2089 0472 02       		.byte	0x2
 2090 0473 23       		.byte	0x23
 2091 0474 14       		.uleb128 0x14
 2092 0475 06       		.uleb128 0x6
 2093 0476 88030000 		.4byte	.LASF64
 2094 047a 09       		.byte	0x9
 2095 047b 62       		.byte	0x62
 2096 047c 65020000 		.4byte	0x265
 2097 0480 02       		.byte	0x2
 2098 0481 23       		.byte	0x23
 2099 0482 18       		.uleb128 0x18
 2100 0483 00       		.byte	0
 2101 0484 03       		.uleb128 0x3
 2102 0485 A0040000 		.4byte	.LASF65
 2103 0489 09       		.byte	0x9
 2104 048a 64       		.byte	0x64
 2105 048b 27040000 		.4byte	0x427
 2106 048f 05       		.uleb128 0x5
 2107 0490 E3010000 		.4byte	.LASF66
 2108 0494 10       		.byte	0x10
 2109 0495 0A       		.byte	0xa
 2110 0496 25       		.byte	0x25
 2111 0497 C6040000 		.4byte	0x4c6
 2112 049b 06       		.uleb128 0x6
 2113 049c 9D030000 		.4byte	.LASF67
 2114 04a0 0A       		.byte	0xa
 2115 04a1 26       		.byte	0x26
 2116 04a2 6B020000 		.4byte	0x26b
 2117 04a6 02       		.byte	0x2
 2118 04a7 23       		.byte	0x23
ARM GAS  C:\Users\Rob\AppData\Local\Temp\ccAwpbdX.s 			page 40


 2119 04a8 00       		.uleb128 0
 2120 04a9 06       		.uleb128 0x6
 2121 04aa 99000000 		.4byte	.LASF68
 2122 04ae 0A       		.byte	0xa
 2123 04af 28       		.byte	0x28
 2124 04b0 65020000 		.4byte	0x265
 2125 04b4 02       		.byte	0x2
 2126 04b5 23       		.byte	0x23
 2127 04b6 08       		.uleb128 0x8
 2128 04b7 06       		.uleb128 0x6
 2129 04b8 E0040000 		.4byte	.LASF69
 2130 04bc 0A       		.byte	0xa
 2131 04bd 2A       		.byte	0x2a
 2132 04be C6040000 		.4byte	0x4c6
 2133 04c2 02       		.byte	0x2
 2134 04c3 23       		.byte	0x23
 2135 04c4 0C       		.uleb128 0xc
 2136 04c5 00       		.byte	0
 2137 04c6 09       		.uleb128 0x9
 2138 04c7 04       		.byte	0x4
 2139 04c8 8F040000 		.4byte	0x48f
 2140 04cc 03       		.uleb128 0x3
 2141 04cd E3010000 		.4byte	.LASF66
 2142 04d1 0A       		.byte	0xa
 2143 04d2 2C       		.byte	0x2c
 2144 04d3 8F040000 		.4byte	0x48f
 2145 04d7 0E       		.uleb128 0xe
 2146 04d8 04       		.byte	0x4
 2147 04d9 06       		.byte	0x6
 2148 04da 8F       		.byte	0x8f
 2149 04db 0C050000 		.4byte	0x50c
 2150 04df 0F       		.uleb128 0xf
 2151 04e0 CF010000 		.4byte	.LASF70
 2152 04e4 06       		.byte	0x6
 2153 04e5 96       		.byte	0x96
 2154 04e6 EF000000 		.4byte	0xef
 2155 04ea 0F       		.uleb128 0xf
 2156 04eb 7F050000 		.4byte	.LASF71
 2157 04ef 06       		.byte	0x6
 2158 04f0 9D       		.byte	0x9d
 2159 04f1 EF000000 		.4byte	0xef
 2160 04f5 0F       		.uleb128 0xf
 2161 04f6 DC000000 		.4byte	.LASF72
 2162 04fa 06       		.byte	0x6
 2163 04fb A4       		.byte	0xa4
 2164 04fc A3020000 		.4byte	0x2a3
 2165 0500 0F       		.uleb128 0xf
 2166 0501 F7000000 		.4byte	.LASF73
 2167 0505 06       		.byte	0x6
 2168 0506 AB       		.byte	0xab
 2169 0507 FA000000 		.4byte	0xfa
 2170 050b 00       		.byte	0
 2171 050c 09       		.uleb128 0x9
 2172 050d 04       		.byte	0x4
 2173 050e 12050000 		.4byte	0x512
 2174 0512 10       		.uleb128 0x10
 2175 0513 17050000 		.4byte	0x517
ARM GAS  C:\Users\Rob\AppData\Local\Temp\ccAwpbdX.s 			page 41


 2176 0517 04       		.uleb128 0x4
 2177 0518 01       		.byte	0x1
 2178 0519 08       		.byte	0x8
 2179 051a 3E020000 		.4byte	.LASF74
 2180 051e 09       		.uleb128 0x9
 2181 051f 04       		.byte	0x4
 2182 0520 CC040000 		.4byte	0x4cc
 2183 0524 09       		.uleb128 0x9
 2184 0525 04       		.byte	0x4
 2185 0526 2A050000 		.4byte	0x52a
 2186 052a 11       		.uleb128 0x11
 2187 052b 01       		.byte	0x1
 2188 052c EF000000 		.4byte	0xef
 2189 0530 3A050000 		.4byte	0x53a
 2190 0534 0C       		.uleb128 0xc
 2191 0535 A3020000 		.4byte	0x2a3
 2192 0539 00       		.byte	0
 2193 053a 09       		.uleb128 0x9
 2194 053b 04       		.byte	0x4
 2195 053c 49000000 		.4byte	0x49
 2196 0540 05       		.uleb128 0x5
 2197 0541 C4000000 		.4byte	.LASF75
 2198 0545 10       		.byte	0x10
 2199 0546 0B       		.byte	0xb
 2200 0547 41       		.byte	0x41
 2201 0548 85050000 		.4byte	0x585
 2202 054c 06       		.uleb128 0x6
 2203 054d BE020000 		.4byte	.LASF76
 2204 0551 0B       		.byte	0xb
 2205 0552 42       		.byte	0x42
 2206 0553 AA050000 		.4byte	0x5aa
 2207 0557 02       		.byte	0x2
 2208 0558 23       		.byte	0x23
 2209 0559 00       		.uleb128 0
 2210 055a 06       		.uleb128 0x6
 2211 055b D7030000 		.4byte	.LASF77
 2212 055f 0B       		.byte	0xb
 2213 0560 42       		.byte	0x42
 2214 0561 CA050000 		.4byte	0x5ca
 2215 0565 02       		.byte	0x2
 2216 0566 23       		.byte	0x23
 2217 0567 04       		.uleb128 0x4
 2218 0568 07       		.uleb128 0x7
 2219 0569 70757400 		.ascii	"put\000"
 2220 056d 0B       		.byte	0xb
 2221 056e 42       		.byte	0x42
 2222 056f E5050000 		.4byte	0x5e5
 2223 0573 02       		.byte	0x2
 2224 0574 23       		.byte	0x23
 2225 0575 08       		.uleb128 0x8
 2226 0576 07       		.uleb128 0x7
 2227 0577 67657400 		.ascii	"get\000"
 2228 057b 0B       		.byte	0xb
 2229 057c 42       		.byte	0x42
 2230 057d 24050000 		.4byte	0x524
 2231 0581 02       		.byte	0x2
 2232 0582 23       		.byte	0x23
ARM GAS  C:\Users\Rob\AppData\Local\Temp\ccAwpbdX.s 			page 42


 2233 0583 0C       		.uleb128 0xc
 2234 0584 00       		.byte	0
 2235 0585 11       		.uleb128 0x11
 2236 0586 01       		.byte	0x1
 2237 0587 30000000 		.4byte	0x30
 2238 058b 9F050000 		.4byte	0x59f
 2239 058f 0C       		.uleb128 0xc
 2240 0590 A3020000 		.4byte	0x2a3
 2241 0594 0C       		.uleb128 0xc
 2242 0595 9F050000 		.4byte	0x59f
 2243 0599 0C       		.uleb128 0xc
 2244 059a 30000000 		.4byte	0x30
 2245 059e 00       		.byte	0
 2246 059f 09       		.uleb128 0x9
 2247 05a0 04       		.byte	0x4
 2248 05a1 A5050000 		.4byte	0x5a5
 2249 05a5 10       		.uleb128 0x10
 2250 05a6 49000000 		.4byte	0x49
 2251 05aa 09       		.uleb128 0x9
 2252 05ab 04       		.byte	0x4
 2253 05ac 85050000 		.4byte	0x585
 2254 05b0 11       		.uleb128 0x11
 2255 05b1 01       		.byte	0x1
 2256 05b2 30000000 		.4byte	0x30
 2257 05b6 CA050000 		.4byte	0x5ca
 2258 05ba 0C       		.uleb128 0xc
 2259 05bb A3020000 		.4byte	0x2a3
 2260 05bf 0C       		.uleb128 0xc
 2261 05c0 3A050000 		.4byte	0x53a
 2262 05c4 0C       		.uleb128 0xc
 2263 05c5 30000000 		.4byte	0x30
 2264 05c9 00       		.byte	0
 2265 05ca 09       		.uleb128 0x9
 2266 05cb 04       		.byte	0x4
 2267 05cc B0050000 		.4byte	0x5b0
 2268 05d0 11       		.uleb128 0x11
 2269 05d1 01       		.byte	0x1
 2270 05d2 EF000000 		.4byte	0xef
 2271 05d6 E5050000 		.4byte	0x5e5
 2272 05da 0C       		.uleb128 0xc
 2273 05db A3020000 		.4byte	0x2a3
 2274 05df 0C       		.uleb128 0xc
 2275 05e0 49000000 		.4byte	0x49
 2276 05e4 00       		.byte	0
 2277 05e5 09       		.uleb128 0x9
 2278 05e6 04       		.byte	0x4
 2279 05e7 D0050000 		.4byte	0x5d0
 2280 05eb 08       		.uleb128 0x8
 2281 05ec 04       		.byte	0x4
 2282 05ed 0B       		.byte	0xb
 2283 05ee 4A       		.byte	0x4a
 2284 05ef 02060000 		.4byte	0x602
 2285 05f3 07       		.uleb128 0x7
 2286 05f4 766D7400 		.ascii	"vmt\000"
 2287 05f8 0B       		.byte	0xb
 2288 05f9 4C       		.byte	0x4c
 2289 05fa 02060000 		.4byte	0x602
ARM GAS  C:\Users\Rob\AppData\Local\Temp\ccAwpbdX.s 			page 43


 2290 05fe 02       		.byte	0x2
 2291 05ff 23       		.byte	0x23
 2292 0600 00       		.uleb128 0
 2293 0601 00       		.byte	0
 2294 0602 09       		.uleb128 0x9
 2295 0603 04       		.byte	0x4
 2296 0604 08060000 		.4byte	0x608
 2297 0608 10       		.uleb128 0x10
 2298 0609 40050000 		.4byte	0x540
 2299 060d 03       		.uleb128 0x3
 2300 060e 05020000 		.4byte	.LASF78
 2301 0612 0B       		.byte	0xb
 2302 0613 4E       		.byte	0x4e
 2303 0614 EB050000 		.4byte	0x5eb
 2304 0618 05       		.uleb128 0x5
 2305 0619 A1010000 		.4byte	.LASF79
 2306 061d 10       		.byte	0x10
 2307 061e 0C       		.byte	0xc
 2308 061f 3B       		.byte	0x3b
 2309 0620 5D060000 		.4byte	0x65d
 2310 0624 06       		.uleb128 0x6
 2311 0625 31000000 		.4byte	.LASF80
 2312 0629 0C       		.byte	0xc
 2313 062a 3C       		.byte	0x3c
 2314 062b 0C050000 		.4byte	0x50c
 2315 062f 02       		.byte	0x2
 2316 0630 23       		.byte	0x23
 2317 0631 00       		.uleb128 0
 2318 0632 06       		.uleb128 0x6
 2319 0633 93040000 		.4byte	.LASF81
 2320 0637 0C       		.byte	0xc
 2321 0638 3D       		.byte	0x3d
 2322 0639 5F060000 		.4byte	0x65f
 2323 063d 02       		.byte	0x2
 2324 063e 23       		.byte	0x23
 2325 063f 04       		.uleb128 0x4
 2326 0640 06       		.uleb128 0x6
 2327 0641 E3020000 		.4byte	.LASF82
 2328 0645 0C       		.byte	0xc
 2329 0646 3E       		.byte	0x3e
 2330 0647 5F060000 		.4byte	0x65f
 2331 064b 02       		.byte	0x2
 2332 064c 23       		.byte	0x23
 2333 064d 08       		.uleb128 0x8
 2334 064e 06       		.uleb128 0x6
 2335 064f 97020000 		.4byte	.LASF83
 2336 0653 0C       		.byte	0xc
 2337 0654 3F       		.byte	0x3f
 2338 0655 5F060000 		.4byte	0x65f
 2339 0659 02       		.byte	0x2
 2340 065a 23       		.byte	0x23
 2341 065b 0C       		.uleb128 0xc
 2342 065c 00       		.byte	0
 2343 065d 12       		.uleb128 0x12
 2344 065e 01       		.byte	0x1
 2345 065f 09       		.uleb128 0x9
 2346 0660 04       		.byte	0x4
ARM GAS  C:\Users\Rob\AppData\Local\Temp\ccAwpbdX.s 			page 44


 2347 0661 5D060000 		.4byte	0x65d
 2348 0665 13       		.uleb128 0x13
 2349 0666 F005     		.2byte	0x5f0
 2350 0668 0C       		.byte	0xc
 2351 0669 44       		.byte	0x44
 2352 066a B4060000 		.4byte	0x6b4
 2353 066e 07       		.uleb128 0x7
 2354 066f 543000   		.ascii	"T0\000"
 2355 0672 0C       		.byte	0xc
 2356 0673 45       		.byte	0x45
 2357 0674 B4060000 		.4byte	0x6b4
 2358 0678 02       		.byte	0x2
 2359 0679 23       		.byte	0x23
 2360 067a 00       		.uleb128 0
 2361 067b 07       		.uleb128 0x7
 2362 067c 543100   		.ascii	"T1\000"
 2363 067f 0C       		.byte	0xc
 2364 0680 46       		.byte	0x46
 2365 0681 B4060000 		.4byte	0x6b4
 2366 0685 03       		.byte	0x3
 2367 0686 23       		.byte	0x23
 2368 0687 B002     		.uleb128 0x130
 2369 0689 07       		.uleb128 0x7
 2370 068a 543200   		.ascii	"T2\000"
 2371 068d 0C       		.byte	0xc
 2372 068e 47       		.byte	0x47
 2373 068f B4060000 		.4byte	0x6b4
 2374 0693 03       		.byte	0x3
 2375 0694 23       		.byte	0x23
 2376 0695 E004     		.uleb128 0x260
 2377 0697 07       		.uleb128 0x7
 2378 0698 543300   		.ascii	"T3\000"
 2379 069b 0C       		.byte	0xc
 2380 069c 48       		.byte	0x48
 2381 069d B4060000 		.4byte	0x6b4
 2382 06a1 03       		.byte	0x3
 2383 06a2 23       		.byte	0x23
 2384 06a3 9007     		.uleb128 0x390
 2385 06a5 07       		.uleb128 0x7
 2386 06a6 543400   		.ascii	"T4\000"
 2387 06a9 0C       		.byte	0xc
 2388 06aa 49       		.byte	0x49
 2389 06ab B4060000 		.4byte	0x6b4
 2390 06af 03       		.byte	0x3
 2391 06b0 23       		.byte	0x23
 2392 06b1 C009     		.uleb128 0x4c0
 2393 06b3 00       		.byte	0
 2394 06b4 14       		.uleb128 0x14
 2395 06b5 A5020000 		.4byte	0x2a5
 2396 06b9 C4060000 		.4byte	0x6c4
 2397 06bd 15       		.uleb128 0x15
 2398 06be 3B000000 		.4byte	0x3b
 2399 06c2 25       		.byte	0x25
 2400 06c3 00       		.byte	0
 2401 06c4 16       		.uleb128 0x16
 2402 06c5 CB040000 		.4byte	.LASF132
 2403 06c9 F005     		.2byte	0x5f0
ARM GAS  C:\Users\Rob\AppData\Local\Temp\ccAwpbdX.s 			page 45


 2404 06cb 0C       		.byte	0xc
 2405 06cc 43       		.byte	0x43
 2406 06cd E7060000 		.4byte	0x6e7
 2407 06d1 17       		.uleb128 0x17
 2408 06d2 776100   		.ascii	"wa\000"
 2409 06d5 0C       		.byte	0xc
 2410 06d6 4A       		.byte	0x4a
 2411 06d7 65060000 		.4byte	0x665
 2412 06db 0F       		.uleb128 0xf
 2413 06dc 92000000 		.4byte	.LASF84
 2414 06e0 0C       		.byte	0xc
 2415 06e1 4B       		.byte	0x4b
 2416 06e2 E7060000 		.4byte	0x6e7
 2417 06e6 00       		.byte	0
 2418 06e7 14       		.uleb128 0x14
 2419 06e8 49000000 		.4byte	0x49
 2420 06ec F8060000 		.4byte	0x6f8
 2421 06f0 18       		.uleb128 0x18
 2422 06f1 3B000000 		.4byte	0x3b
 2423 06f5 EF05     		.2byte	0x5ef
 2424 06f7 00       		.byte	0
 2425 06f8 19       		.uleb128 0x19
 2426 06f9 01       		.byte	0x1
 2427 06fa 2A040000 		.4byte	.LASF133
 2428 06fe 01       		.byte	0x1
 2429 06ff 5B       		.byte	0x5b
 2430 0700 01       		.byte	0x1
 2431 0701 01       		.byte	0x1
 2432 0702 24070000 		.4byte	0x724
 2433 0706 1A       		.uleb128 0x1a
 2434 0707 6E00     		.ascii	"n\000"
 2435 0709 01       		.byte	0x1
 2436 070a 5B       		.byte	0x5b
 2437 070b 7B000000 		.4byte	0x7b
 2438 070f 1B       		.uleb128 0x1b
 2439 0710 62756600 		.ascii	"buf\000"
 2440 0714 01       		.byte	0x1
 2441 0715 5C       		.byte	0x5c
 2442 0716 24070000 		.4byte	0x724
 2443 071a 1B       		.uleb128 0x1b
 2444 071b 7000     		.ascii	"p\000"
 2445 071d 01       		.byte	0x1
 2446 071e 5C       		.byte	0x5c
 2447 071f 34070000 		.4byte	0x734
 2448 0723 00       		.byte	0
 2449 0724 14       		.uleb128 0x14
 2450 0725 17050000 		.4byte	0x517
 2451 0729 34070000 		.4byte	0x734
 2452 072d 15       		.uleb128 0x15
 2453 072e 3B000000 		.4byte	0x3b
 2454 0732 0F       		.byte	0xf
 2455 0733 00       		.byte	0
 2456 0734 09       		.uleb128 0x9
 2457 0735 04       		.byte	0x4
 2458 0736 17050000 		.4byte	0x517
 2459 073a 1C       		.uleb128 0x1c
 2460 073b 01       		.byte	0x1
ARM GAS  C:\Users\Rob\AppData\Local\Temp\ccAwpbdX.s 			page 46


 2461 073c 8B010000 		.4byte	.LASF86
 2462 0740 01       		.byte	0x1
 2463 0741 9D       		.byte	0x9d
 2464 0742 01       		.byte	0x1
 2465 0743 A6000000 		.4byte	0xa6
 2466 0747 01       		.byte	0x1
 2467 0748 58070000 		.4byte	0x758
 2468 074c 1D       		.uleb128 0x1d
 2469 074d 3D050000 		.4byte	.LASF85
 2470 0751 01       		.byte	0x1
 2471 0752 9D       		.byte	0x9d
 2472 0753 3B000000 		.4byte	0x3b
 2473 0757 00       		.byte	0
 2474 0758 1E       		.uleb128 0x1e
 2475 0759 88050000 		.4byte	.LASF134
 2476 075d 01       		.byte	0x1
 2477 075e 82       		.byte	0x82
 2478 075f 01       		.byte	0x1
 2479 0760 01       		.byte	0x1
 2480 0761 1C       		.uleb128 0x1c
 2481 0762 01       		.byte	0x1
 2482 0763 EA000000 		.4byte	.LASF87
 2483 0767 01       		.byte	0x1
 2484 0768 A5       		.byte	0xa5
 2485 0769 01       		.byte	0x1
 2486 076a A6000000 		.4byte	0xa6
 2487 076e 01       		.byte	0x1
 2488 076f 8A070000 		.4byte	0x78a
 2489 0773 1D       		.uleb128 0x1d
 2490 0774 3D050000 		.4byte	.LASF85
 2491 0778 01       		.byte	0x1
 2492 0779 A5       		.byte	0xa5
 2493 077a 3B000000 		.4byte	0x3b
 2494 077e 1D       		.uleb128 0x1d
 2495 077f 75050000 		.4byte	.LASF88
 2496 0783 01       		.byte	0x1
 2497 0784 A5       		.byte	0xa5
 2498 0785 A6000000 		.4byte	0xa6
 2499 0789 00       		.byte	0
 2500 078a 1F       		.uleb128 0x1f
 2501 078b 30050000 		.4byte	.LASF89
 2502 078f 01       		.byte	0x1
 2503 0790 1A01     		.2byte	0x11a
 2504 0792 01       		.byte	0x1
 2505 0793 01       		.byte	0x1
 2506 0794 AF070000 		.4byte	0x7af
 2507 0798 20       		.uleb128 0x20
 2508 0799 74637000 		.ascii	"tcp\000"
 2509 079d 01       		.byte	0x1
 2510 079e 1A01     		.2byte	0x11a
 2511 07a0 AF070000 		.4byte	0x7af
 2512 07a4 21       		.uleb128 0x21
 2513 07a5 6900     		.ascii	"i\000"
 2514 07a7 01       		.byte	0x1
 2515 07a8 1B01     		.2byte	0x11b
 2516 07aa 29000000 		.4byte	0x29
 2517 07ae 00       		.byte	0
ARM GAS  C:\Users\Rob\AppData\Local\Temp\ccAwpbdX.s 			page 47


 2518 07af 09       		.uleb128 0x9
 2519 07b0 04       		.byte	0x4
 2520 07b1 B5070000 		.4byte	0x7b5
 2521 07b5 10       		.uleb128 0x10
 2522 07b6 18060000 		.4byte	0x618
 2523 07ba 22       		.uleb128 0x22
 2524 07bb F3040000 		.4byte	.LASF90
 2525 07bf 01       		.byte	0x1
 2526 07c0 87       		.byte	0x87
 2527 07c1 01       		.byte	0x1
 2528 07c2 01       		.byte	0x1
 2529 07c3 D2070000 		.4byte	0x7d2
 2530 07c7 1B       		.uleb128 0x1b
 2531 07c8 637000   		.ascii	"cp\000"
 2532 07cb 01       		.byte	0x1
 2533 07cc 88       		.byte	0x88
 2534 07cd 34070000 		.4byte	0x734
 2535 07d1 00       		.byte	0
 2536 07d2 23       		.uleb128 0x23
 2537 07d3 746D7200 		.ascii	"tmr\000"
 2538 07d7 01       		.byte	0x1
 2539 07d8 0501     		.2byte	0x105
 2540 07da 01       		.byte	0x1
 2541 07db 00000000 		.4byte	.LFB54
 2542 07df 0C000000 		.4byte	.LFE54
 2543 07e3 02       		.byte	0x2
 2544 07e4 7D       		.byte	0x7d
 2545 07e5 00       		.sleb128 0
 2546 07e6 F7070000 		.4byte	0x7f7
 2547 07ea 24       		.uleb128 0x24
 2548 07eb 7000     		.ascii	"p\000"
 2549 07ed 01       		.byte	0x1
 2550 07ee 0501     		.2byte	0x105
 2551 07f0 A3020000 		.4byte	0x2a3
 2552 07f4 01       		.byte	0x1
 2553 07f5 50       		.byte	0x50
 2554 07f6 00       		.byte	0
 2555 07f7 25       		.uleb128 0x25
 2556 07f8 1A020000 		.4byte	.LASF91
 2557 07fc 01       		.byte	0x1
 2558 07fd 2C01     		.2byte	0x12c
 2559 07ff 01       		.byte	0x1
 2560 0800 00000000 		.4byte	.LFB57
 2561 0804 2C000000 		.4byte	.LFE57
 2562 0808 00000000 		.4byte	.LLST0
 2563 080c 1F080000 		.4byte	0x81f
 2564 0810 26       		.uleb128 0x26
 2565 0811 6900     		.ascii	"i\000"
 2566 0813 01       		.byte	0x1
 2567 0814 2D01     		.2byte	0x12d
 2568 0816 3B000000 		.4byte	0x3b
 2569 081a 20000000 		.4byte	.LLST1
 2570 081e 00       		.byte	0
 2571 081f 27       		.uleb128 0x27
 2572 0820 F8060000 		.4byte	0x6f8
 2573 0824 00000000 		.4byte	.LFB40
 2574 0828 60000000 		.4byte	.LFE40
ARM GAS  C:\Users\Rob\AppData\Local\Temp\ccAwpbdX.s 			page 48


 2575 082c 34000000 		.4byte	.LLST2
 2576 0830 78080000 		.4byte	0x878
 2577 0834 28       		.uleb128 0x28
 2578 0835 06070000 		.4byte	0x706
 2579 0839 60000000 		.4byte	.LLST3
 2580 083d 29       		.uleb128 0x29
 2581 083e 0F070000 		.4byte	0x70f
 2582 0842 02       		.byte	0x2
 2583 0843 91       		.byte	0x91
 2584 0844 58       		.sleb128 -40
 2585 0845 2A       		.uleb128 0x2a
 2586 0846 1A070000 		.4byte	0x71a
 2587 084a 89000000 		.4byte	.LLST4
 2588 084e 2B       		.uleb128 0x2b
 2589 084f F8060000 		.4byte	0x6f8
 2590 0853 4E000000 		.4byte	.LBB24
 2591 0857 60000000 		.4byte	.LBE24
 2592 085b 01       		.byte	0x1
 2593 085c 5B       		.byte	0x5b
 2594 085d 2C       		.uleb128 0x2c
 2595 085e 4E000000 		.4byte	.LBB25
 2596 0862 60000000 		.4byte	.LBE25
 2597 0866 2D       		.uleb128 0x2d
 2598 0867 0F070000 		.4byte	0x70f
 2599 086b 2D       		.uleb128 0x2d
 2600 086c 1A070000 		.4byte	0x71a
 2601 0870 2E       		.uleb128 0x2e
 2602 0871 06070000 		.4byte	0x706
 2603 0875 00       		.byte	0
 2604 0876 00       		.byte	0
 2605 0877 00       		.byte	0
 2606 0878 2F       		.uleb128 0x2f
 2607 0879 01       		.byte	0x1
 2608 087a E9010000 		.4byte	.LASF93
 2609 087e 01       		.byte	0x1
 2610 087f 6E       		.byte	0x6e
 2611 0880 01       		.byte	0x1
 2612 0881 00000000 		.4byte	.LFB41
 2613 0885 24000000 		.4byte	.LFE41
 2614 0889 9C000000 		.4byte	.LLST5
 2615 088d A1080000 		.4byte	0x8a1
 2616 0891 30       		.uleb128 0x30
 2617 0892 43050000 		.4byte	.LASF92
 2618 0896 01       		.byte	0x1
 2619 0897 6E       		.byte	0x6e
 2620 0898 0C050000 		.4byte	0x50c
 2621 089c BC000000 		.4byte	.LLST6
 2622 08a0 00       		.byte	0
 2623 08a1 2F       		.uleb128 0x2f
 2624 08a2 01       		.byte	0x1
 2625 08a3 68050000 		.4byte	.LASF94
 2626 08a7 01       		.byte	0x1
 2627 08a8 79       		.byte	0x79
 2628 08a9 01       		.byte	0x1
 2629 08aa 00000000 		.4byte	.LFB42
 2630 08ae 20000000 		.4byte	.LFE42
 2631 08b2 CF000000 		.4byte	.LLST7
ARM GAS  C:\Users\Rob\AppData\Local\Temp\ccAwpbdX.s 			page 49


 2632 08b6 CA080000 		.4byte	0x8ca
 2633 08ba 30       		.uleb128 0x30
 2634 08bb 43050000 		.4byte	.LASF92
 2635 08bf 01       		.byte	0x1
 2636 08c0 79       		.byte	0x79
 2637 08c1 0C050000 		.4byte	0x50c
 2638 08c5 EF000000 		.4byte	.LLST8
 2639 08c9 00       		.byte	0
 2640 08ca 31       		.uleb128 0x31
 2641 08cb 01       		.byte	0x1
 2642 08cc 12040000 		.4byte	.LASF95
 2643 08d0 01       		.byte	0x1
 2644 08d1 93       		.byte	0x93
 2645 08d2 01       		.byte	0x1
 2646 08d3 00000000 		.4byte	.LFB45
 2647 08d7 14000000 		.4byte	.LFE45
 2648 08db 02       		.byte	0x2
 2649 08dc 7D       		.byte	0x7d
 2650 08dd 00       		.sleb128 0
 2651 08de F0080000 		.4byte	0x8f0
 2652 08e2 32       		.uleb128 0x32
 2653 08e3 4D030000 		.4byte	.LASF96
 2654 08e7 01       		.byte	0x1
 2655 08e8 93       		.byte	0x93
 2656 08e9 17050000 		.4byte	0x517
 2657 08ed 01       		.byte	0x1
 2658 08ee 50       		.byte	0x50
 2659 08ef 00       		.byte	0
 2660 08f0 33       		.uleb128 0x33
 2661 08f1 3A070000 		.4byte	0x73a
 2662 08f5 00000000 		.4byte	.LFB46
 2663 08f9 20000000 		.4byte	.LFE46
 2664 08fd 02       		.byte	0x2
 2665 08fe 7D       		.byte	0x7d
 2666 08ff 00       		.sleb128 0
 2667 0900 0E090000 		.4byte	0x90e
 2668 0904 28       		.uleb128 0x28
 2669 0905 4C070000 		.4byte	0x74c
 2670 0909 02010000 		.4byte	.LLST9
 2671 090d 00       		.byte	0
 2672 090e 27       		.uleb128 0x27
 2673 090f 61070000 		.4byte	0x761
 2674 0913 00000000 		.4byte	.LFB47
 2675 0917 28000000 		.4byte	.LFE47
 2676 091b 24010000 		.4byte	.LLST10
 2677 091f 4F090000 		.4byte	0x94f
 2678 0923 28       		.uleb128 0x28
 2679 0924 73070000 		.4byte	0x773
 2680 0928 44010000 		.4byte	.LLST11
 2681 092c 28       		.uleb128 0x28
 2682 092d 7E070000 		.4byte	0x77e
 2683 0931 62010000 		.4byte	.LLST12
 2684 0935 34       		.uleb128 0x34
 2685 0936 3A070000 		.4byte	0x73a
 2686 093a 0A000000 		.4byte	.LBB26
 2687 093e 00000000 		.4byte	.Ldebug_ranges0+0
 2688 0942 01       		.byte	0x1
ARM GAS  C:\Users\Rob\AppData\Local\Temp\ccAwpbdX.s 			page 50


 2689 0943 A8       		.byte	0xa8
 2690 0944 28       		.uleb128 0x28
 2691 0945 4C070000 		.4byte	0x74c
 2692 0949 75010000 		.4byte	.LLST13
 2693 094d 00       		.byte	0
 2694 094e 00       		.byte	0
 2695 094f 35       		.uleb128 0x35
 2696 0950 01       		.byte	0x1
 2697 0951 36040000 		.4byte	.LASF98
 2698 0955 01       		.byte	0x1
 2699 0956 AC       		.byte	0xac
 2700 0957 01       		.byte	0x1
 2701 0958 A6000000 		.4byte	0xa6
 2702 095c 00000000 		.4byte	.LFB48
 2703 0960 50000000 		.4byte	.LFE48
 2704 0964 88010000 		.4byte	.LLST14
 2705 0968 BF090000 		.4byte	0x9bf
 2706 096c 30       		.uleb128 0x30
 2707 096d 3D050000 		.4byte	.LASF85
 2708 0971 01       		.byte	0x1
 2709 0972 AC       		.byte	0xac
 2710 0973 3B000000 		.4byte	0x3b
 2711 0977 A8010000 		.4byte	.LLST15
 2712 097b 32       		.uleb128 0x32
 2713 097c DA020000 		.4byte	.LASF97
 2714 0980 01       		.byte	0x1
 2715 0981 AC       		.byte	0xac
 2716 0982 34070000 		.4byte	0x734
 2717 0986 01       		.byte	0x1
 2718 0987 51       		.byte	0x51
 2719 0988 36       		.uleb128 0x36
 2720 0989 637000   		.ascii	"cp\000"
 2721 098c 01       		.byte	0x1
 2722 098d AD       		.byte	0xad
 2723 098e 34070000 		.4byte	0x734
 2724 0992 C6010000 		.4byte	.LLST16
 2725 0996 37       		.uleb128 0x37
 2726 0997 58070000 		.4byte	0x758
 2727 099b 22000000 		.4byte	.LBB30
 2728 099f 24000000 		.4byte	.LBE30
 2729 09a3 01       		.byte	0x1
 2730 09a4 B4       		.byte	0xb4
 2731 09a5 2B       		.uleb128 0x2b
 2732 09a6 3A070000 		.4byte	0x73a
 2733 09aa 28000000 		.4byte	.LBB32
 2734 09ae 36000000 		.4byte	.LBE32
 2735 09b2 01       		.byte	0x1
 2736 09b3 B3       		.byte	0xb3
 2737 09b4 28       		.uleb128 0x28
 2738 09b5 4C070000 		.4byte	0x74c
 2739 09b9 E9010000 		.4byte	.LLST17
 2740 09bd 00       		.byte	0
 2741 09be 00       		.byte	0
 2742 09bf 35       		.uleb128 0x35
 2743 09c0 01       		.byte	0x1
 2744 09c1 6F000000 		.4byte	.LASF99
 2745 09c5 01       		.byte	0x1
ARM GAS  C:\Users\Rob\AppData\Local\Temp\ccAwpbdX.s 			page 51


 2746 09c6 B8       		.byte	0xb8
 2747 09c7 01       		.byte	0x1
 2748 09c8 A6000000 		.4byte	0xa6
 2749 09cc 00000000 		.4byte	.LFB49
 2750 09d0 34000000 		.4byte	.LFE49
 2751 09d4 FC010000 		.4byte	.LLST18
 2752 09d8 450A0000 		.4byte	0xa45
 2753 09dc 30       		.uleb128 0x30
 2754 09dd 3D050000 		.4byte	.LASF85
 2755 09e1 01       		.byte	0x1
 2756 09e2 B8       		.byte	0xb8
 2757 09e3 3B000000 		.4byte	0x3b
 2758 09e7 1C020000 		.4byte	.LLST19
 2759 09eb 30       		.uleb128 0x30
 2760 09ec DC030000 		.4byte	.LASF100
 2761 09f0 01       		.byte	0x1
 2762 09f1 B8       		.byte	0xb8
 2763 09f2 05010000 		.4byte	0x105
 2764 09f6 3A020000 		.4byte	.LLST20
 2765 09fa 38       		.uleb128 0x38
 2766 09fb 656E6400 		.ascii	"end\000"
 2767 09ff 01       		.byte	0x1
 2768 0a00 B8       		.byte	0xb8
 2769 0a01 05010000 		.4byte	0x105
 2770 0a05 58020000 		.4byte	.LLST21
 2771 0a09 2B       		.uleb128 0x2b
 2772 0a0a 61070000 		.4byte	0x761
 2773 0a0e 0C000000 		.4byte	.LBB34
 2774 0a12 22000000 		.4byte	.LBE34
 2775 0a16 01       		.byte	0x1
 2776 0a17 BA       		.byte	0xba
 2777 0a18 28       		.uleb128 0x28
 2778 0a19 7E070000 		.4byte	0x77e
 2779 0a1d 6B020000 		.4byte	.LLST22
 2780 0a21 28       		.uleb128 0x28
 2781 0a22 73070000 		.4byte	0x773
 2782 0a26 7E020000 		.4byte	.LLST23
 2783 0a2a 2B       		.uleb128 0x2b
 2784 0a2b 3A070000 		.4byte	0x73a
 2785 0a2f 12000000 		.4byte	.LBB36
 2786 0a33 22000000 		.4byte	.LBE36
 2787 0a37 01       		.byte	0x1
 2788 0a38 A8       		.byte	0xa8
 2789 0a39 28       		.uleb128 0x28
 2790 0a3a 4C070000 		.4byte	0x74c
 2791 0a3e 91020000 		.4byte	.LLST24
 2792 0a42 00       		.byte	0
 2793 0a43 00       		.byte	0
 2794 0a44 00       		.byte	0
 2795 0a45 2F       		.uleb128 0x2f
 2796 0a46 01       		.byte	0x1
 2797 0a47 36030000 		.4byte	.LASF101
 2798 0a4b 01       		.byte	0x1
 2799 0a4c C4       		.byte	0xc4
 2800 0a4d 01       		.byte	0x1
 2801 0a4e 00000000 		.4byte	.LFB50
 2802 0a52 1C000000 		.4byte	.LFE50
ARM GAS  C:\Users\Rob\AppData\Local\Temp\ccAwpbdX.s 			page 52


 2803 0a56 A4020000 		.4byte	.LLST25
 2804 0a5a 6C0A0000 		.4byte	0xa6c
 2805 0a5e 36       		.uleb128 0x36
 2806 0a5f 6900     		.ascii	"i\000"
 2807 0a61 01       		.byte	0x1
 2808 0a62 C5       		.byte	0xc5
 2809 0a63 29000000 		.4byte	0x29
 2810 0a67 C4020000 		.4byte	.LLST26
 2811 0a6b 00       		.byte	0
 2812 0a6c 2F       		.uleb128 0x2f
 2813 0a6d 01       		.byte	0x1
 2814 0a6e 00000000 		.4byte	.LASF102
 2815 0a72 01       		.byte	0x1
 2816 0a73 CF       		.byte	0xcf
 2817 0a74 01       		.byte	0x1
 2818 0a75 00000000 		.4byte	.LFB51
 2819 0a79 24000000 		.4byte	.LFE51
 2820 0a7d D8020000 		.4byte	.LLST27
 2821 0a81 930A0000 		.4byte	0xa93
 2822 0a85 36       		.uleb128 0x36
 2823 0a86 6900     		.ascii	"i\000"
 2824 0a88 01       		.byte	0x1
 2825 0a89 D0       		.byte	0xd0
 2826 0a8a 29000000 		.4byte	0x29
 2827 0a8e F8020000 		.4byte	.LLST28
 2828 0a92 00       		.byte	0
 2829 0a93 2F       		.uleb128 0x2f
 2830 0a94 01       		.byte	0x1
 2831 0a95 03040000 		.4byte	.LASF103
 2832 0a99 01       		.byte	0x1
 2833 0a9a E0       		.byte	0xe0
 2834 0a9b 01       		.byte	0x1
 2835 0a9c 00000000 		.4byte	.LFB52
 2836 0aa0 54000000 		.4byte	.LFE52
 2837 0aa4 0C030000 		.4byte	.LLST29
 2838 0aa8 E90A0000 		.4byte	0xae9
 2839 0aac 30       		.uleb128 0x30
 2840 0aad 51010000 		.4byte	.LASF104
 2841 0ab1 01       		.byte	0x1
 2842 0ab2 E0       		.byte	0xe0
 2843 0ab3 3B000000 		.4byte	0x3b
 2844 0ab7 2C030000 		.4byte	.LLST30
 2845 0abb 39       		.uleb128 0x39
 2846 0abc DC030000 		.4byte	.LASF100
 2847 0ac0 01       		.byte	0x1
 2848 0ac1 E1       		.byte	0xe1
 2849 0ac2 05010000 		.4byte	0x105
 2850 0ac6 3F030000 		.4byte	.LLST31
 2851 0aca 36       		.uleb128 0x36
 2852 0acb 656E6400 		.ascii	"end\000"
 2853 0acf 01       		.byte	0x1
 2854 0ad0 E1       		.byte	0xe1
 2855 0ad1 05010000 		.4byte	0x105
 2856 0ad5 52030000 		.4byte	.LLST32
 2857 0ad9 36       		.uleb128 0x36
 2858 0ada 6E6F7700 		.ascii	"now\000"
 2859 0ade 01       		.byte	0x1
ARM GAS  C:\Users\Rob\AppData\Local\Temp\ccAwpbdX.s 			page 53


 2860 0adf E1       		.byte	0xe1
 2861 0ae0 05010000 		.4byte	0x105
 2862 0ae4 65030000 		.4byte	.LLST33
 2863 0ae8 00       		.byte	0
 2864 0ae9 3A       		.uleb128 0x3a
 2865 0aea 01       		.byte	0x1
 2866 0aeb 5A010000 		.4byte	.LASF135
 2867 0aef 01       		.byte	0x1
 2868 0af0 F5       		.byte	0xf5
 2869 0af1 01       		.byte	0x1
 2870 0af2 05010000 		.4byte	0x105
 2871 0af6 00000000 		.4byte	.LFB53
 2872 0afa 14000000 		.4byte	.LFE53
 2873 0afe 83030000 		.4byte	.LLST34
 2874 0b02 3B       		.uleb128 0x3b
 2875 0b03 01       		.byte	0x1
 2876 0b04 9F020000 		.4byte	.LASF105
 2877 0b08 01       		.byte	0x1
 2878 0b09 1001     		.2byte	0x110
 2879 0b0b 01       		.byte	0x1
 2880 0b0c 00000000 		.4byte	.LFB55
 2881 0b10 38000000 		.4byte	.LFE55
 2882 0b14 A3030000 		.4byte	.LLST35
 2883 0b18 380B0000 		.4byte	0xb38
 2884 0b1c 3C       		.uleb128 0x3c
 2885 0b1d 6D7300   		.ascii	"ms\000"
 2886 0b20 01       		.byte	0x1
 2887 0b21 1001     		.2byte	0x110
 2888 0b23 3B000000 		.4byte	0x3b
 2889 0b27 C3030000 		.4byte	.LLST36
 2890 0b2b 3D       		.uleb128 0x3d
 2891 0b2c 51010000 		.4byte	.LASF104
 2892 0b30 01       		.byte	0x1
 2893 0b31 1201     		.2byte	0x112
 2894 0b33 05010000 		.4byte	0x105
 2895 0b37 00       		.byte	0
 2896 0b38 3E       		.uleb128 0x3e
 2897 0b39 01       		.byte	0x1
 2898 0b3a EC020000 		.4byte	.LASF106
 2899 0b3e 01       		.byte	0x1
 2900 0b3f 3A01     		.2byte	0x13a
 2901 0b41 01       		.byte	0x1
 2902 0b42 EF000000 		.4byte	0xef
 2903 0b46 00000000 		.4byte	.LFB58
 2904 0b4a 50020000 		.4byte	.LFE58
 2905 0b4e D6030000 		.4byte	.LLST37
 2906 0b52 DE0B0000 		.4byte	0xbde
 2907 0b56 3C       		.uleb128 0x3c
 2908 0b57 7000     		.ascii	"p\000"
 2909 0b59 01       		.byte	0x1
 2910 0b5a 3A01     		.2byte	0x13a
 2911 0b5c A3020000 		.4byte	0x2a3
 2912 0b60 0E040000 		.4byte	.LLST38
 2913 0b64 26       		.uleb128 0x26
 2914 0b65 6900     		.ascii	"i\000"
 2915 0b67 01       		.byte	0x1
 2916 0b68 3B01     		.2byte	0x13b
ARM GAS  C:\Users\Rob\AppData\Local\Temp\ccAwpbdX.s 			page 54


 2917 0b6a 29000000 		.4byte	0x29
 2918 0b6e 30040000 		.4byte	.LLST39
 2919 0b72 26       		.uleb128 0x26
 2920 0b73 6A00     		.ascii	"j\000"
 2921 0b75 01       		.byte	0x1
 2922 0b76 3B01     		.2byte	0x13b
 2923 0b78 29000000 		.4byte	0x29
 2924 0b7c 68040000 		.4byte	.LLST40
 2925 0b80 3F       		.uleb128 0x3f
 2926 0b81 BA070000 		.4byte	0x7ba
 2927 0b85 9C000000 		.4byte	.LBB38
 2928 0b89 18000000 		.4byte	.Ldebug_ranges0+0x18
 2929 0b8d 01       		.byte	0x1
 2930 0b8e 7201     		.2byte	0x172
 2931 0b90 A40B0000 		.4byte	0xba4
 2932 0b94 40       		.uleb128 0x40
 2933 0b95 40000000 		.4byte	.Ldebug_ranges0+0x40
 2934 0b99 2A       		.uleb128 0x2a
 2935 0b9a C7070000 		.4byte	0x7c7
 2936 0b9e AB040000 		.4byte	.LLST41
 2937 0ba2 00       		.byte	0
 2938 0ba3 00       		.byte	0
 2939 0ba4 41       		.uleb128 0x41
 2940 0ba5 8A070000 		.4byte	0x78a
 2941 0ba9 9E000000 		.4byte	.LBB43
 2942 0bad 68000000 		.4byte	.Ldebug_ranges0+0x68
 2943 0bb1 01       		.byte	0x1
 2944 0bb2 6D01     		.2byte	0x16d
 2945 0bb4 28       		.uleb128 0x28
 2946 0bb5 98070000 		.4byte	0x798
 2947 0bb9 CE040000 		.4byte	.LLST42
 2948 0bbd 40       		.uleb128 0x40
 2949 0bbe 88000000 		.4byte	.Ldebug_ranges0+0x88
 2950 0bc2 2A       		.uleb128 0x2a
 2951 0bc3 A4070000 		.4byte	0x7a4
 2952 0bc7 F8040000 		.4byte	.LLST43
 2953 0bcb 42       		.uleb128 0x42
 2954 0bcc 58070000 		.4byte	0x758
 2955 0bd0 9E000000 		.4byte	.LBB45
 2956 0bd4 A8000000 		.4byte	.Ldebug_ranges0+0xa8
 2957 0bd8 01       		.byte	0x1
 2958 0bd9 1E01     		.2byte	0x11e
 2959 0bdb 00       		.byte	0
 2960 0bdc 00       		.byte	0
 2961 0bdd 00       		.byte	0
 2962 0bde 43       		.uleb128 0x43
 2963 0bdf E3000000 		.4byte	.LASF107
 2964 0be3 08       		.byte	0x8
 2965 0be4 D4       		.byte	0xd4
 2966 0be5 1C040000 		.4byte	0x41c
 2967 0be9 01       		.byte	0x1
 2968 0bea 01       		.byte	0x1
 2969 0beb 43       		.uleb128 0x43
 2970 0bec C4030000 		.4byte	.LASF108
 2971 0bf0 09       		.byte	0x9
 2972 0bf1 68       		.byte	0x68
 2973 0bf2 84040000 		.4byte	0x484
ARM GAS  C:\Users\Rob\AppData\Local\Temp\ccAwpbdX.s 			page 55


 2974 0bf6 01       		.byte	0x1
 2975 0bf7 01       		.byte	0x1
 2976 0bf8 14       		.uleb128 0x14
 2977 0bf9 65020000 		.4byte	0x265
 2978 0bfd 080C0000 		.4byte	0xc08
 2979 0c01 15       		.uleb128 0x15
 2980 0c02 3B000000 		.4byte	0x3b
 2981 0c06 04       		.byte	0x4
 2982 0c07 00       		.byte	0
 2983 0c08 43       		.uleb128 0x43
 2984 0c09 22040000 		.4byte	.LASF109
 2985 0c0d 0C       		.byte	0xc
 2986 0c0e A5       		.byte	0xa5
 2987 0c0f F80B0000 		.4byte	0xbf8
 2988 0c13 01       		.byte	0x1
 2989 0c14 01       		.byte	0x1
 2990 0c15 43       		.uleb128 0x43
 2991 0c16 23030000 		.4byte	.LASF110
 2992 0c1a 0C       		.byte	0xc
 2993 0c1b A6       		.byte	0xa6
 2994 0c1c C4060000 		.4byte	0x6c4
 2995 0c20 01       		.byte	0x1
 2996 0c21 01       		.byte	0x1
 2997 0c22 43       		.uleb128 0x43
 2998 0c23 58050000 		.4byte	.LASF111
 2999 0c27 0C       		.byte	0xc
 3000 0c28 A8       		.byte	0xa8
 3001 0c29 A6000000 		.4byte	0xa6
 3002 0c2d 01       		.byte	0x1
 3003 0c2e 01       		.byte	0x1
 3004 0c2f 14       		.uleb128 0x14
 3005 0c30 AF070000 		.4byte	0x7af
 3006 0c34 3A0C0000 		.4byte	0xc3a
 3007 0c38 44       		.uleb128 0x44
 3008 0c39 00       		.byte	0
 3009 0c3a 43       		.uleb128 0x43
 3010 0c3b 96010000 		.4byte	.LASF112
 3011 0c3f 0D       		.byte	0xd
 3012 0c40 14       		.byte	0x14
 3013 0c41 470C0000 		.4byte	0xc47
 3014 0c45 01       		.byte	0x1
 3015 0c46 01       		.byte	0x1
 3016 0c47 10       		.uleb128 0x10
 3017 0c48 2F0C0000 		.4byte	0xc2f
 3018 0c4c 43       		.uleb128 0x43
 3019 0c4d 53030000 		.4byte	.LASF113
 3020 0c51 0E       		.byte	0xe
 3021 0c52 14       		.byte	0x14
 3022 0c53 590C0000 		.4byte	0xc59
 3023 0c57 01       		.byte	0x1
 3024 0c58 01       		.byte	0x1
 3025 0c59 10       		.uleb128 0x10
 3026 0c5a 2F0C0000 		.4byte	0xc2f
 3027 0c5e 43       		.uleb128 0x43
 3028 0c5f BD010000 		.4byte	.LASF114
 3029 0c63 0F       		.byte	0xf
 3030 0c64 14       		.byte	0x14
ARM GAS  C:\Users\Rob\AppData\Local\Temp\ccAwpbdX.s 			page 56


 3031 0c65 6B0C0000 		.4byte	0xc6b
 3032 0c69 01       		.byte	0x1
 3033 0c6a 01       		.byte	0x1
 3034 0c6b 10       		.uleb128 0x10
 3035 0c6c 2F0C0000 		.4byte	0xc2f
 3036 0c70 43       		.uleb128 0x43
 3037 0c71 37010000 		.4byte	.LASF115
 3038 0c75 10       		.byte	0x10
 3039 0c76 14       		.byte	0x14
 3040 0c77 7D0C0000 		.4byte	0xc7d
 3041 0c7b 01       		.byte	0x1
 3042 0c7c 01       		.byte	0x1
 3043 0c7d 10       		.uleb128 0x10
 3044 0c7e 2F0C0000 		.4byte	0xc2f
 3045 0c82 43       		.uleb128 0x43
 3046 0c83 36000000 		.4byte	.LASF116
 3047 0c87 11       		.byte	0x11
 3048 0c88 14       		.byte	0x14
 3049 0c89 8F0C0000 		.4byte	0xc8f
 3050 0c8d 01       		.byte	0x1
 3051 0c8e 01       		.byte	0x1
 3052 0c8f 10       		.uleb128 0x10
 3053 0c90 2F0C0000 		.4byte	0xc2f
 3054 0c94 43       		.uleb128 0x43
 3055 0c95 80010000 		.4byte	.LASF117
 3056 0c99 12       		.byte	0x12
 3057 0c9a 14       		.byte	0x14
 3058 0c9b A10C0000 		.4byte	0xca1
 3059 0c9f 01       		.byte	0x1
 3060 0ca0 01       		.byte	0x1
 3061 0ca1 10       		.uleb128 0x10
 3062 0ca2 2F0C0000 		.4byte	0xc2f
 3063 0ca6 43       		.uleb128 0x43
 3064 0ca7 25020000 		.4byte	.LASF118
 3065 0cab 13       		.byte	0x13
 3066 0cac 14       		.byte	0x14
 3067 0cad B30C0000 		.4byte	0xcb3
 3068 0cb1 01       		.byte	0x1
 3069 0cb2 01       		.byte	0x1
 3070 0cb3 10       		.uleb128 0x10
 3071 0cb4 2F0C0000 		.4byte	0xc2f
 3072 0cb8 43       		.uleb128 0x43
 3073 0cb9 FF020000 		.4byte	.LASF119
 3074 0cbd 14       		.byte	0x14
 3075 0cbe 14       		.byte	0x14
 3076 0cbf C50C0000 		.4byte	0xcc5
 3077 0cc3 01       		.byte	0x1
 3078 0cc4 01       		.byte	0x1
 3079 0cc5 10       		.uleb128 0x10
 3080 0cc6 2F0C0000 		.4byte	0xc2f
 3081 0cca 43       		.uleb128 0x43
 3082 0ccb 64000000 		.4byte	.LASF120
 3083 0ccf 15       		.byte	0x15
 3084 0cd0 14       		.byte	0x14
 3085 0cd1 D70C0000 		.4byte	0xcd7
 3086 0cd5 01       		.byte	0x1
 3087 0cd6 01       		.byte	0x1
ARM GAS  C:\Users\Rob\AppData\Local\Temp\ccAwpbdX.s 			page 57


 3088 0cd7 10       		.uleb128 0x10
 3089 0cd8 2F0C0000 		.4byte	0xc2f
 3090 0cdc 43       		.uleb128 0x43
 3091 0cdd BD040000 		.4byte	.LASF121
 3092 0ce1 16       		.byte	0x16
 3093 0ce2 14       		.byte	0x14
 3094 0ce3 E90C0000 		.4byte	0xce9
 3095 0ce7 01       		.byte	0x1
 3096 0ce8 01       		.byte	0x1
 3097 0ce9 10       		.uleb128 0x10
 3098 0cea 2F0C0000 		.4byte	0xc2f
 3099 0cee 43       		.uleb128 0x43
 3100 0cef 7A020000 		.4byte	.LASF122
 3101 0cf3 17       		.byte	0x17
 3102 0cf4 14       		.byte	0x14
 3103 0cf5 FB0C0000 		.4byte	0xcfb
 3104 0cf9 01       		.byte	0x1
 3105 0cfa 01       		.byte	0x1
 3106 0cfb 10       		.uleb128 0x10
 3107 0cfc 2F0C0000 		.4byte	0xc2f
 3108 0d00 14       		.uleb128 0x14
 3109 0d01 100D0000 		.4byte	0xd10
 3110 0d05 100D0000 		.4byte	0xd10
 3111 0d09 15       		.uleb128 0x15
 3112 0d0a 3B000000 		.4byte	0x3b
 3113 0d0e 0B       		.byte	0xb
 3114 0d0f 00       		.byte	0
 3115 0d10 09       		.uleb128 0x9
 3116 0d11 04       		.byte	0x4
 3117 0d12 160D0000 		.4byte	0xd16
 3118 0d16 10       		.uleb128 0x10
 3119 0d17 AF070000 		.4byte	0x7af
 3120 0d1b 45       		.uleb128 0x45
 3121 0d1c AA040000 		.4byte	.LASF123
 3122 0d20 01       		.byte	0x1
 3123 0d21 2C       		.byte	0x2c
 3124 0d22 2C0D0000 		.4byte	0xd2c
 3125 0d26 05       		.byte	0x5
 3126 0d27 03       		.byte	0x3
 3127 0d28 00000000 		.4byte	patterns
 3128 0d2c 10       		.uleb128 0x10
 3129 0d2d 000D0000 		.4byte	0xd00
 3130 0d31 45       		.uleb128 0x45
 3131 0d32 B2010000 		.4byte	.LASF124
 3132 0d36 01       		.byte	0x1
 3133 0d37 3B       		.byte	0x3b
 3134 0d38 A6000000 		.4byte	0xa6
 3135 0d3c 05       		.byte	0x5
 3136 0d3d 03       		.byte	0x3
 3137 0d3e 00000000 		.4byte	local_fail
 3138 0d42 45       		.uleb128 0x45
 3139 0d43 24050000 		.4byte	.LASF125
 3140 0d47 01       		.byte	0x1
 3141 0d48 3B       		.byte	0x3b
 3142 0d49 A6000000 		.4byte	0xa6
 3143 0d4d 05       		.byte	0x5
 3144 0d4e 03       		.byte	0x3
ARM GAS  C:\Users\Rob\AppData\Local\Temp\ccAwpbdX.s 			page 58


 3145 0d4f 00000000 		.4byte	global_fail
 3146 0d53 45       		.uleb128 0x45
 3147 0d54 F4010000 		.4byte	.LASF126
 3148 0d58 01       		.byte	0x1
 3149 0d59 3C       		.byte	0x3c
 3150 0d5a 3B000000 		.4byte	0x3b
 3151 0d5e 05       		.byte	0x5
 3152 0d5f 03       		.byte	0x3
 3153 0d60 00000000 		.4byte	failpoint
 3154 0d64 45       		.uleb128 0x45
 3155 0d65 FE000000 		.4byte	.LASF127
 3156 0d69 01       		.byte	0x1
 3157 0d6a 3D       		.byte	0x3d
 3158 0d6b 24070000 		.4byte	0x724
 3159 0d6f 05       		.byte	0x5
 3160 0d70 03       		.byte	0x3
 3161 0d71 00000000 		.4byte	tokens_buffer
 3162 0d75 45       		.uleb128 0x45
 3163 0d76 0C030000 		.4byte	.LASF128
 3164 0d7a 01       		.byte	0x1
 3165 0d7b 3E       		.byte	0x3e
 3166 0d7c 34070000 		.4byte	0x734
 3167 0d80 05       		.byte	0x5
 3168 0d81 03       		.byte	0x3
 3169 0d82 00000000 		.4byte	tokp
 3170 0d86 46       		.uleb128 0x46
 3171 0d87 63687000 		.ascii	"chp\000"
 3172 0d8b 01       		.byte	0x1
 3173 0d8c 54       		.byte	0x54
 3174 0d8d 970D0000 		.4byte	0xd97
 3175 0d91 05       		.byte	0x5
 3176 0d92 03       		.byte	0x3
 3177 0d93 00000000 		.4byte	chp
 3178 0d97 09       		.uleb128 0x9
 3179 0d98 04       		.byte	0x4
 3180 0d99 0D060000 		.4byte	0x60d
 3181 0d9d 47       		.uleb128 0x47
 3182 0d9e 767400   		.ascii	"vt\000"
 3183 0da1 01       		.byte	0x1
 3184 0da2 0401     		.2byte	0x104
 3185 0da4 72030000 		.4byte	0x372
 3186 0da8 05       		.byte	0x5
 3187 0da9 03       		.byte	0x3
 3188 0daa 00000000 		.4byte	vt
 3189 0dae 43       		.uleb128 0x43
 3190 0daf E3000000 		.4byte	.LASF107
 3191 0db3 08       		.byte	0x8
 3192 0db4 D4       		.byte	0xd4
 3193 0db5 1C040000 		.4byte	0x41c
 3194 0db9 01       		.byte	0x1
 3195 0dba 01       		.byte	0x1
 3196 0dbb 43       		.uleb128 0x43
 3197 0dbc C4030000 		.4byte	.LASF108
 3198 0dc0 09       		.byte	0x9
 3199 0dc1 68       		.byte	0x68
 3200 0dc2 84040000 		.4byte	0x484
 3201 0dc6 01       		.byte	0x1
ARM GAS  C:\Users\Rob\AppData\Local\Temp\ccAwpbdX.s 			page 59


 3202 0dc7 01       		.byte	0x1
 3203 0dc8 48       		.uleb128 0x48
 3204 0dc9 22040000 		.4byte	.LASF109
 3205 0dcd 01       		.byte	0x1
 3206 0dce 49       		.byte	0x49
 3207 0dcf F80B0000 		.4byte	0xbf8
 3208 0dd3 01       		.byte	0x1
 3209 0dd4 05       		.byte	0x5
 3210 0dd5 03       		.byte	0x3
 3211 0dd6 00000000 		.4byte	threads
 3212 0dda 48       		.uleb128 0x48
 3213 0ddb 23030000 		.4byte	.LASF110
 3214 0ddf 01       		.byte	0x1
 3215 0de0 44       		.byte	0x44
 3216 0de1 C4060000 		.4byte	0x6c4
 3217 0de5 01       		.byte	0x1
 3218 0de6 05       		.byte	0x5
 3219 0de7 03       		.byte	0x3
 3220 0de8 00000000 		.4byte	test
 3221 0dec 14       		.uleb128 0x14
 3222 0ded A3020000 		.4byte	0x2a3
 3223 0df1 FC0D0000 		.4byte	0xdfc
 3224 0df5 15       		.uleb128 0x15
 3225 0df6 3B000000 		.4byte	0x3b
 3226 0dfa 04       		.byte	0x4
 3227 0dfb 00       		.byte	0
 3228 0dfc 49       		.uleb128 0x49
 3229 0dfd 776100   		.ascii	"wa\000"
 3230 0e00 01       		.byte	0x1
 3231 0e01 4E       		.byte	0x4e
 3232 0e02 0D0E0000 		.4byte	0xe0d
 3233 0e06 01       		.byte	0x1
 3234 0e07 05       		.byte	0x5
 3235 0e08 03       		.byte	0x3
 3236 0e09 00000000 		.4byte	wa
 3237 0e0d 10       		.uleb128 0x10
 3238 0e0e EC0D0000 		.4byte	0xdec
 3239 0e12 4A       		.uleb128 0x4a
 3240 0e13 58050000 		.4byte	.LASF111
 3241 0e17 01       		.byte	0x1
 3242 0e18 0201     		.2byte	0x102
 3243 0e1a A6000000 		.4byte	0xa6
 3244 0e1e 01       		.byte	0x1
 3245 0e1f 05       		.byte	0x5
 3246 0e20 03       		.byte	0x3
 3247 0e21 00000000 		.4byte	test_timer_done
 3248 0e25 43       		.uleb128 0x43
 3249 0e26 96010000 		.4byte	.LASF112
 3250 0e2a 0D       		.byte	0xd
 3251 0e2b 14       		.byte	0x14
 3252 0e2c 320E0000 		.4byte	0xe32
 3253 0e30 01       		.byte	0x1
 3254 0e31 01       		.byte	0x1
 3255 0e32 10       		.uleb128 0x10
 3256 0e33 2F0C0000 		.4byte	0xc2f
 3257 0e37 43       		.uleb128 0x43
 3258 0e38 53030000 		.4byte	.LASF113
ARM GAS  C:\Users\Rob\AppData\Local\Temp\ccAwpbdX.s 			page 60


 3259 0e3c 0E       		.byte	0xe
 3260 0e3d 14       		.byte	0x14
 3261 0e3e 440E0000 		.4byte	0xe44
 3262 0e42 01       		.byte	0x1
 3263 0e43 01       		.byte	0x1
 3264 0e44 10       		.uleb128 0x10
 3265 0e45 2F0C0000 		.4byte	0xc2f
 3266 0e49 43       		.uleb128 0x43
 3267 0e4a BD010000 		.4byte	.LASF114
 3268 0e4e 0F       		.byte	0xf
 3269 0e4f 14       		.byte	0x14
 3270 0e50 560E0000 		.4byte	0xe56
 3271 0e54 01       		.byte	0x1
 3272 0e55 01       		.byte	0x1
 3273 0e56 10       		.uleb128 0x10
 3274 0e57 2F0C0000 		.4byte	0xc2f
 3275 0e5b 43       		.uleb128 0x43
 3276 0e5c 37010000 		.4byte	.LASF115
 3277 0e60 10       		.byte	0x10
 3278 0e61 14       		.byte	0x14
 3279 0e62 680E0000 		.4byte	0xe68
 3280 0e66 01       		.byte	0x1
 3281 0e67 01       		.byte	0x1
 3282 0e68 10       		.uleb128 0x10
 3283 0e69 2F0C0000 		.4byte	0xc2f
 3284 0e6d 43       		.uleb128 0x43
 3285 0e6e 36000000 		.4byte	.LASF116
 3286 0e72 11       		.byte	0x11
 3287 0e73 14       		.byte	0x14
 3288 0e74 7A0E0000 		.4byte	0xe7a
 3289 0e78 01       		.byte	0x1
 3290 0e79 01       		.byte	0x1
 3291 0e7a 10       		.uleb128 0x10
 3292 0e7b 2F0C0000 		.4byte	0xc2f
 3293 0e7f 43       		.uleb128 0x43
 3294 0e80 80010000 		.4byte	.LASF117
 3295 0e84 12       		.byte	0x12
 3296 0e85 14       		.byte	0x14
 3297 0e86 8C0E0000 		.4byte	0xe8c
 3298 0e8a 01       		.byte	0x1
 3299 0e8b 01       		.byte	0x1
 3300 0e8c 10       		.uleb128 0x10
 3301 0e8d 2F0C0000 		.4byte	0xc2f
 3302 0e91 43       		.uleb128 0x43
 3303 0e92 25020000 		.4byte	.LASF118
 3304 0e96 13       		.byte	0x13
 3305 0e97 14       		.byte	0x14
 3306 0e98 9E0E0000 		.4byte	0xe9e
 3307 0e9c 01       		.byte	0x1
 3308 0e9d 01       		.byte	0x1
 3309 0e9e 10       		.uleb128 0x10
 3310 0e9f 2F0C0000 		.4byte	0xc2f
 3311 0ea3 43       		.uleb128 0x43
 3312 0ea4 FF020000 		.4byte	.LASF119
 3313 0ea8 14       		.byte	0x14
 3314 0ea9 14       		.byte	0x14
 3315 0eaa B00E0000 		.4byte	0xeb0
ARM GAS  C:\Users\Rob\AppData\Local\Temp\ccAwpbdX.s 			page 61


 3316 0eae 01       		.byte	0x1
 3317 0eaf 01       		.byte	0x1
 3318 0eb0 10       		.uleb128 0x10
 3319 0eb1 2F0C0000 		.4byte	0xc2f
 3320 0eb5 43       		.uleb128 0x43
 3321 0eb6 64000000 		.4byte	.LASF120
 3322 0eba 15       		.byte	0x15
 3323 0ebb 14       		.byte	0x14
 3324 0ebc C20E0000 		.4byte	0xec2
 3325 0ec0 01       		.byte	0x1
 3326 0ec1 01       		.byte	0x1
 3327 0ec2 10       		.uleb128 0x10
 3328 0ec3 2F0C0000 		.4byte	0xc2f
 3329 0ec7 43       		.uleb128 0x43
 3330 0ec8 BD040000 		.4byte	.LASF121
 3331 0ecc 16       		.byte	0x16
 3332 0ecd 14       		.byte	0x14
 3333 0ece D40E0000 		.4byte	0xed4
 3334 0ed2 01       		.byte	0x1
 3335 0ed3 01       		.byte	0x1
 3336 0ed4 10       		.uleb128 0x10
 3337 0ed5 2F0C0000 		.4byte	0xc2f
 3338 0ed9 43       		.uleb128 0x43
 3339 0eda 7A020000 		.4byte	.LASF122
 3340 0ede 17       		.byte	0x17
 3341 0edf 14       		.byte	0x14
 3342 0ee0 E60E0000 		.4byte	0xee6
 3343 0ee4 01       		.byte	0x1
 3344 0ee5 01       		.byte	0x1
 3345 0ee6 10       		.uleb128 0x10
 3346 0ee7 2F0C0000 		.4byte	0xc2f
 3347 0eeb 00       		.byte	0
 3348              		.section	.debug_abbrev,"",%progbits
 3349              	.Ldebug_abbrev0:
 3350 0000 01       		.uleb128 0x1
 3351 0001 11       		.uleb128 0x11
 3352 0002 01       		.byte	0x1
 3353 0003 25       		.uleb128 0x25
 3354 0004 0E       		.uleb128 0xe
 3355 0005 13       		.uleb128 0x13
 3356 0006 0B       		.uleb128 0xb
 3357 0007 03       		.uleb128 0x3
 3358 0008 0E       		.uleb128 0xe
 3359 0009 1B       		.uleb128 0x1b
 3360 000a 0E       		.uleb128 0xe
 3361 000b 11       		.uleb128 0x11
 3362 000c 01       		.uleb128 0x1
 3363 000d 52       		.uleb128 0x52
 3364 000e 01       		.uleb128 0x1
 3365 000f 55       		.uleb128 0x55
 3366 0010 06       		.uleb128 0x6
 3367 0011 10       		.uleb128 0x10
 3368 0012 06       		.uleb128 0x6
 3369 0013 00       		.byte	0
 3370 0014 00       		.byte	0
 3371 0015 02       		.uleb128 0x2
 3372 0016 24       		.uleb128 0x24
ARM GAS  C:\Users\Rob\AppData\Local\Temp\ccAwpbdX.s 			page 62


 3373 0017 00       		.byte	0
 3374 0018 0B       		.uleb128 0xb
 3375 0019 0B       		.uleb128 0xb
 3376 001a 3E       		.uleb128 0x3e
 3377 001b 0B       		.uleb128 0xb
 3378 001c 03       		.uleb128 0x3
 3379 001d 08       		.uleb128 0x8
 3380 001e 00       		.byte	0
 3381 001f 00       		.byte	0
 3382 0020 03       		.uleb128 0x3
 3383 0021 16       		.uleb128 0x16
 3384 0022 00       		.byte	0
 3385 0023 03       		.uleb128 0x3
 3386 0024 0E       		.uleb128 0xe
 3387 0025 3A       		.uleb128 0x3a
 3388 0026 0B       		.uleb128 0xb
 3389 0027 3B       		.uleb128 0x3b
 3390 0028 0B       		.uleb128 0xb
 3391 0029 49       		.uleb128 0x49
 3392 002a 13       		.uleb128 0x13
 3393 002b 00       		.byte	0
 3394 002c 00       		.byte	0
 3395 002d 04       		.uleb128 0x4
 3396 002e 24       		.uleb128 0x24
 3397 002f 00       		.byte	0
 3398 0030 0B       		.uleb128 0xb
 3399 0031 0B       		.uleb128 0xb
 3400 0032 3E       		.uleb128 0x3e
 3401 0033 0B       		.uleb128 0xb
 3402 0034 03       		.uleb128 0x3
 3403 0035 0E       		.uleb128 0xe
 3404 0036 00       		.byte	0
 3405 0037 00       		.byte	0
 3406 0038 05       		.uleb128 0x5
 3407 0039 13       		.uleb128 0x13
 3408 003a 01       		.byte	0x1
 3409 003b 03       		.uleb128 0x3
 3410 003c 0E       		.uleb128 0xe
 3411 003d 0B       		.uleb128 0xb
 3412 003e 0B       		.uleb128 0xb
 3413 003f 3A       		.uleb128 0x3a
 3414 0040 0B       		.uleb128 0xb
 3415 0041 3B       		.uleb128 0x3b
 3416 0042 0B       		.uleb128 0xb
 3417 0043 01       		.uleb128 0x1
 3418 0044 13       		.uleb128 0x13
 3419 0045 00       		.byte	0
 3420 0046 00       		.byte	0
 3421 0047 06       		.uleb128 0x6
 3422 0048 0D       		.uleb128 0xd
 3423 0049 00       		.byte	0
 3424 004a 03       		.uleb128 0x3
 3425 004b 0E       		.uleb128 0xe
 3426 004c 3A       		.uleb128 0x3a
 3427 004d 0B       		.uleb128 0xb
 3428 004e 3B       		.uleb128 0x3b
 3429 004f 0B       		.uleb128 0xb
ARM GAS  C:\Users\Rob\AppData\Local\Temp\ccAwpbdX.s 			page 63


 3430 0050 49       		.uleb128 0x49
 3431 0051 13       		.uleb128 0x13
 3432 0052 38       		.uleb128 0x38
 3433 0053 0A       		.uleb128 0xa
 3434 0054 00       		.byte	0
 3435 0055 00       		.byte	0
 3436 0056 07       		.uleb128 0x7
 3437 0057 0D       		.uleb128 0xd
 3438 0058 00       		.byte	0
 3439 0059 03       		.uleb128 0x3
 3440 005a 08       		.uleb128 0x8
 3441 005b 3A       		.uleb128 0x3a
 3442 005c 0B       		.uleb128 0xb
 3443 005d 3B       		.uleb128 0x3b
 3444 005e 0B       		.uleb128 0xb
 3445 005f 49       		.uleb128 0x49
 3446 0060 13       		.uleb128 0x13
 3447 0061 38       		.uleb128 0x38
 3448 0062 0A       		.uleb128 0xa
 3449 0063 00       		.byte	0
 3450 0064 00       		.byte	0
 3451 0065 08       		.uleb128 0x8
 3452 0066 13       		.uleb128 0x13
 3453 0067 01       		.byte	0x1
 3454 0068 0B       		.uleb128 0xb
 3455 0069 0B       		.uleb128 0xb
 3456 006a 3A       		.uleb128 0x3a
 3457 006b 0B       		.uleb128 0xb
 3458 006c 3B       		.uleb128 0x3b
 3459 006d 0B       		.uleb128 0xb
 3460 006e 01       		.uleb128 0x1
 3461 006f 13       		.uleb128 0x13
 3462 0070 00       		.byte	0
 3463 0071 00       		.byte	0
 3464 0072 09       		.uleb128 0x9
 3465 0073 0F       		.uleb128 0xf
 3466 0074 00       		.byte	0
 3467 0075 0B       		.uleb128 0xb
 3468 0076 0B       		.uleb128 0xb
 3469 0077 49       		.uleb128 0x49
 3470 0078 13       		.uleb128 0x13
 3471 0079 00       		.byte	0
 3472 007a 00       		.byte	0
 3473 007b 0A       		.uleb128 0xa
 3474 007c 0F       		.uleb128 0xf
 3475 007d 00       		.byte	0
 3476 007e 0B       		.uleb128 0xb
 3477 007f 0B       		.uleb128 0xb
 3478 0080 00       		.byte	0
 3479 0081 00       		.byte	0
 3480 0082 0B       		.uleb128 0xb
 3481 0083 15       		.uleb128 0x15
 3482 0084 01       		.byte	0x1
 3483 0085 27       		.uleb128 0x27
 3484 0086 0C       		.uleb128 0xc
 3485 0087 01       		.uleb128 0x1
 3486 0088 13       		.uleb128 0x13
ARM GAS  C:\Users\Rob\AppData\Local\Temp\ccAwpbdX.s 			page 64


 3487 0089 00       		.byte	0
 3488 008a 00       		.byte	0
 3489 008b 0C       		.uleb128 0xc
 3490 008c 05       		.uleb128 0x5
 3491 008d 00       		.byte	0
 3492 008e 49       		.uleb128 0x49
 3493 008f 13       		.uleb128 0x13
 3494 0090 00       		.byte	0
 3495 0091 00       		.byte	0
 3496 0092 0D       		.uleb128 0xd
 3497 0093 35       		.uleb128 0x35
 3498 0094 00       		.byte	0
 3499 0095 49       		.uleb128 0x49
 3500 0096 13       		.uleb128 0x13
 3501 0097 00       		.byte	0
 3502 0098 00       		.byte	0
 3503 0099 0E       		.uleb128 0xe
 3504 009a 17       		.uleb128 0x17
 3505 009b 01       		.byte	0x1
 3506 009c 0B       		.uleb128 0xb
 3507 009d 0B       		.uleb128 0xb
 3508 009e 3A       		.uleb128 0x3a
 3509 009f 0B       		.uleb128 0xb
 3510 00a0 3B       		.uleb128 0x3b
 3511 00a1 0B       		.uleb128 0xb
 3512 00a2 01       		.uleb128 0x1
 3513 00a3 13       		.uleb128 0x13
 3514 00a4 00       		.byte	0
 3515 00a5 00       		.byte	0
 3516 00a6 0F       		.uleb128 0xf
 3517 00a7 0D       		.uleb128 0xd
 3518 00a8 00       		.byte	0
 3519 00a9 03       		.uleb128 0x3
 3520 00aa 0E       		.uleb128 0xe
 3521 00ab 3A       		.uleb128 0x3a
 3522 00ac 0B       		.uleb128 0xb
 3523 00ad 3B       		.uleb128 0x3b
 3524 00ae 0B       		.uleb128 0xb
 3525 00af 49       		.uleb128 0x49
 3526 00b0 13       		.uleb128 0x13
 3527 00b1 00       		.byte	0
 3528 00b2 00       		.byte	0
 3529 00b3 10       		.uleb128 0x10
 3530 00b4 26       		.uleb128 0x26
 3531 00b5 00       		.byte	0
 3532 00b6 49       		.uleb128 0x49
 3533 00b7 13       		.uleb128 0x13
 3534 00b8 00       		.byte	0
 3535 00b9 00       		.byte	0
 3536 00ba 11       		.uleb128 0x11
 3537 00bb 15       		.uleb128 0x15
 3538 00bc 01       		.byte	0x1
 3539 00bd 27       		.uleb128 0x27
 3540 00be 0C       		.uleb128 0xc
 3541 00bf 49       		.uleb128 0x49
 3542 00c0 13       		.uleb128 0x13
 3543 00c1 01       		.uleb128 0x1
ARM GAS  C:\Users\Rob\AppData\Local\Temp\ccAwpbdX.s 			page 65


 3544 00c2 13       		.uleb128 0x13
 3545 00c3 00       		.byte	0
 3546 00c4 00       		.byte	0
 3547 00c5 12       		.uleb128 0x12
 3548 00c6 15       		.uleb128 0x15
 3549 00c7 00       		.byte	0
 3550 00c8 27       		.uleb128 0x27
 3551 00c9 0C       		.uleb128 0xc
 3552 00ca 00       		.byte	0
 3553 00cb 00       		.byte	0
 3554 00cc 13       		.uleb128 0x13
 3555 00cd 13       		.uleb128 0x13
 3556 00ce 01       		.byte	0x1
 3557 00cf 0B       		.uleb128 0xb
 3558 00d0 05       		.uleb128 0x5
 3559 00d1 3A       		.uleb128 0x3a
 3560 00d2 0B       		.uleb128 0xb
 3561 00d3 3B       		.uleb128 0x3b
 3562 00d4 0B       		.uleb128 0xb
 3563 00d5 01       		.uleb128 0x1
 3564 00d6 13       		.uleb128 0x13
 3565 00d7 00       		.byte	0
 3566 00d8 00       		.byte	0
 3567 00d9 14       		.uleb128 0x14
 3568 00da 01       		.uleb128 0x1
 3569 00db 01       		.byte	0x1
 3570 00dc 49       		.uleb128 0x49
 3571 00dd 13       		.uleb128 0x13
 3572 00de 01       		.uleb128 0x1
 3573 00df 13       		.uleb128 0x13
 3574 00e0 00       		.byte	0
 3575 00e1 00       		.byte	0
 3576 00e2 15       		.uleb128 0x15
 3577 00e3 21       		.uleb128 0x21
 3578 00e4 00       		.byte	0
 3579 00e5 49       		.uleb128 0x49
 3580 00e6 13       		.uleb128 0x13
 3581 00e7 2F       		.uleb128 0x2f
 3582 00e8 0B       		.uleb128 0xb
 3583 00e9 00       		.byte	0
 3584 00ea 00       		.byte	0
 3585 00eb 16       		.uleb128 0x16
 3586 00ec 17       		.uleb128 0x17
 3587 00ed 01       		.byte	0x1
 3588 00ee 03       		.uleb128 0x3
 3589 00ef 0E       		.uleb128 0xe
 3590 00f0 0B       		.uleb128 0xb
 3591 00f1 05       		.uleb128 0x5
 3592 00f2 3A       		.uleb128 0x3a
 3593 00f3 0B       		.uleb128 0xb
 3594 00f4 3B       		.uleb128 0x3b
 3595 00f5 0B       		.uleb128 0xb
 3596 00f6 01       		.uleb128 0x1
 3597 00f7 13       		.uleb128 0x13
 3598 00f8 00       		.byte	0
 3599 00f9 00       		.byte	0
 3600 00fa 17       		.uleb128 0x17
ARM GAS  C:\Users\Rob\AppData\Local\Temp\ccAwpbdX.s 			page 66


 3601 00fb 0D       		.uleb128 0xd
 3602 00fc 00       		.byte	0
 3603 00fd 03       		.uleb128 0x3
 3604 00fe 08       		.uleb128 0x8
 3605 00ff 3A       		.uleb128 0x3a
 3606 0100 0B       		.uleb128 0xb
 3607 0101 3B       		.uleb128 0x3b
 3608 0102 0B       		.uleb128 0xb
 3609 0103 49       		.uleb128 0x49
 3610 0104 13       		.uleb128 0x13
 3611 0105 00       		.byte	0
 3612 0106 00       		.byte	0
 3613 0107 18       		.uleb128 0x18
 3614 0108 21       		.uleb128 0x21
 3615 0109 00       		.byte	0
 3616 010a 49       		.uleb128 0x49
 3617 010b 13       		.uleb128 0x13
 3618 010c 2F       		.uleb128 0x2f
 3619 010d 05       		.uleb128 0x5
 3620 010e 00       		.byte	0
 3621 010f 00       		.byte	0
 3622 0110 19       		.uleb128 0x19
 3623 0111 2E       		.uleb128 0x2e
 3624 0112 01       		.byte	0x1
 3625 0113 3F       		.uleb128 0x3f
 3626 0114 0C       		.uleb128 0xc
 3627 0115 03       		.uleb128 0x3
 3628 0116 0E       		.uleb128 0xe
 3629 0117 3A       		.uleb128 0x3a
 3630 0118 0B       		.uleb128 0xb
 3631 0119 3B       		.uleb128 0x3b
 3632 011a 0B       		.uleb128 0xb
 3633 011b 27       		.uleb128 0x27
 3634 011c 0C       		.uleb128 0xc
 3635 011d 20       		.uleb128 0x20
 3636 011e 0B       		.uleb128 0xb
 3637 011f 01       		.uleb128 0x1
 3638 0120 13       		.uleb128 0x13
 3639 0121 00       		.byte	0
 3640 0122 00       		.byte	0
 3641 0123 1A       		.uleb128 0x1a
 3642 0124 05       		.uleb128 0x5
 3643 0125 00       		.byte	0
 3644 0126 03       		.uleb128 0x3
 3645 0127 08       		.uleb128 0x8
 3646 0128 3A       		.uleb128 0x3a
 3647 0129 0B       		.uleb128 0xb
 3648 012a 3B       		.uleb128 0x3b
 3649 012b 0B       		.uleb128 0xb
 3650 012c 49       		.uleb128 0x49
 3651 012d 13       		.uleb128 0x13
 3652 012e 00       		.byte	0
 3653 012f 00       		.byte	0
 3654 0130 1B       		.uleb128 0x1b
 3655 0131 34       		.uleb128 0x34
 3656 0132 00       		.byte	0
 3657 0133 03       		.uleb128 0x3
ARM GAS  C:\Users\Rob\AppData\Local\Temp\ccAwpbdX.s 			page 67


 3658 0134 08       		.uleb128 0x8
 3659 0135 3A       		.uleb128 0x3a
 3660 0136 0B       		.uleb128 0xb
 3661 0137 3B       		.uleb128 0x3b
 3662 0138 0B       		.uleb128 0xb
 3663 0139 49       		.uleb128 0x49
 3664 013a 13       		.uleb128 0x13
 3665 013b 00       		.byte	0
 3666 013c 00       		.byte	0
 3667 013d 1C       		.uleb128 0x1c
 3668 013e 2E       		.uleb128 0x2e
 3669 013f 01       		.byte	0x1
 3670 0140 3F       		.uleb128 0x3f
 3671 0141 0C       		.uleb128 0xc
 3672 0142 03       		.uleb128 0x3
 3673 0143 0E       		.uleb128 0xe
 3674 0144 3A       		.uleb128 0x3a
 3675 0145 0B       		.uleb128 0xb
 3676 0146 3B       		.uleb128 0x3b
 3677 0147 0B       		.uleb128 0xb
 3678 0148 27       		.uleb128 0x27
 3679 0149 0C       		.uleb128 0xc
 3680 014a 49       		.uleb128 0x49
 3681 014b 13       		.uleb128 0x13
 3682 014c 20       		.uleb128 0x20
 3683 014d 0B       		.uleb128 0xb
 3684 014e 01       		.uleb128 0x1
 3685 014f 13       		.uleb128 0x13
 3686 0150 00       		.byte	0
 3687 0151 00       		.byte	0
 3688 0152 1D       		.uleb128 0x1d
 3689 0153 05       		.uleb128 0x5
 3690 0154 00       		.byte	0
 3691 0155 03       		.uleb128 0x3
 3692 0156 0E       		.uleb128 0xe
 3693 0157 3A       		.uleb128 0x3a
 3694 0158 0B       		.uleb128 0xb
 3695 0159 3B       		.uleb128 0x3b
 3696 015a 0B       		.uleb128 0xb
 3697 015b 49       		.uleb128 0x49
 3698 015c 13       		.uleb128 0x13
 3699 015d 00       		.byte	0
 3700 015e 00       		.byte	0
 3701 015f 1E       		.uleb128 0x1e
 3702 0160 2E       		.uleb128 0x2e
 3703 0161 00       		.byte	0
 3704 0162 03       		.uleb128 0x3
 3705 0163 0E       		.uleb128 0xe
 3706 0164 3A       		.uleb128 0x3a
 3707 0165 0B       		.uleb128 0xb
 3708 0166 3B       		.uleb128 0x3b
 3709 0167 0B       		.uleb128 0xb
 3710 0168 27       		.uleb128 0x27
 3711 0169 0C       		.uleb128 0xc
 3712 016a 20       		.uleb128 0x20
 3713 016b 0B       		.uleb128 0xb
 3714 016c 00       		.byte	0
ARM GAS  C:\Users\Rob\AppData\Local\Temp\ccAwpbdX.s 			page 68


 3715 016d 00       		.byte	0
 3716 016e 1F       		.uleb128 0x1f
 3717 016f 2E       		.uleb128 0x2e
 3718 0170 01       		.byte	0x1
 3719 0171 03       		.uleb128 0x3
 3720 0172 0E       		.uleb128 0xe
 3721 0173 3A       		.uleb128 0x3a
 3722 0174 0B       		.uleb128 0xb
 3723 0175 3B       		.uleb128 0x3b
 3724 0176 05       		.uleb128 0x5
 3725 0177 27       		.uleb128 0x27
 3726 0178 0C       		.uleb128 0xc
 3727 0179 20       		.uleb128 0x20
 3728 017a 0B       		.uleb128 0xb
 3729 017b 01       		.uleb128 0x1
 3730 017c 13       		.uleb128 0x13
 3731 017d 00       		.byte	0
 3732 017e 00       		.byte	0
 3733 017f 20       		.uleb128 0x20
 3734 0180 05       		.uleb128 0x5
 3735 0181 00       		.byte	0
 3736 0182 03       		.uleb128 0x3
 3737 0183 08       		.uleb128 0x8
 3738 0184 3A       		.uleb128 0x3a
 3739 0185 0B       		.uleb128 0xb
 3740 0186 3B       		.uleb128 0x3b
 3741 0187 05       		.uleb128 0x5
 3742 0188 49       		.uleb128 0x49
 3743 0189 13       		.uleb128 0x13
 3744 018a 00       		.byte	0
 3745 018b 00       		.byte	0
 3746 018c 21       		.uleb128 0x21
 3747 018d 34       		.uleb128 0x34
 3748 018e 00       		.byte	0
 3749 018f 03       		.uleb128 0x3
 3750 0190 08       		.uleb128 0x8
 3751 0191 3A       		.uleb128 0x3a
 3752 0192 0B       		.uleb128 0xb
 3753 0193 3B       		.uleb128 0x3b
 3754 0194 05       		.uleb128 0x5
 3755 0195 49       		.uleb128 0x49
 3756 0196 13       		.uleb128 0x13
 3757 0197 00       		.byte	0
 3758 0198 00       		.byte	0
 3759 0199 22       		.uleb128 0x22
 3760 019a 2E       		.uleb128 0x2e
 3761 019b 01       		.byte	0x1
 3762 019c 03       		.uleb128 0x3
 3763 019d 0E       		.uleb128 0xe
 3764 019e 3A       		.uleb128 0x3a
 3765 019f 0B       		.uleb128 0xb
 3766 01a0 3B       		.uleb128 0x3b
 3767 01a1 0B       		.uleb128 0xb
 3768 01a2 27       		.uleb128 0x27
 3769 01a3 0C       		.uleb128 0xc
 3770 01a4 20       		.uleb128 0x20
 3771 01a5 0B       		.uleb128 0xb
ARM GAS  C:\Users\Rob\AppData\Local\Temp\ccAwpbdX.s 			page 69


 3772 01a6 01       		.uleb128 0x1
 3773 01a7 13       		.uleb128 0x13
 3774 01a8 00       		.byte	0
 3775 01a9 00       		.byte	0
 3776 01aa 23       		.uleb128 0x23
 3777 01ab 2E       		.uleb128 0x2e
 3778 01ac 01       		.byte	0x1
 3779 01ad 03       		.uleb128 0x3
 3780 01ae 08       		.uleb128 0x8
 3781 01af 3A       		.uleb128 0x3a
 3782 01b0 0B       		.uleb128 0xb
 3783 01b1 3B       		.uleb128 0x3b
 3784 01b2 05       		.uleb128 0x5
 3785 01b3 27       		.uleb128 0x27
 3786 01b4 0C       		.uleb128 0xc
 3787 01b5 11       		.uleb128 0x11
 3788 01b6 01       		.uleb128 0x1
 3789 01b7 12       		.uleb128 0x12
 3790 01b8 01       		.uleb128 0x1
 3791 01b9 40       		.uleb128 0x40
 3792 01ba 0A       		.uleb128 0xa
 3793 01bb 01       		.uleb128 0x1
 3794 01bc 13       		.uleb128 0x13
 3795 01bd 00       		.byte	0
 3796 01be 00       		.byte	0
 3797 01bf 24       		.uleb128 0x24
 3798 01c0 05       		.uleb128 0x5
 3799 01c1 00       		.byte	0
 3800 01c2 03       		.uleb128 0x3
 3801 01c3 08       		.uleb128 0x8
 3802 01c4 3A       		.uleb128 0x3a
 3803 01c5 0B       		.uleb128 0xb
 3804 01c6 3B       		.uleb128 0x3b
 3805 01c7 05       		.uleb128 0x5
 3806 01c8 49       		.uleb128 0x49
 3807 01c9 13       		.uleb128 0x13
 3808 01ca 02       		.uleb128 0x2
 3809 01cb 0A       		.uleb128 0xa
 3810 01cc 00       		.byte	0
 3811 01cd 00       		.byte	0
 3812 01ce 25       		.uleb128 0x25
 3813 01cf 2E       		.uleb128 0x2e
 3814 01d0 01       		.byte	0x1
 3815 01d1 03       		.uleb128 0x3
 3816 01d2 0E       		.uleb128 0xe
 3817 01d3 3A       		.uleb128 0x3a
 3818 01d4 0B       		.uleb128 0xb
 3819 01d5 3B       		.uleb128 0x3b
 3820 01d6 05       		.uleb128 0x5
 3821 01d7 27       		.uleb128 0x27
 3822 01d8 0C       		.uleb128 0xc
 3823 01d9 11       		.uleb128 0x11
 3824 01da 01       		.uleb128 0x1
 3825 01db 12       		.uleb128 0x12
 3826 01dc 01       		.uleb128 0x1
 3827 01dd 40       		.uleb128 0x40
 3828 01de 06       		.uleb128 0x6
ARM GAS  C:\Users\Rob\AppData\Local\Temp\ccAwpbdX.s 			page 70


 3829 01df 01       		.uleb128 0x1
 3830 01e0 13       		.uleb128 0x13
 3831 01e1 00       		.byte	0
 3832 01e2 00       		.byte	0
 3833 01e3 26       		.uleb128 0x26
 3834 01e4 34       		.uleb128 0x34
 3835 01e5 00       		.byte	0
 3836 01e6 03       		.uleb128 0x3
 3837 01e7 08       		.uleb128 0x8
 3838 01e8 3A       		.uleb128 0x3a
 3839 01e9 0B       		.uleb128 0xb
 3840 01ea 3B       		.uleb128 0x3b
 3841 01eb 05       		.uleb128 0x5
 3842 01ec 49       		.uleb128 0x49
 3843 01ed 13       		.uleb128 0x13
 3844 01ee 02       		.uleb128 0x2
 3845 01ef 06       		.uleb128 0x6
 3846 01f0 00       		.byte	0
 3847 01f1 00       		.byte	0
 3848 01f2 27       		.uleb128 0x27
 3849 01f3 2E       		.uleb128 0x2e
 3850 01f4 01       		.byte	0x1
 3851 01f5 31       		.uleb128 0x31
 3852 01f6 13       		.uleb128 0x13
 3853 01f7 11       		.uleb128 0x11
 3854 01f8 01       		.uleb128 0x1
 3855 01f9 12       		.uleb128 0x12
 3856 01fa 01       		.uleb128 0x1
 3857 01fb 40       		.uleb128 0x40
 3858 01fc 06       		.uleb128 0x6
 3859 01fd 01       		.uleb128 0x1
 3860 01fe 13       		.uleb128 0x13
 3861 01ff 00       		.byte	0
 3862 0200 00       		.byte	0
 3863 0201 28       		.uleb128 0x28
 3864 0202 05       		.uleb128 0x5
 3865 0203 00       		.byte	0
 3866 0204 31       		.uleb128 0x31
 3867 0205 13       		.uleb128 0x13
 3868 0206 02       		.uleb128 0x2
 3869 0207 06       		.uleb128 0x6
 3870 0208 00       		.byte	0
 3871 0209 00       		.byte	0
 3872 020a 29       		.uleb128 0x29
 3873 020b 34       		.uleb128 0x34
 3874 020c 00       		.byte	0
 3875 020d 31       		.uleb128 0x31
 3876 020e 13       		.uleb128 0x13
 3877 020f 02       		.uleb128 0x2
 3878 0210 0A       		.uleb128 0xa
 3879 0211 00       		.byte	0
 3880 0212 00       		.byte	0
 3881 0213 2A       		.uleb128 0x2a
 3882 0214 34       		.uleb128 0x34
 3883 0215 00       		.byte	0
 3884 0216 31       		.uleb128 0x31
 3885 0217 13       		.uleb128 0x13
ARM GAS  C:\Users\Rob\AppData\Local\Temp\ccAwpbdX.s 			page 71


 3886 0218 02       		.uleb128 0x2
 3887 0219 06       		.uleb128 0x6
 3888 021a 00       		.byte	0
 3889 021b 00       		.byte	0
 3890 021c 2B       		.uleb128 0x2b
 3891 021d 1D       		.uleb128 0x1d
 3892 021e 01       		.byte	0x1
 3893 021f 31       		.uleb128 0x31
 3894 0220 13       		.uleb128 0x13
 3895 0221 11       		.uleb128 0x11
 3896 0222 01       		.uleb128 0x1
 3897 0223 12       		.uleb128 0x12
 3898 0224 01       		.uleb128 0x1
 3899 0225 58       		.uleb128 0x58
 3900 0226 0B       		.uleb128 0xb
 3901 0227 59       		.uleb128 0x59
 3902 0228 0B       		.uleb128 0xb
 3903 0229 00       		.byte	0
 3904 022a 00       		.byte	0
 3905 022b 2C       		.uleb128 0x2c
 3906 022c 0B       		.uleb128 0xb
 3907 022d 01       		.byte	0x1
 3908 022e 11       		.uleb128 0x11
 3909 022f 01       		.uleb128 0x1
 3910 0230 12       		.uleb128 0x12
 3911 0231 01       		.uleb128 0x1
 3912 0232 00       		.byte	0
 3913 0233 00       		.byte	0
 3914 0234 2D       		.uleb128 0x2d
 3915 0235 34       		.uleb128 0x34
 3916 0236 00       		.byte	0
 3917 0237 31       		.uleb128 0x31
 3918 0238 13       		.uleb128 0x13
 3919 0239 00       		.byte	0
 3920 023a 00       		.byte	0
 3921 023b 2E       		.uleb128 0x2e
 3922 023c 05       		.uleb128 0x5
 3923 023d 00       		.byte	0
 3924 023e 31       		.uleb128 0x31
 3925 023f 13       		.uleb128 0x13
 3926 0240 00       		.byte	0
 3927 0241 00       		.byte	0
 3928 0242 2F       		.uleb128 0x2f
 3929 0243 2E       		.uleb128 0x2e
 3930 0244 01       		.byte	0x1
 3931 0245 3F       		.uleb128 0x3f
 3932 0246 0C       		.uleb128 0xc
 3933 0247 03       		.uleb128 0x3
 3934 0248 0E       		.uleb128 0xe
 3935 0249 3A       		.uleb128 0x3a
 3936 024a 0B       		.uleb128 0xb
 3937 024b 3B       		.uleb128 0x3b
 3938 024c 0B       		.uleb128 0xb
 3939 024d 27       		.uleb128 0x27
 3940 024e 0C       		.uleb128 0xc
 3941 024f 11       		.uleb128 0x11
 3942 0250 01       		.uleb128 0x1
ARM GAS  C:\Users\Rob\AppData\Local\Temp\ccAwpbdX.s 			page 72


 3943 0251 12       		.uleb128 0x12
 3944 0252 01       		.uleb128 0x1
 3945 0253 40       		.uleb128 0x40
 3946 0254 06       		.uleb128 0x6
 3947 0255 01       		.uleb128 0x1
 3948 0256 13       		.uleb128 0x13
 3949 0257 00       		.byte	0
 3950 0258 00       		.byte	0
 3951 0259 30       		.uleb128 0x30
 3952 025a 05       		.uleb128 0x5
 3953 025b 00       		.byte	0
 3954 025c 03       		.uleb128 0x3
 3955 025d 0E       		.uleb128 0xe
 3956 025e 3A       		.uleb128 0x3a
 3957 025f 0B       		.uleb128 0xb
 3958 0260 3B       		.uleb128 0x3b
 3959 0261 0B       		.uleb128 0xb
 3960 0262 49       		.uleb128 0x49
 3961 0263 13       		.uleb128 0x13
 3962 0264 02       		.uleb128 0x2
 3963 0265 06       		.uleb128 0x6
 3964 0266 00       		.byte	0
 3965 0267 00       		.byte	0
 3966 0268 31       		.uleb128 0x31
 3967 0269 2E       		.uleb128 0x2e
 3968 026a 01       		.byte	0x1
 3969 026b 3F       		.uleb128 0x3f
 3970 026c 0C       		.uleb128 0xc
 3971 026d 03       		.uleb128 0x3
 3972 026e 0E       		.uleb128 0xe
 3973 026f 3A       		.uleb128 0x3a
 3974 0270 0B       		.uleb128 0xb
 3975 0271 3B       		.uleb128 0x3b
 3976 0272 0B       		.uleb128 0xb
 3977 0273 27       		.uleb128 0x27
 3978 0274 0C       		.uleb128 0xc
 3979 0275 11       		.uleb128 0x11
 3980 0276 01       		.uleb128 0x1
 3981 0277 12       		.uleb128 0x12
 3982 0278 01       		.uleb128 0x1
 3983 0279 40       		.uleb128 0x40
 3984 027a 0A       		.uleb128 0xa
 3985 027b 01       		.uleb128 0x1
 3986 027c 13       		.uleb128 0x13
 3987 027d 00       		.byte	0
 3988 027e 00       		.byte	0
 3989 027f 32       		.uleb128 0x32
 3990 0280 05       		.uleb128 0x5
 3991 0281 00       		.byte	0
 3992 0282 03       		.uleb128 0x3
 3993 0283 0E       		.uleb128 0xe
 3994 0284 3A       		.uleb128 0x3a
 3995 0285 0B       		.uleb128 0xb
 3996 0286 3B       		.uleb128 0x3b
 3997 0287 0B       		.uleb128 0xb
 3998 0288 49       		.uleb128 0x49
 3999 0289 13       		.uleb128 0x13
ARM GAS  C:\Users\Rob\AppData\Local\Temp\ccAwpbdX.s 			page 73


 4000 028a 02       		.uleb128 0x2
 4001 028b 0A       		.uleb128 0xa
 4002 028c 00       		.byte	0
 4003 028d 00       		.byte	0
 4004 028e 33       		.uleb128 0x33
 4005 028f 2E       		.uleb128 0x2e
 4006 0290 01       		.byte	0x1
 4007 0291 31       		.uleb128 0x31
 4008 0292 13       		.uleb128 0x13
 4009 0293 11       		.uleb128 0x11
 4010 0294 01       		.uleb128 0x1
 4011 0295 12       		.uleb128 0x12
 4012 0296 01       		.uleb128 0x1
 4013 0297 40       		.uleb128 0x40
 4014 0298 0A       		.uleb128 0xa
 4015 0299 01       		.uleb128 0x1
 4016 029a 13       		.uleb128 0x13
 4017 029b 00       		.byte	0
 4018 029c 00       		.byte	0
 4019 029d 34       		.uleb128 0x34
 4020 029e 1D       		.uleb128 0x1d
 4021 029f 01       		.byte	0x1
 4022 02a0 31       		.uleb128 0x31
 4023 02a1 13       		.uleb128 0x13
 4024 02a2 52       		.uleb128 0x52
 4025 02a3 01       		.uleb128 0x1
 4026 02a4 55       		.uleb128 0x55
 4027 02a5 06       		.uleb128 0x6
 4028 02a6 58       		.uleb128 0x58
 4029 02a7 0B       		.uleb128 0xb
 4030 02a8 59       		.uleb128 0x59
 4031 02a9 0B       		.uleb128 0xb
 4032 02aa 00       		.byte	0
 4033 02ab 00       		.byte	0
 4034 02ac 35       		.uleb128 0x35
 4035 02ad 2E       		.uleb128 0x2e
 4036 02ae 01       		.byte	0x1
 4037 02af 3F       		.uleb128 0x3f
 4038 02b0 0C       		.uleb128 0xc
 4039 02b1 03       		.uleb128 0x3
 4040 02b2 0E       		.uleb128 0xe
 4041 02b3 3A       		.uleb128 0x3a
 4042 02b4 0B       		.uleb128 0xb
 4043 02b5 3B       		.uleb128 0x3b
 4044 02b6 0B       		.uleb128 0xb
 4045 02b7 27       		.uleb128 0x27
 4046 02b8 0C       		.uleb128 0xc
 4047 02b9 49       		.uleb128 0x49
 4048 02ba 13       		.uleb128 0x13
 4049 02bb 11       		.uleb128 0x11
 4050 02bc 01       		.uleb128 0x1
 4051 02bd 12       		.uleb128 0x12
 4052 02be 01       		.uleb128 0x1
 4053 02bf 40       		.uleb128 0x40
 4054 02c0 06       		.uleb128 0x6
 4055 02c1 01       		.uleb128 0x1
 4056 02c2 13       		.uleb128 0x13
ARM GAS  C:\Users\Rob\AppData\Local\Temp\ccAwpbdX.s 			page 74


 4057 02c3 00       		.byte	0
 4058 02c4 00       		.byte	0
 4059 02c5 36       		.uleb128 0x36
 4060 02c6 34       		.uleb128 0x34
 4061 02c7 00       		.byte	0
 4062 02c8 03       		.uleb128 0x3
 4063 02c9 08       		.uleb128 0x8
 4064 02ca 3A       		.uleb128 0x3a
 4065 02cb 0B       		.uleb128 0xb
 4066 02cc 3B       		.uleb128 0x3b
 4067 02cd 0B       		.uleb128 0xb
 4068 02ce 49       		.uleb128 0x49
 4069 02cf 13       		.uleb128 0x13
 4070 02d0 02       		.uleb128 0x2
 4071 02d1 06       		.uleb128 0x6
 4072 02d2 00       		.byte	0
 4073 02d3 00       		.byte	0
 4074 02d4 37       		.uleb128 0x37
 4075 02d5 1D       		.uleb128 0x1d
 4076 02d6 00       		.byte	0
 4077 02d7 31       		.uleb128 0x31
 4078 02d8 13       		.uleb128 0x13
 4079 02d9 11       		.uleb128 0x11
 4080 02da 01       		.uleb128 0x1
 4081 02db 12       		.uleb128 0x12
 4082 02dc 01       		.uleb128 0x1
 4083 02dd 58       		.uleb128 0x58
 4084 02de 0B       		.uleb128 0xb
 4085 02df 59       		.uleb128 0x59
 4086 02e0 0B       		.uleb128 0xb
 4087 02e1 00       		.byte	0
 4088 02e2 00       		.byte	0
 4089 02e3 38       		.uleb128 0x38
 4090 02e4 05       		.uleb128 0x5
 4091 02e5 00       		.byte	0
 4092 02e6 03       		.uleb128 0x3
 4093 02e7 08       		.uleb128 0x8
 4094 02e8 3A       		.uleb128 0x3a
 4095 02e9 0B       		.uleb128 0xb
 4096 02ea 3B       		.uleb128 0x3b
 4097 02eb 0B       		.uleb128 0xb
 4098 02ec 49       		.uleb128 0x49
 4099 02ed 13       		.uleb128 0x13
 4100 02ee 02       		.uleb128 0x2
 4101 02ef 06       		.uleb128 0x6
 4102 02f0 00       		.byte	0
 4103 02f1 00       		.byte	0
 4104 02f2 39       		.uleb128 0x39
 4105 02f3 34       		.uleb128 0x34
 4106 02f4 00       		.byte	0
 4107 02f5 03       		.uleb128 0x3
 4108 02f6 0E       		.uleb128 0xe
 4109 02f7 3A       		.uleb128 0x3a
 4110 02f8 0B       		.uleb128 0xb
 4111 02f9 3B       		.uleb128 0x3b
 4112 02fa 0B       		.uleb128 0xb
 4113 02fb 49       		.uleb128 0x49
ARM GAS  C:\Users\Rob\AppData\Local\Temp\ccAwpbdX.s 			page 75


 4114 02fc 13       		.uleb128 0x13
 4115 02fd 02       		.uleb128 0x2
 4116 02fe 06       		.uleb128 0x6
 4117 02ff 00       		.byte	0
 4118 0300 00       		.byte	0
 4119 0301 3A       		.uleb128 0x3a
 4120 0302 2E       		.uleb128 0x2e
 4121 0303 00       		.byte	0
 4122 0304 3F       		.uleb128 0x3f
 4123 0305 0C       		.uleb128 0xc
 4124 0306 03       		.uleb128 0x3
 4125 0307 0E       		.uleb128 0xe
 4126 0308 3A       		.uleb128 0x3a
 4127 0309 0B       		.uleb128 0xb
 4128 030a 3B       		.uleb128 0x3b
 4129 030b 0B       		.uleb128 0xb
 4130 030c 27       		.uleb128 0x27
 4131 030d 0C       		.uleb128 0xc
 4132 030e 49       		.uleb128 0x49
 4133 030f 13       		.uleb128 0x13
 4134 0310 11       		.uleb128 0x11
 4135 0311 01       		.uleb128 0x1
 4136 0312 12       		.uleb128 0x12
 4137 0313 01       		.uleb128 0x1
 4138 0314 40       		.uleb128 0x40
 4139 0315 06       		.uleb128 0x6
 4140 0316 00       		.byte	0
 4141 0317 00       		.byte	0
 4142 0318 3B       		.uleb128 0x3b
 4143 0319 2E       		.uleb128 0x2e
 4144 031a 01       		.byte	0x1
 4145 031b 3F       		.uleb128 0x3f
 4146 031c 0C       		.uleb128 0xc
 4147 031d 03       		.uleb128 0x3
 4148 031e 0E       		.uleb128 0xe
 4149 031f 3A       		.uleb128 0x3a
 4150 0320 0B       		.uleb128 0xb
 4151 0321 3B       		.uleb128 0x3b
 4152 0322 05       		.uleb128 0x5
 4153 0323 27       		.uleb128 0x27
 4154 0324 0C       		.uleb128 0xc
 4155 0325 11       		.uleb128 0x11
 4156 0326 01       		.uleb128 0x1
 4157 0327 12       		.uleb128 0x12
 4158 0328 01       		.uleb128 0x1
 4159 0329 40       		.uleb128 0x40
 4160 032a 06       		.uleb128 0x6
 4161 032b 01       		.uleb128 0x1
 4162 032c 13       		.uleb128 0x13
 4163 032d 00       		.byte	0
 4164 032e 00       		.byte	0
 4165 032f 3C       		.uleb128 0x3c
 4166 0330 05       		.uleb128 0x5
 4167 0331 00       		.byte	0
 4168 0332 03       		.uleb128 0x3
 4169 0333 08       		.uleb128 0x8
 4170 0334 3A       		.uleb128 0x3a
ARM GAS  C:\Users\Rob\AppData\Local\Temp\ccAwpbdX.s 			page 76


 4171 0335 0B       		.uleb128 0xb
 4172 0336 3B       		.uleb128 0x3b
 4173 0337 05       		.uleb128 0x5
 4174 0338 49       		.uleb128 0x49
 4175 0339 13       		.uleb128 0x13
 4176 033a 02       		.uleb128 0x2
 4177 033b 06       		.uleb128 0x6
 4178 033c 00       		.byte	0
 4179 033d 00       		.byte	0
 4180 033e 3D       		.uleb128 0x3d
 4181 033f 34       		.uleb128 0x34
 4182 0340 00       		.byte	0
 4183 0341 03       		.uleb128 0x3
 4184 0342 0E       		.uleb128 0xe
 4185 0343 3A       		.uleb128 0x3a
 4186 0344 0B       		.uleb128 0xb
 4187 0345 3B       		.uleb128 0x3b
 4188 0346 05       		.uleb128 0x5
 4189 0347 49       		.uleb128 0x49
 4190 0348 13       		.uleb128 0x13
 4191 0349 00       		.byte	0
 4192 034a 00       		.byte	0
 4193 034b 3E       		.uleb128 0x3e
 4194 034c 2E       		.uleb128 0x2e
 4195 034d 01       		.byte	0x1
 4196 034e 3F       		.uleb128 0x3f
 4197 034f 0C       		.uleb128 0xc
 4198 0350 03       		.uleb128 0x3
 4199 0351 0E       		.uleb128 0xe
 4200 0352 3A       		.uleb128 0x3a
 4201 0353 0B       		.uleb128 0xb
 4202 0354 3B       		.uleb128 0x3b
 4203 0355 05       		.uleb128 0x5
 4204 0356 27       		.uleb128 0x27
 4205 0357 0C       		.uleb128 0xc
 4206 0358 49       		.uleb128 0x49
 4207 0359 13       		.uleb128 0x13
 4208 035a 11       		.uleb128 0x11
 4209 035b 01       		.uleb128 0x1
 4210 035c 12       		.uleb128 0x12
 4211 035d 01       		.uleb128 0x1
 4212 035e 40       		.uleb128 0x40
 4213 035f 06       		.uleb128 0x6
 4214 0360 01       		.uleb128 0x1
 4215 0361 13       		.uleb128 0x13
 4216 0362 00       		.byte	0
 4217 0363 00       		.byte	0
 4218 0364 3F       		.uleb128 0x3f
 4219 0365 1D       		.uleb128 0x1d
 4220 0366 01       		.byte	0x1
 4221 0367 31       		.uleb128 0x31
 4222 0368 13       		.uleb128 0x13
 4223 0369 52       		.uleb128 0x52
 4224 036a 01       		.uleb128 0x1
 4225 036b 55       		.uleb128 0x55
 4226 036c 06       		.uleb128 0x6
 4227 036d 58       		.uleb128 0x58
ARM GAS  C:\Users\Rob\AppData\Local\Temp\ccAwpbdX.s 			page 77


 4228 036e 0B       		.uleb128 0xb
 4229 036f 59       		.uleb128 0x59
 4230 0370 05       		.uleb128 0x5
 4231 0371 01       		.uleb128 0x1
 4232 0372 13       		.uleb128 0x13
 4233 0373 00       		.byte	0
 4234 0374 00       		.byte	0
 4235 0375 40       		.uleb128 0x40
 4236 0376 0B       		.uleb128 0xb
 4237 0377 01       		.byte	0x1
 4238 0378 55       		.uleb128 0x55
 4239 0379 06       		.uleb128 0x6
 4240 037a 00       		.byte	0
 4241 037b 00       		.byte	0
 4242 037c 41       		.uleb128 0x41
 4243 037d 1D       		.uleb128 0x1d
 4244 037e 01       		.byte	0x1
 4245 037f 31       		.uleb128 0x31
 4246 0380 13       		.uleb128 0x13
 4247 0381 52       		.uleb128 0x52
 4248 0382 01       		.uleb128 0x1
 4249 0383 55       		.uleb128 0x55
 4250 0384 06       		.uleb128 0x6
 4251 0385 58       		.uleb128 0x58
 4252 0386 0B       		.uleb128 0xb
 4253 0387 59       		.uleb128 0x59
 4254 0388 05       		.uleb128 0x5
 4255 0389 00       		.byte	0
 4256 038a 00       		.byte	0
 4257 038b 42       		.uleb128 0x42
 4258 038c 1D       		.uleb128 0x1d
 4259 038d 00       		.byte	0
 4260 038e 31       		.uleb128 0x31
 4261 038f 13       		.uleb128 0x13
 4262 0390 52       		.uleb128 0x52
 4263 0391 01       		.uleb128 0x1
 4264 0392 55       		.uleb128 0x55
 4265 0393 06       		.uleb128 0x6
 4266 0394 58       		.uleb128 0x58
 4267 0395 0B       		.uleb128 0xb
 4268 0396 59       		.uleb128 0x59
 4269 0397 05       		.uleb128 0x5
 4270 0398 00       		.byte	0
 4271 0399 00       		.byte	0
 4272 039a 43       		.uleb128 0x43
 4273 039b 34       		.uleb128 0x34
 4274 039c 00       		.byte	0
 4275 039d 03       		.uleb128 0x3
 4276 039e 0E       		.uleb128 0xe
 4277 039f 3A       		.uleb128 0x3a
 4278 03a0 0B       		.uleb128 0xb
 4279 03a1 3B       		.uleb128 0x3b
 4280 03a2 0B       		.uleb128 0xb
 4281 03a3 49       		.uleb128 0x49
 4282 03a4 13       		.uleb128 0x13
 4283 03a5 3F       		.uleb128 0x3f
 4284 03a6 0C       		.uleb128 0xc
ARM GAS  C:\Users\Rob\AppData\Local\Temp\ccAwpbdX.s 			page 78


 4285 03a7 3C       		.uleb128 0x3c
 4286 03a8 0C       		.uleb128 0xc
 4287 03a9 00       		.byte	0
 4288 03aa 00       		.byte	0
 4289 03ab 44       		.uleb128 0x44
 4290 03ac 21       		.uleb128 0x21
 4291 03ad 00       		.byte	0
 4292 03ae 00       		.byte	0
 4293 03af 00       		.byte	0
 4294 03b0 45       		.uleb128 0x45
 4295 03b1 34       		.uleb128 0x34
 4296 03b2 00       		.byte	0
 4297 03b3 03       		.uleb128 0x3
 4298 03b4 0E       		.uleb128 0xe
 4299 03b5 3A       		.uleb128 0x3a
 4300 03b6 0B       		.uleb128 0xb
 4301 03b7 3B       		.uleb128 0x3b
 4302 03b8 0B       		.uleb128 0xb
 4303 03b9 49       		.uleb128 0x49
 4304 03ba 13       		.uleb128 0x13
 4305 03bb 02       		.uleb128 0x2
 4306 03bc 0A       		.uleb128 0xa
 4307 03bd 00       		.byte	0
 4308 03be 00       		.byte	0
 4309 03bf 46       		.uleb128 0x46
 4310 03c0 34       		.uleb128 0x34
 4311 03c1 00       		.byte	0
 4312 03c2 03       		.uleb128 0x3
 4313 03c3 08       		.uleb128 0x8
 4314 03c4 3A       		.uleb128 0x3a
 4315 03c5 0B       		.uleb128 0xb
 4316 03c6 3B       		.uleb128 0x3b
 4317 03c7 0B       		.uleb128 0xb
 4318 03c8 49       		.uleb128 0x49
 4319 03c9 13       		.uleb128 0x13
 4320 03ca 02       		.uleb128 0x2
 4321 03cb 0A       		.uleb128 0xa
 4322 03cc 00       		.byte	0
 4323 03cd 00       		.byte	0
 4324 03ce 47       		.uleb128 0x47
 4325 03cf 34       		.uleb128 0x34
 4326 03d0 00       		.byte	0
 4327 03d1 03       		.uleb128 0x3
 4328 03d2 08       		.uleb128 0x8
 4329 03d3 3A       		.uleb128 0x3a
 4330 03d4 0B       		.uleb128 0xb
 4331 03d5 3B       		.uleb128 0x3b
 4332 03d6 05       		.uleb128 0x5
 4333 03d7 49       		.uleb128 0x49
 4334 03d8 13       		.uleb128 0x13
 4335 03d9 02       		.uleb128 0x2
 4336 03da 0A       		.uleb128 0xa
 4337 03db 00       		.byte	0
 4338 03dc 00       		.byte	0
 4339 03dd 48       		.uleb128 0x48
 4340 03de 34       		.uleb128 0x34
 4341 03df 00       		.byte	0
ARM GAS  C:\Users\Rob\AppData\Local\Temp\ccAwpbdX.s 			page 79


 4342 03e0 03       		.uleb128 0x3
 4343 03e1 0E       		.uleb128 0xe
 4344 03e2 3A       		.uleb128 0x3a
 4345 03e3 0B       		.uleb128 0xb
 4346 03e4 3B       		.uleb128 0x3b
 4347 03e5 0B       		.uleb128 0xb
 4348 03e6 49       		.uleb128 0x49
 4349 03e7 13       		.uleb128 0x13
 4350 03e8 3F       		.uleb128 0x3f
 4351 03e9 0C       		.uleb128 0xc
 4352 03ea 02       		.uleb128 0x2
 4353 03eb 0A       		.uleb128 0xa
 4354 03ec 00       		.byte	0
 4355 03ed 00       		.byte	0
 4356 03ee 49       		.uleb128 0x49
 4357 03ef 34       		.uleb128 0x34
 4358 03f0 00       		.byte	0
 4359 03f1 03       		.uleb128 0x3
 4360 03f2 08       		.uleb128 0x8
 4361 03f3 3A       		.uleb128 0x3a
 4362 03f4 0B       		.uleb128 0xb
 4363 03f5 3B       		.uleb128 0x3b
 4364 03f6 0B       		.uleb128 0xb
 4365 03f7 49       		.uleb128 0x49
 4366 03f8 13       		.uleb128 0x13
 4367 03f9 3F       		.uleb128 0x3f
 4368 03fa 0C       		.uleb128 0xc
 4369 03fb 02       		.uleb128 0x2
 4370 03fc 0A       		.uleb128 0xa
 4371 03fd 00       		.byte	0
 4372 03fe 00       		.byte	0
 4373 03ff 4A       		.uleb128 0x4a
 4374 0400 34       		.uleb128 0x34
 4375 0401 00       		.byte	0
 4376 0402 03       		.uleb128 0x3
 4377 0403 0E       		.uleb128 0xe
 4378 0404 3A       		.uleb128 0x3a
 4379 0405 0B       		.uleb128 0xb
 4380 0406 3B       		.uleb128 0x3b
 4381 0407 05       		.uleb128 0x5
 4382 0408 49       		.uleb128 0x49
 4383 0409 13       		.uleb128 0x13
 4384 040a 3F       		.uleb128 0x3f
 4385 040b 0C       		.uleb128 0xc
 4386 040c 02       		.uleb128 0x2
 4387 040d 0A       		.uleb128 0xa
 4388 040e 00       		.byte	0
 4389 040f 00       		.byte	0
 4390 0410 00       		.byte	0
 4391              		.section	.debug_loc,"",%progbits
 4392              	.Ldebug_loc0:
 4393              	.LLST0:
 4394 0000 00000000 		.4byte	.LFB57
 4395 0004 02000000 		.4byte	.LCFI0
 4396 0008 0200     		.2byte	0x2
 4397 000a 7D       		.byte	0x7d
 4398 000b 00       		.sleb128 0
ARM GAS  C:\Users\Rob\AppData\Local\Temp\ccAwpbdX.s 			page 80


 4399 000c 02000000 		.4byte	.LCFI0
 4400 0010 2C000000 		.4byte	.LFE57
 4401 0014 0200     		.2byte	0x2
 4402 0016 7D       		.byte	0x7d
 4403 0017 10       		.sleb128 16
 4404 0018 00000000 		.4byte	0
 4405 001c 00000000 		.4byte	0
 4406              	.LLST1:
 4407 0020 02000000 		.4byte	.LVL1
 4408 0024 06000000 		.4byte	.LVL2
 4409 0028 0200     		.2byte	0x2
 4410 002a 30       		.byte	0x30
 4411 002b 9F       		.byte	0x9f
 4412 002c 00000000 		.4byte	0
 4413 0030 00000000 		.4byte	0
 4414              	.LLST2:
 4415 0034 00000000 		.4byte	.LFB40
 4416 0038 02000000 		.4byte	.LCFI1
 4417 003c 0200     		.2byte	0x2
 4418 003e 7D       		.byte	0x7d
 4419 003f 00       		.sleb128 0
 4420 0040 02000000 		.4byte	.LCFI1
 4421 0044 04000000 		.4byte	.LCFI2
 4422 0048 0200     		.2byte	0x2
 4423 004a 7D       		.byte	0x7d
 4424 004b 14       		.sleb128 20
 4425 004c 04000000 		.4byte	.LCFI2
 4426 0050 60000000 		.4byte	.LFE40
 4427 0054 0200     		.2byte	0x2
 4428 0056 7D       		.byte	0x7d
 4429 0057 28       		.sleb128 40
 4430 0058 00000000 		.4byte	0
 4431 005c 00000000 		.4byte	0
 4432              	.LLST3:
 4433 0060 02000000 		.4byte	.LVL3
 4434 0064 0C000000 		.4byte	.LVL4
 4435 0068 0100     		.2byte	0x1
 4436 006a 50       		.byte	0x50
 4437 006b 4E000000 		.4byte	.LVL7
 4438 006f 54000000 		.4byte	.LVL8
 4439 0073 0100     		.2byte	0x1
 4440 0075 50       		.byte	0x50
 4441 0076 54000000 		.4byte	.LVL8
 4442 007a 60000000 		.4byte	.LFE40
 4443 007e 0100     		.2byte	0x1
 4444 0080 56       		.byte	0x56
 4445 0081 00000000 		.4byte	0
 4446 0085 00000000 		.4byte	0
 4447              	.LLST4:
 4448 0089 26000000 		.4byte	.LVL5
 4449 008d 36000000 		.4byte	.LVL6
 4450 0091 0100     		.2byte	0x1
 4451 0093 55       		.byte	0x55
 4452 0094 00000000 		.4byte	0
 4453 0098 00000000 		.4byte	0
 4454              	.LLST5:
 4455 009c 00000000 		.4byte	.LFB41
ARM GAS  C:\Users\Rob\AppData\Local\Temp\ccAwpbdX.s 			page 81


 4456 00a0 02000000 		.4byte	.LCFI3
 4457 00a4 0200     		.2byte	0x2
 4458 00a6 7D       		.byte	0x7d
 4459 00a7 00       		.sleb128 0
 4460 00a8 02000000 		.4byte	.LCFI3
 4461 00ac 24000000 		.4byte	.LFE41
 4462 00b0 0200     		.2byte	0x2
 4463 00b2 7D       		.byte	0x7d
 4464 00b3 10       		.sleb128 16
 4465 00b4 00000000 		.4byte	0
 4466 00b8 00000000 		.4byte	0
 4467              	.LLST6:
 4468 00bc 02000000 		.4byte	.LVL9
 4469 00c0 0C000000 		.4byte	.LVL10
 4470 00c4 0100     		.2byte	0x1
 4471 00c6 50       		.byte	0x50
 4472 00c7 00000000 		.4byte	0
 4473 00cb 00000000 		.4byte	0
 4474              	.LLST7:
 4475 00cf 00000000 		.4byte	.LFB42
 4476 00d3 02000000 		.4byte	.LCFI4
 4477 00d7 0200     		.2byte	0x2
 4478 00d9 7D       		.byte	0x7d
 4479 00da 00       		.sleb128 0
 4480 00db 02000000 		.4byte	.LCFI4
 4481 00df 20000000 		.4byte	.LFE42
 4482 00e3 0200     		.2byte	0x2
 4483 00e5 7D       		.byte	0x7d
 4484 00e6 08       		.sleb128 8
 4485 00e7 00000000 		.4byte	0
 4486 00eb 00000000 		.4byte	0
 4487              	.LLST8:
 4488 00ef 02000000 		.4byte	.LVL11
 4489 00f3 05000000 		.4byte	.LVL12-1
 4490 00f7 0100     		.2byte	0x1
 4491 00f9 50       		.byte	0x50
 4492 00fa 00000000 		.4byte	0
 4493 00fe 00000000 		.4byte	0
 4494              	.LLST9:
 4495 0102 00000000 		.4byte	.LVL14
 4496 0106 10000000 		.4byte	.LVL15
 4497 010a 0100     		.2byte	0x1
 4498 010c 50       		.byte	0x50
 4499 010d 10000000 		.4byte	.LVL15
 4500 0111 20000000 		.4byte	.LFE46
 4501 0115 0500     		.2byte	0x5
 4502 0117 03       		.byte	0x3
 4503 0118 00000000 		.4byte	failpoint
 4504 011c 00000000 		.4byte	0
 4505 0120 00000000 		.4byte	0
 4506              	.LLST10:
 4507 0124 00000000 		.4byte	.LFB47
 4508 0128 02000000 		.4byte	.LCFI5
 4509 012c 0200     		.2byte	0x2
 4510 012e 7D       		.byte	0x7d
 4511 012f 00       		.sleb128 0
 4512 0130 02000000 		.4byte	.LCFI5
ARM GAS  C:\Users\Rob\AppData\Local\Temp\ccAwpbdX.s 			page 82


 4513 0134 28000000 		.4byte	.LFE47
 4514 0138 0200     		.2byte	0x2
 4515 013a 7D       		.byte	0x7d
 4516 013b 04       		.sleb128 4
 4517 013c 00000000 		.4byte	0
 4518 0140 00000000 		.4byte	0
 4519              	.LLST11:
 4520 0144 02000000 		.4byte	.LVL16
 4521 0148 06000000 		.4byte	.LVL17
 4522 014c 0100     		.2byte	0x1
 4523 014e 50       		.byte	0x50
 4524 014f 06000000 		.4byte	.LVL17
 4525 0153 28000000 		.4byte	.LFE47
 4526 0157 0100     		.2byte	0x1
 4527 0159 53       		.byte	0x53
 4528 015a 00000000 		.4byte	0
 4529 015e 00000000 		.4byte	0
 4530              	.LLST12:
 4531 0162 02000000 		.4byte	.LVL16
 4532 0166 0C000000 		.4byte	.LVL19
 4533 016a 0100     		.2byte	0x1
 4534 016c 51       		.byte	0x51
 4535 016d 00000000 		.4byte	0
 4536 0171 00000000 		.4byte	0
 4537              	.LLST13:
 4538 0175 0A000000 		.4byte	.LVL18
 4539 0179 1A000000 		.4byte	.LVL20
 4540 017d 0100     		.2byte	0x1
 4541 017f 53       		.byte	0x53
 4542 0180 00000000 		.4byte	0
 4543 0184 00000000 		.4byte	0
 4544              	.LLST14:
 4545 0188 00000000 		.4byte	.LFB48
 4546 018c 02000000 		.4byte	.LCFI6
 4547 0190 0200     		.2byte	0x2
 4548 0192 7D       		.byte	0x7d
 4549 0193 00       		.sleb128 0
 4550 0194 02000000 		.4byte	.LCFI6
 4551 0198 50000000 		.4byte	.LFE48
 4552 019c 0200     		.2byte	0x2
 4553 019e 7D       		.byte	0x7d
 4554 019f 14       		.sleb128 20
 4555 01a0 00000000 		.4byte	0
 4556 01a4 00000000 		.4byte	0
 4557              	.LLST15:
 4558 01a8 02000000 		.4byte	.LVL21
 4559 01ac 26000000 		.4byte	.LVL27
 4560 01b0 0100     		.2byte	0x1
 4561 01b2 50       		.byte	0x50
 4562 01b3 28000000 		.4byte	.LVL28
 4563 01b7 38000000 		.4byte	.LVL29
 4564 01bb 0100     		.2byte	0x1
 4565 01bd 50       		.byte	0x50
 4566 01be 00000000 		.4byte	0
 4567 01c2 00000000 		.4byte	0
 4568              	.LLST16:
 4569 01c6 02000000 		.4byte	.LVL21
ARM GAS  C:\Users\Rob\AppData\Local\Temp\ccAwpbdX.s 			page 83


 4570 01ca 0C000000 		.4byte	.LVL22
 4571 01ce 0600     		.2byte	0x6
 4572 01d0 03       		.byte	0x3
 4573 01d1 00000000 		.4byte	tokens_buffer
 4574 01d5 9F       		.byte	0x9f
 4575 01d6 0C000000 		.4byte	.LVL22
 4576 01da 1E000000 		.4byte	.LVL26
 4577 01de 0100     		.2byte	0x1
 4578 01e0 53       		.byte	0x53
 4579 01e1 00000000 		.4byte	0
 4580 01e5 00000000 		.4byte	0
 4581              	.LLST17:
 4582 01e9 28000000 		.4byte	.LVL28
 4583 01ed 38000000 		.4byte	.LVL29
 4584 01f1 0100     		.2byte	0x1
 4585 01f3 50       		.byte	0x50
 4586 01f4 00000000 		.4byte	0
 4587 01f8 00000000 		.4byte	0
 4588              	.LLST18:
 4589 01fc 00000000 		.4byte	.LFB49
 4590 0200 02000000 		.4byte	.LCFI7
 4591 0204 0200     		.2byte	0x2
 4592 0206 7D       		.byte	0x7d
 4593 0207 00       		.sleb128 0
 4594 0208 02000000 		.4byte	.LCFI7
 4595 020c 34000000 		.4byte	.LFE49
 4596 0210 0200     		.2byte	0x2
 4597 0212 7D       		.byte	0x7d
 4598 0213 08       		.sleb128 8
 4599 0214 00000000 		.4byte	0
 4600 0218 00000000 		.4byte	0
 4601              	.LLST19:
 4602 021c 02000000 		.4byte	.LVL30
 4603 0220 06000000 		.4byte	.LVL31
 4604 0224 0100     		.2byte	0x1
 4605 0226 50       		.byte	0x50
 4606 0227 06000000 		.4byte	.LVL31
 4607 022b 24000000 		.4byte	.LVL37
 4608 022f 0100     		.2byte	0x1
 4609 0231 54       		.byte	0x54
 4610 0232 00000000 		.4byte	0
 4611 0236 00000000 		.4byte	0
 4612              	.LLST20:
 4613 023a 02000000 		.4byte	.LVL30
 4614 023e 08000000 		.4byte	.LVL32
 4615 0242 0100     		.2byte	0x1
 4616 0244 51       		.byte	0x51
 4617 0245 08000000 		.4byte	.LVL32
 4618 0249 0B000000 		.4byte	.LVL33-1
 4619 024d 0100     		.2byte	0x1
 4620 024f 50       		.byte	0x50
 4621 0250 00000000 		.4byte	0
 4622 0254 00000000 		.4byte	0
 4623              	.LLST21:
 4624 0258 02000000 		.4byte	.LVL30
 4625 025c 0B000000 		.4byte	.LVL33-1
 4626 0260 0100     		.2byte	0x1
ARM GAS  C:\Users\Rob\AppData\Local\Temp\ccAwpbdX.s 			page 84


 4627 0262 52       		.byte	0x52
 4628 0263 00000000 		.4byte	0
 4629 0267 00000000 		.4byte	0
 4630              	.LLST22:
 4631 026b 0C000000 		.4byte	.LVL33
 4632 026f 24000000 		.4byte	.LVL36
 4633 0273 0100     		.2byte	0x1
 4634 0275 50       		.byte	0x50
 4635 0276 00000000 		.4byte	0
 4636 027a 00000000 		.4byte	0
 4637              	.LLST23:
 4638 027e 0C000000 		.4byte	.LVL33
 4639 0282 24000000 		.4byte	.LVL37
 4640 0286 0100     		.2byte	0x1
 4641 0288 54       		.byte	0x54
 4642 0289 00000000 		.4byte	0
 4643 028d 00000000 		.4byte	0
 4644              	.LLST24:
 4645 0291 12000000 		.4byte	.LVL34
 4646 0295 22000000 		.4byte	.LVL35
 4647 0299 0100     		.2byte	0x1
 4648 029b 54       		.byte	0x54
 4649 029c 00000000 		.4byte	0
 4650 02a0 00000000 		.4byte	0
 4651              	.LLST25:
 4652 02a4 00000000 		.4byte	.LFB50
 4653 02a8 02000000 		.4byte	.LCFI8
 4654 02ac 0200     		.2byte	0x2
 4655 02ae 7D       		.byte	0x7d
 4656 02af 00       		.sleb128 0
 4657 02b0 02000000 		.4byte	.LCFI8
 4658 02b4 1C000000 		.4byte	.LFE50
 4659 02b8 0200     		.2byte	0x2
 4660 02ba 7D       		.byte	0x7d
 4661 02bb 10       		.sleb128 16
 4662 02bc 00000000 		.4byte	0
 4663 02c0 00000000 		.4byte	0
 4664              	.LLST26:
 4665 02c4 02000000 		.4byte	.LVL38
 4666 02c8 08000000 		.4byte	.LVL39
 4667 02cc 0200     		.2byte	0x2
 4668 02ce 30       		.byte	0x30
 4669 02cf 9F       		.byte	0x9f
 4670 02d0 00000000 		.4byte	0
 4671 02d4 00000000 		.4byte	0
 4672              	.LLST27:
 4673 02d8 00000000 		.4byte	.LFB51
 4674 02dc 02000000 		.4byte	.LCFI9
 4675 02e0 0200     		.2byte	0x2
 4676 02e2 7D       		.byte	0x7d
 4677 02e3 00       		.sleb128 0
 4678 02e4 02000000 		.4byte	.LCFI9
 4679 02e8 24000000 		.4byte	.LFE51
 4680 02ec 0200     		.2byte	0x2
 4681 02ee 7D       		.byte	0x7d
 4682 02ef 10       		.sleb128 16
 4683 02f0 00000000 		.4byte	0
ARM GAS  C:\Users\Rob\AppData\Local\Temp\ccAwpbdX.s 			page 85


 4684 02f4 00000000 		.4byte	0
 4685              	.LLST28:
 4686 02f8 02000000 		.4byte	.LVL40
 4687 02fc 0A000000 		.4byte	.LVL41
 4688 0300 0200     		.2byte	0x2
 4689 0302 30       		.byte	0x30
 4690 0303 9F       		.byte	0x9f
 4691 0304 00000000 		.4byte	0
 4692 0308 00000000 		.4byte	0
 4693              	.LLST29:
 4694 030c 00000000 		.4byte	.LFB52
 4695 0310 02000000 		.4byte	.LCFI10
 4696 0314 0200     		.2byte	0x2
 4697 0316 7D       		.byte	0x7d
 4698 0317 00       		.sleb128 0
 4699 0318 02000000 		.4byte	.LCFI10
 4700 031c 54000000 		.4byte	.LFE52
 4701 0320 0200     		.2byte	0x2
 4702 0322 7D       		.byte	0x7d
 4703 0323 10       		.sleb128 16
 4704 0324 00000000 		.4byte	0
 4705 0328 00000000 		.4byte	0
 4706              	.LLST30:
 4707 032c 02000000 		.4byte	.LVL42
 4708 0330 0E000000 		.4byte	.LVL43
 4709 0334 0100     		.2byte	0x1
 4710 0336 50       		.byte	0x50
 4711 0337 00000000 		.4byte	0
 4712 033b 00000000 		.4byte	0
 4713              	.LLST31:
 4714 033f 16000000 		.4byte	.LVL44
 4715 0343 48000000 		.4byte	.LVL50
 4716 0347 0100     		.2byte	0x1
 4717 0349 54       		.byte	0x54
 4718 034a 00000000 		.4byte	0
 4719 034e 00000000 		.4byte	0
 4720              	.LLST32:
 4721 0352 1C000000 		.4byte	.LVL45
 4722 0356 48000000 		.4byte	.LVL51
 4723 035a 0100     		.2byte	0x1
 4724 035c 56       		.byte	0x56
 4725 035d 00000000 		.4byte	0
 4726 0361 00000000 		.4byte	0
 4727              	.LLST33:
 4728 0365 1E000000 		.4byte	.LVL46
 4729 0369 2C000000 		.4byte	.LVL47
 4730 036d 0100     		.2byte	0x1
 4731 036f 53       		.byte	0x53
 4732 0370 32000000 		.4byte	.LVL48
 4733 0374 44000000 		.4byte	.LVL49
 4734 0378 0100     		.2byte	0x1
 4735 037a 53       		.byte	0x53
 4736 037b 00000000 		.4byte	0
 4737 037f 00000000 		.4byte	0
 4738              	.LLST34:
 4739 0383 00000000 		.4byte	.LFB53
 4740 0387 02000000 		.4byte	.LCFI11
ARM GAS  C:\Users\Rob\AppData\Local\Temp\ccAwpbdX.s 			page 86


 4741 038b 0200     		.2byte	0x2
 4742 038d 7D       		.byte	0x7d
 4743 038e 00       		.sleb128 0
 4744 038f 02000000 		.4byte	.LCFI11
 4745 0393 14000000 		.4byte	.LFE53
 4746 0397 0200     		.2byte	0x2
 4747 0399 7D       		.byte	0x7d
 4748 039a 08       		.sleb128 8
 4749 039b 00000000 		.4byte	0
 4750 039f 00000000 		.4byte	0
 4751              	.LLST35:
 4752 03a3 00000000 		.4byte	.LFB55
 4753 03a7 02000000 		.4byte	.LCFI12
 4754 03ab 0200     		.2byte	0x2
 4755 03ad 7D       		.byte	0x7d
 4756 03ae 00       		.sleb128 0
 4757 03af 02000000 		.4byte	.LCFI12
 4758 03b3 38000000 		.4byte	.LFE55
 4759 03b7 0200     		.2byte	0x2
 4760 03b9 7D       		.byte	0x7d
 4761 03ba 08       		.sleb128 8
 4762 03bb 00000000 		.4byte	0
 4763 03bf 00000000 		.4byte	0
 4764              	.LLST36:
 4765 03c3 02000000 		.4byte	.LVL52
 4766 03c7 10000000 		.4byte	.LVL53
 4767 03cb 0100     		.2byte	0x1
 4768 03cd 50       		.byte	0x50
 4769 03ce 00000000 		.4byte	0
 4770 03d2 00000000 		.4byte	0
 4771              	.LLST37:
 4772 03d6 00000000 		.4byte	.LFB58
 4773 03da 02000000 		.4byte	.LCFI13
 4774 03de 0200     		.2byte	0x2
 4775 03e0 7D       		.byte	0x7d
 4776 03e1 00       		.sleb128 0
 4777 03e2 02000000 		.4byte	.LCFI13
 4778 03e6 0C000000 		.4byte	.LCFI14
 4779 03ea 0200     		.2byte	0x2
 4780 03ec 7D       		.byte	0x7d
 4781 03ed 14       		.sleb128 20
 4782 03ee 0C000000 		.4byte	.LCFI14
 4783 03f2 10000000 		.4byte	.LCFI15
 4784 03f6 0200     		.2byte	0x2
 4785 03f8 7D       		.byte	0x7d
 4786 03f9 24       		.sleb128 36
 4787 03fa 10000000 		.4byte	.LCFI15
 4788 03fe 50020000 		.4byte	.LFE58
 4789 0402 0200     		.2byte	0x2
 4790 0404 7D       		.byte	0x7d
 4791 0405 30       		.sleb128 48
 4792 0406 00000000 		.4byte	0
 4793 040a 00000000 		.4byte	0
 4794              	.LLST38:
 4795 040e 0C000000 		.4byte	.LVL54
 4796 0412 14000000 		.4byte	.LVL55
 4797 0416 0100     		.2byte	0x1
ARM GAS  C:\Users\Rob\AppData\Local\Temp\ccAwpbdX.s 			page 87


 4798 0418 50       		.byte	0x50
 4799 0419 14000000 		.4byte	.LVL55
 4800 041d 17000000 		.4byte	.LVL56-1
 4801 0421 0500     		.2byte	0x5
 4802 0423 03       		.byte	0x3
 4803 0424 00000000 		.4byte	chp
 4804 0428 00000000 		.4byte	0
 4805 042c 00000000 		.4byte	0
 4806              	.LLST39:
 4807 0430 90000000 		.4byte	.LVL57
 4808 0434 A2000000 		.4byte	.LVL58
 4809 0438 0200     		.2byte	0x2
 4810 043a 30       		.byte	0x30
 4811 043b 9F       		.byte	0x9f
 4812 043c 66010000 		.4byte	.LVL73
 4813 0440 92010000 		.4byte	.LVL74
 4814 0444 0200     		.2byte	0x2
 4815 0446 7D       		.byte	0x7d
 4816 0447 00       		.sleb128 0
 4817 0448 92010000 		.4byte	.LVL74
 4818 044c A0010000 		.4byte	.LVL76
 4819 0450 0200     		.2byte	0x2
 4820 0452 91       		.byte	0x91
 4821 0453 74       		.sleb128 -12
 4822 0454 A8010000 		.4byte	.LVL77
 4823 0458 50020000 		.4byte	.LFE58
 4824 045c 0200     		.2byte	0x2
 4825 045e 7D       		.byte	0x7d
 4826 045f 00       		.sleb128 0
 4827 0460 00000000 		.4byte	0
 4828 0464 00000000 		.4byte	0
 4829              	.LLST40:
 4830 0468 AC000000 		.4byte	.LVL59
 4831 046c CC000000 		.4byte	.LVL60
 4832 0470 0100     		.2byte	0x1
 4833 0472 5A       		.byte	0x5a
 4834 0473 CC000000 		.4byte	.LVL60
 4835 0477 60010000 		.4byte	.LVL72
 4836 047b 0300     		.2byte	0x3
 4837 047d 7A       		.byte	0x7a
 4838 047e 7F       		.sleb128 -1
 4839 047f 9F       		.byte	0x9f
 4840 0480 60010000 		.4byte	.LVL72
 4841 0484 94010000 		.4byte	.LVL75
 4842 0488 0100     		.2byte	0x1
 4843 048a 5A       		.byte	0x5a
 4844 048b A0010000 		.4byte	.LVL76
 4845 048f A8010000 		.4byte	.LVL77
 4846 0493 0300     		.2byte	0x3
 4847 0495 7A       		.byte	0x7a
 4848 0496 7F       		.sleb128 -1
 4849 0497 9F       		.byte	0x9f
 4850 0498 A8010000 		.4byte	.LVL77
 4851 049c 50020000 		.4byte	.LFE58
 4852 04a0 0100     		.2byte	0x1
 4853 04a2 5A       		.byte	0x5a
 4854 04a3 00000000 		.4byte	0
ARM GAS  C:\Users\Rob\AppData\Local\Temp\ccAwpbdX.s 			page 88


 4855 04a7 00000000 		.4byte	0
 4856              	.LLST41:
 4857 04ab 40010000 		.4byte	.LVL68
 4858 04af 48010000 		.4byte	.LVL69
 4859 04b3 0600     		.2byte	0x6
 4860 04b5 03       		.byte	0x3
 4861 04b6 00000000 		.4byte	tokens_buffer
 4862 04ba 9F       		.byte	0x9f
 4863 04bb 50010000 		.4byte	.LVL70
 4864 04bf 5A010000 		.4byte	.LVL71
 4865 04c3 0100     		.2byte	0x1
 4866 04c5 55       		.byte	0x55
 4867 04c6 00000000 		.4byte	0
 4868 04ca 00000000 		.4byte	0
 4869              	.LLST42:
 4870 04ce 00010000 		.4byte	.LVL61
 4871 04d2 13010000 		.4byte	.LVL67-1
 4872 04d6 0200     		.2byte	0x2
 4873 04d8 77       		.byte	0x77
 4874 04d9 7C       		.sleb128 -4
 4875 04da 13010000 		.4byte	.LVL67-1
 4876 04de 48010000 		.4byte	.LVL69
 4877 04e2 0100     		.2byte	0x1
 4878 04e4 55       		.byte	0x55
 4879 04e5 A0010000 		.4byte	.LVL76
 4880 04e9 A8010000 		.4byte	.LVL77
 4881 04ed 0100     		.2byte	0x1
 4882 04ef 55       		.byte	0x55
 4883 04f0 00000000 		.4byte	0
 4884 04f4 00000000 		.4byte	0
 4885              	.LLST43:
 4886 04f8 00010000 		.4byte	.LVL61
 4887 04fc 04010000 		.4byte	.LVL62
 4888 0500 0200     		.2byte	0x2
 4889 0502 30       		.byte	0x30
 4890 0503 9F       		.byte	0x9f
 4891 0504 04010000 		.4byte	.LVL62
 4892 0508 06010000 		.4byte	.LVL63
 4893 050c 0200     		.2byte	0x2
 4894 050e 31       		.byte	0x31
 4895 050f 9F       		.byte	0x9f
 4896 0510 06010000 		.4byte	.LVL63
 4897 0514 08010000 		.4byte	.LVL64
 4898 0518 0200     		.2byte	0x2
 4899 051a 32       		.byte	0x32
 4900 051b 9F       		.byte	0x9f
 4901 051c 08010000 		.4byte	.LVL64
 4902 0520 0A010000 		.4byte	.LVL65
 4903 0524 0200     		.2byte	0x2
 4904 0526 33       		.byte	0x33
 4905 0527 9F       		.byte	0x9f
 4906 0528 0A010000 		.4byte	.LVL65
 4907 052c 0C010000 		.4byte	.LVL66
 4908 0530 0200     		.2byte	0x2
 4909 0532 34       		.byte	0x34
 4910 0533 9F       		.byte	0x9f
 4911 0534 0C010000 		.4byte	.LVL66
ARM GAS  C:\Users\Rob\AppData\Local\Temp\ccAwpbdX.s 			page 89


 4912 0538 66010000 		.4byte	.LVL73
 4913 053c 0200     		.2byte	0x2
 4914 053e 35       		.byte	0x35
 4915 053f 9F       		.byte	0x9f
 4916 0540 A0010000 		.4byte	.LVL76
 4917 0544 A8010000 		.4byte	.LVL77
 4918 0548 0200     		.2byte	0x2
 4919 054a 35       		.byte	0x35
 4920 054b 9F       		.byte	0x9f
 4921 054c 00000000 		.4byte	0
 4922 0550 00000000 		.4byte	0
 4923              		.section	.debug_aranges,"",%progbits
 4924 0000 94000000 		.4byte	0x94
 4925 0004 0200     		.2byte	0x2
 4926 0006 00000000 		.4byte	.Ldebug_info0
 4927 000a 04       		.byte	0x4
 4928 000b 00       		.byte	0
 4929 000c 0000     		.2byte	0
 4930 000e 0000     		.2byte	0
 4931 0010 00000000 		.4byte	.LFB54
 4932 0014 0C000000 		.4byte	.LFE54-.LFB54
 4933 0018 00000000 		.4byte	.LFB57
 4934 001c 2C000000 		.4byte	.LFE57-.LFB57
 4935 0020 00000000 		.4byte	.LFB40
 4936 0024 60000000 		.4byte	.LFE40-.LFB40
 4937 0028 00000000 		.4byte	.LFB41
 4938 002c 24000000 		.4byte	.LFE41-.LFB41
 4939 0030 00000000 		.4byte	.LFB42
 4940 0034 20000000 		.4byte	.LFE42-.LFB42
 4941 0038 00000000 		.4byte	.LFB45
 4942 003c 14000000 		.4byte	.LFE45-.LFB45
 4943 0040 00000000 		.4byte	.LFB46
 4944 0044 20000000 		.4byte	.LFE46-.LFB46
 4945 0048 00000000 		.4byte	.LFB47
 4946 004c 28000000 		.4byte	.LFE47-.LFB47
 4947 0050 00000000 		.4byte	.LFB48
 4948 0054 50000000 		.4byte	.LFE48-.LFB48
 4949 0058 00000000 		.4byte	.LFB49
 4950 005c 34000000 		.4byte	.LFE49-.LFB49
 4951 0060 00000000 		.4byte	.LFB50
 4952 0064 1C000000 		.4byte	.LFE50-.LFB50
 4953 0068 00000000 		.4byte	.LFB51
 4954 006c 24000000 		.4byte	.LFE51-.LFB51
 4955 0070 00000000 		.4byte	.LFB52
 4956 0074 54000000 		.4byte	.LFE52-.LFB52
 4957 0078 00000000 		.4byte	.LFB53
 4958 007c 14000000 		.4byte	.LFE53-.LFB53
 4959 0080 00000000 		.4byte	.LFB55
 4960 0084 38000000 		.4byte	.LFE55-.LFB55
 4961 0088 00000000 		.4byte	.LFB58
 4962 008c 50020000 		.4byte	.LFE58-.LFB58
 4963 0090 00000000 		.4byte	0
 4964 0094 00000000 		.4byte	0
 4965              		.section	.debug_ranges,"",%progbits
 4966              	.Ldebug_ranges0:
 4967 0000 0A000000 		.4byte	.LBB26
 4968 0004 12000000 		.4byte	.LBE26
ARM GAS  C:\Users\Rob\AppData\Local\Temp\ccAwpbdX.s 			page 90


 4969 0008 14000000 		.4byte	.LBB29
 4970 000c 1A000000 		.4byte	.LBE29
 4971 0010 00000000 		.4byte	0
 4972 0014 00000000 		.4byte	0
 4973 0018 9C000000 		.4byte	.LBB38
 4974 001c 9E000000 		.4byte	.LBE38
 4975 0020 A4000000 		.4byte	.LBB53
 4976 0024 A6000000 		.4byte	.LBE53
 4977 0028 AA000000 		.4byte	.LBB54
 4978 002c AC000000 		.4byte	.LBE54
 4979 0030 40010000 		.4byte	.LBB57
 4980 0034 5A010000 		.4byte	.LBE57
 4981 0038 00000000 		.4byte	0
 4982 003c 00000000 		.4byte	0
 4983 0040 9C000000 		.4byte	.LBB39
 4984 0044 9E000000 		.4byte	.LBE39
 4985 0048 A4000000 		.4byte	.LBB40
 4986 004c A6000000 		.4byte	.LBE40
 4987 0050 AA000000 		.4byte	.LBB41
 4988 0054 AC000000 		.4byte	.LBE41
 4989 0058 40010000 		.4byte	.LBB42
 4990 005c 5A010000 		.4byte	.LBE42
 4991 0060 00000000 		.4byte	0
 4992 0064 00000000 		.4byte	0
 4993 0068 9E000000 		.4byte	.LBB43
 4994 006c A2000000 		.4byte	.LBE43
 4995 0070 EC000000 		.4byte	.LBB55
 4996 0074 FE000000 		.4byte	.LBE55
 4997 0078 00010000 		.4byte	.LBB56
 4998 007c 24010000 		.4byte	.LBE56
 4999 0080 00000000 		.4byte	0
 5000 0084 00000000 		.4byte	0
 5001 0088 9E000000 		.4byte	.LBB44
 5002 008c A2000000 		.4byte	.LBE44
 5003 0090 EC000000 		.4byte	.LBB51
 5004 0094 FE000000 		.4byte	.LBE51
 5005 0098 00010000 		.4byte	.LBB52
 5006 009c 24010000 		.4byte	.LBE52
 5007 00a0 00000000 		.4byte	0
 5008 00a4 00000000 		.4byte	0
 5009 00a8 9E000000 		.4byte	.LBB45
 5010 00ac A2000000 		.4byte	.LBE45
 5011 00b0 EE000000 		.4byte	.LBB49
 5012 00b4 F2000000 		.4byte	.LBE49
 5013 00b8 F4000000 		.4byte	.LBB50
 5014 00bc F6000000 		.4byte	.LBE50
 5015 00c0 00000000 		.4byte	0
 5016 00c4 00000000 		.4byte	0
 5017 00c8 00000000 		.4byte	.LFB54
 5018 00cc 0C000000 		.4byte	.LFE54
 5019 00d0 00000000 		.4byte	.LFB57
 5020 00d4 2C000000 		.4byte	.LFE57
 5021 00d8 00000000 		.4byte	.LFB40
 5022 00dc 60000000 		.4byte	.LFE40
 5023 00e0 00000000 		.4byte	.LFB41
 5024 00e4 24000000 		.4byte	.LFE41
 5025 00e8 00000000 		.4byte	.LFB42
ARM GAS  C:\Users\Rob\AppData\Local\Temp\ccAwpbdX.s 			page 91


 5026 00ec 20000000 		.4byte	.LFE42
 5027 00f0 00000000 		.4byte	.LFB45
 5028 00f4 14000000 		.4byte	.LFE45
 5029 00f8 00000000 		.4byte	.LFB46
 5030 00fc 20000000 		.4byte	.LFE46
 5031 0100 00000000 		.4byte	.LFB47
 5032 0104 28000000 		.4byte	.LFE47
 5033 0108 00000000 		.4byte	.LFB48
 5034 010c 50000000 		.4byte	.LFE48
 5035 0110 00000000 		.4byte	.LFB49
 5036 0114 34000000 		.4byte	.LFE49
 5037 0118 00000000 		.4byte	.LFB50
 5038 011c 1C000000 		.4byte	.LFE50
 5039 0120 00000000 		.4byte	.LFB51
 5040 0124 24000000 		.4byte	.LFE51
 5041 0128 00000000 		.4byte	.LFB52
 5042 012c 54000000 		.4byte	.LFE52
 5043 0130 00000000 		.4byte	.LFB53
 5044 0134 14000000 		.4byte	.LFE53
 5045 0138 00000000 		.4byte	.LFB55
 5046 013c 38000000 		.4byte	.LFE55
 5047 0140 00000000 		.4byte	.LFB58
 5048 0144 50020000 		.4byte	.LFE58
 5049 0148 00000000 		.4byte	0
 5050 014c 00000000 		.4byte	0
 5051              		.section	.debug_line,"",%progbits
 5052              	.Ldebug_line0:
 5053 0000 3A040000 		.section	.debug_str,"MS",%progbits,1
 5053      0200E401 
 5053      00000201 
 5053      FB0E0D00 
 5053      01010101 
 5054              	.LASF102:
 5055 0000 74657374 		.ascii	"test_wait_threads\000"
 5055      5F776169 
 5055      745F7468 
 5055      72656164 
 5055      7300
 5056              	.LASF50:
 5057 0012 76746675 		.ascii	"vtfunc_t\000"
 5057      6E635F74 
 5057      00
 5058              	.LASF45:
 5059 001b 54687265 		.ascii	"ThreadsList\000"
 5059      6164734C 
 5059      69737400 
 5060              	.LASF37:
 5061 0027 705F7761 		.ascii	"p_waiting\000"
 5061      6974696E 
 5061      6700
 5062              	.LASF80:
 5063 0031 6E616D65 		.ascii	"name\000"
 5063      00
 5064              	.LASF116:
 5065 0036 70617474 		.ascii	"patternmbox\000"
 5065      65726E6D 
 5065      626F7800 
ARM GAS  C:\Users\Rob\AppData\Local\Temp\ccAwpbdX.s 			page 92


 5066              	.LASF36:
 5067 0042 705F7469 		.ascii	"p_time\000"
 5067      6D6500
 5068              	.LASF46:
 5069 0049 72656761 		.ascii	"regarm_t\000"
 5069      726D5F74 
 5069      00
 5070              	.LASF130:
 5071 0052 2E2E2F2E 		.ascii	"../../test/test.c\000"
 5071      2E2F7465 
 5071      73742F74 
 5071      6573742E 
 5071      6300
 5072              	.LASF120:
 5073 0064 70617474 		.ascii	"patterndyn\000"
 5073      65726E64 
 5073      796E00
 5074              	.LASF99:
 5075 006f 5F746573 		.ascii	"_test_assert_time_window\000"
 5075      745F6173 
 5075      73657274 
 5075      5F74696D 
 5075      655F7769 
 5076              	.LASF23:
 5077 0088 73797374 		.ascii	"systime_t\000"
 5077      696D655F 
 5077      7400
 5078              	.LASF84:
 5079 0092 62756666 		.ascii	"buffer\000"
 5079      657200
 5080              	.LASF68:
 5081 0099 6D5F6F77 		.ascii	"m_owner\000"
 5081      6E657200 
 5082              	.LASF57:
 5083 00a1 76745F73 		.ascii	"vt_systime\000"
 5083      79737469 
 5083      6D6500
 5084              	.LASF38:
 5085 00ac 705F6D73 		.ascii	"p_msgqueue\000"
 5085      67717565 
 5085      756500
 5086              	.LASF0:
 5087 00b7 756E7369 		.ascii	"unsigned int\000"
 5087      676E6564 
 5087      20696E74 
 5087      00
 5088              	.LASF75:
 5089 00c4 42617365 		.ascii	"BaseSequentialStreamVMT\000"
 5089      53657175 
 5089      656E7469 
 5089      616C5374 
 5089      7265616D 
 5090              	.LASF72:
 5091 00dc 77746F62 		.ascii	"wtobjp\000"
 5091      6A7000
 5092              	.LASF107:
 5093 00e3 76746C69 		.ascii	"vtlist\000"
ARM GAS  C:\Users\Rob\AppData\Local\Temp\ccAwpbdX.s 			page 93


 5093      737400
 5094              	.LASF87:
 5095 00ea 5F746573 		.ascii	"_test_assert\000"
 5095      745F6173 
 5095      73657274 
 5095      00
 5096              	.LASF73:
 5097 00f7 65776D61 		.ascii	"ewmask\000"
 5097      736B00
 5098              	.LASF127:
 5099 00fe 746F6B65 		.ascii	"tokens_buffer\000"
 5099      6E735F62 
 5099      75666665 
 5099      7200
 5100              	.LASF54:
 5101 010c 76745F74 		.ascii	"vt_time\000"
 5101      696D6500 
 5102              	.LASF9:
 5103 0114 75696E74 		.ascii	"uint32_t\000"
 5103      33325F74 
 5103      00
 5104              	.LASF22:
 5105 011d 6576656E 		.ascii	"eventmask_t\000"
 5105      746D6173 
 5105      6B5F7400 
 5106              	.LASF60:
 5107 0129 725F7072 		.ascii	"r_prio\000"
 5107      696F00
 5108              	.LASF56:
 5109 0130 76745F70 		.ascii	"vt_par\000"
 5109      617200
 5110              	.LASF115:
 5111 0137 70617474 		.ascii	"patternmsg\000"
 5111      65726E6D 
 5111      736700
 5112              	.LASF27:
 5113 0142 705F7072 		.ascii	"p_prio\000"
 5113      696F00
 5114              	.LASF20:
 5115 0149 74707269 		.ascii	"tprio_t\000"
 5115      6F5F7400 
 5116              	.LASF104:
 5117 0151 64757261 		.ascii	"duration\000"
 5117      74696F6E 
 5117      00
 5118              	.LASF135:
 5119 015a 74657374 		.ascii	"test_wait_tick\000"
 5119      5F776169 
 5119      745F7469 
 5119      636B00
 5120              	.LASF13:
 5121 0169 6C6F6E67 		.ascii	"long long unsigned int\000"
 5121      206C6F6E 
 5121      6720756E 
 5121      7369676E 
 5121      65642069 
 5122              	.LASF117:
ARM GAS  C:\Users\Rob\AppData\Local\Temp\ccAwpbdX.s 			page 94


 5123 0180 70617474 		.ascii	"patternevt\000"
 5123      65726E65 
 5123      767400
 5124              	.LASF86:
 5125 018b 5F746573 		.ascii	"_test_fail\000"
 5125      745F6661 
 5125      696C00
 5126              	.LASF112:
 5127 0196 70617474 		.ascii	"patternthd\000"
 5127      65726E74 
 5127      686400
 5128              	.LASF79:
 5129 01a1 74657374 		.ascii	"testcase\000"
 5129      63617365 
 5129      00
 5130              	.LASF29:
 5131 01aa 705F6E65 		.ascii	"p_newer\000"
 5131      77657200 
 5132              	.LASF124:
 5133 01b2 6C6F6361 		.ascii	"local_fail\000"
 5133      6C5F6661 
 5133      696C00
 5134              	.LASF114:
 5135 01bd 70617474 		.ascii	"patternmtx\000"
 5135      65726E6D 
 5135      747800
 5136              	.LASF2:
 5137 01c8 73697A65 		.ascii	"size_t\000"
 5137      5F7400
 5138              	.LASF70:
 5139 01cf 7264796D 		.ascii	"rdymsg\000"
 5139      736700
 5140              	.LASF14:
 5141 01d6 626F6F6C 		.ascii	"bool_t\000"
 5141      5F7400
 5142              	.LASF15:
 5143 01dd 5F426F6F 		.ascii	"_Bool\000"
 5143      6C00
 5144              	.LASF66:
 5145 01e3 4D757465 		.ascii	"Mutex\000"
 5145      7800
 5146              	.LASF93:
 5147 01e9 74657374 		.ascii	"test_print\000"
 5147      5F707269 
 5147      6E7400
 5148              	.LASF126:
 5149 01f4 6661696C 		.ascii	"failpoint\000"
 5149      706F696E 
 5149      7400
 5150              	.LASF31:
 5151 01fe 705F6E61 		.ascii	"p_name\000"
 5151      6D6500
 5152              	.LASF78:
 5153 0205 42617365 		.ascii	"BaseSequentialStream\000"
 5153      53657175 
 5153      656E7469 
 5153      616C5374 
ARM GAS  C:\Users\Rob\AppData\Local\Temp\ccAwpbdX.s 			page 95


 5153      7265616D 
 5154              	.LASF91:
 5155 021a 7072696E 		.ascii	"print_line\000"
 5155      745F6C69 
 5155      6E6500
 5156              	.LASF118:
 5157 0225 70617474 		.ascii	"patternheap\000"
 5157      65726E68 
 5157      65617000 
 5158              	.LASF44:
 5159 0231 54687265 		.ascii	"ThreadsQueue\000"
 5159      61647351 
 5159      75657565 
 5159      00
 5160              	.LASF74:
 5161 023e 63686172 		.ascii	"char\000"
 5161      00
 5162              	.LASF62:
 5163 0243 725F6E65 		.ascii	"r_newer\000"
 5163      77657200 
 5164              	.LASF24:
 5165 024b 54687265 		.ascii	"Thread\000"
 5165      616400
 5166              	.LASF17:
 5167 0252 74737461 		.ascii	"tstate_t\000"
 5167      74655F74 
 5167      00
 5168              	.LASF58:
 5169 025b 56544C69 		.ascii	"VTList\000"
 5169      737400
 5170              	.LASF30:
 5171 0262 705F6F6C 		.ascii	"p_older\000"
 5171      64657200 
 5172              	.LASF32:
 5173 026a 705F7374 		.ascii	"p_state\000"
 5173      61746500 
 5174              	.LASF3:
 5175 0272 75696E74 		.ascii	"uint8_t\000"
 5175      385F7400 
 5176              	.LASF122:
 5177 027a 70617474 		.ascii	"patternbmk\000"
 5177      65726E62 
 5177      6D6B00
 5178              	.LASF43:
 5179 0285 705F6D70 		.ascii	"p_mpool\000"
 5179      6F6F6C00 
 5180              	.LASF41:
 5181 028d 705F6D74 		.ascii	"p_mtxlist\000"
 5181      786C6973 
 5181      7400
 5182              	.LASF83:
 5183 0297 65786563 		.ascii	"execute\000"
 5183      75746500 
 5184              	.LASF105:
 5185 029f 74657374 		.ascii	"test_start_timer\000"
 5185      5F737461 
 5185      72745F74 
ARM GAS  C:\Users\Rob\AppData\Local\Temp\ccAwpbdX.s 			page 96


 5185      696D6572 
 5185      00
 5186              	.LASF11:
 5187 02b0 6C6F6E67 		.ascii	"long long int\000"
 5187      206C6F6E 
 5187      6720696E 
 5187      7400
 5188              	.LASF76:
 5189 02be 77726974 		.ascii	"write\000"
 5189      6500
 5190              	.LASF59:
 5191 02c4 725F7175 		.ascii	"r_queue\000"
 5191      65756500 
 5192              	.LASF21:
 5193 02cc 6D73675F 		.ascii	"msg_t\000"
 5193      7400
 5194              	.LASF49:
 5195 02d2 636F6E74 		.ascii	"context\000"
 5195      65787400 
 5196              	.LASF97:
 5197 02da 65787065 		.ascii	"expected\000"
 5197      63746564 
 5197      00
 5198              	.LASF82:
 5199 02e3 74656172 		.ascii	"teardown\000"
 5199      646F776E 
 5199      00
 5200              	.LASF106:
 5201 02ec 54657374 		.ascii	"TestThread\000"
 5201      54687265 
 5201      616400
 5202              	.LASF33:
 5203 02f7 705F666C 		.ascii	"p_flags\000"
 5203      61677300 
 5204              	.LASF119:
 5205 02ff 70617474 		.ascii	"patternpools\000"
 5205      65726E70 
 5205      6F6F6C73 
 5205      00
 5206              	.LASF128:
 5207 030c 746F6B70 		.ascii	"tokp\000"
 5207      00
 5208              	.LASF19:
 5209 0311 74736C69 		.ascii	"tslices_t\000"
 5209      6365735F 
 5209      7400
 5210              	.LASF63:
 5211 031b 725F6F6C 		.ascii	"r_older\000"
 5211      64657200 
 5212              	.LASF110:
 5213 0323 74657374 		.ascii	"test\000"
 5213      00
 5214              	.LASF39:
 5215 0328 705F6D73 		.ascii	"p_msg\000"
 5215      6700
 5216              	.LASF16:
 5217 032e 746D6F64 		.ascii	"tmode_t\000"
ARM GAS  C:\Users\Rob\AppData\Local\Temp\ccAwpbdX.s 			page 97


 5217      655F7400 
 5218              	.LASF101:
 5219 0336 74657374 		.ascii	"test_terminate_threads\000"
 5219      5F746572 
 5219      6D696E61 
 5219      74655F74 
 5219      68726561 
 5220              	.LASF96:
 5221 034d 746F6B65 		.ascii	"token\000"
 5221      6E00
 5222              	.LASF113:
 5223 0353 70617474 		.ascii	"patternsem\000"
 5223      65726E73 
 5223      656D00
 5224              	.LASF48:
 5225 035e 696E7463 		.ascii	"intctx\000"
 5225      747800
 5226              	.LASF4:
 5227 0365 756E7369 		.ascii	"unsigned char\000"
 5227      676E6564 
 5227      20636861 
 5227      7200
 5228              	.LASF42:
 5229 0373 705F7265 		.ascii	"p_realprio\000"
 5229      616C7072 
 5229      696F00
 5230              	.LASF5:
 5231 037e 73686F72 		.ascii	"short int\000"
 5231      7420696E 
 5231      7400
 5232              	.LASF64:
 5233 0388 725F6375 		.ascii	"r_current\000"
 5233      7272656E 
 5233      7400
 5234              	.LASF40:
 5235 0392 705F6570 		.ascii	"p_epending\000"
 5235      656E6469 
 5235      6E6700
 5236              	.LASF67:
 5237 039d 6D5F7175 		.ascii	"m_queue\000"
 5237      65756500 
 5238              	.LASF8:
 5239 03a5 6C6F6E67 		.ascii	"long int\000"
 5239      20696E74 
 5239      00
 5240              	.LASF25:
 5241 03ae 705F6E65 		.ascii	"p_next\000"
 5241      787400
 5242              	.LASF12:
 5243 03b5 75696E74 		.ascii	"uint64_t\000"
 5243      36345F74 
 5243      00
 5244              	.LASF28:
 5245 03be 705F6374 		.ascii	"p_ctx\000"
 5245      7800
 5246              	.LASF108:
 5247 03c4 726C6973 		.ascii	"rlist\000"
ARM GAS  C:\Users\Rob\AppData\Local\Temp\ccAwpbdX.s 			page 98


 5247      7400
 5248              	.LASF51:
 5249 03ca 56697274 		.ascii	"VirtualTimer\000"
 5249      75616C54 
 5249      696D6572 
 5249      00
 5250              	.LASF77:
 5251 03d7 72656164 		.ascii	"read\000"
 5251      00
 5252              	.LASF100:
 5253 03dc 73746172 		.ascii	"start\000"
 5253      7400
 5254              	.LASF26:
 5255 03e2 705F7072 		.ascii	"p_prev\000"
 5255      657600
 5256              	.LASF18:
 5257 03e9 74726566 		.ascii	"trefs_t\000"
 5257      735F7400 
 5258              	.LASF10:
 5259 03f1 6C6F6E67 		.ascii	"long unsigned int\000"
 5259      20756E73 
 5259      69676E65 
 5259      6420696E 
 5259      7400
 5260              	.LASF103:
 5261 0403 74657374 		.ascii	"test_cpu_pulse\000"
 5261      5F637075 
 5261      5F70756C 
 5261      736500
 5262              	.LASF95:
 5263 0412 74657374 		.ascii	"test_emit_token\000"
 5263      5F656D69 
 5263      745F746F 
 5263      6B656E00 
 5264              	.LASF109:
 5265 0422 74687265 		.ascii	"threads\000"
 5265      61647300 
 5266              	.LASF133:
 5267 042a 74657374 		.ascii	"test_printn\000"
 5267      5F707269 
 5267      6E746E00 
 5268              	.LASF98:
 5269 0436 5F746573 		.ascii	"_test_assert_sequence\000"
 5269      745F6173 
 5269      73657274 
 5269      5F736571 
 5269      75656E63 
 5270              	.LASF7:
 5271 044c 696E7433 		.ascii	"int32_t\000"
 5271      325F7400 
 5272              	.LASF129:
 5273 0454 474E5520 		.ascii	"GNU C 4.6.2\000"
 5273      4320342E 
 5273      362E3200 
 5274              	.LASF131:
 5275 0460 433A5C55 		.ascii	"C:\\Users\\Rob\\Projects\\ECE411Practicum\\src\\vir"
 5275      73657273 
ARM GAS  C:\Users\Rob\AppData\Local\Temp\ccAwpbdX.s 			page 99


 5275      5C526F62 
 5275      5C50726F 
 5275      6A656374 
 5276 048d 756C656E 		.ascii	"ulent\000"
 5276      7400
 5277              	.LASF81:
 5278 0493 73657475 		.ascii	"setup\000"
 5278      7000
 5279              	.LASF34:
 5280 0499 705F7265 		.ascii	"p_refs\000"
 5280      667300
 5281              	.LASF65:
 5282 04a0 52656164 		.ascii	"ReadyList\000"
 5282      794C6973 
 5282      7400
 5283              	.LASF123:
 5284 04aa 70617474 		.ascii	"patterns\000"
 5284      65726E73 
 5284      00
 5285              	.LASF35:
 5286 04b3 705F7072 		.ascii	"p_preempt\000"
 5286      65656D70 
 5286      7400
 5287              	.LASF121:
 5288 04bd 70617474 		.ascii	"patternqueues\000"
 5288      65726E71 
 5288      75657565 
 5288      7300
 5289              	.LASF132:
 5290 04cb 74657374 		.ascii	"test_buffers\000"
 5290      5F627566 
 5290      66657273 
 5290      00
 5291              	.LASF52:
 5292 04d8 76745F6E 		.ascii	"vt_next\000"
 5292      65787400 
 5293              	.LASF69:
 5294 04e0 6D5F6E65 		.ascii	"m_next\000"
 5294      787400
 5295              	.LASF1:
 5296 04e7 7369676E 		.ascii	"signed char\000"
 5296      65642063 
 5296      68617200 
 5297              	.LASF90:
 5298 04f3 7072696E 		.ascii	"print_tokens\000"
 5298      745F746F 
 5298      6B656E73 
 5298      00
 5299              	.LASF6:
 5300 0500 73686F72 		.ascii	"short unsigned int\000"
 5300      7420756E 
 5300      7369676E 
 5300      65642069 
 5300      6E7400
 5301              	.LASF61:
 5302 0513 725F6374 		.ascii	"r_ctx\000"
 5302      7800
ARM GAS  C:\Users\Rob\AppData\Local\Temp\ccAwpbdX.s 			page 100


 5303              	.LASF47:
 5304 0519 73746B61 		.ascii	"stkalign_t\000"
 5304      6C69676E 
 5304      5F7400
 5305              	.LASF125:
 5306 0524 676C6F62 		.ascii	"global_fail\000"
 5306      616C5F66 
 5306      61696C00 
 5307              	.LASF89:
 5308 0530 65786563 		.ascii	"execute_test\000"
 5308      7574655F 
 5308      74657374 
 5308      00
 5309              	.LASF85:
 5310 053d 706F696E 		.ascii	"point\000"
 5310      7400
 5311              	.LASF92:
 5312 0543 6D736770 		.ascii	"msgp\000"
 5312      00
 5313              	.LASF55:
 5314 0548 76745F66 		.ascii	"vt_func\000"
 5314      756E6300 
 5315              	.LASF53:
 5316 0550 76745F70 		.ascii	"vt_prev\000"
 5316      72657600 
 5317              	.LASF111:
 5318 0558 74657374 		.ascii	"test_timer_done\000"
 5318      5F74696D 
 5318      65725F64 
 5318      6F6E6500 
 5319              	.LASF94:
 5320 0568 74657374 		.ascii	"test_println\000"
 5320      5F707269 
 5320      6E746C6E 
 5320      00
 5321              	.LASF88:
 5322 0575 636F6E64 		.ascii	"condition\000"
 5322      6974696F 
 5322      6E00
 5323              	.LASF71:
 5324 057f 65786974 		.ascii	"exitcode\000"
 5324      636F6465 
 5324      00
 5325              	.LASF134:
 5326 0588 636C6561 		.ascii	"clear_tokens\000"
 5326      725F746F 
 5326      6B656E73 
 5326      00
 5327              		.ident	"GCC: (GNU) 4.6.2"
ARM GAS  C:\Users\Rob\AppData\Local\Temp\ccAwpbdX.s 			page 101


DEFINED SYMBOLS
                            *ABS*:00000000 test.c
C:\Users\Rob\AppData\Local\Temp\ccAwpbdX.s:17     .text.tmr:00000000 $t
C:\Users\Rob\AppData\Local\Temp\ccAwpbdX.s:22     .text.tmr:00000000 tmr
C:\Users\Rob\AppData\Local\Temp\ccAwpbdX.s:38     .text.tmr:00000008 $d
C:\Users\Rob\AppData\Local\Temp\ccAwpbdX.s:43     .text.print_line:00000000 $t
C:\Users\Rob\AppData\Local\Temp\ccAwpbdX.s:48     .text.print_line:00000000 print_line
C:\Users\Rob\AppData\Local\Temp\ccAwpbdX.s:88     .text.print_line:00000024 $d
C:\Users\Rob\AppData\Local\Temp\ccAwpbdX.s:96     .text.test_printn:00000000 $t
C:\Users\Rob\AppData\Local\Temp\ccAwpbdX.s:102    .text.test_printn:00000000 test_printn
C:\Users\Rob\AppData\Local\Temp\ccAwpbdX.s:187    .text.test_printn:0000005c $d
C:\Users\Rob\AppData\Local\Temp\ccAwpbdX.s:194    .text.test_print:00000000 $t
C:\Users\Rob\AppData\Local\Temp\ccAwpbdX.s:200    .text.test_print:00000000 test_print
C:\Users\Rob\AppData\Local\Temp\ccAwpbdX.s:237    .text.test_print:00000020 $d
C:\Users\Rob\AppData\Local\Temp\ccAwpbdX.s:242    .text.test_println:00000000 $t
C:\Users\Rob\AppData\Local\Temp\ccAwpbdX.s:248    .text.test_println:00000000 test_println
C:\Users\Rob\AppData\Local\Temp\ccAwpbdX.s:277    .text.test_println:00000018 $d
C:\Users\Rob\AppData\Local\Temp\ccAwpbdX.s:283    .text.test_emit_token:00000000 $t
C:\Users\Rob\AppData\Local\Temp\ccAwpbdX.s:289    .text.test_emit_token:00000000 test_emit_token
C:\Users\Rob\AppData\Local\Temp\ccAwpbdX.s:316    .text.test_emit_token:00000010 $d
C:\Users\Rob\AppData\Local\Temp\ccAwpbdX.s:321    .text._test_fail:00000000 $t
C:\Users\Rob\AppData\Local\Temp\ccAwpbdX.s:327    .text._test_fail:00000000 _test_fail
C:\Users\Rob\AppData\Local\Temp\ccAwpbdX.s:352    .text._test_fail:00000014 $d
C:\Users\Rob\AppData\Local\Temp\ccAwpbdX.s:359    .text._test_assert:00000000 $t
C:\Users\Rob\AppData\Local\Temp\ccAwpbdX.s:365    .text._test_assert:00000000 _test_assert
C:\Users\Rob\AppData\Local\Temp\ccAwpbdX.s:413    .text._test_assert:0000001c $d
C:\Users\Rob\AppData\Local\Temp\ccAwpbdX.s:420    .text._test_assert_sequence:00000000 $t
C:\Users\Rob\AppData\Local\Temp\ccAwpbdX.s:426    .text._test_assert_sequence:00000000 _test_assert_sequence
C:\Users\Rob\AppData\Local\Temp\ccAwpbdX.s:506    .text._test_assert_sequence:0000003c $d
C:\Users\Rob\AppData\Local\Temp\ccAwpbdX.s:515    .text._test_assert_time_window:00000000 $t
C:\Users\Rob\AppData\Local\Temp\ccAwpbdX.s:521    .text._test_assert_time_window:00000000 _test_assert_time_window
C:\Users\Rob\AppData\Local\Temp\ccAwpbdX.s:577    .text._test_assert_time_window:00000028 $d
C:\Users\Rob\AppData\Local\Temp\ccAwpbdX.s:584    .text.test_terminate_threads:00000000 $t
C:\Users\Rob\AppData\Local\Temp\ccAwpbdX.s:590    .text.test_terminate_threads:00000000 test_terminate_threads
C:\Users\Rob\AppData\Local\Temp\ccAwpbdX.s:624    .text.test_terminate_threads:00000018 $d
C:\Users\Rob\AppData\Local\Temp\ccAwpbdX.s:629    .text.test_wait_threads:00000000 $t
C:\Users\Rob\AppData\Local\Temp\ccAwpbdX.s:635    .text.test_wait_threads:00000000 test_wait_threads
C:\Users\Rob\AppData\Local\Temp\ccAwpbdX.s:675    .text.test_wait_threads:00000020 $d
C:\Users\Rob\AppData\Local\Temp\ccAwpbdX.s:680    .text.test_cpu_pulse:00000000 $t
C:\Users\Rob\AppData\Local\Temp\ccAwpbdX.s:686    .text.test_cpu_pulse:00000000 test_cpu_pulse
C:\Users\Rob\AppData\Local\Temp\ccAwpbdX.s:764    .text.test_cpu_pulse:0000004c $d
C:\Users\Rob\AppData\Local\Temp\ccAwpbdX.s:770    .text.test_wait_tick:00000000 $t
C:\Users\Rob\AppData\Local\Temp\ccAwpbdX.s:776    .text.test_wait_tick:00000000 test_wait_tick
C:\Users\Rob\AppData\Local\Temp\ccAwpbdX.s:799    .text.test_wait_tick:00000010 $d
C:\Users\Rob\AppData\Local\Temp\ccAwpbdX.s:804    .text.test_start_timer:00000000 $t
C:\Users\Rob\AppData\Local\Temp\ccAwpbdX.s:810    .text.test_start_timer:00000000 test_start_timer
C:\Users\Rob\AppData\Local\Temp\ccAwpbdX.s:855    .text.test_start_timer:00000028 $d
C:\Users\Rob\AppData\Local\Temp\ccAwpbdX.s:863    .text.TestThread:00000000 $t
C:\Users\Rob\AppData\Local\Temp\ccAwpbdX.s:869    .text.TestThread:00000000 TestThread
C:\Users\Rob\AppData\Local\Temp\ccAwpbdX.s:1219   .text.TestThread:000001b0 $d
C:\Users\Rob\AppData\Local\Temp\ccAwpbdX.s:1289   .bss.test_timer_done:00000000 test_timer_done
C:\Users\Rob\AppData\Local\Temp\ccAwpbdX.s:1295   .rodata.wa:00000000 wa
C:\Users\Rob\AppData\Local\Temp\ccAwpbdX.s:1416   .bss.threads:00000000 threads
C:\Users\Rob\AppData\Local\Temp\ccAwpbdX.s:1270   .bss.test:00000000 test
C:\Users\Rob\AppData\Local\Temp\ccAwpbdX.s:1267   .bss.test:00000000 $d
C:\Users\Rob\AppData\Local\Temp\ccAwpbdX.s:1273   .bss.failpoint:00000000 $d
C:\Users\Rob\AppData\Local\Temp\ccAwpbdX.s:1277   .bss.failpoint:00000000 failpoint
ARM GAS  C:\Users\Rob\AppData\Local\Temp\ccAwpbdX.s 			page 102


C:\Users\Rob\AppData\Local\Temp\ccAwpbdX.s:1283   .bss.local_fail:00000000 local_fail
C:\Users\Rob\AppData\Local\Temp\ccAwpbdX.s:1284   .bss.local_fail:00000000 $d
C:\Users\Rob\AppData\Local\Temp\ccAwpbdX.s:1290   .bss.test_timer_done:00000000 $d
C:\Users\Rob\AppData\Local\Temp\ccAwpbdX.s:1292   .rodata.wa:00000000 $d
C:\Users\Rob\AppData\Local\Temp\ccAwpbdX.s:1302   .bss.tokp:00000000 $d
C:\Users\Rob\AppData\Local\Temp\ccAwpbdX.s:1306   .bss.tokp:00000000 tokp
C:\Users\Rob\AppData\Local\Temp\ccAwpbdX.s:1312   .bss.global_fail:00000000 global_fail
C:\Users\Rob\AppData\Local\Temp\ccAwpbdX.s:1313   .bss.global_fail:00000000 $d
C:\Users\Rob\AppData\Local\Temp\ccAwpbdX.s:1315   .rodata.str1.4:00000000 $d
C:\Users\Rob\AppData\Local\Temp\ccAwpbdX.s:1405   .bss.vt:00000000 $d
C:\Users\Rob\AppData\Local\Temp\ccAwpbdX.s:1409   .bss.vt:00000000 vt
C:\Users\Rob\AppData\Local\Temp\ccAwpbdX.s:1412   .bss.threads:00000000 $d
C:\Users\Rob\AppData\Local\Temp\ccAwpbdX.s:1419   .rodata.patterns:00000000 $d
C:\Users\Rob\AppData\Local\Temp\ccAwpbdX.s:1423   .rodata.patterns:00000000 patterns
C:\Users\Rob\AppData\Local\Temp\ccAwpbdX.s:1437   .bss.chp:00000000 $d
C:\Users\Rob\AppData\Local\Temp\ccAwpbdX.s:1441   .bss.chp:00000000 chp
C:\Users\Rob\AppData\Local\Temp\ccAwpbdX.s:1444   .bss.tokens_buffer:00000000 $d
C:\Users\Rob\AppData\Local\Temp\ccAwpbdX.s:1448   .bss.tokens_buffer:00000000 tokens_buffer
                     .debug_frame:00000010 $d
C:\Users\Rob\AppData\Local\Temp\ccAwpbdX.s:42     .text.tmr:0000000c $t
C:\Users\Rob\AppData\Local\Temp\ccAwpbdX.s:95     .text.print_line:0000002c $t
C:\Users\Rob\AppData\Local\Temp\ccAwpbdX.s:241    .text.test_print:00000024 $t
C:\Users\Rob\AppData\Local\Temp\ccAwpbdX.s:320    .text.test_emit_token:00000014 $t
C:\Users\Rob\AppData\Local\Temp\ccAwpbdX.s:419    .text._test_assert:00000028 $t
C:\Users\Rob\AppData\Local\Temp\ccAwpbdX.s:583    .text._test_assert_time_window:00000034 $t
C:\Users\Rob\AppData\Local\Temp\ccAwpbdX.s:628    .text.test_terminate_threads:0000001c $t
C:\Users\Rob\AppData\Local\Temp\ccAwpbdX.s:679    .text.test_wait_threads:00000024 $t
C:\Users\Rob\AppData\Local\Temp\ccAwpbdX.s:769    .text.test_cpu_pulse:00000054 $t
C:\Users\Rob\AppData\Local\Temp\ccAwpbdX.s:803    .text.test_wait_tick:00000014 $t
C:\Users\Rob\AppData\Local\Temp\ccAwpbdX.s:862    .text.test_start_timer:00000038 $t

UNDEFINED SYMBOLS
__aeabi_uidivmod
__aeabi_uidiv
chTimeIsWithin
chThdTerminate
chThdWait
rlist
chThdSleep
vtlist
chVTSetI
patternthd
patternsem
patternmtx
patternmsg
patternmbox
patternevt
patternheap
patternpools
patterndyn
patternqueues
patternbmk
