ARM GAS  C:\Users\Rob\AppData\Local\Temp\ccPd5pBt.s 			page 1


   1              		.cpu cortex-m0
   2              		.fpu softvfp
   3              		.eabi_attribute 20, 1
   4              		.eabi_attribute 21, 1
   5              		.eabi_attribute 23, 3
   6              		.eabi_attribute 24, 1
   7              		.eabi_attribute 25, 1
   8              		.eabi_attribute 26, 1
   9              		.eabi_attribute 30, 2
  10              		.eabi_attribute 18, 4
  11              		.code	16
  12              		.file	"testpools.c"
  13              		.text
  14              	.Ltext0:
  15              		.cfi_sections	.debug_frame
  16              		.section	.text.null_provider,"ax",%progbits
  17              		.align	2
  18              		.p2align 4,,15
  19              		.code	16
  20              		.thumb_func
  21              		.type	null_provider, %function
  22              	null_provider:
  23              	.LFB7:
  24              		.file 1 "../../test/testpools.c"
  25              		.loc 1 60 0
  26              		.cfi_startproc
  27              	.LVL0:
  28              		.loc 1 64 0
  29 0000 0020     		mov	r0, #0
  30              	.LVL1:
  31              		@ sp needed for prologue
  32 0002 7047     		bx	lr
  33              		.cfi_endproc
  34              	.LFE7:
  35              		.size	null_provider, .-null_provider
  36 0004 C046C046 		.section	.text.pools1_setup,"ax",%progbits
  36      C046C046 
  36      C046C046 
  37              		.align	2
  38              		.p2align 4,,15
  39              		.code	16
  40              		.thumb_func
  41              		.type	pools1_setup, %function
  42              	pools1_setup:
  43              	.LFB8:
  44              		.loc 1 66 0
  45              		.cfi_startproc
  46 0000 08B5     		push	{r3, lr}
  47              	.LCFI0:
  48              		.cfi_def_cfa_offset 8
  49              		.cfi_offset 3, -8
  50              		.cfi_offset 14, -4
  51              		.loc 1 68 0
  52 0002 9821     		mov	r1, #152
  53 0004 0248     		ldr	r0, .L3
  54 0006 4900     		lsl	r1, r1, #1
  55 0008 0022     		mov	r2, #0
ARM GAS  C:\Users\Rob\AppData\Local\Temp\ccPd5pBt.s 			page 2


  56 000a FFF7FEFF 		bl	chPoolInit
  57              		.loc 1 69 0
  58              		@ sp needed for prologue
  59 000e 08BD     		pop	{r3, pc}
  60              	.L4:
  61              		.align	2
  62              	.L3:
  63 0010 00000000 		.word	.LANCHOR0
  64              		.cfi_endproc
  65              	.LFE8:
  66              		.size	pools1_setup, .-pools1_setup
  67 0014 C046C046 		.section	.text.pools1_execute,"ax",%progbits
  67      C046C046 
  67      C046C046 
  68              		.align	2
  69              		.p2align 4,,15
  70              		.code	16
  71              		.thumb_func
  72              		.type	pools1_execute, %function
  73              	pools1_execute:
  74              	.LFB9:
  75              		.loc 1 71 0
  76              		.cfi_startproc
  77 0000 F8B5     		push	{r3, r4, r5, r6, r7, lr}
  78              	.LCFI1:
  79              		.cfi_def_cfa_offset 24
  80              		.cfi_offset 3, -24
  81              		.cfi_offset 4, -20
  82              		.cfi_offset 5, -16
  83              		.cfi_offset 6, -12
  84              		.cfi_offset 7, -8
  85              		.cfi_offset 14, -4
  86              		.loc 1 75 0
  87 0002 2C4B     		ldr	r3, .L16
  88 0004 2C4C     		ldr	r4, .L16+4
  89 0006 1E68     		ldr	r6, [r3]
  90 0008 201C     		mov	r0, r4
  91 000a 311C     		mov	r1, r6
  92 000c 0522     		mov	r2, #5
  93 000e FFF7FEFF 		bl	chPoolLoadArray
  94              	.LVL2:
  95 0012 0525     		mov	r5, #5
  96              	.LVL3:
  97              	.L7:
  98              		.loc 1 79 0
  99 0014 201C     		mov	r0, r4
 100 0016 FFF7FEFF 		bl	chPoolAlloc
 101 001a 011C     		mov	r1, r0
 102 001c 481E     		sub	r0, r1, #1
 103 001e 8141     		sbc	r1, r1, r0
 104 0020 0120     		mov	r0, #1
 105 0022 FFF7FEFF 		bl	_test_assert
 106 0026 0028     		cmp	r0, #0
 107 0028 35D1     		bne	.L5
 108 002a 013D     		sub	r5, r5, #1
 109              		.loc 1 78 0
 110 002c 002D     		cmp	r5, #0
ARM GAS  C:\Users\Rob\AppData\Local\Temp\ccPd5pBt.s 			page 3


 111 002e F1D1     		bne	.L7
 112              		.loc 1 82 0
 113 0030 201C     		mov	r0, r4
 114 0032 FFF7FEFF 		bl	chPoolAlloc
 115 0036 4142     		neg	r1, r0
 116 0038 4141     		adc	r1, r1, r0
 117 003a 0220     		mov	r0, #2
 118 003c FFF7FEFF 		bl	_test_assert
 119 0040 0028     		cmp	r0, #0
 120 0042 28D1     		bne	.L5
 121 0044 1D4D     		ldr	r5, .L16+8
 122              	.LBB4:
 123              	.LBB5:
 124              		.loc 1 86 0
 125 0046 201C     		mov	r0, r4
 126              	.LBE5:
 127              	.LBE4:
 128              		.loc 1 71 0
 129 0048 2F1C     		mov	r7, r5
 130 004a 1037     		add	r7, r7, #16
 131              	.LBB8:
 132              	.LBB6:
 133              		.loc 1 86 0
 134 004c 311C     		mov	r1, r6
 135 004e FFF7FEFF 		bl	chPoolFree
 136              		.loc 1 85 0
 137 0052 BD42     		cmp	r5, r7
 138 0054 06D0     		beq	.L10
 139              	.LVL4:
 140              	.L14:
 141 0056 40CD     		ldmia	r5!, {r6}
 142              		.loc 1 86 0
 143 0058 201C     		mov	r0, r4
 144 005a 311C     		mov	r1, r6
 145 005c FFF7FEFF 		bl	chPoolFree
 146              		.loc 1 85 0
 147 0060 BD42     		cmp	r5, r7
 148 0062 F8D1     		bne	.L14
 149              	.L10:
 150 0064 0525     		mov	r5, #5
 151              	.L8:
 152              		.loc 1 90 0
 153 0066 201C     		mov	r0, r4
 154 0068 FFF7FEFF 		bl	chPoolAlloc
 155 006c 011C     		mov	r1, r0
 156 006e 481E     		sub	r0, r1, #1
 157 0070 8141     		sbc	r1, r1, r0
 158 0072 0320     		mov	r0, #3
 159 0074 FFF7FEFF 		bl	_test_assert
 160 0078 0028     		cmp	r0, #0
 161 007a 0CD1     		bne	.L5
 162 007c 013D     		sub	r5, r5, #1
 163              		.loc 1 89 0
 164 007e 002D     		cmp	r5, #0
 165 0080 F1D1     		bne	.L8
 166              		.loc 1 93 0
 167 0082 201C     		mov	r0, r4
ARM GAS  C:\Users\Rob\AppData\Local\Temp\ccPd5pBt.s 			page 4


 168 0084 FFF7FEFF 		bl	chPoolAlloc
 169 0088 4142     		neg	r1, r0
 170 008a 4141     		adc	r1, r1, r0
 171 008c 0420     		mov	r0, #4
 172 008e FFF7FEFF 		bl	_test_assert
 173 0092 0028     		cmp	r0, #0
 174 0094 00D0     		beq	.L15
 175              	.L5:
 176              	.LBE6:
 177              	.LBE8:
 178              		.loc 1 98 0
 179              		@ sp needed for prologue
 180 0096 F8BD     		pop	{r3, r4, r5, r6, r7, pc}
 181              	.L15:
 182              	.LBB9:
 183              	.LBB7:
 184              		.loc 1 96 0
 185 0098 201C     		mov	r0, r4
 186 009a 1021     		mov	r1, #16
 187 009c 084A     		ldr	r2, .L16+12
 188 009e FFF7FEFF 		bl	chPoolInit
 189              		.loc 1 97 0
 190 00a2 201C     		mov	r0, r4
 191 00a4 FFF7FEFF 		bl	chPoolAlloc
 192 00a8 4142     		neg	r1, r0
 193 00aa 4141     		adc	r1, r1, r0
 194 00ac 0520     		mov	r0, #5
 195 00ae FFF7FEFF 		bl	_test_assert
 196 00b2 F0E7     		b	.L5
 197              	.L17:
 198              		.align	2
 199              	.L16:
 200 00b4 00000000 		.word	wa
 201 00b8 00000000 		.word	.LANCHOR0
 202 00bc 04000000 		.word	wa+4
 203 00c0 00000000 		.word	null_provider
 204              	.LBE7:
 205              	.LBE9:
 206              		.cfi_endproc
 207              	.LFE9:
 208              		.size	pools1_execute, .-pools1_execute
 209              		.global	patternpools
 210              		.global	testpools1
 211 00c4 C046C046 		.section	.rodata.str1.4,"aMS",%progbits,1
 211      C046C046 
 211      C046C046 
 212              		.align	2
 213              	.LC8:
 214 0000 4D656D6F 		.ascii	"Memory Pools, queue/dequeue\000"
 214      72792050 
 214      6F6F6C73 
 214      2C207175 
 214      6575652F 
 215              		.section	.rodata.patternpools,"a",%progbits
 216              		.align	2
 217              		.type	patternpools, %object
 218              		.size	patternpools, 8
ARM GAS  C:\Users\Rob\AppData\Local\Temp\ccPd5pBt.s 			page 5


 219              	patternpools:
 220 0000 00000000 		.word	testpools1
 221 0004 00000000 		.word	0
 222              		.section	.data.mp1,"aw",%progbits
 223              		.align	2
 224              		.set	.LANCHOR0,. + 0
 225              		.type	mp1, %object
 226              		.size	mp1, 12
 227              	mp1:
 228 0000 00000000 		.word	0
 229 0004 30010000 		.word	304
 230 0008 00000000 		.word	0
 231              		.section	.rodata.testpools1,"a",%progbits
 232              		.align	2
 233              		.type	testpools1, %object
 234              		.size	testpools1, 16
 235              	testpools1:
 236 0000 00000000 		.word	.LC8
 237 0004 00000000 		.word	pools1_setup
 238 0008 00000000 		.word	0
 239 000c 00000000 		.word	pools1_execute
 240              		.text
 241              	.Letext0:
 242              		.file 2 "c:\\yagarto\\bin\\../lib/gcc/arm-none-eabi/4.6.2/include/stddef.h"
 243              		.file 3 "../../os/kernel/include/chmemcore.h"
 244              		.file 4 "../../os/kernel/include/chmempools.h"
 245              		.file 5 "../../test/test.h"